  ExifToolVersion = 13.59
  FileName = media_86.avif
  Directory = C:/Users/micro/IdeaProjects/kim/src/commonTest/resources/de/stefan_oltmann/kim/testdata/full
  FileSize = 633779
  FileModifyDate = 1777200767.91457
  FileAccessDate = 1786601590.08352
  FileCreateDate = 1777200767.91457
  FilePermissions = 33206
  FileType = AVIF
  FileTypeExtension = AVIF
  MIMEType = image/avif
  FileType (SubDirectory) -->
  - Tag 'ftyp' (36 bytes):
      0008: 61 76 69 73 00 00 00 00 61 76 69 66 61 76 69 73 [avis....avifavis]
      0018: 6d 73 66 31 69 73 6f 38 6d 69 66 31 6d 69 61 66 [msf1iso8mif1miaf]
      0028: 4d 41 31 41                                     [MA1A]
  + [BinaryData directory, 36 bytes, Big-endian]
  | MajorBrand = avis
  | - Tag 0x0000 (4 bytes, undef[4]):
  |     0008: 61 76 69 73                                     [avis]
  | MinorVersion = 
  | - Tag 0x0001 (4 bytes, undef[4]):
  |     000c: 00 00 00 00                                     [....]
  | CompatibleBrands = avifavismsf1iso8mif1miafMA1A
  | - Tag 0x0002 (28 bytes, undef[28]):
  |     0010: 61 76 69 66 61 76 69 73 6d 73 66 31 69 73 6f 38 [avifavismsf1iso8]
  |     0020: 6d 69 66 31 6d 69 61 66 4d 41 31 41             [mif1miafMA1A]
  Meta (SubDirectory) -->
  - Tag 'meta' (364 bytes):
      0034: 00 00 00 00 00 00 00 21 68 64 6c 72 00 00 00 00 [.......!hdlr....]
      0044: 00 00 00 00 70 69 63 74 00 00 00 00 00 00 00 00 [....pict........]
      0054: 00 00 00 00 00 00 00 00 0e 70 69 74 6d 00 00 00 [.........pitm...]
      0064: 00 00 01 00 00 00 3a 69 6c 6f 63 00 00 00 00 44 [......:iloc....D]
      0074: 00 00 03 00 01 00 00 00 01 00 00 a0 0b 00 04 9a [................]
      0084: 2b 00 02 00 00 00 01 00 00 05 1a 00 00 46 72 00 [+............Fr.]
      0094: 03 00 00 00 01 00 00 4b 8c 00 00 54 7f 00 00 00 [.......K...T....]
      00a4: 6d 69 69 6e 66 00 00 00 00 00 03 00 00 00 1a 69 [miinf..........i]
      00b4: 6e 66 65 02 00 00 00 00 01 00 00 61 76 30 31 43 [nfe........av01C]
      00c4: 6f 6c 6f 72 00 00 00 00 19 69 6e 66 65 02 00 00 [olor.....infe...]
      00d4: 00 00 02 00 00 45 78 69 66 45 78 69 66 00 00 00 [.....ExifExif...]
      00e4: 00 2c 69 6e 66 65 02 00 00 00 00 03 00 00 6d 69 [.,infe........mi]
      00f4: 6d 65 58 4d 50 00 61 70 70 6c 69 63 61 74 69 6f [meXMP.applicatio]
      0104: 6e 2f 72 64 66 2b 78 6d 6c 00 00 00 00 28 69 72 [n/rdf+xml....(ir]
      0114: 65 66 00 00 00 00 00 00 00 0e 63 64 73 63 00 02 [ef........cdsc..]
      0124: 00 01 00 01 00 00 00 0e 63 64 73 63 00 03 00 01 [........cdsc....]
      0134: 00 01 00 00 00 6a 69 70 72 70 00 00 00 4b 69 70 [.....jiprp...Kip]
      0144: 63 6f 00 00 00 14 69 73 70 65 00 00 00 00 00 00 [co....ispe......]
      0154: 15 60 00 00 0e 40 00 00 00 10 70 69 78 69 00 00 [.`...@....pixi..]
      0164: 00 00 03 08 08 08 00 00 00 0c 61 76 31 43 81 30 [..........av1C.0]
      0174: 00 00 00 00 00 13 63 6f 6c 72 6e 63 6c 78 00 01 [......colrnclx..]
      0184: 00 02 00 06 80 00 00 00 17 69 70 6d 61 00 00 00 [.........ipma...]
      0194: 00 00 00 00 01 00 01 04 01 02 83 04             [............]
  + [Meta directory]
  | Handler (SubDirectory) -->
  | - Tag 'hdlr' (25 bytes):
  |     0040: 00 00 00 00 00 00 00 00 70 69 63 74 00 00 00 00 [........pict....]
  |     0050: 00 00 00 00 00 00 00 00 00                      [.........]
  | + [BinaryData directory, 25 bytes, Big-endian]
  | | HandlerClass = 
  | | - Tag 0x0004 (4 bytes, undef[4]):
  | |     0044: 00 00 00 00                                     [....]
  | | HandlerType = pict
  | | - Tag 0x0008 (4 bytes, undef[4]):
  | |     0048: 70 69 63 74                                     [pict]
  | | HandlerVendorID = 
  | | - Tag 0x000c (4 bytes, undef[4]):
  | |     004c: 00 00 00 00                                     [....]
  | | HandlerDescription = 
  | | - Tag 0x0018 (1 bytes, string[1]):
  | |     0058: 00                                              [.]
  | PrimaryItemReference = .
  | - Tag 'pitm' (6 bytes):
  |     0061: 00 00 00 00 00 01                               [......]
  | ItemLocation = D.......+....Fr..K.T.
  | - Tag 'iloc' (50 bytes):
  |     006f: 00 00 00 00 44 00 00 03 00 01 00 00 00 01 00 00 [....D...........]
  |     007f: a0 0b 00 04 9a 2b 00 02 00 00 00 01 00 00 05 1a [.....+..........]
  |     008f: 00 00 46 72 00 03 00 00 00 01 00 00 4b 8c 00 00 [..Fr........K...]
  |     009f: 54 7f                                           [T.]
  |   Item 1: const_meth= base=0x0 offset=0xa00b len=0x49a2b
  |   Item 2: const_meth= base=0x0 offset=0x51a len=0x4672
  |   Item 3: const_meth= base=0x0 offset=0x4b8c len=0x547f
  | ItemInformation (SubDirectory) -->
  | - Tag 'iinf' (101 bytes):
  |     00a9: 00 00 00 00 00 03 00 00 00 1a 69 6e 66 65 02 00 [..........infe..]
  |     00b9: 00 00 00 01 00 00 61 76 30 31 43 6f 6c 6f 72 00 [......av01Color.]
  |     00c9: 00 00 00 19 69 6e 66 65 02 00 00 00 00 02 00 00 [....infe........]
  |     00d9: 45 78 69 66 45 78 69 66 00 00 00 00 2c 69 6e 66 [ExifExif....,inf]
  |     00e9: 65 02 00 00 00 00 03 00 00 6d 69 6d 65 58 4d 50 [e........mimeXMP]
  |     00f9: 00 61 70 70 6c 69 63 61 74 69 6f 6e 2f 72 64 66 [.application/rdf]
  |     0109: 2b 78 6d 6c 00                                  [+xml.]
  | + [ItemInformation directory]
  | | ItemInfoEntry = ..av01Color
  | | - Tag 'infe' (18 bytes):
  | |     00b7: 02 00 00 00 00 01 00 00 61 76 30 31 43 6f 6c 6f [........av01Colo]
  | |     00c7: 72 00                                           [r.]
  | |   Item 1: Type=av01 Name=Color ContentType= (PrimaryItem)
  | | ItemInfoEntry = ..ExifExif
  | | - Tag 'infe' (17 bytes):
  | |     00d1: 02 00 00 00 00 02 00 00 45 78 69 66 45 78 69 66 [........ExifExif]
  | |     00e1: 00                                              [.]
  | |   Item 2: Type=Exif Name=Exif ContentType=
  | | ItemInfoEntry = ..mimeXMPapplication/rdf+xml
  | | - Tag 'infe' (36 bytes):
  | |     00ea: 02 00 00 00 00 03 00 00 6d 69 6d 65 58 4d 50 00 [........mimeXMP.]
  | |     00fa: 61 70 70 6c 69 63 61 74 69 6f 6e 2f 72 64 66 2b [application/rdf+]
  | |     010a: 78 6d 6c 00                                     [xml.]
  | |   Item 3: Type=mime Name=XMP ContentType=application/rdf+xml
  | ItemReference (SubDirectory) -->
  | - Tag 'iref' (32 bytes):
  |     0116: 00 00 00 00 00 00 00 0e 63 64 73 63 00 02 00 01 [........cdsc....]
  |     0126: 00 01 00 00 00 0e 63 64 73 63 00 03 00 01 00 01 [......cdsc......]
  | + [ItemReference directory]
  | | ContentDescribes = ...
  | | - Tag 'cdsc' (6 bytes):
  | |     0122: 00 02 00 01 00 01                               [......]
  | |   Item 2 refers to: 1
  | | ContentDescribes = ...
  | | - Tag 'cdsc' (6 bytes):
  | |     0130: 00 03 00 01 00 01                               [......]
  | |   Item 3 refers to: 1
  | ItemProperties (SubDirectory) -->
  | - Tag 'iprp' (98 bytes):
  |     013e: 00 00 00 4b 69 70 63 6f 00 00 00 14 69 73 70 65 [...Kipco....ispe]
  |     014e: 00 00 00 00 00 00 15 60 00 00 0e 40 00 00 00 10 [.......`...@....]
  |     015e: 70 69 78 69 00 00 00 00 03 08 08 08 00 00 00 0c [pixi............]
  |     016e: 61 76 31 43 81 30 00 00 00 00 00 13 63 6f 6c 72 [av1C.0......colr]
  |     017e: 6e 63 6c 78 00 01 00 02 00 06 80 00 00 00 17 69 [nclx...........i]
  |     018e: 70 6d 61 00 00 00 00 00 00 00 01 00 01 04 01 02 [pma.............]
  |     019e: 83 04                                           [..]
  | + [ItemProperties directory]
  | | ItemPropertyContainer (SubDirectory) -->
  | | - Tag 'ipco' (67 bytes):
  | |     0146: 00 00 00 14 69 73 70 65 00 00 00 00 00 00 15 60 [....ispe.......`]
  | |     0156: 00 00 0e 40 00 00 00 10 70 69 78 69 00 00 00 00 [...@....pixi....]
  | |     0166: 03 08 08 08 00 00 00 0c 61 76 31 43 81 30 00 00 [........av1C.0..]
  | |     0176: 00 00 00 13 63 6f 6c 72 6e 63 6c 78 00 01 00 02 [....colrnclx....]
  | |     0186: 00 06 80                                        [...]
  | | [Process ipco box later]
  | | ItemPropertyAssociation = .......
  | | - Tag 'ipma' (15 bytes):
  | |     0191: 00 00 00 00 00 00 00 01 00 01 04 01 02 83 04    [...............]
  | |   Item 1 properties: 1 2 3 4
  + [Processing items from ItemInformation directory with 3 entries]
  | Item 1) 'av01' (301611 bytes)
  |     a00b: 12 00 0a 0e 20 00 00 83 2e ab fc 7e e5 7c 90 10 [.... ......~.|..]
  |     a01b: 20 69 32 95 b4 12 14 00 34 a6 30 61 24 90 00 94 [ i2.....4.0a$...]
  |     a02b: 20 00 b2 00 b5 04 00 00 25 df 9f fd 2d 8e 33 45 [ .......%...-.3E]
  |     a03b: f9 f4 2d e1 7f a1 ef a4 07 5c 6d 11 7f 1e 0a dc [..-......\m.....]
  |     a04b: a9 8b a0 7e af 04 8a f6 7a ef da 4a 08 a9 ff 46 [...~....z..J...F]
  |     a05b: cb c5 78 70 ce 75 5b 2f 21 e3 3b 65 41 c8 24 c3 [..xp.u[/!.;eA.$.]
  |     a06b: d8 a1 fb 67 68 7f 2e 2f 44 20 7f db d6 40 a0 05 [...gh../D ...@..]
  |     a07b: 78 b6 43 fa b5 43 ff c7 bf 6d c1 53 3e 27 88 e6 [x.C..C...m.S>'..]
  |     a08b: b2 20 58 6f ae 6d 29 67 03 c2 e3 a3 83 56 92 58 [. Xo.m)g.....V.X]
  |     a09b: 2f 90 42 46 fa b9 7d ec ae b5 28 0d f1 ef 5c 6f [/.BF..}...(...\o]
  |     a0ab: b6 0d 66 f5 b9 c9 7f 20 46 9a 24 c7 89 5e 03 96 [..f.... F.$..^..]
  |     a0bb: 60 e0 1c a7 74 fc 35 65 47 69 c3 c9 6b d7 b5 f0 [`...t.5eGi..k...]
  |     a0cb: d8 2f f7 93 2a a3 d0 01 af 1a cb 16 87 43 bb e7 [./..*........C..]
  |     a0db: 4c d9 ce d2 a7 cd 56 e8 8c 81 ad 37 9e 27 b6 ab [L.....V....7.'..]
  |     a0eb: c1 a1 df 2b 29 f3 65 b5 10 a5 04 1d a6 eb f6 eb [...+).e.........]
  |     a0fb: 01 80 e8 7e 05 4f e7 0e fe f7 3f db 98 d8 07 d6 [...~.O....?.....]
  |     a10b: 62 87 97 be fc 39 9f b6 8f d7 ce 1b 07 47 ff ef [b....9.......G..]
  |     a11b: 35 c4 c6 56 dc 24 5d aa 72 e1 7e a4 7b 5d d6 74 [5..V.$].r.~.{].t]
  |     a12b: 60 08 d3 9b d3 ae cf b9 cf 9a 2e 87 ce a2 02 04 [`...............]
  |     a13b: 74 48 13 a9 be 6f 7d ac f8 23 b5 af 50 8d c6 c7 [tH...o}..#..P...]
  |     a14b: be 08 7e 6e 0b e2 63 eb 2f 0a 19 8c 0d df 2f 12 [..~n..c./...../.]
  |     a15b: 28 ea f3 69 5d 82 bc 64 5e 32 9b fb 1a 74 cd f5 [(..i]..d^2...t..]
  |     a16b: ab 94 c8 b0 fa b2 d5 9a 05 b8 e0 72 d2 6c e8 36 [...........r.l.6]
  |     a17b: 8a 98 f4 c9 8d cd 1f 18 13 d0 f3 aa e7 51 cd 4d [.............Q.M]
  |     a18b: 28 a1 68 80 5d 5d 80 61 36 07 b3 70 77 ae ab a3 [(.h.]].a6..pw...]
  |     a19b: fa 26 5c c7 51 fc c5 c3 1a 1e 22 71 e7 82 60 62 [.&\.Q....."q..`b]
  |     a1ab: bf 90 aa 14 88 c7 ea 24 09 a3 f6 6e a5 62 37 88 [.......$...n.b7.]
  |     a1bb: 16 c8 79 a4 f7 fe bd dc 81 48 4c f7 62 15 5e 58 [..y......HL.b.^X]
  |     a1cb: 14 ac e7 ed ba ea be 5e e7 0f 92 8e de 58 f6 fc [.......^.....X..]
  |     a1db: 39 a7 c1 ee 88 d5 33 5c 4b 34 09 1e 4e 34 6a ee [9.....3\K4..N4j.]
  |     a1eb: 95 ea d0 8d 67 ac 67 6b 1b 56 ae 5f 32 f8 03 cc [....g.gk.V._2...]
  |     a1fb: 7a 93 6c cd 95 5b e2 41 40 e6 82 08 9f 1a 18 c5 [z.l..[.A@.......]
  |     a20b: 8d 7c f7 7f 9e 0c 71 6b 35 3c 3c a4 41 a3 ab 99 [.|....qk5<<.A...]
  |     a21b: 53 d6 1c 3c 62 71 22 3c 89 e5 26 3d 5a c5 ac 9b [S..<bq"<..&=Z...]
  |     a22b: c5 c6 85 a6 29 10 c7 ec 6a 8a 36 cd 1f ba 79 82 [....)...j.6...y.]
  |     a23b: 7b ad c6 54 75 6e 53 3c 6b 28 74 e0 28 82 a4 8e [{..TunS<k(t.(...]
  |     a24b: 52 99 19 30 c5 0c 21 33 ba d0 f9 67 3d 23 a3 6e [R..0..!3...g=#.n]
  |     a25b: 7a de 99 89 10 05 bc ec 6a 9f 58 71 5e 41 34 60 [z.......j.Xq^A4`]
  |     a26b: 75 4e 19 c6 35 d4 17 cb 8d 38 64 47 bd f8 e3 24 [uN..5....8dG...$]
  |     a27b: 40 1e 36 59 74 34 d2 58 db 19 59 66 8e b0 ef 98 [@.6Yt4.X..Yf....]
  |     a28b: 16 2e 0c cb 18 03 7e 51 99 8d 3d cc e0 b3 f8 ed [......~Q..=.....]
  |     a29b: 2c 01 9a 92 61 96 5a 47 b9 83 e7 a8 09 bd 9e 34 [,...a.ZG.......4]
  |     a2ab: d1 22 69 1a 8a 22 4a 5a e9 15 09 f1 75 bf ac bf [."i.."JZ....u...]
  |     a2bb: 8b 62 50 cd cd a7 7c 16 25 dc 6f f2 5a 19 0c 55 [.bP...|.%.o.Z..U]
  |     a2cb: 60 a1 bb d4 84 9b e1 f0 a5 67 ed be 22 8d 28 89 [`........g..".(.]
  |     a2db: e0 3a f6 2f b8 84 1e 77 a5 ba 7a e3 10 03 96 20 [.:./...w..z.... ]
  |     a2eb: 11 33 88 7e 8e ca 0f 84 57 3e 04 74 24 8b 6b 96 [.3.~....W>.t$.k.]
  |     a2fb: 9a 55 6e 36 a0 7b 7a ca dd 6a 88 f8 d1 3e 96 b2 [.Un6.{z..j...>..]
  |     a30b: 30 78 42 35 2d 6e ce 2d d1 ef 27 02 72 29 60 0c [0xB5-n.-..'.r)`.]
  |     a31b: 88 b8 8a df 7c 4e c8 3d b1 73 ff 14 e5 7d 22 b6 [....|N.=.s...}".]
  |     a32b: 88 d8 91 3b ab 52 28 3c d6 43 c7 c6 ac d9 4e fe [...;.R(<.C....N.]
  |     a33b: 1d 20 33 19 7c 5c 48 d0 d0 bf 4c 95 e8 73 62 19 [. 3.|\H...L..sb.]
  |     a34b: 3a 5e 4c 53 b9 c0 0f 91 fc 6a 2d fc b0 0a 8b f1 [:^LS.....j-.....]
  |     a35b: 5f cf d6 28 b1 80 18 29 1c dd e3 08 08 2e 5b 9c [_..(...)......[.]
  |     a36b: b1 fc aa b7 6d c3 b3 0b 21 b2 eb 6f b3 c0 2c dd [....m...!..o..,.]
  |     a37b: d4 93 00 a9 bf 61 43 be 0b 13 37 3a f7 6f 93 96 [.....aC...7:.o..]
  |     a38b: 03 72 6d e9 1a f5 c3 33 d2 79 a8 a1 09 80 30 2b [.rm....3.y....0+]
  |     a39b: 28 f8 dd 7b f3 27 b3 2b 71 bd a5 f6 cb 43 04 de [(..{.'.+q....C..]
  |     a3ab: 76 c1 ac 1b 5e a6 bf 93 84 a7 8c 4c 39 a3 9e 59 [v...^......L9..Y]
  |     a3bb: a2 74 50 a7 54 f2 21 c3 75 ac dd dd 6f ef d4 4d [.tP.T.!.u...o..M]
  |     a3cb: bc 8b 86 cc 36 89 5c e6 a9 b9 c0 51 da 8d 96 8a [....6.\....Q....]
  |     a3db: 3e 44 d8 d7 83 ea 61 b2 dc f5 72 5b 39 df 55 f4 [>D....a...r[9.U.]
  |     a3eb: ff 27 52 54 b4 0e c5 fd ec 0f 68 27 2f d5 88 fe [.'RT......h'/...]
  |     a3fb: 1a 84 d3 2b 27 1d 21 9c 35 17 de 36 c3 25 af fc [...+'.!.5..6.%..]
  |     a40b: a8 17 86 47 53 bb 34 c9 ad 30 74 54 b4 3d e2 f2 [...GS.4..0tT.=..]
  |     a41b: 74 74 e5 c8 ee 7e 41 24 58 92 22 c1 ea 4e 21 e7 [tt...~A$X."..N!.]
  |     a42b: e7 cf 42 48 6b 39 d4 8e 93 4e 4e da e5 31 c2 d3 [..BHk9...NN..1..]
  |     a43b: 57 15 65 d6 cd ca 5d c1 80 2b a2 56 75 75 ee 8e [W.e...]..+.Vuu..]
  |     a44b: 27 06 54 10 39 70 bf 82 a8 7b 11 82 25 f4 86 35 ['.T.9p...{..%..5]
  |     a45b: 7f a0 30 bb 0b 73 c2 01 ab 12 80 4b c1 e3 62 2e [..0..s.....K..b.]
  |     a46b: 5b 0e 92 a0 8b bc 25 93 34 d5 db ae c4 e8 2f 37 [[.....%.4...../7]
  |     a47b: e5 7b 21 c2 c4 d2 9e 20 f9 35 e0 cb 4c 99 13 bf [.{!.... .5..L...]
  |     a48b: 53 7c b8 78 28 82 ff a3 c9 5f e2 3a 5c c9 70 84 [S|.x(...._.:\.p.]
  |     a49b: 32 06 71 38 5d e4 11 e4 4d 77 6e b9 32 0a d3 0e [2.q8]...Mwn.2...]
  |     a4ab: 0e 03 0a ec 0c 89 21 11 d7 56 e6 7a b0 a2 99 15 [......!..V.z....]
  |     a4bb: d2 3f 67 1d 57 8d f1 81 12 69 2c db 71 ee 44 1e [.?g.W....i,.q.D.]
  |     a4cb: 65 ee 0b d5 f2 ce 76 c8 11 4d dc 72 e6 2a 16 40 [e.....v..M.r.*.@]
  |     a4db: e2 34 cd dc a1 e0 28 35 d2 08 96 04 98 a8 07 00 [.4....(5........]
  |     a4eb: df 4f bc c2 a1 8a 76 46 1c 43 cd 73 78 e3 f5 c6 [.O....vF.C.sx...]
  |     a4fb: 0c 5c 3e 98 5f a4 a9 95 12 e7 bd 76 e0 cc d6 0c [.\>._......v....]
  |     a50b: f4 77 dd bf 0e b6 df 94 55 f4 d2 e0 cc 92 9f 59 [.w......U......Y]
  |     a51b: 9d f3 a3 60 00 7c 19 a5 2b ae 0f 46 21 ff 31 b4 [...`.|..+..F!.1.]
  |     a52b: 24 76 ad 56 4d 5e 4c 62 7d 7c a6 90 a4 0e 70 c1 [$v.VM^Lb}|....p.]
  |     a53b: c8 d1 c5 0f 2e 7f cb cd 03 4d 4d 4d f8 f2 59 b3 [.........MMM..Y.]
  |     a54b: a9 35 82 ef 8b 6a 17 a5 7a 78 c6 78 3c 7e 16 14 [.5...j..zx.x<~..]
  |     a55b: a7 a1 7a 46 f8 e6 be b0 c2 0b 4e f8 2c c1 34 8d [..zF......N.,.4.]
  |     a56b: 12 08 a1 44 6c c8 d0 8a 1c 28 39 87 20 f0 1c 20 [...Dl....(9. .. ]
  |     a57b: 61 49 f8 8f 98 ea 62 0c 48 c0 45 91 37 a6 f4 b4 [aI....b.H.E.7...]
  |     a58b: 72 57 4b c7 c1 ef 7b d2 8b f0 ee a0 3d da 3d d3 [rWK...{.....=.=.]
  |     a59b: 38 02 12 75 33 0f 03 ae ff 9c 7f da 42 03 f1 2d [8..u3.......B..-]
  |     a5ab: 57 f3 c8 30 a3 af 3a a1 92 ae b7 7f fa 88 27 51 [W..0..:.......'Q]
  |     a5bb: fd 20 f3 4f 82 f3 00 71 5a 6d 74 5c e0 7c dd 07 [. .O...qZmt\.|..]
  |     a5cb: 25 6e d9 f7 56 91 31 c7 14 05 c9 e2 c5 15 1c 4e [%n..V.1........N]
  |     a5db: 9f 7c fe 87 74 5b fc c2 02 e8 bb 41 90 f9 ed 77 [.|..t[.....A...w]
  |     a5eb: f7 77 dd 03 00 a2 dc d9 cc be 37 37 e2 51 6e 93 [.w........77.Qn.]
  |     a5fb: 11 d8 07 25 5d b5 69 4c 17 ba 1d 1b 24 3c 2f f6 [...%].iL....$</.]
  |     a60b: cc e4 33 e6 78 23 67 38 fb 79 4d af ca 1b 83 fb [..3.x#g8.yM.....]
  |     a61b: 1c 3a 0f cc d6 6e 46 d7 78 45 09 27 1d 0f b8 d4 [.:...nF.xE.'....]
  |     a62b: 0c 7a e5 38 31 07 41 68 25 d2 03 07 2a 3f b2 59 [.z.81.Ah%...*?.Y]
  |     a63b: 5d cd 1e f5 40 13 bb 5b 01 f0 74 44 41 fe 71 76 []...@..[..tDA.qv]
  |     a64b: 9c 42 e2 75 ea 72 a6 76 fa 1f 86 39 c0 c4 14 7a [.B.u.r.v...9...z]
  |     a65b: c1 a7 eb 3a 5e 7b ef d8 94 12 77 1b bb 88 23 10 [...:^{....w...#.]
  |     a66b: 97 90 c0 47 e7 48 dd 41 3b 4f bf 31 c2 c4 2b 4f [...G.H.A;O.1..+O]
  |     a67b: 25 8b 7b b6 b2 83 0d aa 3c d7 18 5b 5e f5 f3 30 [%.{.....<..[^..0]
  |     a68b: 78 6b 86 77 a2 b7 4b 62 4a dc 30 53 2d e1 9e a7 [xk.w..KbJ.0S-...]
  |     a69b: 95 4d 1b d0 3e ae f7 35 be 72 54 af bd ae 26 e8 [.M..>..5.rT...&.]
  |     a6ab: 9c a3 68 93 c0 30 e6 3c 94 73 50 ed 4d 05 48 7c [..h..0.<.sP.M.H|]
  |     a6bb: 8b eb b9 20 2d bb 5a 1c 04 ea c3 a4 bd f6 b5 04 [... -.Z.........]
  |     a6cb: 6e a4 67 97 d5 5a ef df a1 6d 72 7c d9 93 fb 27 [n.g..Z...mr|...']
  |     a6db: c6 e2 40 57 69 6e 82 f8 91 64 25 e6 2f 3d cc da [..@Win...d%./=..]
  |     a6eb: 7d 97 91 6e 83 e0 53 d3 0e 64 95 b7 90 4f 35 43 [}..n..S..d...O5C]
  |     a6fb: 34 b4 ab 49 e1 1b e3 2c 1e 06 be e3 83 1c 9e 5b [4..I...,.......[]
  |     a70b: 34 e3 39 42 27 e6 23 d3 ae 75 03 de 4c 96 7e 0d [4.9B'.#..u..L.~.]
  |     a71b: e1 3d 6e 31 81 b9 9e 3b 76 3b a1 4e b2 3c 6f d9 [.=n1...;v;.N.<o.]
  |     a72b: 11 5f db 93 f4 71 16 7c 1e 87 f4 5a 90 28 c2 8c [._...q.|...Z.(..]
  |     a73b: a2 47 4b c4 73 d2 87 b4 8a 18 37 78 a3 b2 3a ce [.GK.s.....7x..:.]
  |     a74b: 35 d1 d9 74 71 56 7e e0 ab 52 92 45 17 e6 56 9e [5..tqV~..R.E..V.]
  |     a75b: 65 61 58 db 56 9d c9 00 dc 16 fe c6 23 6f 35 62 [eaX.V.......#o5b]
  |     a76b: 91 04 1b 2a 3d 63 cf 44 40 d2 70 6f 82 e4 49 89 [...*=c.D@.po..I.]
  |     a77b: d1 ae 56 55 b0 a4 92 5b 80 da ec 9b 56 7f 34 44 [..VU...[....V.4D]
  |     a78b: 4d 91 d4 13 df db 39 c7 81 e3 22 83 72 af cd b9 [M.....9...".r...]
  |     a79b: 91 92 a8 b7 54 eb 2c 2b 16 7c b0 53 66 53 b3 c9 [....T.,+.|.SfS..]
  |     a7ab: e8 6c 80 1c f7 07 54 dc 1e 3f bb d6 61 8e 4b da [.l....T..?..a.K.]
  |     a7bb: 34 39 cb 6c 56 af d7 53 9c af ab b8 7f 06 0d 83 [49.lV..S........]
  |     a7cb: a1 ce 6e 14 13 2d 54 dc 6a c5 7f fe 6d 7d c9 9f [..n..-T.j...m}..]
  |     a7db: b7 53 54 ab 3c 6e 90 03 f9 dc cf 09 f4 49 11 1f [.ST.<n.......I..]
  |     a7eb: a3 0f 91 83 7c 75 3c 0d 7a 85 78 46 95 02 28 c7 [....|u<.z.xF..(.]
  |     a7fb: 39 87 2d 25 e4 01 27 e2 18 95 af 6e b9 23 a7 fa [9.-%..'....n.#..]
  |     [snip 299563 bytes]
  | Item 2) 'Exif' (18034 bytes)
  |     051a: 00 00 00 00 49 49 2a 00 08 00 00 00 0c 00 0f 01 [....II*.........]
  |     052a: 02 00 06 00 00 00 9e 00 00 00 10 01 02 00 0e 00 [................]
  |     053a: 00 00 a4 00 00 00 12 01 03 00 01 00 00 00 01 00 [................]
  |     054a: 00 00 1a 01 05 00 01 00 00 00 b2 00 00 00 1b 01 [................]
  |     055a: 05 00 01 00 00 00 ba 00 00 00 28 01 03 00 01 00 [..........(.....]
  |     056a: 00 00 02 00 00 00 32 01 02 00 14 00 00 00 c2 00 [......2.........]
  |     057a: 00 00 3b 01 02 00 01 00 00 00 00 00 00 00 13 02 [..;.............]
  |     058a: 03 00 01 00 00 00 02 00 00 00 98 82 02 00 01 00 [................]
  |     059a: 00 00 00 00 00 00 69 87 04 00 01 00 00 00 d6 00 [......i.........]
  |     05aa: 00 00 25 88 04 00 01 00 00 00 86 24 00 00 98 24 [..%........$...$]
  |     05ba: 00 00 43 61 6e 6f 6e 00 43 61 6e 6f 6e 20 45 4f [..Canon.Canon EO]
  |     05ca: 53 20 37 30 44 00 48 00 00 00 01 00 00 00 48 00 [S 70D.H.......H.]
  |     05da: 00 00 01 00 00 00 32 30 31 35 3a 31 30 3a 31 31 [......2015:10:11]
  |     05ea: 20 31 34 3a 34 31 3a 34 34 00 26 00 9a 82 05 00 [ 14:41:44.&.....]
  |     05fa: 01 00 00 00 a4 02 00 00 9d 82 05 00 01 00 00 00 [................]
  |     060a: ac 02 00 00 22 88 03 00 01 00 00 00 02 00 00 00 [...."...........]
  |     061a: 27 88 03 00 01 00 00 00 90 01 00 00 30 88 03 00 ['...........0...]
  |     062a: 01 00 00 00 02 00 00 00 32 88 04 00 01 00 00 00 [........2.......]
  |     063a: 90 01 00 00 00 90 07 00 04 00 00 00 30 32 33 30 [............0230]
  |     064a: 03 90 02 00 14 00 00 00 b4 02 00 00 04 90 02 00 [................]
  |     065a: 14 00 00 00 c8 02 00 00 01 91 07 00 04 00 00 00 [................]
  |     066a: 01 02 03 00 01 92 0a 00 01 00 00 00 dc 02 00 00 [................]
  |     067a: 02 92 05 00 01 00 00 00 e4 02 00 00 04 92 0a 00 [................]
  |     068a: 01 00 00 00 ec 02 00 00 07 92 03 00 01 00 00 00 [................]
  |     069a: 05 00 00 00 09 92 03 00 01 00 00 00 10 00 00 00 [................]
  |     06aa: 0a 92 05 00 01 00 00 00 f4 02 00 00 7c 92 07 00 [............|...]
  |     06ba: 08 20 00 00 fc 02 00 00 86 92 07 00 08 01 00 00 [. ..............]
  |     06ca: 04 23 00 00 90 92 02 00 03 00 00 00 30 30 00 00 [.#..........00..]
  |     06da: 91 92 02 00 03 00 00 00 30 30 00 00 92 92 02 00 [........00......]
  |     06ea: 03 00 00 00 30 30 00 00 00 a0 07 00 04 00 00 00 [....00..........]
  |     06fa: 30 31 30 30 01 a0 03 00 01 00 00 00 01 00 00 00 [0100............]
  |     070a: 02 a0 03 00 01 00 00 00 60 15 00 00 03 a0 03 00 [........`.......]
  |     071a: 01 00 00 00 40 0e 00 00 05 a0 04 00 01 00 00 00 [....@...........]
  |     072a: 68 24 00 00 0e a2 05 00 01 00 00 00 0c 24 00 00 [h$...........$..]
  |     073a: 0f a2 05 00 01 00 00 00 14 24 00 00 10 a2 03 00 [.........$......]
  |     074a: 01 00 00 00 02 00 00 00 01 a4 03 00 01 00 00 00 [................]
  |     075a: 00 00 00 00 02 a4 03 00 01 00 00 00 00 00 00 00 [................]
  |     076a: 03 a4 03 00 01 00 00 00 00 00 00 00 06 a4 03 00 [................]
  |     077a: 01 00 00 00 00 00 00 00 30 a4 02 00 01 00 00 00 [........0.......]
  |     078a: 00 00 00 00 31 a4 02 00 0d 00 00 00 1c 24 00 00 [....1........$..]
  |     079a: 32 a4 05 00 04 00 00 00 2a 24 00 00 34 a4 02 00 [2.......*$..4...]
  |     07aa: 11 00 00 00 4a 24 00 00 35 a4 02 00 0b 00 00 00 [....J$..5.......]
  |     07ba: 5c 24 00 00 00 00 00 00 01 00 00 00 3c 00 00 00 [\$..........<...]
  |     07ca: 20 00 00 00 0a 00 00 00 32 30 31 35 3a 31 30 3a [ .......2015:10:]
  |     07da: 31 31 20 31 34 3a 34 31 3a 34 34 00 32 30 31 35 [11 14:41:44.2015]
  |     07ea: 3a 31 30 3a 31 31 20 31 34 3a 34 31 3a 34 34 00 [:10:11 14:41:44.]
  |     07fa: 00 00 06 00 00 00 01 00 00 60 03 00 00 00 01 00 [.........`......]
  |     080a: 00 00 00 00 01 00 00 00 32 00 00 00 01 00 00 00 [........2.......]
  |     081a: 29 00 01 00 03 00 31 00 00 00 ee 04 00 00 02 00 [).....1.........]
  |     082a: 03 00 04 00 00 00 50 05 00 00 03 00 03 00 04 00 [......P.........]
  |     083a: 00 00 58 05 00 00 04 00 03 00 22 00 00 00 60 05 [..X......."...`.]
  |     084a: 00 00 06 00 02 00 0e 00 00 00 a4 05 00 00 07 00 [................]
  |     085a: 02 00 18 00 00 00 b2 05 00 00 09 00 02 00 20 00 [.............. .]
  |     086a: 00 00 ca 05 00 00 0d 00 07 00 00 06 00 00 ea 05 [................]
  |     087a: 00 00 10 00 04 00 01 00 00 00 25 03 00 80 13 00 [..........%.....]
  |     088a: 03 00 04 00 00 00 ea 0b 00 00 19 00 03 00 01 00 [................]
  |     089a: 00 00 01 00 00 00 26 00 03 00 8b 00 00 00 f2 0b [......&.........]
  |     08aa: 00 00 35 00 04 00 04 00 00 00 08 0d 00 00 93 00 [..5.............]
  |     08ba: 03 00 20 00 00 00 18 0d 00 00 95 00 02 00 4a 00 [.. ...........J.]
  |     08ca: 00 00 58 0d 00 00 96 00 02 00 10 00 00 00 a2 0d [..X.............]
  |     08da: 00 00 97 00 07 00 00 04 00 00 b2 0d 00 00 98 00 [................]
  |     08ea: 03 00 04 00 00 00 b2 11 00 00 99 00 04 00 74 00 [..............t.]
  |     08fa: 00 00 ba 11 00 00 9a 00 04 00 05 00 00 00 8a 13 [................]
  |     090a: 00 00 a0 00 03 00 0e 00 00 00 9e 13 00 00 aa 00 [................]
  |     091a: 03 00 06 00 00 00 ba 13 00 00 b4 00 03 00 01 00 [................]
  |     092a: 00 00 01 00 00 00 d0 00 04 00 01 00 00 00 00 00 [................]
  |     093a: 00 00 e0 00 03 00 11 00 00 00 c6 13 00 00 01 40 [...............@]
  |     094a: 03 00 21 05 00 00 e8 13 00 00 08 40 03 00 03 00 [..!........@....]
  |     095a: 00 00 2a 1e 00 00 09 40 03 00 03 00 00 00 30 1e [..*....@......0.]
  |     096a: 00 00 10 40 02 00 20 00 00 00 36 1e 00 00 11 40 [...@.. ...6....@]
  |     097a: 07 00 fc 00 00 00 56 1e 00 00 12 40 02 00 20 00 [......V....@.. .]
  |     098a: 00 00 52 1f 00 00 13 40 04 00 0b 00 00 00 72 1f [..R....@......r.]
  |     099a: 00 00 15 40 07 00 c8 01 00 00 9e 1f 00 00 16 40 [...@...........@]
  |     09aa: 04 00 07 00 00 00 66 21 00 00 18 40 04 00 07 00 [......f!...@....]
  |     09ba: 00 00 82 21 00 00 19 40 07 00 1e 00 00 00 9e 21 [...!...@.......!]
  |     09ca: 00 00 20 40 04 00 07 00 00 00 bc 21 00 00 21 40 [.. @.......!..!@]
  |     09da: 04 00 05 00 00 00 d8 21 00 00 24 40 04 00 35 00 [.......!..$@..5.]
  |     09ea: 00 00 ec 21 00 00 25 40 04 00 09 00 00 00 c0 22 [...!..%@......."]
  |     09fa: 00 00 27 40 04 00 06 00 00 00 e4 22 00 00 00 00 [..'@......."....]
  |     0a0a: 00 00 62 00 02 00 00 00 03 00 00 00 00 00 00 00 [..b.............]
  |     0a1a: 02 00 00 00 01 00 00 00 3b 00 00 00 00 00 00 00 [........;.......]
  |     0a2a: ff 7f 0f 00 03 00 02 00 00 00 00 00 ff ff 3c 10 [..............<.]
  |     0a3a: 32 00 32 00 01 00 38 00 20 01 00 00 00 00 00 00 [2.2...8. .......]
  |     0a4a: 00 00 ff ff ff ff ff ff 00 00 00 00 00 00 00 00 [................]
  |     0a5a: ff ff ff ff 00 00 00 00 ff 7f ff ff ff ff ff ff [................]
  |     0a6a: 00 00 ff ff 00 00 32 00 16 0b 24 5a 00 00 00 00 [......2...$Z....]
  |     0a7a: 00 00 00 00 44 00 00 00 e0 00 48 00 6c 00 c0 00 [....D.....H.l...]
  |     0a8a: 00 00 00 00 03 00 00 00 08 00 08 00 95 00 00 00 [................]
  |     0a9a: 00 00 00 00 00 00 00 00 01 00 00 00 00 00 68 00 [..............h.]
  |     0aaa: c0 00 64 00 00 00 00 00 f8 00 ff ff ff ff ff ff [..d.............]
  |     0aba: ff ff 00 00 00 00 00 00 43 61 6e 6f 6e 20 45 4f [........Canon EO]
  |     0aca: 53 20 37 30 44 00 46 69 72 6d 77 61 72 65 20 56 [S 70D.Firmware V]
  |     0ada: 65 72 73 69 6f 6e 20 31 2e 31 2e 31 00 00 00 00 [ersion 1.1.1....]
  |     0aea: 00 00 00 00 00 00 00 00 00 00 00 00 00 00 00 00 [................]
  |     0afa: 00 00 00 00 00 00 00 00 00 00 00 00 00 00 aa aa [................]
  |     0b0a: 68 22 68 23 58 00 01 2d 01 3e 00 03 00 00 00 00 [h"h#X..-.>......]
  |     0b1a: 00 00 01 00 00 06 00 00 00 95 92 00 a6 00 af 00 [................]
  |     0b2a: a9 00 32 00 00 20 00 00 00 00 00 02 03 00 00 00 [..2.. ..........]
  |     0b3a: 00 00 4a 00 32 00 73 01 bb bb fa 50 00 24 40 90 [..J.2.s....P.$@.]
  |     0b4a: 00 00 00 00 00 00 00 00 00 00 00 00 00 00 00 00 [................]
  |     0b5a: ff 88 00 00 00 00 40 ff 00 6e 00 46 00 30 00 00 [......@..n.F.0..]
  |     0b6a: 00 00 00 00 00 00 00 00 00 00 00 00 b4 8d b7 94 [................]
  |     0b7a: 6e 00 00 00 00 00 00 00 00 00 01 01 00 00 00 00 [n...............]
  |     0b8a: 02 01 00 00 00 00 00 00 00 00 00 00 00 00 00 00 [................]
  |     0b9a: 00 00 57 00 49 04 00 00 00 00 00 00 00 00 ff ff [..W.I...........]
  |     0baa: ff ff 0c cc cc 16 00 00 00 03 00 00 00 00 00 00 [................]
  |     0bba: 00 00 00 00 00 00 00 00 00 00 ff 01 00 00 00 4a [...............J]
  |     0bca: 00 00 00 00 00 50 14 00 00 00 00 00 00 00 00 00 [.....P..........]
  |     0bda: 00 01 00 00 00 01 00 00 00 01 00 00 00 03 00 00 [................]
  |     0bea: 00 03 00 00 00 03 00 00 00 00 00 00 00 01 00 00 [................]
  |     0bfa: 00 00 00 00 00 01 00 00 00 87 00 00 00 01 00 00 [................]
  |     0c0a: 00 01 00 00 00 01 00 00 00 07 00 00 00 00 00 00 [................]
  |     0c1a: 03 05 03 55 55 00 00 00 00 0e 00 00 00 00 00 00 [...UU...........]
  |     0c2a: 00 00 00 00 00 00 00 03 07 07 11 0d 00 00 00 00 [................]
  |     0c3a: 00 00 00 00 00 00 00 00 00 00 00 55 55 05 00 00 [...........UU...]
  |     0c4a: 03 00 14 04 00 00 00 00 00 00 00 00 00 00 00 00 [................]
  |     0c5a: 00 00 00 00 00 00 03 02 02 00 00 00 00 00 00 00 [................]
  |     0c6a: 00 01 16 50 10 3c 00 32 00 32 81 67 92 7f 00 ff [...P.<.2.2.g....]
  |     0c7a: 00 00 00 00 00 00 00 21 4e 1c 01 00 03 07 16 00 [.......!N.......]
  |     0c8a: 27 02 00 00 00 00 00 00 00 00 00 00 00 00 00 00 ['...............]
  |     0c9a: 00 00 00 00 00 00 00 00 00 00 00 00 00 02 00 00 [................]
  |     0caa: 00 60 15 00 00 40 0e 00 00 9c 09 00 00 b0 05 00 [.`...@..........]
  |     0cba: 00 28 02 00 00 e0 02 00 00 d0 02 00 00 e0 01 00 [.(..............]
  |     0cca: 00 00 00 00 00 00 00 00 00 d0 02 00 00 e0 01 00 [................]
  |     0cda: 00 d0 02 00 00 e0 01 00 00 00 00 00 00 00 00 00 [................]
  |     0cea: 00 d0 02 00 00 e0 01 00 00 00 00 00 00 00 00 00 [................]
  |     0cfa: 00 01 00 00 00 00 00 00 00 00 00 00 00 00 00 00 [................]
  |     0d0a: 00 06 00 00 00 00 00 00 00 00 00 00 00 ff ff ff [................]
  |     [snip 15986 bytes]
  | + [TIFF directory]
  | | ExifByteOrder = II
  | | + [IFD0 directory with 12 entries, Little-endian]
  | | | 0)  Make = Canon
  | | |     - Tag 0x010f (6 bytes, string[6]):
  | | |         05bc: 43 61 6e 6f 6e 00                               [Canon.]
  | | | 1)  Model = Canon EOS 70D
  | | |     - Tag 0x0110 (14 bytes, string[14]):
  | | |         05c2: 43 61 6e 6f 6e 20 45 4f 53 20 37 30 44 00       [Canon EOS 70D.]
  | | | 2)  Orientation = 1
  | | |     - Tag 0x0112 (2 bytes, int16u[1]):
  | | |         0548: 01 00                                           [..]
  | | | 3)  XResolution = 72 (72/1)
  | | |     - Tag 0x011a (8 bytes, rational64u[1]):
  | | |         05d0: 48 00 00 00 01 00 00 00                         [H.......]
  | | | 4)  YResolution = 72 (72/1)
  | | |     - Tag 0x011b (8 bytes, rational64u[1]):
  | | |         05d8: 48 00 00 00 01 00 00 00                         [H.......]
  | | | 5)  ResolutionUnit = 2
  | | |     - Tag 0x0128 (2 bytes, int16u[1]):
  | | |         056c: 02 00                                           [..]
  | | | 6)  ModifyDate = 2015:10:11 14:41:44
  | | |     - Tag 0x0132 (20 bytes, string[20]):
  | | |         05e0: 32 30 31 35 3a 31 30 3a 31 31 20 31 34 3a 34 31 [2015:10:11 14:41]
  | | |         05f0: 3a 34 34 00                                     [:44.]
  | | | 7)  Artist = 
  | | |     - Tag 0x013b (1 bytes, string[1]):
  | | |         0584: 00                                              [.]
  | | | 8)  YCbCrPositioning = 2
  | | |     - Tag 0x0213 (2 bytes, int16u[1]):
  | | |         0590: 02 00                                           [..]
  | | | 9)  Copyright = 
  | | |     - Tag 0x8298 (1 bytes, string[1] read as undef[1]):
  | | |         059c: 00                                              [.]
  | | | 10) ExifOffset (SubDirectory) -->
  | | |     - Tag 0x8769 (4 bytes, int32u[1]):
  | | |         05a8: d6 00 00 00                                     [....]
  | | | + [ExifIFD directory with 38 entries, Little-endian]
  | | | | 0)  ExposureTime = 0.01666666667 (1/60)
  | | | |     - Tag 0x829a (8 bytes, rational64u[1]):
  | | | |         07c2: 01 00 00 00 3c 00 00 00                         [....<...]
  | | | | 1)  FNumber = 3.2 (32/10)
  | | | |     - Tag 0x829d (8 bytes, rational64u[1]):
  | | | |         07ca: 20 00 00 00 0a 00 00 00                         [ .......]
  | | | | 2)  ExposureProgram = 2
  | | | |     - Tag 0x8822 (2 bytes, int16u[1]):
  | | | |         0616: 02 00                                           [..]
  | | | | 3)  ISO = 400
  | | | |     - Tag 0x8827 (2 bytes, int16u[1]):
  | | | |         0622: 90 01                                           [..]
  | | | | 4)  SensitivityType = 2
  | | | |     - Tag 0x8830 (2 bytes, int16u[1]):
  | | | |         062e: 02 00                                           [..]
  | | | | 5)  RecommendedExposureIndex = 400
  | | | |     - Tag 0x8832 (4 bytes, int32u[1]):
  | | | |         063a: 90 01 00 00                                     [....]
  | | | | 6)  ExifVersion = 0230
  | | | |     - Tag 0x9000 (4 bytes, undef[4]):
  | | | |         0646: 30 32 33 30                                     [0230]
  | | | | 7)  DateTimeOriginal = 2015:10:11 14:41:44
  | | | |     - Tag 0x9003 (20 bytes, string[20]):
  | | | |         07d2: 32 30 31 35 3a 31 30 3a 31 31 20 31 34 3a 34 31 [2015:10:11 14:41]
  | | | |         07e2: 3a 34 34 00                                     [:44.]
  | | | | 8)  CreateDate = 2015:10:11 14:41:44
  | | | |     - Tag 0x9004 (20 bytes, string[20]):
  | | | |         07e6: 32 30 31 35 3a 31 30 3a 31 31 20 31 34 3a 34 31 [2015:10:11 14:41]
  | | | |         07f6: 3a 34 34 00                                     [:44.]
  | | | | 9)  ComponentsConfiguration = 1 2 3 0
  | | | |     - Tag 0x9101 (4 bytes, undef[4] read as int8u[4]):
  | | | |         066a: 01 02 03 00                                     [....]
  | | | | 10) ShutterSpeedValue = 6 (393216/65536)
  | | | |     - Tag 0x9201 (8 bytes, rational64s[1]):
  | | | |         07fa: 00 00 06 00 00 00 01 00                         [........]
  | | | | 11) ApertureValue = 3.375 (221184/65536)
  | | | |     - Tag 0x9202 (8 bytes, rational64u[1]):
  | | | |         0802: 00 60 03 00 00 00 01 00                         [.`......]
  | | | | 12) ExposureCompensation = 0 (0/1)
  | | | |     - Tag 0x9204 (8 bytes, rational64s[1]):
  | | | |         080a: 00 00 00 00 01 00 00 00                         [........]
  | | | | 13) MeteringMode = 5
  | | | |     - Tag 0x9207 (2 bytes, int16u[1]):
  | | | |         069a: 05 00                                           [..]
  | | | | 14) Flash = 16
  | | | |     - Tag 0x9209 (2 bytes, int16u[1]):
  | | | |         06a6: 10 00                                           [..]
  | | | | 15) FocalLength = 50 (50/1)
  | | | |     - Tag 0x920a (8 bytes, rational64u[1]):
  | | | |         0812: 32 00 00 00 01 00 00 00                         [2.......]
  | | | | 16) MakerNoteCanon (SubDirectory) -->
  | | | |     - Tag 0x927c (8200 bytes, undef[8200]):
  | | | |         081a: 29 00 01 00 03 00 31 00 00 00 ee 04 00 00 02 00 [).....1.........]
  | | | |         082a: 03 00 04 00 00 00 50 05 00 00 03 00 03 00 04 00 [......P.........]
  | | | |         083a: 00 00 58 05 00 00 04 00 03 00 22 00 00 00 60 05 [..X......."...`.]
  | | | |         084a: 00 00 06 00 02 00 0e 00 00 00 a4 05 00 00 07 00 [................]
  | | | |         085a: 02 00 18 00 00 00 b2 05 00 00 09 00 02 00 20 00 [.............. .]
  | | | |         086a: 00 00 ca 05 00 00 0d 00 07 00 00 06 00 00 ea 05 [................]
  | | | |         087a: 00 00 10 00 04 00 01 00 00 00 25 03 00 80 13 00 [..........%.....]
  | | | |         088a: 03 00 04 00 00 00 ea 0b 00 00 19 00 03 00 01 00 [................]
  | | | |         089a: 00 00 01 00 00 00 26 00 03 00 8b 00 00 00 f2 0b [......&.........]
  | | | |         08aa: 00 00 35 00 04 00 04 00 00 00 08 0d 00 00 93 00 [..5.............]
  | | | |         08ba: 03 00 20 00 00 00 18 0d 00 00 95 00 02 00 4a 00 [.. ...........J.]
  | | | |         08ca: 00 00 58 0d 00 00 96 00 02 00 10 00 00 00 a2 0d [..X.............]
  | | | |         08da: 00 00 97 00 07 00 00 04 00 00 b2 0d 00 00 98 00 [................]
  | | | |         08ea: 03 00 04 00 00 00 b2 11 00 00 99 00 04 00 74 00 [..............t.]
  | | | |         08fa: 00 00 ba 11 00 00 9a 00 04 00 05 00 00 00 8a 13 [................]
  | | | |         090a: 00 00 a0 00 03 00 0e 00 00 00 9e 13 00 00 aa 00 [................]
  | | | |         091a: 03 00 06 00 00 00 ba 13 00 00 b4 00 03 00 01 00 [................]
  | | | |         092a: 00 00 01 00 00 00 d0 00 04 00 01 00 00 00 00 00 [................]
  | | | |         093a: 00 00 e0 00 03 00 11 00 00 00 c6 13 00 00 01 40 [...............@]
  | | | |         094a: 03 00 21 05 00 00 e8 13 00 00 08 40 03 00 03 00 [..!........@....]
  | | | |         095a: 00 00 2a 1e 00 00 09 40 03 00 03 00 00 00 30 1e [..*....@......0.]
  | | | |         096a: 00 00 10 40 02 00 20 00 00 00 36 1e 00 00 11 40 [...@.. ...6....@]
  | | | |         097a: 07 00 fc 00 00 00 56 1e 00 00 12 40 02 00 20 00 [......V....@.. .]
  | | | |         098a: 00 00 52 1f 00 00 13 40 04 00 0b 00 00 00 72 1f [..R....@......r.]
  | | | |         099a: 00 00 15 40 07 00 c8 01 00 00 9e 1f 00 00 16 40 [...@...........@]
  | | | |         09aa: 04 00 07 00 00 00 66 21 00 00 18 40 04 00 07 00 [......f!...@....]
  | | | |         09ba: 00 00 82 21 00 00 19 40 07 00 1e 00 00 00 9e 21 [...!...@.......!]
  | | | |         09ca: 00 00 20 40 04 00 07 00 00 00 bc 21 00 00 21 40 [.. @.......!..!@]
  | | | |         09da: 04 00 05 00 00 00 d8 21 00 00 24 40 04 00 35 00 [.......!..$@..5.]
  | | | |         09ea: 00 00 ec 21 00 00 25 40 04 00 09 00 00 00 c0 22 [...!..%@......."]
  | | | |         09fa: 00 00 27 40 04 00 06 00 00 00 e4 22 00 00 00 00 [..'@......."....]
  | | | |         0a0a: 00 00 62 00 02 00 00 00 03 00 00 00 00 00 00 00 [..b.............]
  | | | |         0a1a: 02 00 00 00 01 00 00 00 3b 00 00 00 00 00 00 00 [........;.......]
  | | | |         0a2a: ff 7f 0f 00 03 00 02 00 00 00 00 00 ff ff 3c 10 [..............<.]
  | | | |         0a3a: 32 00 32 00 01 00 38 00 20 01 00 00 00 00 00 00 [2.2...8. .......]
  | | | |         0a4a: 00 00 ff ff ff ff ff ff 00 00 00 00 00 00 00 00 [................]
  | | | |         0a5a: ff ff ff ff 00 00 00 00 ff 7f ff ff ff ff ff ff [................]
  | | | |         0a6a: 00 00 ff ff 00 00 32 00 16 0b 24 5a 00 00 00 00 [......2...$Z....]
  | | | |         0a7a: 00 00 00 00 44 00 00 00 e0 00 48 00 6c 00 c0 00 [....D.....H.l...]
  | | | |         0a8a: 00 00 00 00 03 00 00 00 08 00 08 00 95 00 00 00 [................]
  | | | |         0a9a: 00 00 00 00 00 00 00 00 01 00 00 00 00 00 68 00 [..............h.]
  | | | |         0aaa: c0 00 64 00 00 00 00 00 f8 00 ff ff ff ff ff ff [..d.............]
  | | | |         0aba: ff ff 00 00 00 00 00 00 43 61 6e 6f 6e 20 45 4f [........Canon EO]
  | | | |         0aca: 53 20 37 30 44 00 46 69 72 6d 77 61 72 65 20 56 [S 70D.Firmware V]
  | | | |         0ada: 65 72 73 69 6f 6e 20 31 2e 31 2e 31 00 00 00 00 [ersion 1.1.1....]
  | | | |         0aea: 00 00 00 00 00 00 00 00 00 00 00 00 00 00 00 00 [................]
  | | | |         0afa: 00 00 00 00 00 00 00 00 00 00 00 00 00 00 aa aa [................]
  | | | |         0b0a: 68 22 68 23 58 00 01 2d 01 3e 00 03 00 00 00 00 [h"h#X..-.>......]
  | | | |         0b1a: 00 00 01 00 00 06 00 00 00 95 92 00 a6 00 af 00 [................]
  | | | |         0b2a: a9 00 32 00 00 20 00 00 00 00 00 02 03 00 00 00 [..2.. ..........]
  | | | |         0b3a: 00 00 4a 00 32 00 73 01 bb bb fa 50 00 24 40 90 [..J.2.s....P.$@.]
  | | | |         0b4a: 00 00 00 00 00 00 00 00 00 00 00 00 00 00 00 00 [................]
  | | | |         0b5a: ff 88 00 00 00 00 40 ff 00 6e 00 46 00 30 00 00 [......@..n.F.0..]
  | | | |         0b6a: 00 00 00 00 00 00 00 00 00 00 00 00 b4 8d b7 94 [................]
  | | | |         0b7a: 6e 00 00 00 00 00 00 00 00 00 01 01 00 00 00 00 [n...............]
  | | | |         0b8a: 02 01 00 00 00 00 00 00 00 00 00 00 00 00 00 00 [................]
  | | | |         0b9a: 00 00 57 00 49 04 00 00 00 00 00 00 00 00 ff ff [..W.I...........]
  | | | |         0baa: ff ff 0c cc cc 16 00 00 00 03 00 00 00 00 00 00 [................]
  | | | |         0bba: 00 00 00 00 00 00 00 00 00 00 ff 01 00 00 00 4a [...............J]
  | | | |         0bca: 00 00 00 00 00 50 14 00 00 00 00 00 00 00 00 00 [.....P..........]
  | | | |         0bda: 00 01 00 00 00 01 00 00 00 01 00 00 00 03 00 00 [................]
  | | | |         0bea: 00 03 00 00 00 03 00 00 00 00 00 00 00 01 00 00 [................]
  | | | |         0bfa: 00 00 00 00 00 01 00 00 00 87 00 00 00 01 00 00 [................]
  | | | |         0c0a: 00 01 00 00 00 01 00 00 00 07 00 00 00 00 00 00 [................]
  | | | |         0c1a: 03 05 03 55 55 00 00 00 00 0e 00 00 00 00 00 00 [...UU...........]
  | | | |         0c2a: 00 00 00 00 00 00 00 03 07 07 11 0d 00 00 00 00 [................]
  | | | |         0c3a: 00 00 00 00 00 00 00 00 00 00 00 55 55 05 00 00 [...........UU...]
  | | | |         0c4a: 03 00 14 04 00 00 00 00 00 00 00 00 00 00 00 00 [................]
  | | | |         0c5a: 00 00 00 00 00 00 03 02 02 00 00 00 00 00 00 00 [................]
  | | | |         0c6a: 00 01 16 50 10 3c 00 32 00 32 81 67 92 7f 00 ff [...P.<.2.2.g....]
  | | | |         0c7a: 00 00 00 00 00 00 00 21 4e 1c 01 00 03 07 16 00 [.......!N.......]
  | | | |         0c8a: 27 02 00 00 00 00 00 00 00 00 00 00 00 00 00 00 ['...............]
  | | | |         0c9a: 00 00 00 00 00 00 00 00 00 00 00 00 00 02 00 00 [................]
  | | | |         0caa: 00 60 15 00 00 40 0e 00 00 9c 09 00 00 b0 05 00 [.`...@..........]
  | | | |         0cba: 00 28 02 00 00 e0 02 00 00 d0 02 00 00 e0 01 00 [.(..............]
  | | | |         0cca: 00 00 00 00 00 00 00 00 00 d0 02 00 00 e0 01 00 [................]
  | | | |         0cda: 00 d0 02 00 00 e0 01 00 00 00 00 00 00 00 00 00 [................]
  | | | |         0cea: 00 d0 02 00 00 e0 01 00 00 00 00 00 00 00 00 00 [................]
  | | | |         0cfa: 00 01 00 00 00 00 00 00 00 00 00 00 00 00 00 00 [................]
  | | | |         0d0a: 00 06 00 00 00 00 00 00 00 00 00 00 00 ff ff ff [................]
  | | | |         0d1a: 7f ff ff ff 7f 00 00 00 00 00 00 00 00 00 02 00 [................]
  | | | |         0d2a: 00 00 00 00 00 00 00 00 00 0a 02 00 01 00 01 00 [................]
  | | | |         0d3a: 00 00 02 00 00 00 00 00 00 00 00 00 00 01 00 00 [................]
  | | | |         0d4a: 00 00 00 00 00 00 00 00 00 00 00 00 00 00 00 00 [................]
  | | | |         0d5a: 01 00 00 00 00 00 00 00 00 01 01 00 31 2e 31 2e [............1.1.]
  | | | |         0d6a: 31 00 42 31 28 33 32 29 00 00 00 00 05 00 00 00 [1.B1(32)........]
  | | | |         0d7a: 00 00 00 00 a4 cd 59 00 00 00 00 00 00 00 03 80 [......Y.........]
  | | | |         0d8a: 00 00 00 00 00 00 00 00 00 00 00 00 00 00 00 00 [................]
  | | | |         0d9a: 00 00 00 00 00 00 00 00 00 00 00 00 00 00 00 00 [................]
  | | | |         0daa: 00 8e 00 00 00 64 00 00 00 64 00 00 00 00 00 00 [.....d...d......]
  | | | |         0dba: 00 65 17 00 00 00 00 00 00 64 00 00 00 65 00 00 [.e.......d...e..]
  | | | |         0dca: 00 64 00 00 00 08 00 00 00 08 00 00 00 08 00 00 [.d..............]
  | | | |         0dda: 00 08 00 00 00 01 00 00 00 00 00 00 00 00 00 00 [................]
  | | | |         0dea: 00 00 00 00 00 00 00 00 00 00 00 00 00 00 00 00 [................]
  | | | |         0dfa: 00 00 00 00 00 00 00 00 00 f4 01 00 04 00 04 74 [...............t]
  | | | |         0e0a: 02 00 00 00 00 00 00 00 00 00 00 00 00 00 00 00 [................]
  | | | |         0e1a: 00 00 00 00 00 00 00 00 00 00 00 00 00 00 00 00 [................]
  | | | |         0e2a: 00 00 00 00 00 f4 01 00 04 00 04 74 02 00 00 00 [...........t....]
  | | | |         0e3a: 00 00 00 00 00 00 00 00 00 00 00 00 00 00 00 00 [................]
  | | | |         0e4a: 00 00 00 00 00 00 00 00 00 00 00 00 00 00 00 00 [................]
  | | | |         0e5a: 00 f4 01 00 04 00 04 74 02 00 00 00 00 00 00 00 [.......t........]
  | | | |         0e6a: 00 00 00 00 00 00 00 00 00 00 00 00 00 00 00 00 [................]
  | | | |         0e7a: 00 00 00 00 00 00 00 00 00 00 00 00 00 f4 01 00 [................]
  | | | |         0e8a: 04 00 04 74 02 00 00 00 00 00 00 00 00 00 00 00 [...t............]
  | | | |         0e9a: 00 00 00 00 00 00 00 00 00 00 00 00 00 00 00 00 [................]
  | | | |         0eaa: 00 00 00 00 00 00 00 00 00 f4 01 00 04 00 04 74 [...............t]
  | | | |         0eba: 02 00 00 00 00 00 00 00 00 01 00 00 00 00 00 00 [................]
  | | | |         0eca: 00 00 00 00 00 00 00 00 00 01 00 00 00 00 00 00 [................]
  | | | |         0eda: 00 03 00 00 00 00 00 00 00 00 00 00 00 ef be ad [................]
  | | | |         0eea: de ef be ad de 00 00 00 00 02 00 00 00 00 00 00 [................]
  | | | |         0efa: 00 00 00 00 00 ef be ad de ef be ad de 00 00 00 [................]
  | | | |         0f0a: 00 04 00 00 00 00 00 00 00 00 00 00 00 ef be ad [................]
  | | | |         0f1a: de ef be ad de 00 00 00 00 00 00 00 00 00 00 00 [................]
  | | | |         0f2a: 00 00 00 00 00 ef be ad de ef be ad de 00 00 00 [................]
  | | | |         0f3a: 00 00 00 00 00 00 00 00 00 00 00 00 00 ef be ad [................]
  | | | |         0f4a: de ef be ad de 00 00 00 00 03 00 00 00 ef be ad [................]
  | | | |         0f5a: de ef be ad de 00 00 00 00 00 00 00 00 00 00 00 [................]
  | | | |         0f6a: 00 03 00 00 00 00 00 00 00 00 00 00 00 ef be ad [................]
  | | | |         0f7a: de ef be ad de 00 00 00 00 03 00 00 00 00 00 00 [................]
  | | | |         0f8a: 00 00 00 00 00 00 00 00 00 00 00 00 00 00 00 00 [................]
  | | | |         0f9a: 00 03 00 00 00 00 00 00 00 00 00 00 00 00 00 00 [................]
  | | | |         0faa: 00 00 00 00 00 00 00 00 00 03 00 00 00 00 00 00 [................]
  | | | |         0fba: 00 00 00 00 00 00 00 00 00 00 00 00 00 87 00 87 [................]
  | | | |         0fca: 00 87 00 00 00 ff ff ff ff ff ff ff ff 00 00 00 [................]
  | | | |         0fda: 00 00 00 00 00 00 00 00 00 00 00 00 00 00 00 00 [................]
  | | | |         0fea: 00 00 00 00 00 00 00 00 00 00 00 00 00 00 04 00 [................]
  | | | |         0ffa: 04 00 04 00 04 00 00 00 00 00 00 00 00 00 00 00 [................]
  | | | |         [snip 6168 bytes]
  | | | | + [MakerNotes directory with 41 entries, Little-endian]
  | | | | | 0)  CanonCameraSettings (SubDirectory) -->
  | | | | |     - Tag 0x0001 (98 bytes, int16u[49] read as undef[98]):
  | | | | |         0a0c: 62 00 02 00 00 00 03 00 00 00 00 00 00 00 02 00 [b...............]
  | | | | |         0a1c: 00 00 01 00 00 00 3b 00 00 00 00 00 00 00 ff 7f [......;.........]
  | | | | |         0a2c: 0f 00 03 00 02 00 00 00 00 00 ff ff 3c 10 32 00 [............<.2.]
  | | | | |         0a3c: 32 00 01 00 38 00 20 01 00 00 00 00 00 00 00 00 [2...8. .........]
  | | | | |         0a4c: ff ff ff ff ff ff 00 00 00 00 00 00 00 00 ff ff [................]
  | | | | |         0a5c: ff ff 00 00 00 00 ff 7f ff ff ff ff ff ff 00 00 [................]
  | | | | |         0a6c: ff ff                                           [..]
  | | | | | + [BinaryData directory, 98 bytes, Little-endian]
  | | | | | | MacroMode = 2
  | | | | | | - Tag 0x0001 (2 bytes, int16s[1]):
  | | | | | |     0a0e: 02 00                                           [..]
  | | | | | | SelfTimer = 0
  | | | | | | - Tag 0x0002 (2 bytes, int16s[1]):
  | | | | | |     0a10: 00 00                                           [..]
  | | | | | | Quality = 3
  | | | | | | - Tag 0x0003 (2 bytes, int16s[1]):
  | | | | | |     0a12: 03 00                                           [..]
  | | | | | | CanonFlashMode = 0
  | | | | | | - Tag 0x0004 (2 bytes, int16s[1]):
  | | | | | |     0a14: 00 00                                           [..]
  | | | | | | ContinuousDrive = 0
  | | | | | | - Tag 0x0005 (2 bytes, int16s[1]):
  | | | | | |     0a16: 00 00                                           [..]
  | | | | | | FocusMode = 2
  | | | | | | - Tag 0x0007 (2 bytes, int16s[1]):
  | | | | | |     0a1a: 02 00                                           [..]
  | | | | | | RecordMode = 1
  | | | | | | - Tag 0x0009 (2 bytes, int16s[1]):
  | | | | | |     0a1e: 01 00                                           [..]
  | | | | | | CanonImageSize = 0
  | | | | | | - Tag 0x000a (2 bytes, int16s[1]):
  | | | | | |     0a20: 00 00                                           [..]
  | | | | | | EasyMode = 59
  | | | | | | - Tag 0x000b (2 bytes, int16s[1]):
  | | | | | |     0a22: 3b 00                                           [;.]
  | | | | | | DigitalZoom = 0
  | | | | | | - Tag 0x000c (2 bytes, int16s[1]):
  | | | | | |     0a24: 00 00                                           [..]
  | | | | | | Contrast = 0
  | | | | | | - Tag 0x000d (2 bytes, int16s[1]):
  | | | | | |     0a26: 00 00                                           [..]
  | | | | | | Saturation = 0
  | | | | | | - Tag 0x000e (2 bytes, int16s[1]):
  | | | | | |     0a28: 00 00                                           [..]
  | | | | | | Sharpness = 32767
  | | | | | | - Tag 0x000f (2 bytes, int16s[1]):
  | | | | | |     0a2a: ff 7f                                           [..]
  | | | | | | CameraISO = 15
  | | | | | | - Tag 0x0010 (2 bytes, int16s[1]):
  | | | | | |     0a2c: 0f 00                                           [..]
  | | | | | | MeteringMode = 3
  | | | | | | - Tag 0x0011 (2 bytes, int16s[1]):
  | | | | | |     0a2e: 03 00                                           [..]
  | | | | | | FocusRange = 2
  | | | | | | - Tag 0x0012 (2 bytes, int16s[1]):
  | | | | | |     0a30: 02 00                                           [..]
  | | | | | | AFPoint = 0
  | | | | | | - Tag 0x0013 (2 bytes, int16s[1]):
  | | | | | |     0a32: 00 00                                           [..]
  | | | | | | CanonExposureMode = 0
  | | | | | | - Tag 0x0014 (2 bytes, int16s[1]):
  | | | | | |     0a34: 00 00                                           [..]
  | | | | | | LensType = 4156
  | | | | | | - Tag 0x0016 (2 bytes, int16u[1]):
  | | | | | |     0a38: 3c 10                                           [<.]
  | | | | | | MaxFocalLength = 50
  | | | | | | - Tag 0x0017 (2 bytes, int16u[1]):
  | | | | | |     0a3a: 32 00                                           [2.]
  | | | | | | MinFocalLength = 50
  | | | | | | - Tag 0x0018 (2 bytes, int16u[1]):
  | | | | | |     0a3c: 32 00                                           [2.]
  | | | | | | FocalUnits = 1
  | | | | | | - Tag 0x0019 (2 bytes, int16s[1]):
  | | | | | |     0a3e: 01 00                                           [..]
  | | | | | | MaxAperture = 56
  | | | | | | - Tag 0x001a (2 bytes, int16s[1]):
  | | | | | |     0a40: 38 00                                           [8.]
  | | | | | | MinAperture = 288
  | | | | | | - Tag 0x001b (2 bytes, int16s[1]):
  | | | | | |     0a42: 20 01                                           [ .]
  | | | | | | FlashModel = 0
  | | | | | | - Tag 0x001c, mask 0x7f (2 bytes, int16s[1]):
  | | | | | |     0a44: 00 00                                           [..]
  | | | | | | FlashBits = 0
  | | | | | | - Tag 0x001d (2 bytes, int16s[1]):
  | | | | | |     0a46: 00 00                                           [..]
  | | | | | | FocusContinuous = -1
  | | | | | | - Tag 0x0020 (2 bytes, int16s[1]):
  | | | | | |     0a4c: ff ff                                           [..]
  | | | | | | AESetting = -1
  | | | | | | - Tag 0x0021 (2 bytes, int16s[1]):
  | | | | | |     0a4e: ff ff                                           [..]
  | | | | | | ImageStabilization = -1
  | | | | | | - Tag 0x0022 (2 bytes, int16s[1]):
  | | | | | |     0a50: ff ff                                           [..]
  | | | | | | DisplayAperture = 0
  | | | | | | - Tag 0x0023 (2 bytes, int16s[1]):
  | | | | | |     0a52: 00 00                                           [..]
  | | | | | | ZoomSourceWidth = 0
  | | | | | | - Tag 0x0024 (2 bytes, int16s[1]):
  | | | | | |     0a54: 00 00                                           [..]
  | | | | | | ZoomTargetWidth = 0
  | | | | | | - Tag 0x0025 (2 bytes, int16s[1]):
  | | | | | |     0a56: 00 00                                           [..]
  | | | | | | SpotMeteringMode = -1
  | | | | | | - Tag 0x0027 (2 bytes, int16s[1]):
  | | | | | |     0a5a: ff ff                                           [..]
  | | | | | | PhotoEffect = -1
  | | | | | | - Tag 0x0028 (2 bytes, int16s[1]):
  | | | | | |     0a5c: ff ff                                           [..]
  | | | | | | ManualFlashOutput = 0
  | | | | | | - Tag 0x0029 (2 bytes, int16s[1]):
  | | | | | |     0a5e: 00 00                                           [..]
  | | | | | | ColorTone = 0
  | | | | | | - Tag 0x002a (2 bytes, int16s[1]):
  | | | | | |     0a60: 00 00                                           [..]
  | | | | | | SRAWQuality = -1
  | | | | | | - Tag 0x002e (2 bytes, int16s[1]):
  | | | | | |     0a68: ff ff                                           [..]
  | | | | | 1)  CanonFocalLength (SubDirectory) -->
  | | | | |     - Tag 0x0002 (8 bytes, int16u[4] read as undef[8]):
  | | | | |         0a6e: 00 00 32 00 16 0b 24 5a                         [..2...$Z]
  | | | | | + [BinaryData directory, 8 bytes, Little-endian]
  | | | | | | FocalType = 0
  | | | | | | - Tag 0x0000 (2 bytes, int16u[1]):
  | | | | | |     0a6e: 00 00                                           [..]
  | | | | | | FocalLength = 50
  | | | | | | - Tag 0x0001 (2 bytes, int16u[1]):
  | | | | | |     0a70: 32 00                                           [2.]
  | | | | | | FocalPlaneXUnknown = 2838
  | | | | | | - Tag 0x0002 (2 bytes, int16u[1]):
  | | | | | |     0a72: 16 0b                                           [..]
  | | | | | | FocalPlaneYUnknown = 23076
  | | | | | | - Tag 0x0003 (2 bytes, int16u[1]):
  | | | | | |     0a74: 24 5a                                           [$Z]
  | | | | | 2)  CanonFlashInfo = 0 0 0 0
  | | | | |     - Tag 0x0003 (8 bytes, int16u[4]):
  | | | | |         0a76: 00 00 00 00 00 00 00 00                         [........]
  | | | | | 3)  CanonShotInfo (SubDirectory) -->
  | | | | |     - Tag 0x0004 (68 bytes, int16u[34] read as undef[68]):
  | | | | |         0a7e: 44 00 00 00 e0 00 48 00 6c 00 c0 00 00 00 00 00 [D.....H.l.......]
  | | | | |         0a8e: 03 00 00 00 08 00 08 00 95 00 00 00 00 00 00 00 [................]
  | | | | |         0a9e: 00 00 00 00 01 00 00 00 00 00 68 00 c0 00 64 00 [..........h...d.]
  | | | | |         0aae: 00 00 00 00 f8 00 ff ff ff ff ff ff ff ff 00 00 [................]
  | | | | |         0abe: 00 00 00 00                                     [....]
  | | | | | + [BinaryData directory, 68 bytes, Little-endian]
  | | | | | | AutoISO = 0
  | | | | | | - Tag 0x0001 (2 bytes, int16s[1]):
  | | | | | |     0a80: 00 00                                           [..]
  | | | | | | BaseISO = 224
  | | | | | | - Tag 0x0002 (2 bytes, int16s[1]):
  | | | | | |     0a82: e0 00                                           [..]
  | | | | | | MeasuredEV = 72
  | | | | | | - Tag 0x0003 (2 bytes, int16s[1]):
  | | | | | |     0a84: 48 00                                           [H.]
  | | | | | | TargetAperture = 108
  | | | | | | - Tag 0x0004 (2 bytes, int16s[1]):
  | | | | | |     0a86: 6c 00                                           [l.]
  | | | | | | TargetExposureTime = 192
  | | | | | | - Tag 0x0005 (2 bytes, int16s[1]):
  | | | | | |     0a88: c0 00                                           [..]
  | | | | | | ExposureCompensation = 0
  | | | | | | - Tag 0x0006 (2 bytes, int16s[1]):
  | | | | | |     0a8a: 00 00                                           [..]
  | | | | | | WhiteBalance = 0
  | | | | | | - Tag 0x0007 (2 bytes, int16s[1]):
  | | | | | |     0a8c: 00 00                                           [..]
  | | | | | | SlowShutter = 3
  | | | | | | - Tag 0x0008 (2 bytes, int16s[1]):
  | | | | | |     0a8e: 03 00                                           [..]
  | | | | | | SequenceNumber = 0
  | | | | | | - Tag 0x0009 (2 bytes, int16s[1]):
  | | | | | |     0a90: 00 00                                           [..]
  | | | | | | OpticalZoomCode = 8
  | | | | | | - Tag 0x000a (2 bytes, int16s[1]):
  | | | | | |     0a92: 08 00                                           [..]
  | | | | | | CameraTemperature = 149
  | | | | | | - Tag 0x000c (2 bytes, int16s[1]):
  | | | | | |     0a96: 95 00                                           [..]
  | | | | | | FlashGuideNumber = 0
  | | | | | | - Tag 0x000d (2 bytes, int16s[1]):
  | | | | | |     0a98: 00 00                                           [..]
  | | | | | | AFPointsInFocus = 0
  | | | | | | - Tag 0x000e (2 bytes, int16s[1]):
  | | | | | |     0a9a: 00 00                                           [..]
  | | | | | | FlashExposureComp = 0
  | | | | | | - Tag 0x000f (2 bytes, int16s[1]):
  | | | | | |     0a9c: 00 00                                           [..]
  | | | | | | AutoExposureBracketing = 0
  | | | | | | - Tag 0x0010 (2 bytes, int16s[1]):
  | | | | | |     0a9e: 00 00                                           [..]
  | | | | | | AEBBracketValue = 0
  | | | | | | - Tag 0x0011 (2 bytes, int16s[1]):
  | | | | | |     0aa0: 00 00                                           [..]
  | | | | | | ControlMode = 1
  | | | | | | - Tag 0x0012 (2 bytes, int16s[1]):
  | | | | | |     0aa2: 01 00                                           [..]
  | | | | | | FocusDistanceUpper = 0
  | | | | | | - Tag 0x0013 (2 bytes, int16u[1]):
  | | | | | |     0aa4: 00 00                                           [..]
  | | | | | | FNumber = 104
  | | | | | | - Tag 0x0015 (2 bytes, int16s[1]):
  | | | | | |     0aa8: 68 00                                           [h.]
  | | | | | | ExposureTime = 192
  | | | | | | - Tag 0x0016 (2 bytes, int16s[1]):
  | | | | | |     0aaa: c0 00                                           [..]
  | | | | | | MeasuredEV2 = 100
  | | | | | | - Tag 0x0017 (2 bytes, int16s[1]):
  | | | | | |     0aac: 64 00                                           [d.]
  | | | | | | BulbDuration = 0
  | | | | | | - Tag 0x0018 (2 bytes, int16s[1]):
  | | | | | |     0aae: 00 00                                           [..]
  | | | | | | CameraType = 248
  | | | | | | - Tag 0x001a (2 bytes, int16s[1]):
  | | | | | |     0ab2: f8 00                                           [..]
  | | | | | | AutoRotate = -1
  | | | | | | - Tag 0x001b (2 bytes, int16s[1]):
  | | | | | |     0ab4: ff ff                                           [..]
  | | | | | | NDFilter = -1
  | | | | | | - Tag 0x001c (2 bytes, int16s[1]):
  | | | | | |     0ab6: ff ff                                           [..]
  | | | | | | SelfTimer2 = -1
  | | | | | | - Tag 0x001d (2 bytes, int16s[1]):
  | | | | | |     0ab8: ff ff                                           [..]
  | | | | | | FlashOutput = 0
  | | | | | | - Tag 0x0021 (2 bytes, int16s[1]):
  | | | | | |     0ac0: 00 00                                           [..]
  | | | | | 4)  CanonImageType = Canon EOS 70D
  | | | | |     - Tag 0x0006 (14 bytes, string[14]):
  | | | | |         0ac2: 43 61 6e 6f 6e 20 45 4f 53 20 37 30 44 00       [Canon EOS 70D.]
  | | | | | 5)  CanonFirmwareVersion = Firmware Version 1.1.1
  | | | | |     - Tag 0x0007 (24 bytes, string[24]):
  | | | | |         0ad0: 46 69 72 6d 77 61 72 65 20 56 65 72 73 69 6f 6e [Firmware Version]
  | | | | |         0ae0: 20 31 2e 31 2e 31 00 00                         [ 1.1.1..]
  | | | | | 6)  OwnerName = 
  | | | | |     - Tag 0x0009 (32 bytes, string[32]):
  | | | | |         0ae8: 00 00 00 00 00 00 00 00 00 00 00 00 00 00 00 00 [................]
  | | | | |         0af8: 00 00 00 00 00 00 00 00 00 00 00 00 00 00 00 00 [................]
  | | | | | 7)  CanonCameraInfo70D (SubDirectory) -->
  | | | | |     - Tag 0x000d (1536 bytes, undef[1536]):
  | | | | |         0b08: aa aa 68 22 68 23 58 00 01 2d 01 3e 00 03 00 00 [..h"h#X..-.>....]
  | | | | |         0b18: 00 00 00 00 01 00 00 06 00 00 00 95 92 00 a6 00 [................]
  | | | | |         0b28: af 00 a9 00 32 00 00 20 00 00 00 00 00 02 03 00 [....2.. ........]
  | | | | |         0b38: 00 00 00 00 4a 00 32 00 73 01 bb bb fa 50 00 24 [....J.2.s....P.$]
  | | | | |         0b48: 40 90 00 00 00 00 00 00 00 00 00 00 00 00 00 00 [@...............]
  | | | | |         0b58: 00 00 ff 88 00 00 00 00 40 ff 00 6e 00 46 00 30 [........@..n.F.0]
  | | | | |         0b68: 00 00 00 00 00 00 00 00 00 00 00 00 00 00 b4 8d [................]
  | | | | |         0b78: b7 94 6e 00 00 00 00 00 00 00 00 00 01 01 00 00 [..n.............]
  | | | | |         0b88: 00 00 02 01 00 00 00 00 00 00 00 00 00 00 00 00 [................]
  | | | | |         0b98: 00 00 00 00 57 00 49 04 00 00 00 00 00 00 00 00 [....W.I.........]
  | | | | |         0ba8: ff ff ff ff 0c cc cc 16 00 00 00 03 00 00 00 00 [................]
  | | | | |         0bb8: 00 00 00 00 00 00 00 00 00 00 00 00 ff 01 00 00 [................]
  | | | | |         0bc8: 00 4a 00 00 00 00 00 50 14 00 00 00 00 00 00 00 [.J.....P........]
  | | | | |         0bd8: 00 00 00 01 00 00 00 01 00 00 00 01 00 00 00 03 [................]
  | | | | |         0be8: 00 00 00 03 00 00 00 03 00 00 00 00 00 00 00 01 [................]
  | | | | |         0bf8: 00 00 00 00 00 00 00 01 00 00 00 87 00 00 00 01 [................]
  | | | | |         0c08: 00 00 00 01 00 00 00 01 00 00 00 07 00 00 00 00 [................]
  | | | | |         0c18: 00 00 03 05 03 55 55 00 00 00 00 0e 00 00 00 00 [.....UU.........]
  | | | | |         0c28: 00 00 00 00 00 00 00 00 00 03 07 07 11 0d 00 00 [................]
  | | | | |         0c38: 00 00 00 00 00 00 00 00 00 00 00 00 00 55 55 05 [.............UU.]
  | | | | |         0c48: 00 00 03 00 14 04 00 00 00 00 00 00 00 00 00 00 [................]
  | | | | |         0c58: 00 00 00 00 00 00 00 00 03 02 02 00 00 00 00 00 [................]
  | | | | |         0c68: 00 00 00 01 16 50 10 3c 00 32 00 32 81 67 92 7f [.....P.<.2.2.g..]
  | | | | |         0c78: 00 ff 00 00 00 00 00 00 00 21 4e 1c 01 00 03 07 [.........!N.....]
  | | | | |         0c88: 16 00 27 02 00 00 00 00 00 00 00 00 00 00 00 00 [..'.............]
  | | | | |         0c98: 00 00 00 00 00 00 00 00 00 00 00 00 00 00 00 02 [................]
  | | | | |         0ca8: 00 00 00 60 15 00 00 40 0e 00 00 9c 09 00 00 b0 [...`...@........]
  | | | | |         0cb8: 05 00 00 28 02 00 00 e0 02 00 00 d0 02 00 00 e0 [...(............]
  | | | | |         0cc8: 01 00 00 00 00 00 00 00 00 00 00 d0 02 00 00 e0 [................]
  | | | | |         0cd8: 01 00 00 d0 02 00 00 e0 01 00 00 00 00 00 00 00 [................]
  | | | | |         0ce8: 00 00 00 d0 02 00 00 e0 01 00 00 00 00 00 00 00 [................]
  | | | | |         0cf8: 00 00 00 01 00 00 00 00 00 00 00 00 00 00 00 00 [................]
  | | | | |         0d08: 00 00 00 06 00 00 00 00 00 00 00 00 00 00 00 ff [................]
  | | | | |         0d18: ff ff 7f ff ff ff 7f 00 00 00 00 00 00 00 00 00 [................]
  | | | | |         0d28: 02 00 00 00 00 00 00 00 00 00 00 0a 02 00 01 00 [................]
  | | | | |         0d38: 01 00 00 00 02 00 00 00 00 00 00 00 00 00 00 01 [................]
  | | | | |         0d48: 00 00 00 00 00 00 00 00 00 00 00 00 00 00 00 00 [................]
  | | | | |         0d58: 00 00 01 00 00 00 00 00 00 00 00 01 01 00 31 2e [..............1.]
  | | | | |         0d68: 31 2e 31 00 42 31 28 33 32 29 00 00 00 00 05 00 [1.1.B1(32)......]
  | | | | |         0d78: 00 00 00 00 00 00 a4 cd 59 00 00 00 00 00 00 00 [........Y.......]
  | | | | |         0d88: 03 80 00 00 00 00 00 00 00 00 00 00 00 00 00 00 [................]
  | | | | |         0d98: 00 00 00 00 00 00 00 00 00 00 00 00 00 00 00 00 [................]
  | | | | |         0da8: 00 00 00 8e 00 00 00 64 00 00 00 64 00 00 00 00 [.......d...d....]
  | | | | |         0db8: 00 00 00 65 17 00 00 00 00 00 00 64 00 00 00 65 [...e.......d...e]
  | | | | |         0dc8: 00 00 00 64 00 00 00 08 00 00 00 08 00 00 00 08 [...d............]
  | | | | |         0dd8: 00 00 00 08 00 00 00 01 00 00 00 00 00 00 00 00 [................]
  | | | | |         0de8: 00 00 00 00 00 00 00 00 00 00 00 00 00 00 00 00 [................]
  | | | | |         0df8: 00 00 00 00 00 00 00 00 00 00 00 f4 01 00 04 00 [................]
  | | | | |         0e08: 04 74 02 00 00 00 00 00 00 00 00 00 00 00 00 00 [.t..............]
  | | | | |         0e18: 00 00 00 00 00 00 00 00 00 00 00 00 00 00 00 00 [................]
  | | | | |         0e28: 00 00 00 00 00 00 00 f4 01 00 04 00 04 74 02 00 [.............t..]
  | | | | |         0e38: 00 00 00 00 00 00 00 00 00 00 00 00 00 00 00 00 [................]
  | | | | |         0e48: 00 00 00 00 00 00 00 00 00 00 00 00 00 00 00 00 [................]
  | | | | |         0e58: 00 00 00 f4 01 00 04 00 04 74 02 00 00 00 00 00 [.........t......]
  | | | | |         0e68: 00 00 00 00 00 00 00 00 00 00 00 00 00 00 00 00 [................]
  | | | | |         0e78: 00 00 00 00 00 00 00 00 00 00 00 00 00 00 00 f4 [................]
  | | | | |         0e88: 01 00 04 00 04 74 02 00 00 00 00 00 00 00 00 00 [.....t..........]
  | | | | |         0e98: 00 00 00 00 00 00 00 00 00 00 00 00 00 00 00 00 [................]
  | | | | |         0ea8: 00 00 00 00 00 00 00 00 00 00 00 f4 01 00 04 00 [................]
  | | | | |         0eb8: 04 74 02 00 00 00 00 00 00 00 00 01 00 00 00 00 [.t..............]
  | | | | |         0ec8: 00 00 00 00 00 00 00 00 00 00 00 01 00 00 00 00 [................]
  | | | | |         0ed8: 00 00 00 03 00 00 00 00 00 00 00 00 00 00 00 ef [................]
  | | | | |         0ee8: be ad de ef be ad de 00 00 00 00 02 00 00 00 00 [................]
  | | | | |         0ef8: 00 00 00 00 00 00 00 ef be ad de ef be ad de 00 [................]
  | | | | |         0f08: 00 00 00 04 00 00 00 00 00 00 00 00 00 00 00 ef [................]
  | | | | |         0f18: be ad de ef be ad de 00 00 00 00 00 00 00 00 00 [................]
  | | | | |         0f28: 00 00 00 00 00 00 00 ef be ad de ef be ad de 00 [................]
  | | | | |         0f38: 00 00 00 00 00 00 00 00 00 00 00 00 00 00 00 ef [................]
  | | | | |         0f48: be ad de ef be ad de 00 00 00 00 03 00 00 00 ef [................]
  | | | | |         0f58: be ad de ef be ad de 00 00 00 00 00 00 00 00 00 [................]
  | | | | |         0f68: 00 00 00 03 00 00 00 00 00 00 00 00 00 00 00 ef [................]
  | | | | |         0f78: be ad de ef be ad de 00 00 00 00 03 00 00 00 00 [................]
  | | | | |         0f88: 00 00 00 00 00 00 00 00 00 00 00 00 00 00 00 00 [................]
  | | | | |         0f98: 00 00 00 03 00 00 00 00 00 00 00 00 00 00 00 00 [................]
  | | | | |         0fa8: 00 00 00 00 00 00 00 00 00 00 00 03 00 00 00 00 [................]
  | | | | |         0fb8: 00 00 00 00 00 00 00 00 00 00 00 00 00 00 00 87 [................]
  | | | | |         0fc8: 00 87 00 87 00 00 00 ff ff ff ff ff ff ff ff 00 [................]
  | | | | |         0fd8: 00 00 00 00 00 00 00 00 00 00 00 00 00 00 00 00 [................]
  | | | | |         0fe8: 00 00 00 00 00 00 00 00 00 00 00 00 00 00 00 00 [................]
  | | | | |         0ff8: 04 00 04 00 04 00 04 00 00 00 00 00 00 00 00 00 [................]
  | | | | |         1008: 00 00 00 00 00 00 00 00 00 00 00 00 00 00 00 00 [................]
  | | | | |         1018: 00 00 00 00 00 00 00 00 04 00 04 00 04 00 04 00 [................]
  | | | | |         1028: 00 00 00 00 00 00 00 00 00 00 00 00 00 00 00 00 [................]
  | | | | |         1038: 00 00 00 00 00 00 00 00 00 00 00 00 00 00 00 00 [................]
  | | | | |         1048: 04 00 04 00 04 00 04 00 00 00 00 00 00 00 00 00 [................]
  | | | | |         1058: 00 00 00 00 00 00 00 00 00 00 00 00 00 00 00 00 [................]
  | | | | |         1068: 00 00 00 00 00 00 00 00 04 00 04 00 04 00 04 00 [................]
  | | | | |         1078: 00 00 00 00 00 00 00 00 00 00 00 00 00 00 00 00 [................]
  | | | | |         1088: 00 00 00 00 00 00 00 00 00 00 00 00 00 00 00 00 [................]
  | | | | |         1098: 04 00 04 00 04 00 04 00 00 00 00 00 00 00 00 28 [...............(]
  | | | | |         10a8: 75 1a 56 02 00 00 00 04 00 00 00 00 00 00 00 04 [u.V.............]
  | | | | |         10b8: 00 00 00 00 00 00 00 04 00 00 00 00 00 00 00 00 [................]
  | | | | |         10c8: 00 00 10 00 00 00 00 00 00 00 00 00 00 00 00 00 [................]
  | | | | |         10d8: 37 00 00 d8 3a 01 00 00 00 00 00 00 00 00 00 00 [7...:...........]
  | | | | |         10e8: 00 00 00 03 00 00 00 53 00 00 00 58 00 03 80 00 [.......S...X....]
  | | | | |         10f8: 00 00 00 03 00 00 00 4d 00 00 00 4e 00 00 00 00 [.......M...N....]
  | | | | | + [BinaryData directory, 1536 bytes, Little-endian]
  | | | | | | FNumber = 34
  | | | | | | - Tag 0x0003 (1 bytes, int8u[1]):
  | | | | | |     0b0b: 22                                              ["]
  | | | | | | ExposureTime = 104
  | | | | | | - Tag 0x0004 (1 bytes, int8u[1]):
  | | | | | |     0b0c: 68                                              [h]
  | | | | | | ISO = 88
  | | | | | | - Tag 0x0006 (1 bytes, int8u[1]):
  | | | | | |     0b0e: 58                                              [X]
  | | | | | | CameraTemperature = 149
  | | | | | | - Tag 0x001b (1 bytes, int8u[1]):
  | | | | | |     0b23: 95                                              [.]
  | | | | | | FocalLength = 50
  | | | | | | - Tag 0x0023 (2 bytes, int16uRev[1]):
  | | | | | |     0b2b: 00 32                                           [.2]
  | | | | | | CameraOrientation = 0
  | | | | | | - Tag 0x0084 (1 bytes, int8u[1]):
  | | | | | |     0b8c: 00                                              [.]
  | | | | | | FocusDistanceUpper = 87
  | | | | | | - Tag 0x0093 (2 bytes, int16uRev[1]):
  | | | | | |     0b9b: 00 57                                           [.W]
  | | | | | | FocusDistanceLower = 73
  | | | | | | - Tag 0x0095 (2 bytes, int16uRev[1]):
  | | | | | |     0b9d: 00 49                                           [.I]
  | | | | | | ColorTemperature = 5200
  | | | | | | - Tag 0x00c7 (2 bytes, int16u[1]):
  | | | | | |     0bcf: 50 14                                           [P.]
  | | | | | | LensType = 4156
  | | | | | | - Tag 0x0166 (2 bytes, int16uRev[1]):
  | | | | | |     0c6e: 10 3c                                           [.<]
  | | | | | | MinFocalLength = 50
  | | | | | | - Tag 0x0168 (2 bytes, int16uRev[1]):
  | | | | | |     0c70: 00 32                                           [.2]
  | | | | | | MaxFocalLength = 50
  | | | | | | - Tag 0x016a (2 bytes, int16uRev[1]):
  | | | | | |     0c72: 00 32                                           [.2]
  | | | | | | FirmwareVersion = 1.1.1
  | | | | | | - Tag 0x025e (6 bytes, string[6]):
  | | | | | |     0d66: 31 2e 31 2e 31 00                               [1.1.1.]
  | | | | | | FileIndex = 5989
  | | | | | | - Tag 0x02b3 (4 bytes, int32u[1]):
  | | | | | |     0dbb: 65 17 00 00                                     [e...]
  | | | | | | DirectoryIndex = 101
  | | | | | | - Tag 0x02bf (4 bytes, int32u[1]):
  | | | | | |     0dc7: 65 00 00 00                                     [e...]
  | | | | | | PictureStyleInfo (SubDirectory) -->
  | | | | | | - Tag 0x03cf (561 bytes, int8u[1]):
  | | | | | |     0ed7: 00 00 00 00 03 00 00 00 00 00 00 00 00 00 00 00 [................]
  | | | | | |     0ee7: ef be ad de ef be ad de 00 00 00 00 02 00 00 00 [................]
  | | | | | |     0ef7: 00 00 00 00 00 00 00 00 ef be ad de ef be ad de [................]
  | | | | | |     0f07: 00 00 00 00 04 00 00 00 00 00 00 00 00 00 00 00 [................]
  | | | | | |     0f17: ef be ad de ef be ad de 00 00 00 00 00 00 00 00 [................]
  | | | | | |     0f27: 00 00 00 00 00 00 00 00 ef be ad de ef be ad de [................]
  | | | | | |     0f37: 00 00 00 00 00 00 00 00 00 00 00 00 00 00 00 00 [................]
  | | | | | |     0f47: ef be ad de ef be ad de 00 00 00 00 03 00 00 00 [................]
  | | | | | |     0f57: ef be ad de ef be ad de 00 00 00 00 00 00 00 00 [................]
  | | | | | |     0f67: 00 00 00 00 03 00 00 00 00 00 00 00 00 00 00 00 [................]
  | | | | | |     0f77: ef be ad de ef be ad de 00 00 00 00 03 00 00 00 [................]
  | | | | | |     0f87: 00 00 00 00 00 00 00 00 00 00 00 00 00 00 00 00 [................]
  | | | | | |     0f97: 00 00 00 00 03 00 00 00 00 00 00 00 00 00 00 00 [................]
  | | | | | |     0fa7: 00 00 00 00 00 00 00 00 00 00 00 00 03 00 00 00 [................]
  | | | | | |     0fb7: 00 00 00 00 00 00 00 00 00 00 00 00 00 00 00 00 [................]
  | | | | | |     0fc7: 87 00 87 00 87 00 00 00 ff ff ff ff ff ff ff ff [................]
  | | | | | |     0fd7: 00 00 00 00 00 00 00 00 00 00 00 00 00 00 00 00 [................]
  | | | | | |     0fe7: 00 00 00 00 00 00 00 00 00 00 00 00 00 00 00 00 [................]
  | | | | | |     0ff7: 00 04 00 04 00 04 00 04 00 00 00 00 00 00 00 00 [................]
  | | | | | |     1007: 00 00 00 00 00 00 00 00 00 00 00 00 00 00 00 00 [................]
  | | | | | |     1017: 00 00 00 00 00 00 00 00 00 04 00 04 00 04 00 04 [................]
  | | | | | |     1027: 00 00 00 00 00 00 00 00 00 00 00 00 00 00 00 00 [................]
  | | | | | |     1037: 00 00 00 00 00 00 00 00 00 00 00 00 00 00 00 00 [................]
  | | | | | |     1047: 00 04 00 04 00 04 00 04 00 00 00 00 00 00 00 00 [................]
  | | | | | |     1057: 00 00 00 00 00 00 00 00 00 00 00 00 00 00 00 00 [................]
  | | | | | |     1067: 00 00 00 00 00 00 00 00 00 04 00 04 00 04 00 04 [................]
  | | | | | |     1077: 00 00 00 00 00 00 00 00 00 00 00 00 00 00 00 00 [................]
  | | | | | |     1087: 00 00 00 00 00 00 00 00 00 00 00 00 00 00 00 00 [................]
  | | | | | |     1097: 00 04 00 04 00 04 00 04 00 00 00 00 00 00 00 00 [................]
  | | | | | |     10a7: 28 75 1a 56 02 00 00 00 04 00 00 00 00 00 00 00 [(u.V............]
  | | | | | |     10b7: 04 00 00 00 00 00 00 00 04 00 00 00 00 00 00 00 [................]
  | | | | | |     10c7: 00 00 00 10 00 00 00 00 00 00 00 00 00 00 00 00 [................]
  | | | | | |     10d7: 00 37 00 00 d8 3a 01 00 00 00 00 00 00 00 00 00 [.7...:..........]
  | | | | | |     10e7: 00 00 00 00 03 00 00 00 53 00 00 00 58 00 03 80 [........S...X...]
  | | | | | |     10f7: 00 00 00 00 03 00 00 00 4d 00 00 00 4e 00 00 00 [........M...N...]
  | | | | | |     1107: 00                                              [.]
  | | | | | | + [BinaryData directory, 561 bytes, Little-endian]
  | | | | | | | ContrastStandard = 0
  | | | | | | | - Tag 0x0000 (4 bytes, int32s[1]):
  | | | | | | |     0ed7: 00 00 00 00                                     [....]
  | | | | | | | SharpnessStandard = 3
  | | | | | | | - Tag 0x0004 (4 bytes, int32s[1]):
  | | | | | | |     0edb: 03 00 00 00                                     [....]
  | | | | | | | SaturationStandard = 0
  | | | | | | | - Tag 0x0008 (4 bytes, int32s[1]):
  | | | | | | |     0edf: 00 00 00 00                                     [....]
  | | | | | | | ColorToneStandard = 0
  | | | | | | | - Tag 0x000c (4 bytes, int32s[1]):
  | | | | | | |     0ee3: 00 00 00 00                                     [....]
  | | | | | | | FilterEffectStandard = -559038737
  | | | | | | | - Tag 0x0010 (4 bytes, int32s[1]):
  | | | | | | |     0ee7: ef be ad de                                     [....]
  | | | | | | | ToningEffectStandard = -559038737
  | | | | | | | - Tag 0x0014 (4 bytes, int32s[1]):
  | | | | | | |     0eeb: ef be ad de                                     [....]
  | | | | | | | ContrastPortrait = 0
  | | | | | | | - Tag 0x0018 (4 bytes, int32s[1]):
  | | | | | | |     0eef: 00 00 00 00                                     [....]
  | | | | | | | SharpnessPortrait = 2
  | | | | | | | - Tag 0x001c (4 bytes, int32s[1]):
  | | | | | | |     0ef3: 02 00 00 00                                     [....]
  | | | | | | | SaturationPortrait = 0
  | | | | | | | - Tag 0x0020 (4 bytes, int32s[1]):
  | | | | | | |     0ef7: 00 00 00 00                                     [....]
  | | | | | | | ColorTonePortrait = 0
  | | | | | | | - Tag 0x0024 (4 bytes, int32s[1]):
  | | | | | | |     0efb: 00 00 00 00                                     [....]
  | | | | | | | FilterEffectPortrait = -559038737
  | | | | | | | - Tag 0x0028 (4 bytes, int32s[1]):
  | | | | | | |     0eff: ef be ad de                                     [....]
  | | | | | | | ToningEffectPortrait = -559038737
  | | | | | | | - Tag 0x002c (4 bytes, int32s[1]):
  | | | | | | |     0f03: ef be ad de                                     [....]
  | | | | | | | ContrastLandscape = 0
  | | | | | | | - Tag 0x0030 (4 bytes, int32s[1]):
  | | | | | | |     0f07: 00 00 00 00                                     [....]
  | | | | | | | SharpnessLandscape = 4
  | | | | | | | - Tag 0x0034 (4 bytes, int32s[1]):
  | | | | | | |     0f0b: 04 00 00 00                                     [....]
  | | | | | | | SaturationLandscape = 0
  | | | | | | | - Tag 0x0038 (4 bytes, int32s[1]):
  | | | | | | |     0f0f: 00 00 00 00                                     [....]
  | | | | | | | ColorToneLandscape = 0
  | | | | | | | - Tag 0x003c (4 bytes, int32s[1]):
  | | | | | | |     0f13: 00 00 00 00                                     [....]
  | | | | | | | FilterEffectLandscape = -559038737
  | | | | | | | - Tag 0x0040 (4 bytes, int32s[1]):
  | | | | | | |     0f17: ef be ad de                                     [....]
  | | | | | | | ToningEffectLandscape = -559038737
  | | | | | | | - Tag 0x0044 (4 bytes, int32s[1]):
  | | | | | | |     0f1b: ef be ad de                                     [....]
  | | | | | | | ContrastNeutral = 0
  | | | | | | | - Tag 0x0048 (4 bytes, int32s[1]):
  | | | | | | |     0f1f: 00 00 00 00                                     [....]
  | | | | | | | SharpnessNeutral = 0
  | | | | | | | - Tag 0x004c (4 bytes, int32s[1]):
  | | | | | | |     0f23: 00 00 00 00                                     [....]
  | | | | | | | SaturationNeutral = 0
  | | | | | | | - Tag 0x0050 (4 bytes, int32s[1]):
  | | | | | | |     0f27: 00 00 00 00                                     [....]
  | | | | | | | ColorToneNeutral = 0
  | | | | | | | - Tag 0x0054 (4 bytes, int32s[1]):
  | | | | | | |     0f2b: 00 00 00 00                                     [....]
  | | | | | | | FilterEffectNeutral = -559038737
  | | | | | | | - Tag 0x0058 (4 bytes, int32s[1]):
  | | | | | | |     0f2f: ef be ad de                                     [....]
  | | | | | | | ToningEffectNeutral = -559038737
  | | | | | | | - Tag 0x005c (4 bytes, int32s[1]):
  | | | | | | |     0f33: ef be ad de                                     [....]
  | | | | | | | ContrastFaithful = 0
  | | | | | | | - Tag 0x0060 (4 bytes, int32s[1]):
  | | | | | | |     0f37: 00 00 00 00                                     [....]
  | | | | | | | SharpnessFaithful = 0
  | | | | | | | - Tag 0x0064 (4 bytes, int32s[1]):
  | | | | | | |     0f3b: 00 00 00 00                                     [....]
  | | | | | | | SaturationFaithful = 0
  | | | | | | | - Tag 0x0068 (4 bytes, int32s[1]):
  | | | | | | |     0f3f: 00 00 00 00                                     [....]
  | | | | | | | ColorToneFaithful = 0
  | | | | | | | - Tag 0x006c (4 bytes, int32s[1]):
  | | | | | | |     0f43: 00 00 00 00                                     [....]
  | | | | | | | FilterEffectFaithful = -559038737
  | | | | | | | - Tag 0x0070 (4 bytes, int32s[1]):
  | | | | | | |     0f47: ef be ad de                                     [....]
  | | | | | | | ToningEffectFaithful = -559038737
  | | | | | | | - Tag 0x0074 (4 bytes, int32s[1]):
  | | | | | | |     0f4b: ef be ad de                                     [....]
  | | | | | | | ContrastMonochrome = 0
  | | | | | | | - Tag 0x0078 (4 bytes, int32s[1]):
  | | | | | | |     0f4f: 00 00 00 00                                     [....]
  | | | | | | | SharpnessMonochrome = 3
  | | | | | | | - Tag 0x007c (4 bytes, int32s[1]):
  | | | | | | |     0f53: 03 00 00 00                                     [....]
  | | | | | | | SaturationMonochrome = -559038737
  | | | | | | | - Tag 0x0080 (4 bytes, int32s[1]):
  | | | | | | |     0f57: ef be ad de                                     [....]
  | | | | | | | ColorToneMonochrome = -559038737
  | | | | | | | - Tag 0x0084 (4 bytes, int32s[1]):
  | | | | | | |     0f5b: ef be ad de                                     [....]
  | | | | | | | FilterEffectMonochrome = 0
  | | | | | | | - Tag 0x0088 (4 bytes, int32s[1]):
  | | | | | | |     0f5f: 00 00 00 00                                     [....]
  | | | | | | | ToningEffectMonochrome = 0
  | | | | | | | - Tag 0x008c (4 bytes, int32s[1]):
  | | | | | | |     0f63: 00 00 00 00                                     [....]
  | | | | | | | ContrastAuto = 0
  | | | | | | | - Tag 0x0090 (4 bytes, int32s[1]):
  | | | | | | |     0f67: 00 00 00 00                                     [....]
  | | | | | | | SharpnessAuto = 3
  | | | | | | | - Tag 0x0094 (4 bytes, int32s[1]):
  | | | | | | |     0f6b: 03 00 00 00                                     [....]
  | | | | | | | SaturationAuto = 0
  | | | | | | | - Tag 0x0098 (4 bytes, int32s[1]):
  | | | | | | |     0f6f: 00 00 00 00                                     [....]
  | | | | | | | ColorToneAuto = 0
  | | | | | | | - Tag 0x009c (4 bytes, int32s[1]):
  | | | | | | |     0f73: 00 00 00 00                                     [....]
  | | | | | | | FilterEffectAuto = -559038737
  | | | | | | | - Tag 0x00a0 (4 bytes, int32s[1]):
  | | | | | | |     0f77: ef be ad de                                     [....]
  | | | | | | | ToningEffectAuto = -559038737
  | | | | | | | - Tag 0x00a4 (4 bytes, int32s[1]):
  | | | | | | |     0f7b: ef be ad de                                     [....]
  | | | | | | | ContrastUserDef1 = 0
  | | | | | | | - Tag 0x00a8 (4 bytes, int32s[1]):
  | | | | | | |     0f7f: 00 00 00 00                                     [....]
  | | | | | | | SharpnessUserDef1 = 3
  | | | | | | | - Tag 0x00ac (4 bytes, int32s[1]):
  | | | | | | |     0f83: 03 00 00 00                                     [....]
  | | | | | | | SaturationUserDef1 = 0
  | | | | | | | - Tag 0x00b0 (4 bytes, int32s[1]):
  | | | | | | |     0f87: 00 00 00 00                                     [....]
  | | | | | | | ColorToneUserDef1 = 0
  | | | | | | | - Tag 0x00b4 (4 bytes, int32s[1]):
  | | | | | | |     0f8b: 00 00 00 00                                     [....]
  | | | | | | | FilterEffectUserDef1 = 0
  | | | | | | | - Tag 0x00b8 (4 bytes, int32s[1]):
  | | | | | | |     0f8f: 00 00 00 00                                     [....]
  | | | | | | | ToningEffectUserDef1 = 0
  | | | | | | | - Tag 0x00bc (4 bytes, int32s[1]):
  | | | | | | |     0f93: 00 00 00 00                                     [....]
  | | | | | | | ContrastUserDef2 = 0
  | | | | | | | - Tag 0x00c0 (4 bytes, int32s[1]):
  | | | | | | |     0f97: 00 00 00 00                                     [....]
  | | | | | | | SharpnessUserDef2 = 3
  | | | | | | | - Tag 0x00c4 (4 bytes, int32s[1]):
  | | | | | | |     0f9b: 03 00 00 00                                     [....]
  | | | | | | | SaturationUserDef2 = 0
  | | | | | | | - Tag 0x00c8 (4 bytes, int32s[1]):
  | | | | | | |     0f9f: 00 00 00 00                                     [....]
  | | | | | | | ColorToneUserDef2 = 0
  | | | | | | | - Tag 0x00cc (4 bytes, int32s[1]):
  | | | | | | |     0fa3: 00 00 00 00                                     [....]
  | | | | | | | FilterEffectUserDef2 = 0
  | | | | | | | - Tag 0x00d0 (4 bytes, int32s[1]):
  | | | | | | |     0fa7: 00 00 00 00                                     [....]
  | | | | | | | ToningEffectUserDef2 = 0
  | | | | | | | - Tag 0x00d4 (4 bytes, int32s[1]):
  | | | | | | |     0fab: 00 00 00 00                                     [....]
  | | | | | | | ContrastUserDef3 = 0
  | | | | | | | - Tag 0x00d8 (4 bytes, int32s[1]):
  | | | | | | |     0faf: 00 00 00 00                                     [....]
  | | | | | | | SharpnessUserDef3 = 3
  | | | | | | | - Tag 0x00dc (4 bytes, int32s[1]):
  | | | | | | |     0fb3: 03 00 00 00                                     [....]
  | | | | | | | SaturationUserDef3 = 0
  | | | | | | | - Tag 0x00e0 (4 bytes, int32s[1]):
  | | | | | | |     0fb7: 00 00 00 00                                     [....]
  | | | | | | | ColorToneUserDef3 = 0
  | | | | | | | - Tag 0x00e4 (4 bytes, int32s[1]):
  | | | | | | |     0fbb: 00 00 00 00                                     [....]
  | | | | | | | FilterEffectUserDef3 = 0
  | | | | | | | - Tag 0x00e8 (4 bytes, int32s[1]):
  | | | | | | |     0fbf: 00 00 00 00                                     [....]
  | | | | | | | ToningEffectUserDef3 = 0
  | | | | | | | - Tag 0x00ec (4 bytes, int32s[1]):
  | | | | | | |     0fc3: 00 00 00 00                                     [....]
  | | | | | | | UserDef1PictureStyle = 135
  | | | | | | | - Tag 0x00f0 (2 bytes, int16u[1]):
  | | | | | | |     0fc7: 87 00                                           [..]
  | | | | | | | UserDef2PictureStyle = 135
  | | | | | | | - Tag 0x00f2 (2 bytes, int16u[1]):
  | | | | | | |     0fc9: 87 00                                           [..]
  | | | | | | | UserDef3PictureStyle = 135
  | | | | | | | - Tag 0x00f4 (2 bytes, int16u[1]):
  | | | | | | |     0fcb: 87 00                                           [..]
  | | | | | 8)  CanonModelID = 2147484453
  | | | | |     - Tag 0x0010 (4 bytes, int32u[1]):
  | | | | |         0884: 25 03 00 80                                     [%...]
  | | | | | 9)  ThumbnailImageValidArea = 0 159 7 112
  | | | | |     - Tag 0x0013 (8 bytes, int16u[4]):
  | | | | |         1108: 00 00 9f 00 07 00 70 00                         [......p.]
  | | | | | 10) Canon_0x0019 = 1
  | | | | |     - Tag 0x0019 (2 bytes, int16u[1]):
  | | | | |         089c: 01 00                                           [..]
  | | | | | 11) CanonAFInfo2 (SubDirectory) -->
  | | | | |     - Tag 0x0026 (278 bytes, int16u[139] read as undef[278]):
  | | | | |         1110: 16 01 04 00 1f 00 13 00 60 15 40 0e 60 15 40 0e [........`.@.`.@.]
  | | | | |         1120: e5 00 e5 00 e5 00 e5 00 e5 00 e5 00 e5 00 e5 00 [................]
  | | | | |         1130: e5 00 e5 00 e5 00 e5 00 e5 00 e5 00 e5 00 e5 00 [................]
  | | | | |         1140: e5 00 e5 00 e5 00 00 00 00 00 00 00 00 00 00 00 [................]
  | | | | |         1150: 00 00 00 00 00 00 00 00 00 00 00 00 00 00 15 01 [................]
  | | | | |         1160: 15 01 15 01 15 01 15 01 15 01 15 01 15 01 15 01 [................]
  | | | | |         1170: 15 01 15 01 15 01 15 01 15 01 15 01 15 01 15 01 [................]
  | | | | |         1180: 15 01 15 01 00 00 00 00 00 00 00 00 00 00 00 00 [................]
  | | | | |         1190: 00 00 00 00 00 00 00 00 00 00 00 00 8d fa 7f fc [................]
  | | | | |         11a0: 7f fc 7f fc 71 fe 71 fe 71 fe 00 00 00 00 00 00 [....q.q.q.......]
  | | | | |         11b0: 00 00 00 00 8f 01 8f 01 8f 01 81 03 81 03 81 03 [................]
  | | | | |         11c0: 73 05 00 00 00 00 00 00 00 00 00 00 00 00 00 00 [s...............]
  | | | | |         11d0: 00 00 00 00 00 00 00 00 00 00 00 00 91 01 00 00 [................]
  | | | | |         11e0: 6f fe 91 01 00 00 6f fe f3 02 91 01 00 00 6f fe [o.....o.......o.]
  | | | | |         11f0: 0d fd 91 01 00 00 6f fe 91 01 00 00 6f fe 00 00 [......o.....o...]
  | | | | |         1200: 00 00 00 00 00 00 00 00 00 00 00 00 00 00 00 00 [................]
  | | | | |         1210: 00 00 00 00 00 00 00 00 00 00 04 00 ff ff 07 00 [................]
  | | | | |         1220: 00 00 00 00 ff ff                               [......]
  | | | | | + [SerialData directory, 278 bytes]
  | | | | | | 0)  AFInfoSize = 278
  | | | | | |     - Tag 0x0000 (2 bytes, int16u[1]):
  | | | | | |         1110: 16 01                                           [..]
  | | | | | | 1)  AFAreaMode = 4
  | | | | | |     - Tag 0x0001 (2 bytes, int16u[1]):
  | | | | | |         1112: 04 00                                           [..]
  | | | | | | 2)  NumAFPoints = 31
  | | | | | |     - Tag 0x0002 (2 bytes, int16u[1]):
  | | | | | |         1114: 1f 00                                           [..]
  | | | | | | 3)  ValidAFPoints = 19
  | | | | | |     - Tag 0x0003 (2 bytes, int16u[1]):
  | | | | | |         1116: 13 00                                           [..]
  | | | | | | 4)  CanonImageWidth = 5472
  | | | | | |     - Tag 0x0004 (2 bytes, int16u[1]):
  | | | | | |         1118: 60 15                                           [`.]
  | | | | | | 5)  CanonImageHeight = 3648
  | | | | | |     - Tag 0x0005 (2 bytes, int16u[1]):
  | | | | | |         111a: 40 0e                                           [@.]
  | | | | | | 6)  AFImageWidth = 5472
  | | | | | |     - Tag 0x0006 (2 bytes, int16u[1]):
  | | | | | |         111c: 60 15                                           [`.]
  | | | | | | 7)  AFImageHeight = 3648
  | | | | | |     - Tag 0x0007 (2 bytes, int16u[1]):
  | | | | | |         111e: 40 0e                                           [@.]
  | | | | | | 8)  AFAreaWidths = 229 229 229 229 229 229 229 229 229 229 229 229 229 229 229 229 229 229 229 0 0 0 0 0 0 0 0 0 0 0 0
  | | | | | |     - Tag 0x0008 (62 bytes, int16s[31]):
  | | | | | |         1120: e5 00 e5 00 e5 00 e5 00 e5 00 e5 00 e5 00 e5 00 [................]
  | | | | | |         1130: e5 00 e5 00 e5 00 e5 00 e5 00 e5 00 e5 00 e5 00 [................]
  | | | | | |         1140: e5 00 e5 00 e5 00 00 00 00 00 00 00 00 00 00 00 [................]
  | | | | | |         1150: 00 00 00 00 00 00 00 00 00 00 00 00 00 00       [..............]
  | | | | | | 9)  AFAreaHeights = 277 277 277 277 277 277 277 277 277 277 277 277 277 277 277 277 277 277 277 0 0 0 0 0 0 0 0 0 0 0 0
  | | | | | |     - Tag 0x0009 (62 bytes, int16s[31]):
  | | | | | |         115e: 15 01 15 01 15 01 15 01 15 01 15 01 15 01 15 01 [................]
  | | | | | |         116e: 15 01 15 01 15 01 15 01 15 01 15 01 15 01 15 01 [................]
  | | | | | |         117e: 15 01 15 01 15 01 00 00 00 00 00 00 00 00 00 00 [................]
  | | | | | |         118e: 00 00 00 00 00 00 00 00 00 00 00 00 00 00       [..............]
  | | | | | | 10) AFAreaXPositions = -1395 -897 -897 -897 -399 -399 -399 0 0 0 0 0 399 399 399 897 897 897 1395 0 0 0 0 0 0 0 0 0 0 0 0
  | | | | | |     - Tag 0x000a (62 bytes, int16s[31]):
  | | | | | |         119c: 8d fa 7f fc 7f fc 7f fc 71 fe 71 fe 71 fe 00 00 [........q.q.q...]
  | | | | | |         11ac: 00 00 00 00 00 00 00 00 8f 01 8f 01 8f 01 81 03 [................]
  | | | | | |         11bc: 81 03 81 03 73 05 00 00 00 00 00 00 00 00 00 00 [....s...........]
  | | | | | |         11cc: 00 00 00 00 00 00 00 00 00 00 00 00 00 00       [..............]
  | | | | | | 11) AFAreaYPositions = 0 401 0 -401 401 0 -401 755 401 0 -401 -755 401 0 -401 401 0 -401 0 0 0 0 0 0 0 0 0 0 0 0 0
  | | | | | |     - Tag 0x000b (62 bytes, int16s[31]):
  | | | | | |         11da: 00 00 91 01 00 00 6f fe 91 01 00 00 6f fe f3 02 [......o.....o...]
  | | | | | |         11ea: 91 01 00 00 6f fe 0d fd 91 01 00 00 6f fe 91 01 [....o.......o...]
  | | | | | |         11fa: 00 00 6f fe 00 00 00 00 00 00 00 00 00 00 00 00 [..o.............]
  | | | | | |         120a: 00 00 00 00 00 00 00 00 00 00 00 00 00 00       [..............]
  | | | | | | 12) AFPointsInFocus = 0 4
  | | | | | |     - Tag 0x000c (4 bytes, int16s[2]):
  | | | | | |         1218: 00 00 04 00                                     [....]
  | | | | | | 13) AFPointsSelected = -1 7
  | | | | | |     - Tag 0x000d (4 bytes, int16s[2]):
  | | | | | |         121c: ff ff 07 00                                     [....]
  | | | | | 12) TimeInfo (SubDirectory) -->
  | | | | |     - Tag 0x0035 (16 bytes, int32u[4] read as undef[16]):
  | | | | |         1226: 10 00 00 00 00 00 00 00 14 00 00 00 00 00 00 00 [................]
  | | | | | + [BinaryData directory, 16 bytes, Little-endian]
  | | | | | | TimeZone = 0
  | | | | | | - Tag 0x0001 (4 bytes, int32s[1]):
  | | | | | |     122a: 00 00 00 00                                     [....]
  | | | | | | TimeZoneCity = 20
  | | | | | | - Tag 0x0002 (4 bytes, int32s[1]):
  | | | | | |     122e: 14 00 00 00                                     [....]
  | | | | | | DaylightSavings = 0
  | | | | | | - Tag 0x0003 (4 bytes, int32s[1]):
  | | | | | |     1232: 00 00 00 00                                     [....]
  | | | | | 13) CanonFileInfo (SubDirectory) -->
  | | | | |     - Tag 0x0093 (64 bytes, int16u[32] read as undef[64]):
  | | | | |         1236: 40 00 00 00 00 00 00 00 00 00 00 00 00 00 00 00 [@...............]
  | | | | |         1246: ff ff 00 00 00 00 00 00 00 00 00 00 ff ff ff ff [................]
  | | | | |         1256: a6 00 ff ff 00 00 00 00 57 00 49 00 00 00 00 00 [........W.I.....]
  | | | | |         1266: 00 00 00 00 ff ff 00 00 00 00 00 00 ff ff ff ff [................]
  | | | | | + [BinaryData directory, 64 bytes, Little-endian]
  | | | | | | BracketMode = 0
  | | | | | | - Tag 0x0003 (2 bytes, int16s[1]):
  | | | | | |     123c: 00 00                                           [..]
  | | | | | | BracketValue = 0
  | | | | | | - Tag 0x0004 (2 bytes, int16s[1]):
  | | | | | |     123e: 00 00                                           [..]
  | | | | | | BracketShotNumber = 0
  | | | | | | - Tag 0x0005 (2 bytes, int16s[1]):
  | | | | | |     1240: 00 00                                           [..]
  | | | | | | RawJpgQuality = 0
  | | | | | | - Tag 0x0006 (2 bytes, int16s[1]):
  | | | | | |     1242: 00 00                                           [..]
  | | | | | | RawJpgSize = 0
  | | | | | | - Tag 0x0007 (2 bytes, int16s[1]):
  | | | | | |     1244: 00 00                                           [..]
  | | | | | | LongExposureNoiseReduction2 = -1
  | | | | | | - Tag 0x0008 (2 bytes, int16s[1]):
  | | | | | |     1246: ff ff                                           [..]
  | | | | | | WBBracketMode = 0
  | | | | | | - Tag 0x0009 (2 bytes, int16s[1]):
  | | | | | |     1248: 00 00                                           [..]
  | | | | | | WBBracketValueAB = 0
  | | | | | | - Tag 0x000c (2 bytes, int16s[1]):
  | | | | | |     124e: 00 00                                           [..]
  | | | | | | WBBracketValueGM = 0
  | | | | | | - Tag 0x000d (2 bytes, int16s[1]):
  | | | | | |     1250: 00 00                                           [..]
  | | | | | | FilterEffect = -1
  | | | | | | - Tag 0x000e (2 bytes, int16s[1]):
  | | | | | |     1252: ff ff                                           [..]
  | | | | | | ToningEffect = -1
  | | | | | | - Tag 0x000f (2 bytes, int16s[1]):
  | | | | | |     1254: ff ff                                           [..]
  | | | | | | LiveViewShooting = 0
  | | | | | | - Tag 0x0013 (2 bytes, int16s[1]):
  | | | | | |     125c: 00 00                                           [..]
  | | | | | | FocusDistanceUpper = 87
  | | | | | | - Tag 0x0014 (2 bytes, int16u[1]):
  | | | | | |     125e: 57 00                                           [W.]
  | | | | | | FocusDistanceLower = 73
  | | | | | | - Tag 0x0015 (2 bytes, int16u[1]):
  | | | | | |     1260: 49 00                                           [I.]
  | | | | | | ShutterMode = 0
  | | | | | | - Tag 0x0017 (2 bytes, int16s[1]):
  | | | | | |     1264: 00 00                                           [..]
  | | | | | | FlashExposureLock = 0
  | | | | | | - Tag 0x0019 (2 bytes, int16s[1]):
  | | | | | |     1268: 00 00                                           [..]
  | | | | | 14) LensModel = EF50mm f/1.8 STM
  | | | | |     - Tag 0x0095 (74 bytes, string[74]):
  | | | | |         1276: 45 46 35 30 6d 6d 20 66 2f 31 2e 38 20 53 54 4d [EF50mm f/1.8 STM]
  | | | | |         1286: 00 2d 35 2e 36 20 49 53 20 53 54 4d 00 00 00 00 [.-5.6 IS STM....]
  | | | | |         1296: 00 00 00 00 00 00 00 00 00 00 00 00 00 00 00 00 [................]
  | | | | |         12a6: 00 00 00 00 00 00 00 00 00 00 00 00 00 00 00 00 [................]
  | | | | |         12b6: 00 00 00 00 00 00 55 55 64 17                   [......UUd.]
  | | | | | 15) InternalSerialNumber = FA0381304
  | | | | |     - Tag 0x0096 (16 bytes, string[16]):
  | | | | |         12c0: 46 41 30 33 38 31 33 30 34 00 00 00 00 00 00 00 [FA0381304.......]
  | | | | | 16) DustRemovalData = 
  | | | | |     - Tag 0x0097 (1024 bytes, undef[1024]):
  | | | | |         12d0: 00 00 00 00 00 00 00 00 00 00 00 00 00 00 00 00 [................]
  | | | | |         12e0: 00 00 00 00 00 00 00 00 00 00 00 00 00 00 00 00 [................]
  | | | | |         12f0: 00 00 00 00 00 00 00 00 00 00 00 00 00 00 00 00 [................]
  | | | | |         1300: 00 00 00 00 00 00 00 00 00 00 00 00 00 00 00 00 [................]
  | | | | |         1310: 00 00 00 00 00 00 00 00 00 00 00 00 00 00 00 00 [................]
  | | | | |         1320: 00 00 00 00 00 00 00 00 00 00 00 00 00 00 00 00 [................]
  | | | | |         1330: 00 00 00 00 00 00 00 00 00 00 00 00 00 00 00 00 [................]
  | | | | |         1340: 00 00 00 00 00 00 00 00 00 00 00 00 00 00 00 00 [................]
  | | | | |         1350: 00 00 00 00 00 00 00 00 00 00 00 00 00 00 00 00 [................]
  | | | | |         1360: 00 00 00 00 00 00 00 00 00 00 00 00 00 00 00 00 [................]
  | | | | |         1370: 00 00 00 00 00 00 00 00 00 00 00 00 00 00 00 00 [................]
  | | | | |         1380: 00 00 00 00 00 00 00 00 00 00 00 00 00 00 00 00 [................]
  | | | | |         1390: 00 00 00 00 00 00 00 00 00 00 00 00 00 00 00 00 [................]
  | | | | |         13a0: 00 00 00 00 00 00 00 00 00 00 00 00 00 00 00 00 [................]
  | | | | |         13b0: 00 00 00 00 00 00 00 00 00 00 00 00 00 00 00 00 [................]
  | | | | |         13c0: 00 00 00 00 00 00 00 00 00 00 00 00 00 00 00 00 [................]
  | | | | |         13d0: 00 00 00 00 00 00 00 00 00 00 00 00 00 00 00 00 [................]
  | | | | |         13e0: 00 00 00 00 00 00 00 00 00 00 00 00 00 00 00 00 [................]
  | | | | |         13f0: 00 00 00 00 00 00 00 00 00 00 00 00 00 00 00 00 [................]
  | | | | |         1400: 00 00 00 00 00 00 00 00 00 00 00 00 00 00 00 00 [................]
  | | | | |         1410: 00 00 00 00 00 00 00 00 00 00 00 00 00 00 00 00 [................]
  | | | | |         1420: 00 00 00 00 00 00 00 00 00 00 00 00 00 00 00 00 [................]
  | | | | |         1430: 00 00 00 00 00 00 00 00 00 00 00 00 00 00 00 00 [................]
  | | | | |         1440: 00 00 00 00 00 00 00 00 00 00 00 00 00 00 00 00 [................]
  | | | | |         1450: 00 00 00 00 00 00 00 00 00 00 00 00 00 00 00 00 [................]
  | | | | |         1460: 00 00 00 00 00 00 00 00 00 00 00 00 00 00 00 00 [................]
  | | | | |         1470: 00 00 00 00 00 00 00 00 00 00 00 00 00 00 00 00 [................]
  | | | | |         1480: 00 00 00 00 00 00 00 00 00 00 00 00 00 00 00 00 [................]
  | | | | |         1490: 00 00 00 00 00 00 00 00 00 00 00 00 00 00 00 00 [................]
  | | | | |         14a0: 00 00 00 00 00 00 00 00 00 00 00 00 00 00 00 00 [................]
  | | | | |         14b0: 00 00 00 00 00 00 00 00 00 00 00 00 00 00 00 00 [................]
  | | | | |         14c0: 00 00 00 00 00 00 00 00 00 00 00 00 00 00 00 00 [................]
  | | | | |         14d0: 00 00 00 00 00 00 00 00 00 00 00 00 00 00 00 00 [................]
  | | | | |         14e0: 00 00 00 00 00 00 00 00 00 00 00 00 00 00 00 00 [................]
  | | | | |         14f0: 00 00 00 00 00 00 00 00 00 00 00 00 00 00 00 00 [................]
  | | | | |         1500: 00 00 00 00 00 00 00 00 00 00 00 00 00 00 00 00 [................]
  | | | | |         1510: 00 00 00 00 00 00 00 00 00 00 00 00 00 00 00 00 [................]
  | | | | |         1520: 00 00 00 00 00 00 00 00 00 00 00 00 00 00 00 00 [................]
  | | | | |         1530: 00 00 00 00 00 00 00 00 00 00 00 00 00 00 00 00 [................]
  | | | | |         1540: 00 00 00 00 00 00 00 00 00 00 00 00 00 00 00 00 [................]
  | | | | |         1550: 00 00 00 00 00 00 00 00 00 00 00 00 00 00 00 00 [................]
  | | | | |         1560: 00 00 00 00 00 00 00 00 00 00 00 00 00 00 00 00 [................]
  | | | | |         1570: 00 00 00 00 00 00 00 00 00 00 00 00 00 00 00 00 [................]
  | | | | |         1580: 00 00 00 00 00 00 00 00 00 00 00 00 00 00 00 00 [................]
  | | | | |         1590: 00 00 00 00 00 00 00 00 00 00 00 00 00 00 00 00 [................]
  | | | | |         15a0: 00 00 00 00 00 00 00 00 00 00 00 00 00 00 00 00 [................]
  | | | | |         15b0: 00 00 00 00 00 00 00 00 00 00 00 00 00 00 00 00 [................]
  | | | | |         15c0: 00 00 00 00 00 00 00 00 00 00 00 00 00 00 00 00 [................]
  | | | | |         15d0: 00 00 00 00 00 00 00 00 00 00 00 00 00 00 00 00 [................]
  | | | | |         15e0: 00 00 00 00 00 00 00 00 00 00 00 00 00 00 00 00 [................]
  | | | | |         15f0: 00 00 00 00 00 00 00 00 00 00 00 00 00 00 00 00 [................]
  | | | | |         1600: 00 00 00 00 00 00 00 00 00 00 00 00 00 00 00 00 [................]
  | | | | |         1610: 00 00 00 00 00 00 00 00 00 00 00 00 00 00 00 00 [................]
  | | | | |         1620: 00 00 00 00 00 00 00 00 00 00 00 00 00 00 00 00 [................]
  | | | | |         1630: 00 00 00 00 00 00 00 00 00 00 00 00 00 00 00 00 [................]
  | | | | |         1640: 00 00 00 00 00 00 00 00 00 00 00 00 00 00 00 00 [................]
  | | | | |         1650: 00 00 00 00 00 00 00 00 00 00 00 00 00 00 00 00 [................]
  | | | | |         1660: 00 00 00 00 00 00 00 00 00 00 00 00 00 00 00 00 [................]
  | | | | |         1670: 00 00 00 00 00 00 00 00 00 00 00 00 00 00 00 00 [................]
  | | | | |         1680: 00 00 00 00 00 00 00 00 00 00 00 00 00 00 00 00 [................]
  | | | | |         1690: 00 00 00 00 00 00 00 00 00 00 00 00 00 00 00 00 [................]
  | | | | |         16a0: 00 00 00 00 00 00 00 00 00 00 00 00 00 00 00 00 [................]
  | | | | |         16b0: 00 00 00 00 00 00 00 00 00 00 00 00 00 00 00 00 [................]
  | | | | |         16c0: 00 00 00 00 00 00 00 00 00 00 00 00 00 00 00 00 [................]
  | | | | | 17) CropInfo (SubDirectory) -->
  | | | | |     - Tag 0x0098 (8 bytes, int16u[4] read as undef[8]):
  | | | | |         16d0: 00 00 00 00 00 00 00 00                         [........]
  | | | | | + [BinaryData directory, 8 bytes, Little-endian]
  | | | | | | CropLeftMargin = 0
  | | | | | | - Tag 0x0000 (2 bytes, int16u[1]):
  | | | | | |     16d0: 00 00                                           [..]
  | | | | | | CropRightMargin = 0
  | | | | | | - Tag 0x0001 (2 bytes, int16u[1]):
  | | | | | |     16d2: 00 00                                           [..]
  | | | | | | CropTopMargin = 0
  | | | | | | - Tag 0x0002 (2 bytes, int16u[1]):
  | | | | | |     16d4: 00 00                                           [..]
  | | | | | | CropBottomMargin = 0
  | | | | | | - Tag 0x0003 (2 bytes, int16u[1]):
  | | | | | |     16d6: 00 00                                           [..]
  | | | | | 18) CustomFunctions2 (SubDirectory) -->
  | | | | |     - Tag 0x0099 (464 bytes, int32u[116] read as undef[464]):
  | | | | |         16d8: d0 01 00 00 03 00 00 00 01 00 00 00 54 00 00 00 [............T...]
  | | | | |         16e8: 06 00 00 00 01 01 00 00 01 00 00 00 00 00 00 00 [................]
  | | | | |         16f8: 02 01 00 00 01 00 00 00 00 00 00 00 04 01 00 00 [................]
  | | | | |         1708: 01 00 00 00 00 00 00 00 05 01 00 00 01 00 00 00 [................]
  | | | | |         1718: 00 00 00 00 06 01 00 00 02 00 00 00 03 00 00 00 [................]
  | | | | |         1728: 00 00 00 00 08 01 00 00 01 00 00 00 00 00 00 00 [................]
  | | | | |         1738: 03 00 00 00 e4 00 00 00 0d 00 00 00 02 05 00 00 [................]
  | | | | |         1748: 01 00 00 00 00 00 00 00 18 05 00 00 01 00 00 00 [................]
  | | | | |         1758: 00 00 00 00 19 05 00 00 01 00 00 00 00 00 00 00 [................]
  | | | | |         1768: 1a 05 00 00 01 00 00 00 00 00 00 00 0e 05 00 00 [................]
  | | | | |         1778: 01 00 00 00 00 00 00 00 05 05 00 00 01 00 00 00 [................]
  | | | | |         1788: 00 00 00 00 12 05 00 00 02 00 00 00 00 00 00 00 [................]
  | | | | |         1798: 07 00 00 00 1b 05 00 00 01 00 00 00 00 00 00 00 [................]
  | | | | |         17a8: 16 05 00 00 01 00 00 00 00 00 00 00 13 05 00 00 [................]
  | | | | |         17b8: 01 00 00 00 00 00 00 00 0c 05 00 00 01 00 00 00 [................]
  | | | | |         17c8: 00 00 00 00 10 05 00 00 01 00 00 00 00 00 00 00 [................]
  | | | | |         17d8: 07 05 00 00 10 00 00 00 00 00 00 00 00 00 00 00 [................]
  | | | | |         17e8: 00 00 00 00 00 00 00 00 00 00 00 00 00 00 00 00 [................]
  | | | | |         17f8: 00 00 00 00 00 00 00 00 00 00 00 00 00 00 00 00 [................]
  | | | | |         1808: 00 00 00 00 00 00 00 00 00 00 00 00 00 00 00 00 [................]
  | | | | |         1818: 00 00 00 00 00 00 00 00 04 00 00 00 84 00 00 00 [................]
  | | | | |         1828: 04 00 00 00 06 07 00 00 01 00 00 00 00 00 00 00 [................]
  | | | | |         1838: 0f 07 00 00 02 00 00 00 00 00 00 00 02 00 00 00 [................]
  | | | | |         1848: 0a 04 00 00 01 00 00 00 03 00 00 00 0c 07 00 00 [................]
  | | | | |         1858: 13 00 00 00 00 00 00 00 00 00 00 00 00 00 00 00 [................]
  | | | | |         1868: 00 00 00 00 00 00 00 00 00 00 00 00 00 00 00 00 [................]
  | | | | |         1878: 00 00 00 00 00 00 00 00 00 00 00 00 00 00 00 00 [................]
  | | | | |         1888: 00 00 00 00 00 00 00 00 00 00 00 00 00 00 00 00 [................]
  | | | | |         1898: 00 00 00 00 00 00 00 00 00 00 00 00 00 00 00 00 [................]
  | | | | | + [CanonCustom2 directory with 3 entries, 464 bytes]
  | | | | | + [CanonCustom2 group 1 directory with 6 entries, 84 bytes]
  | | | | | | 0)  ExposureLevelIncrements = 0
  | | | | | |     - Tag 0x0101 (4 bytes, int32u[1])
  | | | | | | 1)  ISOSpeedIncrements = 0
  | | | | | |     - Tag 0x0102 (4 bytes, int32u[1])
  | | | | | | 2)  AEBAutoCancel = 0
  | | | | | |     - Tag 0x0104 (4 bytes, int32u[1])
  | | | | | | 3)  AEBSequence = 0
  | | | | | |     - Tag 0x0105 (4 bytes, int32u[1])
  | | | | | | 4)  AEBShotCount = 3 0
  | | | | | |     - Tag 0x0106 (8 bytes, int32u[2])
  | | | | | | 5)  SafetyShift = 0
  | | | | | |     - Tag 0x0108 (4 bytes, int32u[1])
  | | | | | + [CanonCustom2 group 3 directory with 13 entries, 228 bytes]
  | | | | | | 0)  AIServoTrackingSensitivity = 0
  | | | | | |     - Tag 0x0502 (4 bytes, int32u[1])
  | | | | | | 1)  AccelerationTracking = 0
  | | | | | |     - Tag 0x0518 (4 bytes, int32u[1])
  | | | | | | 2)  AIServoFirstImagePriority = 0
  | | | | | |     - Tag 0x0519 (4 bytes, int32u[1])
  | | | | | | 3)  AIServoSecondImagePriority = 0
  | | | | | |     - Tag 0x051a (4 bytes, int32u[1])
  | | | | | | 4)  AFAssistBeam = 0
  | | | | | |     - Tag 0x050e (4 bytes, int32u[1])
  | | | | | | 5)  LensDriveNoAF = 0
  | | | | | |     - Tag 0x0505 (4 bytes, int32u[1])
  | | | | | | 6)  SelectAFAreaSelectMode = 0 7
  | | | | | |     - Tag 0x0512 (8 bytes, int32u[2])
  | | | | | | 7)  AFAreaSelectMethod = 0
  | | | | | |     - Tag 0x051b (4 bytes, int32u[1])
  | | | | | | 8)  OrientationLinkedAFPoint = 0
  | | | | | |     - Tag 0x0516 (4 bytes, int32u[1])
  | | | | | | 9)  ManualAFPointSelectPattern = 0
  | | | | | |     - Tag 0x0513 (4 bytes, int32u[1])
  | | | | | | 10) AFPointDisplayDuringFocus = 0
  | | | | | |     - Tag 0x050c (4 bytes, int32u[1])
  | | | | | | 11) SuperimposedDisplay = 0
  | | | | | |     - Tag 0x0510 (4 bytes, int32u[1])
  | | | | | | 12) AFMicroadjustment = 0 0 0 0 0 0 0 0 0 0 0 0 0 0 0 0
  | | | | | |     - Tag 0x0507 (64 bytes, int32u[16])
  | | | | | + [CanonCustom2 group 4 directory with 4 entries, 132 bytes]
  | | | | | | 0)  DialDirectionTvAv = 0
  | | | | | |     - Tag 0x0706 (4 bytes, int32u[1])
  | | | | | | 1)  MultiFunctionLock = 0 2
  | | | | | |     - Tag 0x070f (8 bytes, int32u[2])
  | | | | | | 2)  ViewfinderWarnings = 3
  | | | | | |     - Tag 0x040a (4 bytes, int32u[1])
  | | | | | | 3)  CustomControls = 0 0 0 0 0 0 0 0 0 0 0 0 0 0 0 0 0 0 0
  | | | | | |     - Tag 0x070c (76 bytes, int32u[19])
  | | | | | 19) AspectInfo (SubDirectory) -->
  | | | | |     - Tag 0x009a (20 bytes, int32u[5] read as undef[20]):
  | | | | |         18a8: 00 00 00 00 60 15 00 00 40 0e 00 00 00 00 00 00 [....`...@.......]
  | | | | |         18b8: 00 00 00 00                                     [....]
  | | | | | + [BinaryData directory, 20 bytes, Little-endian]
  | | | | | | AspectRatio = 0
  | | | | | | - Tag 0x0000 (4 bytes, int32u[1]):
  | | | | | |     18a8: 00 00 00 00                                     [....]
  | | | | | | CroppedImageWidth = 5472
  | | | | | | - Tag 0x0001 (4 bytes, int32u[1]):
  | | | | | |     18ac: 60 15 00 00                                     [`...]
  | | | | | | CroppedImageHeight = 3648
  | | | | | | - Tag 0x0002 (4 bytes, int32u[1]):
  | | | | | |     18b0: 40 0e 00 00                                     [@...]
  | | | | | | CroppedImageLeft = 0
  | | | | | | - Tag 0x0003 (4 bytes, int32u[1]):
  | | | | | |     18b4: 00 00 00 00                                     [....]
  | | | | | | CroppedImageTop = 0
  | | | | | | - Tag 0x0004 (4 bytes, int32u[1]):
  | | | | | |     18b8: 00 00 00 00                                     [....]
  | | | | | 20) ProcessingInfo (SubDirectory) -->
  | | | | |     - Tag 0x00a0 (28 bytes, int16u[14] read as undef[28]):
  | | | | |         18bc: 1c 00 00 00 03 00 00 00 00 00 00 00 00 00 00 00 [................]
  | | | | |         18cc: ff ff 50 14 87 00 00 00 00 00 00 00             [..P.........]
  | | | | | + [BinaryData directory, 28 bytes, Little-endian]
  | | | | | | ToneCurve = 0
  | | | | | | - Tag 0x0001 (2 bytes, int16s[1]):
  | | | | | |     18be: 00 00                                           [..]
  | | | | | | Sharpness = 3
  | | | | | | - Tag 0x0002 (2 bytes, int16s[1]):
  | | | | | |     18c0: 03 00                                           [..]
  | | | | | | SharpnessFrequency = 0
  | | | | | | - Tag 0x0003 (2 bytes, int16s[1]):
  | | | | | |     18c2: 00 00                                           [..]
  | | | | | | SensorRedLevel = 0
  | | | | | | - Tag 0x0004 (2 bytes, int16s[1]):
  | | | | | |     18c4: 00 00                                           [..]
  | | | | | | SensorBlueLevel = 0
  | | | | | | - Tag 0x0005 (2 bytes, int16s[1]):
  | | | | | |     18c6: 00 00                                           [..]
  | | | | | | WhiteBalanceRed = 0
  | | | | | | - Tag 0x0006 (2 bytes, int16s[1]):
  | | | | | |     18c8: 00 00                                           [..]
  | | | | | | WhiteBalanceBlue = 0
  | | | | | | - Tag 0x0007 (2 bytes, int16s[1]):
  | | | | | |     18ca: 00 00                                           [..]
  | | | | | | WhiteBalance = -1
  | | | | | | - Tag 0x0008 (2 bytes, int16s[1]):
  | | | | | |     18cc: ff ff                                           [..]
  | | | | | | ColorTemperature = 5200
  | | | | | | - Tag 0x0009 (2 bytes, int16s[1]):
  | | | | | |     18ce: 50 14                                           [P.]
  | | | | | | PictureStyle = 135
  | | | | | | - Tag 0x000a (2 bytes, int16s[1]):
  | | | | | |     18d0: 87 00                                           [..]
  | | | | | | DigitalGain = 0
  | | | | | | - Tag 0x000b (2 bytes, int16s[1]):
  | | | | | |     18d2: 00 00                                           [..]
  | | | | | | WBShiftAB = 0
  | | | | | | - Tag 0x000c (2 bytes, int16s[1]):
  | | | | | |     18d4: 00 00                                           [..]
  | | | | | | WBShiftGM = 0
  | | | | | | - Tag 0x000d (2 bytes, int16s[1]):
  | | | | | |     18d6: 00 00                                           [..]
  | | | | | 21) MeasuredColor (SubDirectory) -->
  | | | | |     - Tag 0x00aa (12 bytes, int16u[6] read as undef[12]):
  | | | | |         18d8: 0c 00 53 02 00 04 00 04 03 02 00 00             [..S.........]
  | | | | | + [BinaryData directory, 12 bytes, Little-endian]
  | | | | | | MeasuredRGGB = 595 1024 1024 515
  | | | | | | - Tag 0x0001 (8 bytes, int16u[4]):
  | | | | | |     18da: 53 02 00 04 00 04 03 02                         [S.......]
  | | | | | 22) ColorSpace = 1
  | | | | |     - Tag 0x00b4 (2 bytes, int16u[1]):
  | | | | |         092c: 01 00                                           [..]
  | | | | | 23) VRDOffset = 0
  | | | | |     - Tag 0x00d0 (4 bytes, int32u[1]):
  | | | | |         0938: 00 00 00 00                                     [....]
  | | | | | 24) SensorInfo (SubDirectory) -->
  | | | | |     - Tag 0x00e0 (34 bytes, int16u[17] read as undef[34]):
  | | | | |         18e4: 22 00 c0 15 7c 0e 01 00 01 00 54 00 32 00 b3 15 ["...|.....T.2...]
  | | | | |         18f4: 71 0e 00 00 00 00 00 00 00 00 00 00 00 00 00 00 [q...............]
  | | | | |         1904: 00 00                                           [..]
  | | | | | + [BinaryData directory, 34 bytes, Little-endian]
  | | | | | | SensorWidth = 5568
  | | | | | | - Tag 0x0001 (2 bytes, int16s[1]):
  | | | | | |     18e6: c0 15                                           [..]
  | | | | | | SensorHeight = 3708
  | | | | | | - Tag 0x0002 (2 bytes, int16s[1]):
  | | | | | |     18e8: 7c 0e                                           [|.]
  | | | | | | SensorLeftBorder = 84
  | | | | | | - Tag 0x0005 (2 bytes, int16s[1]):
  | | | | | |     18ee: 54 00                                           [T.]
  | | | | | | SensorTopBorder = 50
  | | | | | | - Tag 0x0006 (2 bytes, int16s[1]):
  | | | | | |     18f0: 32 00                                           [2.]
  | | | | | | SensorRightBorder = 5555
  | | | | | | - Tag 0x0007 (2 bytes, int16s[1]):
  | | | | | |     18f2: b3 15                                           [..]
  | | | | | | SensorBottomBorder = 3697
  | | | | | | - Tag 0x0008 (2 bytes, int16s[1]):
  | | | | | |     18f4: 71 0e                                           [q.]
  | | | | | | BlackMaskLeftBorder = 0
  | | | | | | - Tag 0x0009 (2 bytes, int16s[1]):
  | | | | | |     18f6: 00 00                                           [..]
  | | | | | | BlackMaskTopBorder = 0
  | | | | | | - Tag 0x000a (2 bytes, int16s[1]):
  | | | | | |     18f8: 00 00                                           [..]
  | | | | | | BlackMaskRightBorder = 0
  | | | | | | - Tag 0x000b (2 bytes, int16s[1]):
  | | | | | |     18fa: 00 00                                           [..]
  | | | | | | BlackMaskBottomBorder = 0
  | | | | | | - Tag 0x000c (2 bytes, int16s[1]):
  | | | | | |     18fc: 00 00                                           [..]
  | | | | | 25) ColorData7 (SubDirectory) -->
  | | | | |     - Tag 0x4001 (2626 bytes, int16u[1313] read as undef[2626]):
  | | | | |         1906: 0a 00 1d 03 00 04 00 04 89 01 2e 02 00 04 00 04 [................]
  | | | | |         1916: 04 02 8f 01 00 04 00 04 aa 02 5d 07 78 09 75 09 [..........].x.u.]
  | | | | |         1926: 9f 03 04 07 e9 0c ec 0c 7d 06 63 03 ab 08 b2 08 [........}.c.....]
  | | | | |         1936: c5 05 ff ff 00 00 fd 00 fd 00 fd 00 00 00 6f 06 [..............o.]
  | | | | |         1946: 51 0d 46 0d a2 07 d9 02 e0 00 e6 00 26 00 77 00 [Q.F.........&.w.]
  | | | | |         1956: f3 02 f3 02 50 04 37 06 6d 0a 64 0a 32 02 c1 06 [....P.7.m.d.2...]
  | | | | |         1966: df 0d e4 0d cc 07 00 03 e8 00 e5 00 27 00 82 00 [............'...]
  | | | | |         1976: fe 02 07 03 4d 04 77 06 b4 0a b6 0a 30 02 c2 07 [....M.w.....0...]
  | | | | |         1986: 00 04 00 04 6c 07 9d 11 c2 07 00 04 00 04 6c 07 [....l.........l.]
  | | | | |         1996: 9d 11 c2 07 00 04 00 04 6c 07 9d 11 c2 07 00 04 [........l.......]
  | | | | |         19a6: 00 04 6c 07 9d 11 00 04 00 04 00 04 00 04 0b 11 [..l.............]
  | | | | |         19b6: 00 04 00 04 00 04 00 04 0b 11 c2 07 00 04 00 04 [................]
  | | | | |         19c6: 6c 07 9d 11 c2 07 00 04 00 04 6c 07 9d 11 c2 07 [l.........l.....]
  | | | | |         19d6: 00 04 00 04 6c 07 9d 11 c6 07 00 04 00 04 6c 07 [....l.........l.]
  | | | | |         19e6: 9d 11 0d 07 00 04 00 04 b3 07 fc 0f 0b 07 04 04 [................]
  | | | | |         19f6: fb 03 b1 07 fc 0f 00 00 00 00 00 00 00 00 00 00 [................]
  | | | | |         1a06: 2d 08 00 04 00 04 88 06 50 14 76 09 00 04 00 04 [-.......P.v.....]
  | | | | |         1a16: a2 05 58 1b ca 08 00 04 00 04 0d 06 70 17 c1 05 [..X.........p...]
  | | | | |         1a26: 00 04 00 04 76 09 80 0c 20 07 00 04 00 04 f6 08 [....v... .......]
  | | | | |         1a36: 95 0e 2d 08 00 04 00 04 88 06 44 14 06 09 00 04 [..-.......D.....]
  | | | | |         1a46: 00 04 0b 06 1c 18 2d 08 00 04 00 04 88 06 44 14 [......-.......D.]
  | | | | |         1a56: 2d 08 00 04 00 04 88 06 44 14 2d 08 00 04 00 04 [-.......D.-.....]
  | | | | |         1a66: 88 06 44 14 2d 08 00 04 00 04 88 06 44 14 2d 08 [..D.-.......D.-.]
  | | | | |         1a76: 00 04 00 04 88 06 44 14 e1 03 00 04 00 04 01 04 [......D.........]
  | | | | |         1a86: 71 10 e1 03 00 04 00 04 01 04 71 10 e1 03 00 04 [q.........q.....]
  | | | | |         1a96: 00 04 01 04 71 10 e1 03 00 04 00 04 01 04 71 10 [....q.........q.]
  | | | | |         1aa6: e1 03 00 04 00 04 01 04 71 10 e1 fe 7d 01 48 03 [........q...}.H.]
  | | | | |         1ab6: 94 2a f4 fe 86 01 30 03 10 27 1c ff 9a 01 03 03 [.*....0..'......]
  | | | | |         1ac6: 6c 20 45 ff b1 01 d7 02 58 1b 79 ff d2 01 a5 02 [l E.....X.y.....]
  | | | | |         1ad6: 70 17 92 ff e2 01 8d 02 e0 15 ae ff f5 01 73 02 [p.............s.]
  | | | | |         1ae6: 50 14 db ff 10 02 4a 02 5c 12 12 00 39 02 1e 02 [P.....J.\...9...]
  | | | | |         1af6: 68 10 46 00 63 02 f8 01 d8 0e 78 00 8f 02 d7 01 [h.F.c.....x.....]
  | | | | |         1b06: ac 0d b3 00 c8 02 b1 01 80 0c e2 00 f4 02 92 01 [................]
  | | | | |         1b16: b8 0b 0f 01 29 03 7d 01 f0 0a 80 01 b8 03 48 01 [....).}.......H.]
  | | | | |         1b26: 60 09 f4 01 10 08 1d 08 01 08 01 08 01 08 01 08 [`...............]
  | | | | |         1b36: 00 00 00 00 00 00 00 00 00 00 00 00 00 00 00 00 [................]
  | | | | |         1b46: 00 00 00 00 00 00 00 00 00 00 00 00 00 00 00 00 [................]
  | | | | |         1b56: 00 00 00 00 00 00 00 00 00 00 00 00 00 00 00 00 [................]
  | | | | |         1b66: 00 00 00 00 00 00 00 00 00 00 00 00 00 00 00 00 [................]
  | | | | |         1b76: 00 00 00 00 00 00 00 00 00 00 00 00 00 00 00 00 [................]
  | | | | |         1b86: 00 00 00 00 00 00 00 00 00 00 00 00 00 00 00 00 [................]
  | | | | |         1b96: 00 00 00 00 00 00 00 00 00 00 00 00 00 00 00 00 [................]
  | | | | |         1ba6: 00 00 00 00 00 00 00 00 00 00 00 00 00 00 00 00 [................]
  | | | | |         1bb6: 00 00 00 00 00 00 01 00 00 00 01 00 03 00 01 00 [................]
  | | | | |         1bc6: 06 00 09 00 07 00 02 00 05 00 04 00 18 00 00 00 [................]
  | | | | |         1bd6: 00 00 00 00 04 00 45 00 2c 00 43 00 e1 00 66 01 [......E.,.C...f.]
  | | | | |         1be6: a1 18 de 19 9b 13 7c 06 34 03 9d 02 49 07 0d 00 [......|.4...I...]
  | | | | |         1bf6: 00 00 00 00 02 00 2b 00 25 00 52 00 30 01 b9 01 [......+.%.R.0...]
  | | | | |         1c06: bd 0f 7e 05 f4 13 c4 03 66 01 17 01 9c 02 02 00 [..~.....f.......]
  | | | | |         1c16: 15 00 10 00 37 00 21 03 1b 02 25 04 86 0b e3 0d [....7.!...%.....]
  | | | | |         1c26: f4 4f f2 2b 98 49 bd 10 5e 05 e0 03 6a 0d 4e 00 [.O.+.I..^...j.N.]
  | | | | |         1c36: 00 00 00 00 00 00 00 80 00 00 00 04 00 04 00 04 [................]
  | | | | |         1c46: 2e 0b 22 10 44 1b 76 10 a2 00 00 00 00 10 8e 0f [..".D.v.........]
  | | | | |         1c56: 62 ff 00 00 00 10 00 00 00 01 01 00 3c 68 02 00 [b...........<h..]
  | | | | |         1c66: 7e 6b 02 00 7b 6d 01 00 68 37 00 04 00 04 00 04 [~k..{m..h7......]
  | | | | |         1c76: 00 00 00 00 00 00 fd ff 00 00 ff 1f 00 01 00 00 [................]
  | | | | |         1c86: 00 00 00 04 c8 02 b2 01 f4 01 74 02 9b 01 f9 02 [..........t.....]
  | | | | |         1c96: 00 00 00 00 00 00 00 00 00 00 1f 00 3f 00 5f 00 [............?._.]
  | | | | |         1ca6: 7f 00 9f 00 bf 00 df 00 ff 00 00 00 1f 00 41 00 [..............A.]
  | | | | |         1cb6: 62 00 82 00 a1 00 c0 00 df 00 ff 00 01 00 00 00 [b...............]
  | | | | |         1cc6: 66 00 00 00 10 00 20 00 40 00 60 00 80 00 c0 00 [f..... .@.`.....]
  | | | | |         1cd6: 00 00 00 00 00 00 00 00 00 00 00 00 00 00 e8 03 [................]
  | | | | |         1ce6: e8 03 e8 03 e8 03 e8 03 e8 03 e8 03 88 04 00 00 [................]
  | | | | |         1cf6: 01 08 01 08 01 08 01 08 f4 38 f4 3a 10 27 00 00 [.........8.:.'..]
  | | | | |         1d06: dd 00 83 00 71 00 02 00 00 00 c6 07 40 08 70 10 [....q.......@.p.]
  | | | | |         1d16: f8 10 c6 07 40 08 38 0d c0 0d c6 07 40 08 d0 0e [....@.8.....@...]
  | | | | |         1d26: 58 0f 7c 00 b6 00 ce 00 00 00 00 00 00 00 00 00 [X.|.............]
  | | | | |         1d36: 00 00 00 00 00 00 00 00 00 00 00 00 00 00 00 00 [................]
  | | | | |         1d46: 00 00 00 00 00 00 00 00 00 00 00 00 00 00 00 00 [................]
  | | | | |         1d56: 00 00 00 00 00 00 00 00 00 00 00 00 00 00 00 00 [................]
  | | | | |         1d66: 00 00 00 00 00 00 00 00 00 00 00 00 00 00 00 00 [................]
  | | | | |         1d76: 00 00 00 00 00 00 00 00 00 00 00 00 00 00 00 00 [................]
  | | | | |         1d86: 00 00 00 00 00 00 00 00 00 00 00 00 00 00 00 00 [................]
  | | | | |         1d96: 00 00 00 00 00 00 00 00 00 00 00 00 00 00 00 00 [................]
  | | | | |         1da6: 00 00 00 00 00 00 00 00 00 00 00 00 00 00 00 00 [................]
  | | | | |         1db6: 00 00 00 00 00 00 00 00 00 00 00 00 00 00 00 00 [................]
  | | | | |         1dc6: 00 00 00 00 00 00 00 00 00 00 00 00 00 00 00 00 [................]
  | | | | |         1dd6: 00 00 00 00 00 00 00 00 00 00 00 00 00 00 00 00 [................]
  | | | | |         1de6: 00 00 00 00 00 00 00 00 00 00 00 00 00 00 00 00 [................]
  | | | | |         1df6: 00 00 00 00 00 00 00 00 00 00 00 00 00 00 00 00 [................]
  | | | | |         1e06: 00 00 00 00 00 00 00 00 00 00 00 00 00 00 00 00 [................]
  | | | | |         1e16: 00 00 00 00 00 00 00 00 00 00 00 00 00 00 00 00 [................]
  | | | | |         1e26: 00 00 00 00 00 00 00 00 00 00 00 00 00 00 00 00 [................]
  | | | | |         1e36: 00 00 00 00 00 00 00 00 00 00 00 00 00 00 00 00 [................]
  | | | | |         1e46: 00 00 00 00 00 00 00 00 00 00 00 00 00 00 00 00 [................]
  | | | | |         1e56: 00 00 00 00 00 00 00 00 00 00 00 00 00 00 00 00 [................]
  | | | | |         1e66: 00 00 00 00 00 00 00 00 00 00 00 00 00 00 00 00 [................]
  | | | | |         1e76: 00 00 00 00 00 00 00 00 00 00 00 00 00 00 00 00 [................]
  | | | | |         1e86: 00 00 00 00 00 00 00 00 00 00 00 00 00 00 00 00 [................]
  | | | | |         1e96: 00 00 00 00 00 00 00 00 00 00 00 00 00 00 00 00 [................]
  | | | | |         1ea6: 00 00 00 00 00 00 00 00 00 00 00 00 00 00 00 00 [................]
  | | | | |         1eb6: 00 00 00 00 00 00 00 00 00 00 00 00 00 00 00 00 [................]
  | | | | |         1ec6: 00 00 00 00 00 00 00 00 00 00 00 00 00 00 00 00 [................]
  | | | | |         1ed6: 00 00 00 00 00 00 00 00 00 00 00 00 00 00 00 00 [................]
  | | | | |         1ee6: 00 00 00 00 00 00 00 00 00 00 00 00 00 00 00 00 [................]
  | | | | |         1ef6: 00 00 00 00 00 00 00 00 00 00 00 00 00 00 00 00 [................]
  | | | | |         1f06: 00 00 00 00 00 00 00 00 00 00 00 00 00 00 00 00 [................]
  | | | | |         1f16: 00 00 00 00 00 00 00 00 00 00 00 00 00 00 00 00 [................]
  | | | | |         1f26: 00 00 00 00 00 00 00 00 00 00 00 00 00 00 00 00 [................]
  | | | | |         1f36: 00 00 00 00 00 00 00 00 00 00 00 00 00 00 00 00 [................]
  | | | | |         1f46: 00 00 00 00 00 00 00 00 00 00 00 00 00 00 00 00 [................]
  | | | | |         1f56: 00 00 00 00 00 00 00 00 00 00 00 00 00 00 00 00 [................]
  | | | | |         1f66: 00 00 00 00 00 00 00 00 00 00 00 00 00 00 00 00 [................]
  | | | | |         1f76: 00 00 00 00 00 00 00 00 00 00 00 00 00 00 00 00 [................]
  | | | | |         1f86: 00 00 00 00 00 00 00 00 00 00 00 00 00 00 00 00 [................]
  | | | | |         1f96: 00 00 00 00 00 00 00 00 00 00 00 00 00 00 00 00 [................]
  | | | | |         1fa6: 00 00 00 00 00 00 00 00 00 00 00 00 00 00 00 00 [................]
  | | | | |         1fb6: 00 00 00 00 00 00 00 00 00 00 00 00 00 00 00 00 [................]
  | | | | |         1fc6: 00 00 00 00 00 00 00 00 00 00 00 00 00 00 00 00 [................]
  | | | | |         1fd6: 00 00 00 00 00 00 00 00 00 00 00 00 00 00 00 00 [................]
  | | | | |         1fe6: 00 00 00 00 00 00 00 00 00 00 00 00 00 00 00 00 [................]
  | | | | |         1ff6: 00 00 00 00 00 00 00 00 00 00 00 00 00 00 00 00 [................]
  | | | | |         2006: 00 00 00 00 00 00 00 00 00 00 00 00 00 00 00 00 [................]
  | | | | |         2016: 00 00 00 00 00 00 00 00 00 00 00 00 00 00 00 00 [................]
  | | | | |         2026: aa aa 00 00 20 00 40 00 80 00 e0 00 00 01 00 01 [.... .@.........]
  | | | | |         2036: 00 01 00 01 00 00 20 00 40 00 80 00 e0 00 00 01 [...... .@.......]
  | | | | |         2046: 00 01 00 01 00 01 51 00 6f 00 76 00 1a 00 18 00 [......Q.o.v.....]
  | | | | |         2056: d7 00 d7 00 04 00 47 00 a8 00 b5 00 ff 00 00 00 [......G.........]
  | | | | |         2066: 00 00 00 00 00 00 00 00 00 00 00 00 00 00 00 00 [................]
  | | | | |         2076: 00 00 00 00 00 00 00 00 00 00 00 00 00 00 00 00 [................]
  | | | | |         2086: 00 00 00 00 00 00 00 00 00 00 00 00 00 00 00 00 [................]
  | | | | |         2096: 00 00 00 00 8f 00 a9 00 f3 00 00 00 00 00 00 00 [................]
  | | | | |         20a6: 00 00 00 00 00 00 00 00 00 00 00 00 00 00 00 00 [................]
  | | | | |         20b6: 00 00 00 00 00 00 00 00 00 00 00 00 00 00 00 00 [................]
  | | | | |         20c6: 00 00 00 00 00 00 00 00 00 00 00 00 00 00 00 00 [................]
  | | | | |         20d6: 00 00 00 00 00 00 00 00 00 00 64 00 00 00 00 00 [..........d.....]
  | | | | |         20e6: 00 00 a6 13 ca 05 00 04 3e 03 a7 02 00 04 d6 01 [........>.......]
  | | | | |         [snip 594 bytes]
  | | | | | + [BinaryData directory, 2626 bytes, Little-endian]
  | | | | | | ColorDataVersion = 10
  | | | | | | - Tag 0x0000 (2 bytes, int16s[1]):
  | | | | | |     1906: 0a 00                                           [..]
  | | | | | | WB_RGGBLevelsAsShot = 1986 1024 1024 1900
  | | | | | | - Tag 0x003f (8 bytes, int16s[4]):
  | | | | | |     1984: c2 07 00 04 00 04 6c 07                         [......l.]
  | | | | | | ColorTempAsShot = 4509
  | | | | | | - Tag 0x0043 (2 bytes, int16s[1]):
  | | | | | |     198c: 9d 11                                           [..]
  | | | | | | WB_RGGBLevelsAuto = 1986 1024 1024 1900
  | | | | | | - Tag 0x0044 (8 bytes, int16s[4]):
  | | | | | |     198e: c2 07 00 04 00 04 6c 07                         [......l.]
  | | | | | | ColorTempAuto = 4509
  | | | | | | - Tag 0x0048 (2 bytes, int16s[1]):
  | | | | | |     1996: 9d 11                                           [..]
  | | | | | | WB_RGGBLevelsMeasured = 1986 1024 1024 1900
  | | | | | | - Tag 0x0049 (8 bytes, int16s[4]):
  | | | | | |     1998: c2 07 00 04 00 04 6c 07                         [......l.]
  | | | | | | ColorTempMeasured = 4509
  | | | | | | - Tag 0x004d (2 bytes, int16s[1]):
  | | | | | |     19a0: 9d 11                                           [..]
  | | | | | | WB_RGGBLevelsUnknown = 1986 1024 1024 1900
  | | | | | | - Tag 0x004e (8 bytes, int16s[4]):
  | | | | | |     19a2: c2 07 00 04 00 04 6c 07                         [......l.]
  | | | | | | ColorTempUnknown = 4509
  | | | | | | - Tag 0x0052 (2 bytes, int16s[1]):
  | | | | | |     19aa: 9d 11                                           [..]
  | | | | | | WB_RGGBLevelsUnknown2 = 1024 1024 1024 1024
  | | | | | | - Tag 0x0053 (8 bytes, int16s[4]):
  | | | | | |     19ac: 00 04 00 04 00 04 00 04                         [........]
  | | | | | | ColorTempUnknown2 = 4363
  | | | | | | - Tag 0x0057 (2 bytes, int16s[1]):
  | | | | | |     19b4: 0b 11                                           [..]
  | | | | | | WB_RGGBLevelsUnknown3 = 1024 1024 1024 1024
  | | | | | | - Tag 0x0058 (8 bytes, int16s[4]):
  | | | | | |     19b6: 00 04 00 04 00 04 00 04                         [........]
  | | | | | | ColorTempUnknown3 = 4363
  | | | | | | - Tag 0x005c (2 bytes, int16s[1]):
  | | | | | |     19be: 0b 11                                           [..]
  | | | | | | WB_RGGBLevelsUnknown4 = 1986 1024 1024 1900
  | | | | | | - Tag 0x005d (8 bytes, int16s[4]):
  | | | | | |     19c0: c2 07 00 04 00 04 6c 07                         [......l.]
  | | | | | | ColorTempUnknown4 = 4509
  | | | | | | - Tag 0x0061 (2 bytes, int16s[1]):
  | | | | | |     19c8: 9d 11                                           [..]
  | | | | | | WB_RGGBLevelsUnknown5 = 1986 1024 1024 1900
  | | | | | | - Tag 0x0062 (8 bytes, int16s[4]):
  | | | | | |     19ca: c2 07 00 04 00 04 6c 07                         [......l.]
  | | | | | | ColorTempUnknown5 = 4509
  | | | | | | - Tag 0x0066 (2 bytes, int16s[1]):
  | | | | | |     19d2: 9d 11                                           [..]
  | | | | | | WB_RGGBLevelsUnknown6 = 1986 1024 1024 1900
  | | | | | | - Tag 0x0067 (8 bytes, int16s[4]):
  | | | | | |     19d4: c2 07 00 04 00 04 6c 07                         [......l.]
  | | | | | | ColorTempUnknown6 = 4509
  | | | | | | - Tag 0x006b (2 bytes, int16s[1]):
  | | | | | |     19dc: 9d 11                                           [..]
  | | | | | | WB_RGGBLevelsUnknown7 = 1990 1024 1024 1900
  | | | | | | - Tag 0x006c (8 bytes, int16s[4]):
  | | | | | |     19de: c6 07 00 04 00 04 6c 07                         [......l.]
  | | | | | | ColorTempUnknown7 = 4509
  | | | | | | - Tag 0x0070 (2 bytes, int16s[1]):
  | | | | | |     19e6: 9d 11                                           [..]
  | | | | | | WB_RGGBLevelsUnknown8 = 1805 1024 1024 1971
  | | | | | | - Tag 0x0071 (8 bytes, int16s[4]):
  | | | | | |     19e8: 0d 07 00 04 00 04 b3 07                         [........]
  | | | | | | ColorTempUnknown8 = 4092
  | | | | | | - Tag 0x0075 (2 bytes, int16s[1]):
  | | | | | |     19f0: fc 0f                                           [..]
  | | | | | | WB_RGGBLevelsUnknown9 = 1803 1028 1019 1969
  | | | | | | - Tag 0x0076 (8 bytes, int16s[4]):
  | | | | | |     19f2: 0b 07 04 04 fb 03 b1 07                         [........]
  | | | | | | ColorTempUnknown9 = 4092
  | | | | | | - Tag 0x007a (2 bytes, int16s[1]):
  | | | | | |     19fa: fc 0f                                           [..]
  | | | | | | WB_RGGBLevelsUnknown10 = 0 0 0 0
  | | | | | | - Tag 0x007b (8 bytes, int16s[4]):
  | | | | | |     19fc: 00 00 00 00 00 00 00 00                         [........]
  | | | | | | ColorTempUnknown10 = 0
  | | | | | | - Tag 0x007f (2 bytes, int16s[1]):
  | | | | | |     1a04: 00 00                                           [..]
  | | | | | | WB_RGGBLevelsDaylight = 2093 1024 1024 1672
  | | | | | | - Tag 0x0080 (8 bytes, int16s[4]):
  | | | | | |     1a06: 2d 08 00 04 00 04 88 06                         [-.......]
  | | | | | | ColorTempDaylight = 5200
  | | | | | | - Tag 0x0084 (2 bytes, int16s[1]):
  | | | | | |     1a0e: 50 14                                           [P.]
  | | | | | | WB_RGGBLevelsShade = 2422 1024 1024 1442
  | | | | | | - Tag 0x0085 (8 bytes, int16s[4]):
  | | | | | |     1a10: 76 09 00 04 00 04 a2 05                         [v.......]
  | | | | | | ColorTempShade = 7000
  | | | | | | - Tag 0x0089 (2 bytes, int16s[1]):
  | | | | | |     1a18: 58 1b                                           [X.]
  | | | | | | WB_RGGBLevelsCloudy = 2250 1024 1024 1549
  | | | | | | - Tag 0x008a (8 bytes, int16s[4]):
  | | | | | |     1a1a: ca 08 00 04 00 04 0d 06                         [........]
  | | | | | | ColorTempCloudy = 6000
  | | | | | | - Tag 0x008e (2 bytes, int16s[1]):
  | | | | | |     1a22: 70 17                                           [p.]
  | | | | | | WB_RGGBLevelsTungsten = 1473 1024 1024 2422
  | | | | | | - Tag 0x008f (8 bytes, int16s[4]):
  | | | | | |     1a24: c1 05 00 04 00 04 76 09                         [......v.]
  | | | | | | ColorTempTungsten = 3200
  | | | | | | - Tag 0x0093 (2 bytes, int16s[1]):
  | | | | | |     1a2c: 80 0c                                           [..]
  | | | | | | WB_RGGBLevelsFluorescent = 1824 1024 1024 2294
  | | | | | | - Tag 0x0094 (8 bytes, int16s[4]):
  | | | | | |     1a2e: 20 07 00 04 00 04 f6 08                         [ .......]
  | | | | | | ColorTempFluorescent = 3733
  | | | | | | - Tag 0x0098 (2 bytes, int16s[1]):
  | | | | | |     1a36: 95 0e                                           [..]
  | | | | | | WB_RGGBLevelsKelvin = 2093 1024 1024 1672
  | | | | | | - Tag 0x0099 (8 bytes, int16s[4]):
  | | | | | |     1a38: 2d 08 00 04 00 04 88 06                         [-.......]
  | | | | | | ColorTempKelvin = 5188
  | | | | | | - Tag 0x009d (2 bytes, int16s[1]):
  | | | | | |     1a40: 44 14                                           [D.]
  | | | | | | WB_RGGBLevelsFlash = 2310 1024 1024 1547
  | | | | | | - Tag 0x009e (8 bytes, int16s[4]):
  | | | | | |     1a42: 06 09 00 04 00 04 0b 06                         [........]
  | | | | | | ColorTempFlash = 6172
  | | | | | | - Tag 0x00a2 (2 bytes, int16s[1]):
  | | | | | |     1a4a: 1c 18                                           [..]
  | | | | | | WB_RGGBLevelsUnknown11 = 2093 1024 1024 1672
  | | | | | | - Tag 0x00a3 (8 bytes, int16s[4]):
  | | | | | |     1a4c: 2d 08 00 04 00 04 88 06                         [-.......]
  | | | | | | ColorTempUnknown11 = 5188
  | | | | | | - Tag 0x00a7 (2 bytes, int16s[1]):
  | | | | | |     1a54: 44 14                                           [D.]
  | | | | | | WB_RGGBLevelsUnknown12 = 2093 1024 1024 1672
  | | | | | | - Tag 0x00a8 (8 bytes, int16s[4]):
  | | | | | |     1a56: 2d 08 00 04 00 04 88 06                         [-.......]
  | | | | | | ColorTempUnknown12 = 5188
  | | | | | | - Tag 0x00ac (2 bytes, int16s[1]):
  | | | | | |     1a5e: 44 14                                           [D.]
  | | | | | | WB_RGGBLevelsUnknown13 = 2093 1024 1024 1672
  | | | | | | - Tag 0x00ad (8 bytes, int16s[4]):
  | | | | | |     1a60: 2d 08 00 04 00 04 88 06                         [-.......]
  | | | | | | ColorTempUnknown13 = 5188
  | | | | | | - Tag 0x00b1 (2 bytes, int16s[1]):
  | | | | | |     1a68: 44 14                                           [D.]
  | | | | | | WB_RGGBLevelsUnknown14 = 2093 1024 1024 1672
  | | | | | | - Tag 0x00b2 (8 bytes, int16s[4]):
  | | | | | |     1a6a: 2d 08 00 04 00 04 88 06                         [-.......]
  | | | | | | ColorTempUnknown14 = 5188
  | | | | | | - Tag 0x00b6 (2 bytes, int16s[1]):
  | | | | | |     1a72: 44 14                                           [D.]
  | | | | | | WB_RGGBLevelsUnknown15 = 2093 1024 1024 1672
  | | | | | | - Tag 0x00b7 (8 bytes, int16s[4]):
  | | | | | |     1a74: 2d 08 00 04 00 04 88 06                         [-.......]
  | | | | | | ColorTempUnknown15 = 5188
  | | | | | | - Tag 0x00bb (2 bytes, int16s[1]):
  | | | | | |     1a7c: 44 14                                           [D.]
  | | | | | | WB_RGGBLevelsUnknown16 = 993 1024 1024 1025
  | | | | | | - Tag 0x00bc (8 bytes, int16s[4]):
  | | | | | |     1a7e: e1 03 00 04 00 04 01 04                         [........]
  | | | | | | ColorTempUnknown16 = 4209
  | | | | | | - Tag 0x00c0 (2 bytes, int16s[1]):
  | | | | | |     1a86: 71 10                                           [q.]
  | | | | | | WB_RGGBLevelsUnknown17 = 993 1024 1024 1025
  | | | | | | - Tag 0x00c1 (8 bytes, int16s[4]):
  | | | | | |     1a88: e1 03 00 04 00 04 01 04                         [........]
  | | | | | | ColorTempUnknown17 = 4209
  | | | | | | - Tag 0x00c5 (2 bytes, int16s[1]):
  | | | | | |     1a90: 71 10                                           [q.]
  | | | | | | WB_RGGBLevelsUnknown18 = 993 1024 1024 1025
  | | | | | | - Tag 0x00c6 (8 bytes, int16s[4]):
  | | | | | |     1a92: e1 03 00 04 00 04 01 04                         [........]
  | | | | | | ColorTempUnknown18 = 4209
  | | | | | | - Tag 0x00ca (2 bytes, int16s[1]):
  | | | | | |     1a9a: 71 10                                           [q.]
  | | | | | | WB_RGGBLevelsUnknown19 = 993 1024 1024 1025
  | | | | | | - Tag 0x00cb (8 bytes, int16s[4]):
  | | | | | |     1a9c: e1 03 00 04 00 04 01 04                         [........]
  | | | | | | ColorTempUnknown19 = 4209
  | | | | | | - Tag 0x00cf (2 bytes, int16s[1]):
  | | | | | |     1aa4: 71 10                                           [q.]
  | | | | | | WB_RGGBLevelsUnknown20 = 993 1024 1024 1025
  | | | | | | - Tag 0x00d0 (8 bytes, int16s[4]):
  | | | | | |     1aa6: e1 03 00 04 00 04 01 04                         [........]
  | | | | | | ColorTempUnknown20 = 4209
  | | | | | | - Tag 0x00d4 (2 bytes, int16s[1]):
  | | | | | |     1aae: 71 10                                           [q.]
  | | | | | | ColorCalib (SubDirectory) -->
  | | | | | | - Tag 0x00d5 (120 bytes, undef[120]):
  | | | | | |     1ab0: e1 fe 7d 01 48 03 94 2a f4 fe 86 01 30 03 10 27 [..}.H..*....0..']
  | | | | | |     1ac0: 1c ff 9a 01 03 03 6c 20 45 ff b1 01 d7 02 58 1b [......l E.....X.]
  | | | | | |     1ad0: 79 ff d2 01 a5 02 70 17 92 ff e2 01 8d 02 e0 15 [y.....p.........]
  | | | | | |     1ae0: ae ff f5 01 73 02 50 14 db ff 10 02 4a 02 5c 12 [....s.P.....J.\.]
  | | | | | |     1af0: 12 00 39 02 1e 02 68 10 46 00 63 02 f8 01 d8 0e [..9...h.F.c.....]
  | | | | | |     1b00: 78 00 8f 02 d7 01 ac 0d b3 00 c8 02 b1 01 80 0c [x...............]
  | | | | | |     1b10: e2 00 f4 02 92 01 b8 0b 0f 01 29 03 7d 01 f0 0a [..........).}...]
  | | | | | |     1b20: 80 01 b8 03 48 01 60 09                         [....H.`.]
  | | | | | | + [BinaryData directory, 120 bytes, Little-endian]
  | | | | | | | CameraColorCalibration01 = -287 381 840 10900
  | | | | | | | - Tag 0x0000 (8 bytes, int16s[4]):
  | | | | | | |     1ab0: e1 fe 7d 01 48 03 94 2a                         [..}.H..*]
  | | | | | | | CameraColorCalibration02 = -268 390 816 10000
  | | | | | | | - Tag 0x0004 (8 bytes, int16s[4]):
  | | | | | | |     1ab8: f4 fe 86 01 30 03 10 27                         [....0..']
  | | | | | | | CameraColorCalibration03 = -228 410 771 8300
  | | | | | | | - Tag 0x0008 (8 bytes, int16s[4]):
  | | | | | | |     1ac0: 1c ff 9a 01 03 03 6c 20                         [......l ]
  | | | | | | | CameraColorCalibration04 = -187 433 727 7000
  | | | | | | | - Tag 0x000c (8 bytes, int16s[4]):
  | | | | | | |     1ac8: 45 ff b1 01 d7 02 58 1b                         [E.....X.]
  | | | | | | | CameraColorCalibration05 = -135 466 677 6000
  | | | | | | | - Tag 0x0010 (8 bytes, int16s[4]):
  | | | | | | |     1ad0: 79 ff d2 01 a5 02 70 17                         [y.....p.]
  | | | | | | | CameraColorCalibration06 = -110 482 653 5600
  | | | | | | | - Tag 0x0014 (8 bytes, int16s[4]):
  | | | | | | |     1ad8: 92 ff e2 01 8d 02 e0 15                         [........]
  | | | | | | | CameraColorCalibration07 = -82 501 627 5200
  | | | | | | | - Tag 0x0018 (8 bytes, int16s[4]):
  | | | | | | |     1ae0: ae ff f5 01 73 02 50 14                         [....s.P.]
  | | | | | | | CameraColorCalibration08 = -37 528 586 4700
  | | | | | | | - Tag 0x001c (8 bytes, int16s[4]):
  | | | | | | |     1ae8: db ff 10 02 4a 02 5c 12                         [....J.\.]
  | | | | | | | CameraColorCalibration09 = 18 569 542 4200
  | | | | | | | - Tag 0x0020 (8 bytes, int16s[4]):
  | | | | | | |     1af0: 12 00 39 02 1e 02 68 10                         [..9...h.]
  | | | | | | | CameraColorCalibration10 = 70 611 504 3800
  | | | | | | | - Tag 0x0024 (8 bytes, int16s[4]):
  | | | | | | |     1af8: 46 00 63 02 f8 01 d8 0e                         [F.c.....]
  | | | | | | | CameraColorCalibration11 = 120 655 471 3500
  | | | | | | | - Tag 0x0028 (8 bytes, int16s[4]):
  | | | | | | |     1b00: 78 00 8f 02 d7 01 ac 0d                         [x.......]
  | | | | | | | CameraColorCalibration12 = 179 712 433 3200
  | | | | | | | - Tag 0x002c (8 bytes, int16s[4]):
  | | | | | | |     1b08: b3 00 c8 02 b1 01 80 0c                         [........]
  | | | | | | | CameraColorCalibration13 = 226 756 402 3000
  | | | | | | | - Tag 0x0030 (8 bytes, int16s[4]):
  | | | | | | |     1b10: e2 00 f4 02 92 01 b8 0b                         [........]
  | | | | | | | CameraColorCalibration14 = 271 809 381 2800
  | | | | | | | - Tag 0x0034 (8 bytes, int16s[4]):
  | | | | | | |     1b18: 0f 01 29 03 7d 01 f0 0a                         [..).}...]
  | | | | | | | CameraColorCalibration15 = 384 952 328 2400
  | | | | | | | - Tag 0x0038 (8 bytes, int16s[4]):
  | | | | | | |     1b20: 80 01 b8 03 48 01 60 09                         [....H.`.]
  | | | | | | AverageBlackLevel = 2049 2049 2049 2049
  | | | | | | - Tag 0x0114 (8 bytes, int16u[4]):
  | | | | | |     1b2e: 01 08 01 08 01 08 01 08                         [........]
  | | | | | | FlashOutput = 0
  | | | | | | - Tag 0x0198 (2 bytes, int16s[1]):
  | | | | | |     1c36: 00 00                                           [..]
  | | | | | | FlashBatteryLevel = 0
  | | | | | | - Tag 0x0199 (2 bytes, int16s[1]):
  | | | | | |     1c38: 00 00                                           [..]
  | | | | | | RawMeasuredRGGB = 1748762625 1803419650 1836777474 929562625
  | | | | | | - Tag 0x01ad (16 bytes, int32u[4]):
  | | | | | |     1c60: 01 00 3c 68 02 00 7e 6b 02 00 7b 6d 01 00 68 37 [..<h..~k..{m..h7]
  | | | | | | PerChannelBlackLevel = 2049 2049 2049 2049
  | | | | | | - Tag 0x01f8 (8 bytes, int16u[4]):
  | | | | | |     1cf6: 01 08 01 08 01 08 01 08                         [........]
  | | | | | | NormalWhiteLevel = 14580
  | | | | | | - Tag 0x01fc (2 bytes, int16u[1]):
  | | | | | |     1cfe: f4 38                                           [.8]
  | | | | | | SpecularWhiteLevel = 15092
  | | | | | | - Tag 0x01fd (2 bytes, int16u[1]):
  | | | | | |     1d00: f4 3a                                           [.:]
  | | | | | | LinearityUpperMargin = 10000
  | | | | | | - Tag 0x01fe (2 bytes, int16u[1]):
  | | | | | |     1d02: 10 27                                           [.']
  | | | | | 26) PictureStyleUserDef = 135 135 135
  | | | | |     - Tag 0x4008 (6 bytes, int16u[3]):
  | | | | |         2348: 87 00 87 00 87 00                               [......]
  | | | | | 27) PictureStylePC = 0 0 0
  | | | | |     - Tag 0x4009 (6 bytes, int16u[3]):
  | | | | |         234e: 00 00 00 00 00 00                               [......]
  | | | | | 28) CustomPictureStyleFileName = 
  | | | | |     - Tag 0x4010 (32 bytes, string[32]):
  | | | | |         2354: 00 00 00 00 00 00 00 00 00 00 00 00 00 00 00 00 [................]
  | | | | |         2364: 00 00 00 00 00 00 00 00 00 00 00 00 00 00 00 00 [................]
  | | | | | 29) Canon_0x4011 = 
  | | | | |     - Tag 0x4011 (252 bytes, undef[252]):
  | | | | |         2374: 00 00 00 00 00 00 00 00 00 00 00 00 00 00 00 00 [................]
  | | | | |         2384: 00 00 00 00 00 00 00 00 00 00 00 00 00 00 00 00 [................]
  | | | | |         2394: 00 00 00 00 00 00 00 00 00 00 00 00 00 00 00 00 [................]
  | | | | |         23a4: 00 00 00 00 00 00 00 00 00 00 00 00 00 00 00 00 [................]
  | | | | |         23b4: 00 00 00 00 00 00 00 00 00 00 00 00 00 00 00 00 [................]
  | | | | |         23c4: 00 00 00 00 00 00 00 00 00 00 00 00 00 00 00 00 [................]
  | | | | |         23d4: 00 00 00 00 00 00 00 00 00 00 00 00 00 00 00 00 [................]
  | | | | |         23e4: 00 00 00 00 00 00 00 00 00 00 00 00 00 00 00 00 [................]
  | | | | |         23f4: 00 00 00 00 00 00 00 00 00 00 00 00 00 00 00 00 [................]
  | | | | |         2404: 00 00 00 00 00 00 00 00 00 00 00 00 00 00 00 00 [................]
  | | | | |         2414: 00 00 00 00 00 00 00 00 00 00 00 00 00 00 00 00 [................]
  | | | | |         2424: 00 00 00 00 00 00 00 00 00 00 00 00 00 00 00 00 [................]
  | | | | |         2434: 00 00 00 00 00 00 00 00 00 00 00 00 00 00 00 00 [................]
  | | | | |         2444: 00 00 00 00 00 00 00 00 00 00 00 00 00 00 00 00 [................]
  | | | | |         2454: 00 00 00 00 00 00 00 00 00 00 00 00 00 00 00 00 [................]
  | | | | |         2464: 00 00 00 00 00 00 00 00 00 00 00 00             [............]
  | | | | | 30) Canon_0x4012 = 
  | | | | |     - Tag 0x4012 (32 bytes, string[32]):
  | | | | |         2470: 00 00 00 00 00 00 00 00 00 00 00 00 00 00 00 00 [................]
  | | | | |         2480: 00 00 00 00 00 00 00 00 00 00 00 00 00 00 00 00 [................]
  | | | | | 31) AFMicroAdj (SubDirectory) -->
  | | | | |     - Tag 0x4013 (44 bytes, int32u[11] read as undef[44]):
  | | | | |         2490: 2c 00 00 00 00 00 00 00 00 00 00 00 0a 00 00 00 [,...............]
  | | | | |         24a0: ff ff ff ff 00 00 00 00 0a 00 00 00 00 00 00 00 [................]
  | | | | |         24b0: 0a 00 00 00 00 00 00 00 0a 00 00 00             [............]
  | | | | | + [BinaryData directory, 44 bytes, Little-endian]
  | | | | | | AFMicroAdjMode = 0
  | | | | | | - Tag 0x0001 (4 bytes, int32s[1]):
  | | | | | |     2494: 00 00 00 00                                     [....]
  | | | | | | AFMicroAdjValue = 0
  | | | | | | - Tag 0x0002 (8 bytes, rational64s[1]):
  | | | | | |     2498: 00 00 00 00 0a 00 00 00                         [........]
  | | | | | 32) VignettingCorr (SubDirectory) -->
  | | | | |     - Tag 0x4015 (456 bytes, undef[456]):
  | | | | |         24bc: 00 21 c8 01 00 00 00 00 00 00 00 00 00 00 00 00 [.!..............]
  | | | | |         24cc: 00 00 00 00 04 10 60 15 40 0e ff 1f d1 1e 3f 1d [......`.@.....?.]
  | | | | |         24dc: f9 1b 8f 1a 5c 18 00 00 b2 03 ea 05 65 07 df 08 [....\.......e...]
  | | | | |         24ec: 1a 0a 00 40 81 40 be 40 dc 40 d6 40 cf 40 00 40 [...@.@.@.@.@.@.@]
  | | | | |         24fc: ea 3f fc 3f 47 40 a6 40 cf 40 00 00 b2 03 ea 05 [.?.?G@.@.@......]
  | | | | |         250c: 22 08 9d 09 1a 0a e4 3f cf 3f b2 3f 93 3f 84 3f ["......?.?.?.?.?]
  | | | | |         251c: 81 3f 00 00 b2 03 ea 05 22 08 9d 09 1a 0a 00 00 [.?......".......]
  | | | | |         252c: 00 00 00 00 00 00 00 00 00 00 00 00 00 00 00 00 [................]
  | | | | |         253c: 00 00 00 00 00 00 00 00 00 00 00 00 00 00 00 00 [................]
  | | | | |         254c: 00 00 00 00 00 00 00 00 00 00 00 00 00 00 00 00 [................]
  | | | | |         255c: 00 00 00 00 00 00 00 00 00 00 00 00 00 00 00 00 [................]
  | | | | |         256c: 00 00 00 00 00 00 00 00 00 00 00 00 00 00 00 00 [................]
  | | | | |         257c: 00 00 00 00 00 00 00 00 00 00 00 00 00 00 00 00 [................]
  | | | | |         258c: 00 00 00 00 00 00 00 00 00 00 00 00 00 00 00 00 [................]
  | | | | |         259c: 00 00 00 00 00 00 00 00 00 00 00 00 00 00 00 00 [................]
  | | | | |         25ac: 00 00 00 00 00 00 00 00 00 00 00 00 00 00 00 00 [................]
  | | | | |         25bc: 00 00 00 00 00 00 00 00 00 00 00 00 00 00 00 00 [................]
  | | | | |         25cc: 00 00 00 00 00 00 00 00 00 00 00 00 00 00 00 00 [................]
  | | | | |         25dc: 00 00 00 00 00 00 00 00 00 00 00 00 00 00 00 00 [................]
  | | | | |         25ec: 00 00 00 00 00 00 00 00 00 00 00 00 00 00 00 00 [................]
  | | | | |         25fc: 00 00 00 00 00 00 00 00 00 00 00 00 00 00 00 00 [................]
  | | | | |         260c: 00 00 00 00 00 00 00 00 00 00 00 00 00 00 00 00 [................]
  | | | | |         261c: 00 00 00 00 00 00 00 00 00 00 00 00 00 00 00 00 [................]
  | | | | |         262c: 00 00 00 00 00 00 00 00 00 00 00 00 00 00 00 00 [................]
  | | | | |         263c: 00 00 00 00 00 00 00 00 00 00 00 00 00 00 00 00 [................]
  | | | | |         264c: 00 00 00 00 00 00 00 00 00 00 00 00 00 00 00 00 [................]
  | | | | |         265c: 00 00 00 00 00 00 00 00 00 00 00 00 00 00 00 00 [................]
  | | | | |         266c: 00 00 00 00 00 00 00 00 00 00 00 00 00 00 00 00 [................]
  | | | | |         267c: 00 00 00 00 32 00 00 00                         [....2...]
  | | | | | + [BinaryData directory, 456 bytes, Little-endian]
  | | | | | | PeripheralLighting = 0
  | | | | | | - Tag 0x0002 (2 bytes, int16s[1]):
  | | | | | |     24c0: 00 00                                           [..]
  | | | | | | DistortionCorrection = 0
  | | | | | | - Tag 0x0003 (2 bytes, int16s[1]):
  | | | | | |     24c2: 00 00                                           [..]
  | | | | | | ChromaticAberrationCorr = 0
  | | | | | | - Tag 0x0004 (2 bytes, int16s[1]):
  | | | | | |     24c4: 00 00                                           [..]
  | | | | | | ChromaticAberrationCorr = 0
  | | | | | | - Tag 0x0005 (2 bytes, int16s[1]):
  | | | | | |     24c6: 00 00                                           [..]
  | | | | | | PeripheralLightingValue = 0
  | | | | | | - Tag 0x0006 (2 bytes, int16s[1]):
  | | | | | |     24c8: 00 00                                           [..]
  | | | | | | DistortionCorrectionValue = 0
  | | | | | | - Tag 0x0009 (2 bytes, int16s[1]):
  | | | | | |     24ce: 00 00                                           [..]
  | | | | | | OriginalImageWidth = 5472
  | | | | | | - Tag 0x000b (2 bytes, int16s[1]):
  | | | | | |     24d2: 60 15                                           [`.]
  | | | | | | OriginalImageHeight = 3648
  | | | | | | - Tag 0x000c (2 bytes, int16s[1]):
  | | | | | |     24d4: 40 0e                                           [@.]
  | | | | | 33) VignettingCorr2 (SubDirectory) -->
  | | | | |     - Tag 0x4016 (28 bytes, int32u[7] read as undef[28]):
  | | | | |         2684: 1c 00 00 00 00 00 00 00 01 00 00 00 00 00 00 00 [................]
  | | | | |         2694: 01 00 00 00 00 00 00 00 00 00 00 00             [............]
  | | | | | + [BinaryData directory, 28 bytes, Little-endian]
  | | | | | | PeripheralLightingSetting = 0
  | | | | | | - Tag 0x0005 (4 bytes, int32s[1]):
  | | | | | |     2698: 00 00 00 00                                     [....]
  | | | | | | ChromaticAberrationSetting = 0
  | | | | | | - Tag 0x0006 (4 bytes, int32s[1]):
  | | | | | |     269c: 00 00 00 00                                     [....]
  | | | | | 34) LightingOpt (SubDirectory) -->
  | | | | |     - Tag 0x4018 (28 bytes, int32u[7] read as undef[28]):
  | | | | |         26a0: 1c 00 00 00 00 00 00 00 00 00 00 00 00 00 00 00 [................]
  | | | | |         26b0: 00 00 00 00 00 00 00 00 01 00 00 00             [............]
  | | | | | + [BinaryData directory, 28 bytes, Little-endian]
  | | | | | | PeripheralIlluminationCorr = 0
  | | | | | | - Tag 0x0001 (4 bytes, int32s[1]):
  | | | | | |     26a4: 00 00 00 00                                     [....]
  | | | | | | AutoLightingOptimizer = 0
  | | | | | | - Tag 0x0002 (4 bytes, int32s[1]):
  | | | | | |     26a8: 00 00 00 00                                     [....]
  | | | | | | HighlightTonePriority = 0
  | | | | | | - Tag 0x0003 (4 bytes, int32s[1]):
  | | | | | |     26ac: 00 00 00 00                                     [....]
  | | | | | | LongExposureNoiseReduction = 0
  | | | | | | - Tag 0x0004 (4 bytes, int32s[1]):
  | | | | | |     26b0: 00 00 00 00                                     [....]
  | | | | | | HighISONoiseReduction = 0
  | | | | | | - Tag 0x0005 (4 bytes, int32s[1]):
  | | | | | |     26b4: 00 00 00 00                                     [....]
  | | | | | 35) LensInfo (SubDirectory) -->
  | | | | |     - Tag 0x4019 (30 bytes, undef[30]):
  | | | | |         26bc: 00 00 21 4e 1c 00 00 00 00 00 00 00 00 00 00 00 [..!N............]
  | | | | |         26cc: 00 00 00 00 00 00 00 00 00 00 00 00 00 00       [..............]
  | | | | | + [BinaryData directory, 30 bytes, Little-endian]
  | | | | | | LensSerialNumber = !N.
  | | | | | | - Tag 0x0000 (5 bytes, undef[5]):
  | | | | | |     26bc: 00 00 21 4e 1c                                  [..!N.]
  | | | | | 36) AmbienceInfo (SubDirectory) -->
  | | | | |     - Tag 0x4020 (28 bytes, int32u[7] read as undef[28]):
  | | | | |         26da: 1c 00 00 00 00 00 00 00 00 00 00 00 00 00 00 00 [................]
  | | | | |         26ea: 00 00 00 00 ff ff ff 7f 00 00 00 00             [............]
  | | | | | + [BinaryData directory, 28 bytes, Little-endian]
  | | | | | | AmbienceSelection = 0
  | | | | | | - Tag 0x0001 (4 bytes, int32s[1]):
  | | | | | |     26de: 00 00 00 00                                     [....]
  | | | | | 37) MultiExp (SubDirectory) -->
  | | | | |     - Tag 0x4021 (20 bytes, int32u[5] read as undef[20]):
  | | | | |         26f6: 14 00 00 00 00 00 00 00 00 00 00 00 00 00 00 00 [................]
  | | | | |         2706: 01 00 00 00                                     [....]
  | | | | | + [BinaryData directory, 20 bytes, Little-endian]
  | | | | | | MultiExposure = 0
  | | | | | | - Tag 0x0001 (4 bytes, int32s[1]):
  | | | | | |     26fa: 00 00 00 00                                     [....]
  | | | | | | MultiExposureControl = 0
  | | | | | | - Tag 0x0002 (4 bytes, int32s[1]):
  | | | | | |     26fe: 00 00 00 00                                     [....]
  | | | | | | MultiExposureShots = 0
  | | | | | | - Tag 0x0003 (4 bytes, int32s[1]):
  | | | | | |     2702: 00 00 00 00                                     [....]
  | | | | | 38) FilterInfo (SubDirectory) -->
  | | | | |     - Tag 0x4024 (212 bytes, int32u[53] read as undef[212]):
  | | | | |         270a: d4 00 00 00 07 00 00 00 01 00 00 00 14 00 00 00 [................]
  | | | | |         271a: 01 00 00 00 01 01 00 00 01 00 00 00 ff ff ff ff [................]
  | | | | |         272a: 02 00 00 00 14 00 00 00 01 00 00 00 01 02 00 00 [................]
  | | | | |         273a: 01 00 00 00 ff ff ff ff 03 00 00 00 14 00 00 00 [................]
  | | | | |         274a: 01 00 00 00 01 03 00 00 01 00 00 00 ff ff ff ff [................]
  | | | | |         275a: 04 00 00 00 38 00 00 00 04 00 00 00 01 04 00 00 [....8...........]
  | | | | |         276a: 01 00 00 00 ff ff ff ff 02 04 00 00 01 00 00 00 [................]
  | | | | |         277a: 00 00 00 00 03 04 00 00 01 00 00 00 00 00 00 00 [................]
  | | | | |         278a: 04 04 00 00 01 00 00 00 00 00 00 00 05 00 00 00 [................]
  | | | | |         279a: 14 00 00 00 01 00 00 00 01 05 00 00 01 00 00 00 [................]
  | | | | |         27aa: ff ff ff ff 06 00 00 00 14 00 00 00 01 00 00 00 [................]
  | | | | |         27ba: 01 06 00 00 01 00 00 00 ff ff ff ff 07 00 00 00 [................]
  | | | | |         27ca: 14 00 00 00 01 00 00 00 01 07 00 00 01 00 00 00 [................]
  | | | | |         27da: ff ff ff ff                                     [....]
  | | | | | + [Creative Filter directory with 7 entries]
  | | | | | + [Filter 1 directory with 1 entries, 20 bytes]
  | | | | | | GrainyBWFilter = -1
  | | | | | | - Tag 0x0101 (4 bytes):
  | | | | | |     2208: ff ff ff ff                                     [....]
  | | | | | + [Filter 2 directory with 1 entries, 20 bytes]
  | | | | | | SoftFocusFilter = -1
  | | | | | | - Tag 0x0201 (4 bytes):
  | | | | | |     2220: ff ff ff ff                                     [....]
  | | | | | + [Filter 3 directory with 1 entries, 20 bytes]
  | | | | | | ToyCameraFilter = -1
  | | | | | | - Tag 0x0301 (4 bytes):
  | | | | | |     2238: ff ff ff ff                                     [....]
  | | | | | + [Filter 4 directory with 4 entries, 56 bytes]
  | | | | | | MiniatureFilter = -1
  | | | | | | - Tag 0x0401 (4 bytes):
  | | | | | |     2250: ff ff ff ff                                     [....]
  | | | | | | MiniatureFilterOrientation = 0
  | | | | | | - Tag 0x0402 (4 bytes):
  | | | | | |     225c: 00 00 00 00                                     [....]
  | | | | | | MiniatureFilterPosition = 0
  | | | | | | - Tag 0x0403 (4 bytes):
  | | | | | |     2268: 00 00 00 00                                     [....]
  | | | | | | MiniatureFilterParameter = 0
  | | | | | | - Tag 0x0404 (4 bytes):
  | | | | | |     2274: 00 00 00 00                                     [....]
  | | | | | + [Filter 5 directory with 1 entries, 20 bytes]
  | | | | | | FisheyeFilter = -1
  | | | | | | - Tag 0x0501 (4 bytes):
  | | | | | |     228c: ff ff ff ff                                     [....]
  | | | | | + [Filter 6 directory with 1 entries, 20 bytes]
  | | | | | | PaintingFilter = -1
  | | | | | | - Tag 0x0601 (4 bytes):
  | | | | | |     22a4: ff ff ff ff                                     [....]
  | | | | | + [Filter 7 directory with 1 entries, 20 bytes]
  | | | | | | WatercolorFilter = -1
  | | | | | | - Tag 0x0701 (4 bytes):
  | | | | | |     22bc: ff ff ff ff                                     [....]
  | | | | | 39) HDRInfo (SubDirectory) -->
  | | | | |     - Tag 0x4025 (36 bytes, int32u[9] read as undef[36]):
  | | | | |         27de: 24 00 00 00 00 00 00 00 00 00 00 00 00 00 00 00 [$...............]
  | | | | |         27ee: 00 00 00 00 00 00 00 00 00 00 00 00 00 00 00 00 [................]
  | | | | |         27fe: 00 00 00 00                                     [....]
  | | | | | + [BinaryData directory, 36 bytes, Little-endian]
  | | | | | | HDR = 0
  | | | | | | - Tag 0x0001 (4 bytes, int32s[1]):
  | | | | | |     27e2: 00 00 00 00                                     [....]
  | | | | | | HDREffect = 0
  | | | | | | - Tag 0x0002 (4 bytes, int32s[1]):
  | | | | | |     27e6: 00 00 00 00                                     [....]
  | | | | | 40) Canon_0x4027 = 24 524546 2969567282 134217728 13684944 65539
  | | | | |     - Tag 0x4027 (24 bytes, int32u[6]):
  | | | | |         2802: 18 00 00 00 02 01 08 00 32 00 00 b1 00 00 00 08 [........2.......]
  | | | | |         2812: d0 d0 d0 00 03 00 01 00                         [........]
  | | | | 17) UserComment = 
  | | | |     - Tag 0x9286 (264 bytes, undef[264]):
  | | | |         2822: 00 00 00 00 00 00 00 00 00 00 00 00 00 00 00 00 [................]
  | | | |         2832: 00 00 00 00 00 00 00 00 00 00 00 00 00 00 00 00 [................]
  | | | |         2842: 00 00 00 00 00 00 00 00 00 00 00 00 00 00 00 00 [................]
  | | | |         2852: 00 00 00 00 00 00 00 00 00 00 00 00 00 00 00 00 [................]
  | | | |         2862: 00 00 00 00 00 00 00 00 00 00 00 00 00 00 00 00 [................]
  | | | |         2872: 00 00 00 00 00 00 00 00 00 00 00 00 00 00 00 00 [................]
  | | | |         2882: 00 00 00 00 00 00 00 00 00 00 00 00 00 00 00 00 [................]
  | | | |         2892: 00 00 00 00 00 00 00 00 00 00 00 00 00 00 00 00 [................]
  | | | |         28a2: 00 00 00 00 00 00 00 00 00 00 00 00 00 00 00 00 [................]
  | | | |         28b2: 00 00 00 00 00 00 00 00 00 00 00 00 00 00 00 00 [................]
  | | | |         28c2: 00 00 00 00 00 00 00 00 00 00 00 00 00 00 00 00 [................]
  | | | |         28d2: 00 00 00 00 00 00 00 00 00 00 00 00 00 00 00 00 [................]
  | | | |         28e2: 00 00 00 00 00 00 00 00 00 00 00 00 00 00 00 00 [................]
  | | | |         28f2: 00 00 00 00 00 00 00 00 00 00 00 00 00 00 00 00 [................]
  | | | |         2902: 00 00 00 00 00 00 00 00 00 00 00 00 00 00 00 00 [................]
  | | | |         2912: 00 00 00 00 00 00 00 00 00 00 00 00 00 00 00 00 [................]
  | | | |         2922: 00 00 00 00 00 00 00 00                         [........]
  | | | | 18) SubSecTime = 00
  | | | |     - Tag 0x9290 (3 bytes, string[3]):
  | | | |         06d6: 30 30 00                                        [00.]
  | | | | 19) SubSecTimeOriginal = 00
  | | | |     - Tag 0x9291 (3 bytes, string[3]):
  | | | |         06e2: 30 30 00                                        [00.]
  | | | | 20) SubSecTimeDigitized = 00
  | | | |     - Tag 0x9292 (3 bytes, string[3]):
  | | | |         06ee: 30 30 00                                        [00.]
  | | | | 21) FlashpixVersion = 0100
  | | | |     - Tag 0xa000 (4 bytes, undef[4]):
  | | | |         06fa: 30 31 30 30                                     [0100]
  | | | | 22) ColorSpace = 1
  | | | |     - Tag 0xa001 (2 bytes, int16u[1]):
  | | | |         0706: 01 00                                           [..]
  | | | | 23) ExifImageWidth = 5472
  | | | |     - Tag 0xa002 (2 bytes, int16u[1]):
  | | | |         0712: 60 15                                           [`.]
  | | | | 24) ExifImageHeight = 3648
  | | | |     - Tag 0xa003 (2 bytes, int16u[1]):
  | | | |         071e: 40 0e                                           [@.]
  | | | | 25) InteropOffset (SubDirectory) -->
  | | | |     - Tag 0xa005 (4 bytes, int32u[1]):
  | | | |         072a: 68 24 00 00                                     [h$..]
  | | | | + [InteropIFD directory with 2 entries, Little-endian]
  | | | | | 0)  InteropIndex = R98
  | | | | |     - Tag 0x0001 (4 bytes, string[4]):
  | | | | |         2990: 52 39 38 00                                     [R98.]
  | | | | | 1)  InteropVersion = 0100
  | | | | |     - Tag 0x0002 (4 bytes, undef[4]):
  | | | | |         299c: 30 31 30 30                                     [0100]
  | | | | 26) FocalPlaneXResolution = 6086.76307 (5472000/899)
  | | | |     - Tag 0xa20e (8 bytes, rational64u[1]):
  | | | |         292a: 00 7f 53 00 83 03 00 00                         [..S.....]
  | | | | 27) FocalPlaneYResolution = 6090.15025 (3648000/599)
  | | | |     - Tag 0xa20f (8 bytes, rational64u[1]):
  | | | |         2932: 00 aa 37 00 57 02 00 00                         [..7.W...]
  | | | | 28) FocalPlaneResolutionUnit = 2
  | | | |     - Tag 0xa210 (2 bytes, int16u[1]):
  | | | |         074e: 02 00                                           [..]
  | | | | 29) CustomRendered = 0
  | | | |     - Tag 0xa401 (2 bytes, int16u[1]):
  | | | |         075a: 00 00                                           [..]
  | | | | 30) ExposureMode = 0
  | | | |     - Tag 0xa402 (2 bytes, int16u[1]):
  | | | |         0766: 00 00                                           [..]
  | | | | 31) WhiteBalance = 0
  | | | |     - Tag 0xa403 (2 bytes, int16u[1]):
  | | | |         0772: 00 00                                           [..]
  | | | | 32) SceneCaptureType = 0
  | | | |     - Tag 0xa406 (2 bytes, int16u[1]):
  | | | |         077e: 00 00                                           [..]
  | | | | 33) OwnerName = 
  | | | |     - Tag 0xa430 (1 bytes, string[1]):
  | | | |         078a: 00                                              [.]
  | | | | 34) SerialNumber = 053022005903
  | | | |     - Tag 0xa431 (13 bytes, string[13]):
  | | | |         293a: 30 35 33 30 32 32 30 30 35 39 30 33 00          [053022005903.]
  | | | | 35) LensInfo = 50 50 0 0 (50/1 50/1 0/1 0/1)
  | | | |     - Tag 0xa432 (32 bytes, rational64u[4]):
  | | | |         2948: 32 00 00 00 01 00 00 00 32 00 00 00 01 00 00 00 [2.......2.......]
  | | | |         2958: 00 00 00 00 01 00 00 00 00 00 00 00 01 00 00 00 [................]
  | | | | 36) LensModel = EF50mm f/1.8 STM
  | | | |     - Tag 0xa434 (17 bytes, string[17]):
  | | | |         2968: 45 46 35 30 6d 6d 20 66 2f 31 2e 38 20 53 54 4d [EF50mm f/1.8 STM]
  | | | |         2978: 00                                              [.]
  | | | | 37) LensSerialNumber = 0000214e1c
  | | | |     - Tag 0xa435 (11 bytes, string[11]):
  | | | |         297a: 30 30 30 30 32 31 34 65 31 63 00                [0000214e1c.]
  | | | 11) GPSInfo (SubDirectory) -->
  | | |     - Tag 0x8825 (4 bytes, int32u[1]):
  | | |         05b4: 86 24 00 00                                     [.$..]
  | | | + [GPS directory with 1 entries, Little-endian]
  | | | | 0)  GPSVersionID = 2 3 0 0
  | | | |     - Tag 0x0000 (4 bytes, int8u[4]):
  | | | |         29ae: 02 03 00 00                                     [....]
  | | + [IFD1 directory with 6 entries, Little-endian]
  | | | 0)  Compression = 6
  | | |     - Tag 0x0103 (2 bytes, int16u[1]):
  | | |         29c0: 06 00                                           [..]
  | | | 1)  XResolution = 72 (72/1)
  | | |     - Tag 0x011a (8 bytes, rational64u[1]):
  | | |         2a04: 48 00 00 00 01 00 00 00                         [H.......]
  | | | 2)  YResolution = 72 (72/1)
  | | |     - Tag 0x011b (8 bytes, rational64u[1]):
  | | |         2a0c: 48 00 00 00 01 00 00 00                         [H.......]
  | | | 3)  ResolutionUnit = 2
  | | |     - Tag 0x0128 (2 bytes, int16u[1]):
  | | |         29e4: 02 00                                           [..]
  | | | 4)  ThumbnailOffset = 9462
  | | |     - Tag 0x0201 (4 bytes, int32u[1]):
  | | |         29f0: f6 24 00 00                                     [.$..]
  | | | 5)  ThumbnailLength = 8567
  | | |     - Tag 0x0202 (4 bytes, int32u[1]):
  | | |         29fc: 77 21 00 00                                     [w!..]
  | Item 3) 'application/rdf+xml' (21631 bytes)
  |     4b8c: 3c 3f 78 70 61 63 6b 65 74 20 62 65 67 69 6e 3d [<?xpacket begin=]
  |     4b9c: 27 ef bb bf 27 20 69 64 3d 27 57 35 4d 30 4d 70 ['...' id='W5M0Mp]
  |     4bac: 43 65 68 69 48 7a 72 65 53 7a 4e 54 63 7a 6b 63 [CehiHzreSzNTczkc]
  |     4bbc: 39 64 27 3f 3e 0a 3c 78 3a 78 6d 70 6d 65 74 61 [9d'?>.<x:xmpmeta]
  |     4bcc: 20 78 6d 6c 6e 73 3a 78 3d 27 61 64 6f 62 65 3a [ xmlns:x='adobe:]
  |     4bdc: 6e 73 3a 6d 65 74 61 2f 27 20 78 3a 78 6d 70 74 [ns:meta/' x:xmpt]
  |     4bec: 6b 3d 27 49 6d 61 67 65 3a 3a 45 78 69 66 54 6f [k='Image::ExifTo]
  |     4bfc: 6f 6c 20 31 33 2e 32 36 27 3e 0a 3c 72 64 66 3a [ol 13.26'>.<rdf:]
  |     4c0c: 52 44 46 20 78 6d 6c 6e 73 3a 72 64 66 3d 27 68 [RDF xmlns:rdf='h]
  |     4c1c: 74 74 70 3a 2f 2f 77 77 77 2e 77 33 2e 6f 72 67 [ttp://www.w3.org]
  |     4c2c: 2f 31 39 39 39 2f 30 32 2f 32 32 2d 72 64 66 2d [/1999/02/22-rdf-]
  |     4c3c: 73 79 6e 74 61 78 2d 6e 73 23 27 3e 0a 0a 20 3c [syntax-ns#'>.. <]
  |     4c4c: 72 64 66 3a 44 65 73 63 72 69 70 74 69 6f 6e 20 [rdf:Description ]
  |     4c5c: 72 64 66 3a 61 62 6f 75 74 3d 27 27 0a 20 20 78 [rdf:about=''.  x]
  |     4c6c: 6d 6c 6e 73 3a 49 70 74 63 34 78 6d 70 43 6f 72 [mlns:Iptc4xmpCor]
  |     4c7c: 65 3d 27 68 74 74 70 3a 2f 2f 69 70 74 63 2e 6f [e='http://iptc.o]
  |     4c8c: 72 67 2f 73 74 64 2f 49 70 74 63 34 78 6d 70 43 [rg/std/Iptc4xmpC]
  |     4c9c: 6f 72 65 2f 31 2e 30 2f 78 6d 6c 6e 73 2f 27 3e [ore/1.0/xmlns/'>]
  |     4cac: 0a 20 20 3c 49 70 74 63 34 78 6d 70 43 6f 72 65 [.  <Iptc4xmpCore]
  |     4cbc: 3a 4c 6f 63 61 74 69 6f 6e 3e 49 67 65 6c 73 74 [:Location>Igelst]
  |     4ccc: 72 61 c3 9f 65 20 34 35 3c 2f 49 70 74 63 34 78 [ra..e 45</Iptc4x]
  |     4cdc: 6d 70 43 6f 72 65 3a 4c 6f 63 61 74 69 6f 6e 3e [mpCore:Location>]
  |     4cec: 0a 20 3c 2f 72 64 66 3a 44 65 73 63 72 69 70 74 [. </rdf:Descript]
  |     4cfc: 69 6f 6e 3e 0a 0a 20 3c 72 64 66 3a 44 65 73 63 [ion>.. <rdf:Desc]
  |     4d0c: 72 69 70 74 69 6f 6e 20 72 64 66 3a 61 62 6f 75 [ription rdf:abou]
  |     4d1c: 74 3d 27 27 0a 20 20 78 6d 6c 6e 73 3a 49 70 74 [t=''.  xmlns:Ipt]
  |     4d2c: 63 34 78 6d 70 45 78 74 3d 27 68 74 74 70 3a 2f [c4xmpExt='http:/]
  |     4d3c: 2f 69 70 74 63 2e 6f 72 67 2f 73 74 64 2f 49 70 [/iptc.org/std/Ip]
  |     4d4c: 74 63 34 78 6d 70 45 78 74 2f 32 30 30 38 2d 30 [tc4xmpExt/2008-0]
  |     4d5c: 32 2d 32 39 2f 27 3e 0a 20 20 3c 49 70 74 63 34 [2-29/'>.  <Iptc4]
  |     4d6c: 78 6d 70 45 78 74 3a 4c 6f 63 61 74 69 6f 6e 53 [xmpExt:LocationS]
  |     4d7c: 68 6f 77 6e 3e 0a 20 20 20 3c 72 64 66 3a 42 61 [hown>.   <rdf:Ba]
  |     4d8c: 67 3e 0a 20 20 20 20 3c 72 64 66 3a 6c 69 20 72 [g>.    <rdf:li r]
  |     4d9c: 64 66 3a 70 61 72 73 65 54 79 70 65 3d 27 52 65 [df:parseType='Re]
  |     4dac: 73 6f 75 72 63 65 27 3e 0a 20 20 20 20 20 3c 49 [source'>.     <I]
  |     4dbc: 70 74 63 34 78 6d 70 45 78 74 3a 43 69 74 79 3e [ptc4xmpExt:City>]
  |     4dcc: 49 67 65 6c 73 74 61 64 74 3c 2f 49 70 74 63 34 [Igelstadt</Iptc4]
  |     4ddc: 78 6d 70 45 78 74 3a 43 69 74 79 3e 0a 20 20 20 [xmpExt:City>.   ]
  |     4dec: 20 20 3c 49 70 74 63 34 78 6d 70 45 78 74 3a 43 [  <Iptc4xmpExt:C]
  |     4dfc: 6f 75 6e 74 72 79 4e 61 6d 65 3e 44 65 75 74 73 [ountryName>Deuts]
  |     4e0c: 63 68 6c 61 6e 64 3c 2f 49 70 74 63 34 78 6d 70 [chland</Iptc4xmp]
  |     4e1c: 45 78 74 3a 43 6f 75 6e 74 72 79 4e 61 6d 65 3e [Ext:CountryName>]
  |     4e2c: 0a 20 20 20 20 20 3c 49 70 74 63 34 78 6d 70 45 [.     <Iptc4xmpE]
  |     4e3c: 78 74 3a 4c 6f 63 61 74 69 6f 6e 4e 61 6d 65 3e [xt:LocationName>]
  |     4e4c: 0a 20 20 20 20 20 20 3c 72 64 66 3a 41 6c 74 3e [.      <rdf:Alt>]
  |     4e5c: 0a 20 20 20 20 20 20 20 3c 72 64 66 3a 6c 69 20 [.       <rdf:li ]
  |     4e6c: 78 6d 6c 3a 6c 61 6e 67 3d 27 78 2d 64 65 66 61 [xml:lang='x-defa]
  |     4e7c: 75 6c 74 27 3e 44 69 65 20 49 67 65 6c 77 69 65 [ult'>Die Igelwie]
  |     4e8c: 73 65 3c 2f 72 64 66 3a 6c 69 3e 0a 20 20 20 20 [se</rdf:li>.    ]
  |     4e9c: 20 20 3c 2f 72 64 66 3a 41 6c 74 3e 0a 20 20 20 [  </rdf:Alt>.   ]
  |     4eac: 20 20 3c 2f 49 70 74 63 34 78 6d 70 45 78 74 3a [  </Iptc4xmpExt:]
  |     4ebc: 4c 6f 63 61 74 69 6f 6e 4e 61 6d 65 3e 0a 20 20 [LocationName>.  ]
  |     4ecc: 20 20 20 3c 49 70 74 63 34 78 6d 70 45 78 74 3a [   <Iptc4xmpExt:]
  |     4edc: 50 72 6f 76 69 6e 63 65 53 74 61 74 65 3e 4e 69 [ProvinceState>Ni]
  |     4eec: 65 64 65 72 73 61 63 68 73 65 6e 3c 2f 49 70 74 [edersachsen</Ipt]
  |     4efc: 63 34 78 6d 70 45 78 74 3a 50 72 6f 76 69 6e 63 [c4xmpExt:Provinc]
  |     4f0c: 65 53 74 61 74 65 3e 0a 20 20 20 20 20 3c 49 70 [eState>.     <Ip]
  |     4f1c: 74 63 34 78 6d 70 45 78 74 3a 53 75 62 6c 6f 63 [tc4xmpExt:Subloc]
  |     4f2c: 61 74 69 6f 6e 3e 49 67 65 6c 73 74 72 61 c3 9f [ation>Igelstra..]
  |     4f3c: 65 20 34 35 3c 2f 49 70 74 63 34 78 6d 70 45 78 [e 45</Iptc4xmpEx]
  |     4f4c: 74 3a 53 75 62 6c 6f 63 61 74 69 6f 6e 3e 0a 20 [t:Sublocation>. ]
  |     4f5c: 20 20 20 3c 2f 72 64 66 3a 6c 69 3e 0a 20 20 20 [   </rdf:li>.   ]
  |     4f6c: 3c 2f 72 64 66 3a 42 61 67 3e 0a 20 20 3c 2f 49 [</rdf:Bag>.  </I]
  |     4f7c: 70 74 63 34 78 6d 70 45 78 74 3a 4c 6f 63 61 74 [ptc4xmpExt:Locat]
  |     4f8c: 69 6f 6e 53 68 6f 77 6e 3e 0a 20 3c 2f 72 64 66 [ionShown>. </rdf]
  |     4f9c: 3a 44 65 73 63 72 69 70 74 69 6f 6e 3e 0a 0a 20 [:Description>.. ]
  |     4fac: 3c 72 64 66 3a 44 65 73 63 72 69 70 74 69 6f 6e [<rdf:Description]
  |     4fbc: 20 72 64 66 3a 61 62 6f 75 74 3d 27 27 0a 20 20 [ rdf:about=''.  ]
  |     4fcc: 78 6d 6c 6e 73 3a 61 75 78 3d 27 68 74 74 70 3a [xmlns:aux='http:]
  |     4fdc: 2f 2f 6e 73 2e 61 64 6f 62 65 2e 63 6f 6d 2f 65 [//ns.adobe.com/e]
  |     4fec: 78 69 66 2f 31 2e 30 2f 61 75 78 2f 27 3e 0a 20 [xif/1.0/aux/'>. ]
  |     4ffc: 20 3c 61 75 78 3a 44 69 73 74 6f 72 74 69 6f 6e [ <aux:Distortion]
  |     500c: 43 6f 72 72 65 63 74 69 6f 6e 41 6c 72 65 61 64 [CorrectionAlread]
  |     501c: 79 41 70 70 6c 69 65 64 3e 54 72 75 65 3c 2f 61 [yApplied>True</a]
  |     502c: 75 78 3a 44 69 73 74 6f 72 74 69 6f 6e 43 6f 72 [ux:DistortionCor]
  |     503c: 72 65 63 74 69 6f 6e 41 6c 72 65 61 64 79 41 70 [rectionAlreadyAp]
  |     504c: 70 6c 69 65 64 3e 0a 20 20 3c 61 75 78 3a 46 69 [plied>.  <aux:Fi]
  |     505c: 72 6d 77 61 72 65 3e 31 2e 31 2e 30 3c 2f 61 75 [rmware>1.1.0</au]
  |     506c: 78 3a 46 69 72 6d 77 61 72 65 3e 0a 20 20 3c 61 [x:Firmware>.  <a]
  |     507c: 75 78 3a 46 6c 61 73 68 43 6f 6d 70 65 6e 73 61 [ux:FlashCompensa]
  |     508c: 74 69 6f 6e 3e 30 2f 31 3c 2f 61 75 78 3a 46 6c [tion>0/1</aux:Fl]
  |     509c: 61 73 68 43 6f 6d 70 65 6e 73 61 74 69 6f 6e 3e [ashCompensation>]
  |     50ac: 0a 20 20 3c 61 75 78 3a 49 6d 61 67 65 4e 75 6d [.  <aux:ImageNum]
  |     50bc: 62 65 72 3e 30 3c 2f 61 75 78 3a 49 6d 61 67 65 [ber>0</aux:Image]
  |     50cc: 4e 75 6d 62 65 72 3e 0a 20 20 3c 61 75 78 3a 4c [Number>.  <aux:L]
  |     50dc: 61 74 65 72 61 6c 43 68 72 6f 6d 61 74 69 63 41 [ateralChromaticA]
  |     50ec: 62 65 72 72 61 74 69 6f 6e 43 6f 72 72 65 63 74 [berrationCorrect]
  |     50fc: 69 6f 6e 41 6c 72 65 61 64 79 41 70 70 6c 69 65 [ionAlreadyApplie]
  |     510c: 64 3e 54 72 75 65 3c 2f 61 75 78 3a 4c 61 74 65 [d>True</aux:Late]
  |     511c: 72 61 6c 43 68 72 6f 6d 61 74 69 63 41 62 65 72 [ralChromaticAber]
  |     512c: 72 61 74 69 6f 6e 43 6f 72 72 65 63 74 69 6f 6e [rationCorrection]
  |     513c: 41 6c 72 65 61 64 79 41 70 70 6c 69 65 64 3e 0a [AlreadyApplied>.]
  |     514c: 20 20 3c 61 75 78 3a 4c 65 6e 73 3e 45 46 35 30 [  <aux:Lens>EF50]
  |     515c: 6d 6d 20 66 2f 31 2e 38 20 49 49 3c 2f 61 75 78 [mm f/1.8 II</aux]
  |     516c: 3a 4c 65 6e 73 3e 0a 20 20 3c 61 75 78 3a 4c 65 [:Lens>.  <aux:Le]
  |     517c: 6e 73 49 44 3e 32 39 3c 2f 61 75 78 3a 4c 65 6e [nsID>29</aux:Len]
  |     518c: 73 49 44 3e 0a 20 20 3c 61 75 78 3a 56 69 67 6e [sID>.  <aux:Vign]
  |     519c: 65 74 74 65 43 6f 72 72 65 63 74 69 6f 6e 41 6c [etteCorrectionAl]
  |     51ac: 72 65 61 64 79 41 70 70 6c 69 65 64 3e 54 72 75 [readyApplied>Tru]
  |     51bc: 65 3c 2f 61 75 78 3a 56 69 67 6e 65 74 74 65 43 [e</aux:VignetteC]
  |     51cc: 6f 72 72 65 63 74 69 6f 6e 41 6c 72 65 61 64 79 [orrectionAlready]
  |     51dc: 41 70 70 6c 69 65 64 3e 0a 20 3c 2f 72 64 66 3a [Applied>. </rdf:]
  |     51ec: 44 65 73 63 72 69 70 74 69 6f 6e 3e 0a 0a 20 3c [Description>.. <]
  |     51fc: 72 64 66 3a 44 65 73 63 72 69 70 74 69 6f 6e 20 [rdf:Description ]
  |     520c: 72 64 66 3a 61 62 6f 75 74 3d 27 27 0a 20 20 78 [rdf:about=''.  x]
  |     521c: 6d 6c 6e 73 3a 63 72 73 3d 27 68 74 74 70 3a 2f [mlns:crs='http:/]
  |     522c: 2f 6e 73 2e 61 64 6f 62 65 2e 63 6f 6d 2f 63 61 [/ns.adobe.com/ca]
  |     523c: 6d 65 72 61 2d 72 61 77 2d 73 65 74 74 69 6e 67 [mera-raw-setting]
  |     524c: 73 2f 31 2e 30 2f 27 3e 0a 20 20 3c 63 72 73 3a [s/1.0/'>.  <crs:]
  |     525c: 41 6c 72 65 61 64 79 41 70 70 6c 69 65 64 3e 54 [AlreadyApplied>T]
  |     526c: 72 75 65 3c 2f 63 72 73 3a 41 6c 72 65 61 64 79 [rue</crs:Already]
  |     527c: 41 70 70 6c 69 65 64 3e 0a 20 20 3c 63 72 73 3a [Applied>.  <crs:]
  |     528c: 41 75 74 6f 4c 61 74 65 72 61 6c 43 41 3e 31 3c [AutoLateralCA>1<]
  |     529c: 2f 63 72 73 3a 41 75 74 6f 4c 61 74 65 72 61 6c [/crs:AutoLateral]
  |     52ac: 43 41 3e 0a 20 20 3c 63 72 73 3a 42 6c 61 63 6b [CA>.  <crs:Black]
  |     52bc: 73 32 30 31 32 3e 30 3c 2f 63 72 73 3a 42 6c 61 [s2012>0</crs:Bla]
  |     52cc: 63 6b 73 32 30 31 32 3e 0a 20 20 3c 63 72 73 3a [cks2012>.  <crs:]
  |     52dc: 42 6c 75 65 48 75 65 3e 30 3c 2f 63 72 73 3a 42 [BlueHue>0</crs:B]
  |     52ec: 6c 75 65 48 75 65 3e 0a 20 20 3c 63 72 73 3a 42 [lueHue>.  <crs:B]
  |     52fc: 6c 75 65 53 61 74 75 72 61 74 69 6f 6e 3e 30 3c [lueSaturation>0<]
  |     530c: 2f 63 72 73 3a 42 6c 75 65 53 61 74 75 72 61 74 [/crs:BlueSaturat]
  |     531c: 69 6f 6e 3e 0a 20 20 3c 63 72 73 3a 43 61 6d 65 [ion>.  <crs:Came]
  |     532c: 72 61 50 72 6f 66 69 6c 65 3e 41 64 6f 62 65 20 [raProfile>Adobe ]
  |     533c: 53 74 61 6e 64 61 72 64 3c 2f 63 72 73 3a 43 61 [Standard</crs:Ca]
  |     534c: 6d 65 72 61 50 72 6f 66 69 6c 65 3e 0a 20 20 3c [meraProfile>.  <]
  |     535c: 63 72 73 3a 43 61 6d 65 72 61 50 72 6f 66 69 6c [crs:CameraProfil]
  |     536c: 65 44 69 67 65 73 74 3e 31 35 36 34 41 39 38 43 [eDigest>1564A98C]
  |     537c: 34 36 45 34 30 30 33 37 44 42 37 39 43 38 43 39 [46E40037DB79C8C9]
  |     [snip 19583 bytes]
  | + [XMP directory, 21631 bytes]
  | | XMPToolkit = Image::ExifTool 13.26
  | | Location = Igelstra..e 45
  | | - Tag 'x:xmpmeta/rdf:RDF/rdf:Description/Iptc4xmpCore:Location'
  | | LocationShownCity = Igelstadt
  | | - Tag 'x:xmpmeta/rdf:RDF/rdf:Description/Iptc4xmpExt:LocationShown/rdf:Bag/rdf:li 10/Iptc4xmpExt:City'
  | | LocationShownCountryName = Deutschland
  | | - Tag 'x:xmpmeta/rdf:RDF/rdf:Description/Iptc4xmpExt:LocationShown/rdf:Bag/rdf:li 10/Iptc4xmpExt:CountryName'
  | | LocationShownLocationName = Die Igelwiese
  | | - Tag 'x:xmpmeta/rdf:RDF/rdf:Description/Iptc4xmpExt:LocationShown/rdf:Bag/rdf:li 10/Iptc4xmpExt:LocationName/rdf:Alt/rdf:li 10'
  | | LocationShownProvinceState = Niedersachsen
  | | - Tag 'x:xmpmeta/rdf:RDF/rdf:Description/Iptc4xmpExt:LocationShown/rdf:Bag/rdf:li 10/Iptc4xmpExt:ProvinceState'
  | | LocationShownSublocation = Igelstra..e 45
  | | - Tag 'x:xmpmeta/rdf:RDF/rdf:Description/Iptc4xmpExt:LocationShown/rdf:Bag/rdf:li 10/Iptc4xmpExt:Sublocation'
  | | DistortionCorrectionAlreadyApplied = True
  | | - Tag 'x:xmpmeta/rdf:RDF/rdf:Description/aux:DistortionCorrectionAlreadyApplied'
  | | Firmware = 1.1.0
  | | - Tag 'x:xmpmeta/rdf:RDF/rdf:Description/aux:Firmware'
  | | FlashCompensation = 0/1
  | | - Tag 'x:xmpmeta/rdf:RDF/rdf:Description/aux:FlashCompensation'
  | | ImageNumber = 0
  | | - Tag 'x:xmpmeta/rdf:RDF/rdf:Description/aux:ImageNumber'
  | | LateralChromaticAberrationCorrectionAlreadyApplied = True
  | | - Tag 'x:xmpmeta/rdf:RDF/rdf:Description/aux:LateralChromaticAberrationCorrectionAlreadyApplied'
  | | Lens = EF50mm f/1.8 II
  | | - Tag 'x:xmpmeta/rdf:RDF/rdf:Description/aux:Lens'
  | | LensID = 29
  | | - Tag 'x:xmpmeta/rdf:RDF/rdf:Description/aux:LensID'
  | | VignetteCorrectionAlreadyApplied = True
  | | - Tag 'x:xmpmeta/rdf:RDF/rdf:Description/aux:VignetteCorrectionAlreadyApplied'
  | | AlreadyApplied = True
  | | - Tag 'x:xmpmeta/rdf:RDF/rdf:Description/crs:AlreadyApplied'
  | | AutoLateralCA = 1
  | | - Tag 'x:xmpmeta/rdf:RDF/rdf:Description/crs:AutoLateralCA'
  | | Blacks2012 = 0
  | | - Tag 'x:xmpmeta/rdf:RDF/rdf:Description/crs:Blacks2012'
  | | BlueHue = 0
  | | - Tag 'x:xmpmeta/rdf:RDF/rdf:Description/crs:BlueHue'
  | | BlueSaturation = 0
  | | - Tag 'x:xmpmeta/rdf:RDF/rdf:Description/crs:BlueSaturation'
  | | CameraProfile = Adobe Standard
  | | - Tag 'x:xmpmeta/rdf:RDF/rdf:Description/crs:CameraProfile'
  | | CameraProfileDigest = 1564A98C46E40037DB79C8C97BDEDC38
  | | - Tag 'x:xmpmeta/rdf:RDF/rdf:Description/crs:CameraProfileDigest'
  | | Clarity2012 = +33
  | | - Tag 'x:xmpmeta/rdf:RDF/rdf:Description/crs:Clarity2012'
  | | ColorNoiseReduction = 25
  | | - Tag 'x:xmpmeta/rdf:RDF/rdf:Description/crs:ColorNoiseReduction'
  | | ColorNoiseReductionDetail = 50
  | | - Tag 'x:xmpmeta/rdf:RDF/rdf:Description/crs:ColorNoiseReductionDetail'
  | | ColorNoiseReductionSmoothness = 50
  | | - Tag 'x:xmpmeta/rdf:RDF/rdf:Description/crs:ColorNoiseReductionSmoothness'
  | | Contrast2012 = 0
  | | - Tag 'x:xmpmeta/rdf:RDF/rdf:Description/crs:Contrast2012'
  | | ConvertToGrayscale = False
  | | - Tag 'x:xmpmeta/rdf:RDF/rdf:Description/crs:ConvertToGrayscale'
  | | DefringeGreenAmount = 0
  | | - Tag 'x:xmpmeta/rdf:RDF/rdf:Description/crs:DefringeGreenAmount'
  | | DefringeGreenHueHi = 60
  | | - Tag 'x:xmpmeta/rdf:RDF/rdf:Description/crs:DefringeGreenHueHi'
  | | DefringeGreenHueLo = 40
  | | - Tag 'x:xmpmeta/rdf:RDF/rdf:Description/crs:DefringeGreenHueLo'
  | | DefringePurpleAmount = 0
  | | - Tag 'x:xmpmeta/rdf:RDF/rdf:Description/crs:DefringePurpleAmount'
  | | DefringePurpleHueHi = 70
  | | - Tag 'x:xmpmeta/rdf:RDF/rdf:Description/crs:DefringePurpleHueHi'
  | | DefringePurpleHueLo = 30
  | | - Tag 'x:xmpmeta/rdf:RDF/rdf:Description/crs:DefringePurpleHueLo'
  | | Dehaze = +5
  | | - Tag 'x:xmpmeta/rdf:RDF/rdf:Description/crs:Dehaze'
  | | Exposure2012 = -1.00
  | | - Tag 'x:xmpmeta/rdf:RDF/rdf:Description/crs:Exposure2012'
  | | GrainAmount = 0
  | | - Tag 'x:xmpmeta/rdf:RDF/rdf:Description/crs:GrainAmount'
  | | GreenHue = 0
  | | - Tag 'x:xmpmeta/rdf:RDF/rdf:Description/crs:GreenHue'
  | | GreenSaturation = 0
  | | - Tag 'x:xmpmeta/rdf:RDF/rdf:Description/crs:GreenSaturation'
  | | HasCrop = False
  | | - Tag 'x:xmpmeta/rdf:RDF/rdf:Description/crs:HasCrop'
  | | HasSettings = True
  | | - Tag 'x:xmpmeta/rdf:RDF/rdf:Description/crs:HasSettings'
  | | Highlights2012 = -39
  | | - Tag 'x:xmpmeta/rdf:RDF/rdf:Description/crs:Highlights2012'
  | | HueAdjustmentAqua = 0
  | | - Tag 'x:xmpmeta/rdf:RDF/rdf:Description/crs:HueAdjustmentAqua'
  | | HueAdjustmentBlue = 0
  | | - Tag 'x:xmpmeta/rdf:RDF/rdf:Description/crs:HueAdjustmentBlue'
  | | HueAdjustmentGreen = 0
  | | - Tag 'x:xmpmeta/rdf:RDF/rdf:Description/crs:HueAdjustmentGreen'
  | | HueAdjustmentMagenta = 0
  | | - Tag 'x:xmpmeta/rdf:RDF/rdf:Description/crs:HueAdjustmentMagenta'
  | | HueAdjustmentOrange = 0
  | | - Tag 'x:xmpmeta/rdf:RDF/rdf:Description/crs:HueAdjustmentOrange'
  | | HueAdjustmentPurple = 0
  | | - Tag 'x:xmpmeta/rdf:RDF/rdf:Description/crs:HueAdjustmentPurple'
  | | HueAdjustmentRed = 0
  | | - Tag 'x:xmpmeta/rdf:RDF/rdf:Description/crs:HueAdjustmentRed'
  | | HueAdjustmentYellow = 0
  | | - Tag 'x:xmpmeta/rdf:RDF/rdf:Description/crs:HueAdjustmentYellow'
  | | LensManualDistortionAmount = 0
  | | - Tag 'x:xmpmeta/rdf:RDF/rdf:Description/crs:LensManualDistortionAmount'
  | | LensProfileChromaticAberrationScale = 100
  | | - Tag 'x:xmpmeta/rdf:RDF/rdf:Description/crs:LensProfileChromaticAberrationScale'
  | | LensProfileDigest = 91738A0C4927BAFDC05FE184C12E1434
  | | - Tag 'x:xmpmeta/rdf:RDF/rdf:Description/crs:LensProfileDigest'
  | | LensProfileDistortionScale = 100
  | | - Tag 'x:xmpmeta/rdf:RDF/rdf:Description/crs:LensProfileDistortionScale'
  | | LensProfileEnable = 1
  | | - Tag 'x:xmpmeta/rdf:RDF/rdf:Description/crs:LensProfileEnable'
  | | LensProfileFilename = Canon EOS 5D Mark II (Canon EF 50mm f1.8 II) - RAW.lcp
  | | - Tag 'x:xmpmeta/rdf:RDF/rdf:Description/crs:LensProfileFilename'
  | | LensProfileName = Adobe (Canon EF 50mm f/1.8 II)
  | | - Tag 'x:xmpmeta/rdf:RDF/rdf:Description/crs:LensProfileName'
  | | LensProfileSetup = LensDefaults
  | | - Tag 'x:xmpmeta/rdf:RDF/rdf:Description/crs:LensProfileSetup'
  | | LensProfileVignettingScale = 100
  | | - Tag 'x:xmpmeta/rdf:RDF/rdf:Description/crs:LensProfileVignettingScale'
  | | LuminanceAdjustmentAqua = 0
  | | - Tag 'x:xmpmeta/rdf:RDF/rdf:Description/crs:LuminanceAdjustmentAqua'
  | | LuminanceAdjustmentBlue = 0
  | | - Tag 'x:xmpmeta/rdf:RDF/rdf:Description/crs:LuminanceAdjustmentBlue'
  | | LuminanceAdjustmentGreen = 0
  | | - Tag 'x:xmpmeta/rdf:RDF/rdf:Description/crs:LuminanceAdjustmentGreen'
  | | LuminanceAdjustmentMagenta = 0
  | | - Tag 'x:xmpmeta/rdf:RDF/rdf:Description/crs:LuminanceAdjustmentMagenta'
  | | LuminanceAdjustmentOrange = 0
  | | - Tag 'x:xmpmeta/rdf:RDF/rdf:Description/crs:LuminanceAdjustmentOrange'
  | | LuminanceAdjustmentPurple = 0
  | | - Tag 'x:xmpmeta/rdf:RDF/rdf:Description/crs:LuminanceAdjustmentPurple'
  | | LuminanceAdjustmentRed = 0
  | | - Tag 'x:xmpmeta/rdf:RDF/rdf:Description/crs:LuminanceAdjustmentRed'
  | | LuminanceAdjustmentYellow = 0
  | | - Tag 'x:xmpmeta/rdf:RDF/rdf:Description/crs:LuminanceAdjustmentYellow'
  | | LuminanceNoiseReductionContrast = 0
  | | - Tag 'x:xmpmeta/rdf:RDF/rdf:Description/crs:LuminanceNoiseReductionContrast'
  | | LuminanceNoiseReductionDetail = 50
  | | - Tag 'x:xmpmeta/rdf:RDF/rdf:Description/crs:LuminanceNoiseReductionDetail'
  | | LuminanceSmoothing = 34
  | | - Tag 'x:xmpmeta/rdf:RDF/rdf:Description/crs:LuminanceSmoothing'
  | | ParametricDarks = +7
  | | - Tag 'x:xmpmeta/rdf:RDF/rdf:Description/crs:ParametricDarks'
  | | ParametricHighlightSplit = 75
  | | - Tag 'x:xmpmeta/rdf:RDF/rdf:Description/crs:ParametricHighlightSplit'
  | | ParametricHighlights = 0
  | | - Tag 'x:xmpmeta/rdf:RDF/rdf:Description/crs:ParametricHighlights'
  | | ParametricLights = +16
  | | - Tag 'x:xmpmeta/rdf:RDF/rdf:Description/crs:ParametricLights'
  | | ParametricMidtoneSplit = 50
  | | - Tag 'x:xmpmeta/rdf:RDF/rdf:Description/crs:ParametricMidtoneSplit'
  | | ParametricShadowSplit = 25
  | | - Tag 'x:xmpmeta/rdf:RDF/rdf:Description/crs:ParametricShadowSplit'
  | | ParametricShadows = -14
  | | - Tag 'x:xmpmeta/rdf:RDF/rdf:Description/crs:ParametricShadows'
  | | PerspectiveAspect = 0
  | | - Tag 'x:xmpmeta/rdf:RDF/rdf:Description/crs:PerspectiveAspect'
  | | PerspectiveHorizontal = 0
  | | - Tag 'x:xmpmeta/rdf:RDF/rdf:Description/crs:PerspectiveHorizontal'
  | | PerspectiveRotate = 0.0
  | | - Tag 'x:xmpmeta/rdf:RDF/rdf:Description/crs:PerspectiveRotate'
  | | PerspectiveScale = 100
  | | - Tag 'x:xmpmeta/rdf:RDF/rdf:Description/crs:PerspectiveScale'
  | | PerspectiveUpright = 0
  | | - Tag 'x:xmpmeta/rdf:RDF/rdf:Description/crs:PerspectiveUpright'
  | | PerspectiveVertical = 0
  | | - Tag 'x:xmpmeta/rdf:RDF/rdf:Description/crs:PerspectiveVertical'
  | | PerspectiveX = 0.00
  | | - Tag 'x:xmpmeta/rdf:RDF/rdf:Description/crs:PerspectiveX'
  | | PerspectiveY = 0.00
  | | - Tag 'x:xmpmeta/rdf:RDF/rdf:Description/crs:PerspectiveY'
  | | PostCropVignetteAmount = -8
  | | - Tag 'x:xmpmeta/rdf:RDF/rdf:Description/crs:PostCropVignetteAmount'
  | | PostCropVignetteFeather = 50
  | | - Tag 'x:xmpmeta/rdf:RDF/rdf:Description/crs:PostCropVignetteFeather'
  | | PostCropVignetteHighlightContrast = 0
  | | - Tag 'x:xmpmeta/rdf:RDF/rdf:Description/crs:PostCropVignetteHighlightContrast'
  | | PostCropVignetteMidpoint = 50
  | | - Tag 'x:xmpmeta/rdf:RDF/rdf:Description/crs:PostCropVignetteMidpoint'
  | | PostCropVignetteRoundness = 0
  | | - Tag 'x:xmpmeta/rdf:RDF/rdf:Description/crs:PostCropVignetteRoundness'
  | | PostCropVignetteStyle = 1
  | | - Tag 'x:xmpmeta/rdf:RDF/rdf:Description/crs:PostCropVignetteStyle'
  | | ProcessVersion = 6.7
  | | - Tag 'x:xmpmeta/rdf:RDF/rdf:Description/crs:ProcessVersion'
  | | RawFileName = _MG_2593.CR2
  | | - Tag 'x:xmpmeta/rdf:RDF/rdf:Description/crs:RawFileName'
  | | RedHue = 0
  | | - Tag 'x:xmpmeta/rdf:RDF/rdf:Description/crs:RedHue'
  | | RedSaturation = 0
  | | - Tag 'x:xmpmeta/rdf:RDF/rdf:Description/crs:RedSaturation'
  | | SaturationAdjustmentAqua = 0
  | | - Tag 'x:xmpmeta/rdf:RDF/rdf:Description/crs:SaturationAdjustmentAqua'
  | | SaturationAdjustmentBlue = 0
  | | - Tag 'x:xmpmeta/rdf:RDF/rdf:Description/crs:SaturationAdjustmentBlue'
  | | SaturationAdjustmentGreen = 0
  | | - Tag 'x:xmpmeta/rdf:RDF/rdf:Description/crs:SaturationAdjustmentGreen'
  | | SaturationAdjustmentMagenta = 0
  | | - Tag 'x:xmpmeta/rdf:RDF/rdf:Description/crs:SaturationAdjustmentMagenta'
  | | SaturationAdjustmentOrange = 0
  | | - Tag 'x:xmpmeta/rdf:RDF/rdf:Description/crs:SaturationAdjustmentOrange'
  | | SaturationAdjustmentPurple = 0
  | | - Tag 'x:xmpmeta/rdf:RDF/rdf:Description/crs:SaturationAdjustmentPurple'
  | | SaturationAdjustmentRed = 0
  | | - Tag 'x:xmpmeta/rdf:RDF/rdf:Description/crs:SaturationAdjustmentRed'
  | | SaturationAdjustmentYellow = 0
  | | - Tag 'x:xmpmeta/rdf:RDF/rdf:Description/crs:SaturationAdjustmentYellow'
  | | ShadowTint = 0
  | | - Tag 'x:xmpmeta/rdf:RDF/rdf:Description/crs:ShadowTint'
  | | Shadows2012 = +3
  | | - Tag 'x:xmpmeta/rdf:RDF/rdf:Description/crs:Shadows2012'
  | | SharpenDetail = 25
  | | - Tag 'x:xmpmeta/rdf:RDF/rdf:Description/crs:SharpenDetail'
  | | SharpenEdgeMasking = 74
  | | - Tag 'x:xmpmeta/rdf:RDF/rdf:Description/crs:SharpenEdgeMasking'
  | | SharpenRadius = +1.0
  | | - Tag 'x:xmpmeta/rdf:RDF/rdf:Description/crs:SharpenRadius'
  | | SplitToningBalance = 0
  | | - Tag 'x:xmpmeta/rdf:RDF/rdf:Description/crs:SplitToningBalance'
  | | SplitToningHighlightHue = 0
  | | - Tag 'x:xmpmeta/rdf:RDF/rdf:Description/crs:SplitToningHighlightHue'
  | | SplitToningHighlightSaturation = 0
  | | - Tag 'x:xmpmeta/rdf:RDF/rdf:Description/crs:SplitToningHighlightSaturation'
  | | SplitToningShadowHue = 0
  | | - Tag 'x:xmpmeta/rdf:RDF/rdf:Description/crs:SplitToningShadowHue'
  | | SplitToningShadowSaturation = 0
  | | - Tag 'x:xmpmeta/rdf:RDF/rdf:Description/crs:SplitToningShadowSaturation'
  | | ColorTemperature = 4900
  | | - Tag 'x:xmpmeta/rdf:RDF/rdf:Description/crs:Temperature'
  | | Tint = +4
  | | - Tag 'x:xmpmeta/rdf:RDF/rdf:Description/crs:Tint'
  | | ToneCurve = 0, 0
  | | - Tag 'x:xmpmeta/rdf:RDF/rdf:Description/crs:ToneCurve/rdf:Seq/rdf:li 10'
  | | ToneCurve = 32, 22
  | | - Tag 'x:xmpmeta/rdf:RDF/rdf:Description/crs:ToneCurve/rdf:Seq/rdf:li 11'
  | | ToneCurve = 64, 56
  | | - Tag 'x:xmpmeta/rdf:RDF/rdf:Description/crs:ToneCurve/rdf:Seq/rdf:li 12'
  | | ToneCurve = 128, 128
  | | - Tag 'x:xmpmeta/rdf:RDF/rdf:Description/crs:ToneCurve/rdf:Seq/rdf:li 13'
  | | ToneCurve = 192, 196
  | | - Tag 'x:xmpmeta/rdf:RDF/rdf:Description/crs:ToneCurve/rdf:Seq/rdf:li 14'
  | | ToneCurve = 255, 255
  | | - Tag 'x:xmpmeta/rdf:RDF/rdf:Description/crs:ToneCurve/rdf:Seq/rdf:li 15'
  | | ToneCurveBlue = 0, 0
  | | - Tag 'x:xmpmeta/rdf:RDF/rdf:Description/crs:ToneCurveBlue/rdf:Seq/rdf:li 10'
  | | ToneCurveBlue = 255, 255
  | | - Tag 'x:xmpmeta/rdf:RDF/rdf:Description/crs:ToneCurveBlue/rdf:Seq/rdf:li 11'
  | | ToneCurveGreen = 0, 0
  | | - Tag 'x:xmpmeta/rdf:RDF/rdf:Description/crs:ToneCurveGreen/rdf:Seq/rdf:li 10'
  | | ToneCurveGreen = 255, 255
  | | - Tag 'x:xmpmeta/rdf:RDF/rdf:Description/crs:ToneCurveGreen/rdf:Seq/rdf:li 11'
  | | ToneCurveName = Medium Contrast
  | | - Tag 'x:xmpmeta/rdf:RDF/rdf:Description/crs:ToneCurveName'
  | | ToneCurveName2012 = Strong Contrast
  | | - Tag 'x:xmpmeta/rdf:RDF/rdf:Description/crs:ToneCurveName2012'
  | | ToneCurvePV2012 = 0, 0
  | | - Tag 'x:xmpmeta/rdf:RDF/rdf:Description/crs:ToneCurvePV2012/rdf:Seq/rdf:li 10'
  | | ToneCurvePV2012 = 32, 16
  | | - Tag 'x:xmpmeta/rdf:RDF/rdf:Description/crs:ToneCurvePV2012/rdf:Seq/rdf:li 11'
  | | ToneCurvePV2012 = 64, 50
  | | - Tag 'x:xmpmeta/rdf:RDF/rdf:Description/crs:ToneCurvePV2012/rdf:Seq/rdf:li 12'
  | | ToneCurvePV2012 = 128, 128
  | | - Tag 'x:xmpmeta/rdf:RDF/rdf:Description/crs:ToneCurvePV2012/rdf:Seq/rdf:li 13'
  | | ToneCurvePV2012 = 192, 202
  | | - Tag 'x:xmpmeta/rdf:RDF/rdf:Description/crs:ToneCurvePV2012/rdf:Seq/rdf:li 14'
  | | ToneCurvePV2012 = 255, 255
  | | - Tag 'x:xmpmeta/rdf:RDF/rdf:Description/crs:ToneCurvePV2012/rdf:Seq/rdf:li 15'
  | | ToneCurvePV2012Blue = 0, 0
  | | - Tag 'x:xmpmeta/rdf:RDF/rdf:Description/crs:ToneCurvePV2012Blue/rdf:Seq/rdf:li 10'
  | | ToneCurvePV2012Blue = 255, 255
  | | - Tag 'x:xmpmeta/rdf:RDF/rdf:Description/crs:ToneCurvePV2012Blue/rdf:Seq/rdf:li 11'
  | | ToneCurvePV2012Green = 0, 0
  | | - Tag 'x:xmpmeta/rdf:RDF/rdf:Description/crs:ToneCurvePV2012Green/rdf:Seq/rdf:li 10'
  | | ToneCurvePV2012Green = 255, 255
  | | - Tag 'x:xmpmeta/rdf:RDF/rdf:Description/crs:ToneCurvePV2012Green/rdf:Seq/rdf:li 11'
  | | ToneCurvePV2012Red = 0, 0
  | | - Tag 'x:xmpmeta/rdf:RDF/rdf:Description/crs:ToneCurvePV2012Red/rdf:Seq/rdf:li 10'
  | | ToneCurvePV2012Red = 255, 255
  | | - Tag 'x:xmpmeta/rdf:RDF/rdf:Description/crs:ToneCurvePV2012Red/rdf:Seq/rdf:li 11'
  | | ToneCurveRed = 0, 0
  | | - Tag 'x:xmpmeta/rdf:RDF/rdf:Description/crs:ToneCurveRed/rdf:Seq/rdf:li 10'
  | | ToneCurveRed = 255, 255
  | | - Tag 'x:xmpmeta/rdf:RDF/rdf:Description/crs:ToneCurveRed/rdf:Seq/rdf:li 11'
  | | ToneMapStrength = 0
  | | - Tag 'x:xmpmeta/rdf:RDF/rdf:Description/crs:ToneMapStrength'
  | | UprightCenterMode = 0
  | | - Tag 'x:xmpmeta/rdf:RDF/rdf:Description/crs:UprightCenterMode'
  | | UprightCenterNormX = 0.5
  | | - Tag 'x:xmpmeta/rdf:RDF/rdf:Description/crs:UprightCenterNormX'
  | | UprightCenterNormY = 0.5
  | | - Tag 'x:xmpmeta/rdf:RDF/rdf:Description/crs:UprightCenterNormY'
  | | UprightFocalLength35mm = 35
  | | - Tag 'x:xmpmeta/rdf:RDF/rdf:Description/crs:UprightFocalLength35mm'
  | | UprightFocalMode = 0
  | | - Tag 'x:xmpmeta/rdf:RDF/rdf:Description/crs:UprightFocalMode'
  | | UprightFourSegmentsCount = 0
  | | - Tag 'x:xmpmeta/rdf:RDF/rdf:Description/crs:UprightFourSegmentsCount'
  | | UprightPreview = False
  | | - Tag 'x:xmpmeta/rdf:RDF/rdf:Description/crs:UprightPreview'
  | | UprightTransformCount = 6
  | | - Tag 'x:xmpmeta/rdf:RDF/rdf:Description/crs:UprightTransformCount'
  | | UprightVersion = 151388160
  | | - Tag 'x:xmpmeta/rdf:RDF/rdf:Description/crs:UprightVersion'
  | | Version = 9.12
  | | - Tag 'x:xmpmeta/rdf:RDF/rdf:Description/crs:Version'
  | | Vibrance = +19
  | | - Tag 'x:xmpmeta/rdf:RDF/rdf:Description/crs:Vibrance'
  | | VignetteAmount = 0
  | | - Tag 'x:xmpmeta/rdf:RDF/rdf:Description/crs:VignetteAmount'
  | | Whites2012 = 0
  | | - Tag 'x:xmpmeta/rdf:RDF/rdf:Description/crs:Whites2012'
  | | Description = photo of a grey cat with orange eyes over a plain background
  | | - Tag 'x:xmpmeta/rdf:RDF/rdf:Description/dc:description/rdf:Alt/rdf:li 10'
  | | Format = image/jpeg
  | | - Tag 'x:xmpmeta/rdf:RDF/rdf:Description/dc:format'
  | | Rights = 
  | | - Tag 'x:xmpmeta/rdf:RDF/rdf:Description/dc:rights/rdf:Alt/rdf:li 10'
  | | Subject = animal
  | | - Tag 'x:xmpmeta/rdf:RDF/rdf:Description/dc:subject/rdf:Bag/rdf:li 10'
  | | Subject = hedgehog
  | | - Tag 'x:xmpmeta/rdf:RDF/rdf:Description/dc:subject/rdf:Bag/rdf:li 11'
  | | Subject = mammal
  | | - Tag 'x:xmpmeta/rdf:RDF/rdf:Description/dc:subject/rdf:Bag/rdf:li 12'
  | | Subject = porcupine
  | | - Tag 'x:xmpmeta/rdf:RDF/rdf:Description/dc:subject/rdf:Bag/rdf:li 13'
  | | Subject = rodent
  | | - Tag 'x:xmpmeta/rdf:RDF/rdf:Description/dc:subject/rdf:Bag/rdf:li 14'
  | | Title = 
  | | - Tag 'x:xmpmeta/rdf:RDF/rdf:Description/dc:title/rdf:Alt/rdf:li 10'
  | | ApertureValue = 35753/10653
  | | - Tag 'x:xmpmeta/rdf:RDF/rdf:Description/exif:ApertureValue'
  | | DateTimeOriginal = 2015-10-11T14:41:44
  | | - Tag 'x:xmpmeta/rdf:RDF/rdf:Description/exif:DateTimeOriginal'
  | | ExifVersion = 0230
  | | - Tag 'x:xmpmeta/rdf:RDF/rdf:Description/exif:ExifVersion'
  | | ExposureCompensation = 0/1
  | | - Tag 'x:xmpmeta/rdf:RDF/rdf:Description/exif:ExposureBiasValue'
  | | ExposureTime = 1/60
  | | - Tag 'x:xmpmeta/rdf:RDF/rdf:Description/exif:ExposureTime'
  | | FNumber = 16/5
  | | - Tag 'x:xmpmeta/rdf:RDF/rdf:Description/exif:FNumber'
  | | FocalLength = 50/1
  | | - Tag 'x:xmpmeta/rdf:RDF/rdf:Description/exif:FocalLength'
  | | FocalLengthIn35mmFormat = 80
  | | - Tag 'x:xmpmeta/rdf:RDF/rdf:Description/exif:FocalLengthIn35mmFilm'
  | | GPSAltitude = 56/1
  | | - Tag 'x:xmpmeta/rdf:RDF/rdf:Description/exif:GPSAltitude'
  | | GPSAltitudeRef = 0
  | | - Tag 'x:xmpmeta/rdf:RDF/rdf:Description/exif:GPSAltitudeRef'
  | | GPSLatitude = 53,35.72066667N
  | | - Tag 'x:xmpmeta/rdf:RDF/rdf:Description/exif:GPSLatitude'
  | | GPSLongitude = 9,56.49733333E
  | | - Tag 'x:xmpmeta/rdf:RDF/rdf:Description/exif:GPSLongitude'
  | | GPSMapDatum = WGS-84
  | | - Tag 'x:xmpmeta/rdf:RDF/rdf:Description/exif:GPSMapDatum'
  | | GPSVersionID = 2.3.0.0
  | | - Tag 'x:xmpmeta/rdf:RDF/rdf:Description/exif:GPSVersionID'
  | | ISO = 400
  | | - Tag 'x:xmpmeta/rdf:RDF/rdf:Description/exif:ISOSpeedRatings/rdf:Seq/rdf:li 10'
  | | Saturation = 0
  | | - Tag 'x:xmpmeta/rdf:RDF/rdf:Description/exif:Saturation'
  | | Sharpness = 2
  | | - Tag 'x:xmpmeta/rdf:RDF/rdf:Description/exif:Sharpness'
  | | ShutterSpeedValue = 6/1
  | | - Tag 'x:xmpmeta/rdf:RDF/rdf:Description/exif:ShutterSpeedValue'
  | | SerialNumber = 1850746011
  | | - Tag 'x:xmpmeta/rdf:RDF/rdf:Description/exifEX:BodySerialNumber'
  | | LensModel = EF50mm f/1.8 STM
  | | - Tag 'x:xmpmeta/rdf:RDF/rdf:Description/exifEX:LensModel'
  | | LensInfo = 50/1
  | | - Tag 'x:xmpmeta/rdf:RDF/rdf:Description/exifEX:LensSpecification/rdf:Seq/rdf:li 10'
  | | LensInfo = 50/1
  | | - Tag 'x:xmpmeta/rdf:RDF/rdf:Description/exifEX:LensSpecification/rdf:Seq/rdf:li 11'
  | | LensInfo = 0/0
  | | - Tag 'x:xmpmeta/rdf:RDF/rdf:Description/exifEX:LensSpecification/rdf:Seq/rdf:li 12'
  | | LensInfo = 0/0
  | | - Tag 'x:xmpmeta/rdf:RDF/rdf:Description/exifEX:LensSpecification/rdf:Seq/rdf:li 13'
  | | PhotographicSensitivity = 100
  | | - Tag 'x:xmpmeta/rdf:RDF/rdf:Description/exifEX:PhotographicSensitivity'
  | | City = Igelstadt
  | | - Tag 'x:xmpmeta/rdf:RDF/rdf:Description/photoshop:City'
  | | ColorMode = 3
  | | - Tag 'x:xmpmeta/rdf:RDF/rdf:Description/photoshop:ColorMode'
  | | Country = Deutschland
  | | - Tag 'x:xmpmeta/rdf:RDF/rdf:Description/photoshop:Country'
  | | DateCreated = 2018-05-17T19:44:17.200
  | | - Tag 'x:xmpmeta/rdf:RDF/rdf:Description/photoshop:DateCreated'
  | | DocumentAncestors = 871ABA18D31FD8E7DBCC53B9FE0224AF
  | | - Tag 'x:xmpmeta/rdf:RDF/rdf:Description/photoshop:DocumentAncestors/rdf:Bag/rdf:li 10'
  | | DocumentAncestors = FD7181A14C33CB21D9F24DFA009838BB
  | | - Tag 'x:xmpmeta/rdf:RDF/rdf:Description/photoshop:DocumentAncestors/rdf:Bag/rdf:li 11'
  | | DocumentAncestors = adobe:docid:photoshop:12be8701-ee83-11dc-8fa4-839a83b75f76
  | | - Tag 'x:xmpmeta/rdf:RDF/rdf:Description/photoshop:DocumentAncestors/rdf:Bag/rdf:li 12'
  | | DocumentAncestors = adobe:docid:photoshop:8e134c0c-d987-11e1-8180-e5485f4b3dd6
  | | - Tag 'x:xmpmeta/rdf:RDF/rdf:Description/photoshop:DocumentAncestors/rdf:Bag/rdf:li 13'
  | | DocumentAncestors = adobe:docid:photoshop:b431105b-06cd-11e8-871a-e51073a125a5
  | | - Tag 'x:xmpmeta/rdf:RDF/rdf:Description/photoshop:DocumentAncestors/rdf:Bag/rdf:li 14'
  | | DocumentAncestors = uuid:7482E5E1C880E2118C5CA233DA119F04
  | | - Tag 'x:xmpmeta/rdf:RDF/rdf:Description/photoshop:DocumentAncestors/rdf:Bag/rdf:li 15'
  | | DocumentAncestors = uuid:B817E0D43CEFDB11B569A5BC76F1A641
  | | - Tag 'x:xmpmeta/rdf:RDF/rdf:Description/photoshop:DocumentAncestors/rdf:Bag/rdf:li 16'
  | | DocumentAncestors = uuid:F29EE4DF7EE8DC118DF8881DDBB15AA6
  | | - Tag 'x:xmpmeta/rdf:RDF/rdf:Description/photoshop:DocumentAncestors/rdf:Bag/rdf:li 17'
  | | DocumentAncestors = uuid:F5473D8EC2CFDD11A615E91EF51C8E6B
  | | - Tag 'x:xmpmeta/rdf:RDF/rdf:Description/photoshop:DocumentAncestors/rdf:Bag/rdf:li 18'
  | | DocumentAncestors = uuid:e6789bf8-372e-4f3f-9a32-51adbe529a51
  | | - Tag 'x:xmpmeta/rdf:RDF/rdf:Description/photoshop:DocumentAncestors/rdf:Bag/rdf:li 19'
  | | DocumentAncestors = xmp.did:026DA6464E99E5118955C48E323C1370
  | | - Tag 'x:xmpmeta/rdf:RDF/rdf:Description/photoshop:DocumentAncestors/rdf:Bag/rdf:li 210'
  | | DocumentAncestors = xmp.did:04BFFCF3DA20E411A80BEFF385C528EF
  | | - Tag 'x:xmpmeta/rdf:RDF/rdf:Description/photoshop:DocumentAncestors/rdf:Bag/rdf:li 211'
  | | DocumentAncestors = xmp.did:05BFFCF3DA20E411A80BEFF385C528EF
  | | - Tag 'x:xmpmeta/rdf:RDF/rdf:Description/photoshop:DocumentAncestors/rdf:Bag/rdf:li 212'
  | | DocumentAncestors = xmp.did:06BFFCF3DA20E411A80BEFF385C528EF
  | | - Tag 'x:xmpmeta/rdf:RDF/rdf:Description/photoshop:DocumentAncestors/rdf:Bag/rdf:li 213'
  | | DocumentAncestors = xmp.did:15E498DDD1BCE3118479C8D66754C651
  | | - Tag 'x:xmpmeta/rdf:RDF/rdf:Description/photoshop:DocumentAncestors/rdf:Bag/rdf:li 214'
  | | DocumentAncestors = xmp.did:1BE35DF84721E411BCDC879249A1E379
  | | - Tag 'x:xmpmeta/rdf:RDF/rdf:Description/photoshop:DocumentAncestors/rdf:Bag/rdf:li 215'
  | | DocumentAncestors = xmp.did:1CE35DF84721E411BCDC879249A1E379
  | | - Tag 'x:xmpmeta/rdf:RDF/rdf:Description/photoshop:DocumentAncestors/rdf:Bag/rdf:li 216'
  | | DocumentAncestors = xmp.did:1d863f65-8cb9-204c-a7f2-46ae0b82ab5d
  | | - Tag 'x:xmpmeta/rdf:RDF/rdf:Description/photoshop:DocumentAncestors/rdf:Bag/rdf:li 217'
  | | DocumentAncestors = xmp.did:1edd63cf-63f1-be43-8eb6-28739a04fc34
  | | - Tag 'x:xmpmeta/rdf:RDF/rdf:Description/photoshop:DocumentAncestors/rdf:Bag/rdf:li 218'
  | | DocumentAncestors = xmp.did:2A536F8FF323E4119256983A0A8E27F4
  | | - Tag 'x:xmpmeta/rdf:RDF/rdf:Description/photoshop:DocumentAncestors/rdf:Bag/rdf:li 219'
  | | DocumentAncestors = xmp.did:2B536F8FF323E4119256983A0A8E27F4
  | | - Tag 'x:xmpmeta/rdf:RDF/rdf:Description/photoshop:DocumentAncestors/rdf:Bag/rdf:li 220'
  | | DocumentAncestors = xmp.did:3277AEDEF242E611A6CA9D14FBC23D21
  | | - Tag 'x:xmpmeta/rdf:RDF/rdf:Description/photoshop:DocumentAncestors/rdf:Bag/rdf:li 221'
  | | DocumentAncestors = xmp.did:345F41AC61FFE511984BD03C261E519F
  | | - Tag 'x:xmpmeta/rdf:RDF/rdf:Description/photoshop:DocumentAncestors/rdf:Bag/rdf:li 222'
  | | DocumentAncestors = xmp.did:38E03B705845E4119D63AC8F7240C674
  | | - Tag 'x:xmpmeta/rdf:RDF/rdf:Description/photoshop:DocumentAncestors/rdf:Bag/rdf:li 223'
  | | DocumentAncestors = xmp.did:676074CE1267E2118E9F83D25945345A
  | | - Tag 'x:xmpmeta/rdf:RDF/rdf:Description/photoshop:DocumentAncestors/rdf:Bag/rdf:li 224'
  | | DocumentAncestors = xmp.did:72319FB1F844E41190628966A279BD7B
  | | - Tag 'x:xmpmeta/rdf:RDF/rdf:Description/photoshop:DocumentAncestors/rdf:Bag/rdf:li 225'
  | | DocumentAncestors = xmp.did:7DAF784D0E67E211B5DF870CB1273C7A
  | | - Tag 'x:xmpmeta/rdf:RDF/rdf:Description/photoshop:DocumentAncestors/rdf:Bag/rdf:li 226'
  | | DocumentAncestors = xmp.did:93B00518BC9AE411B0F7CA6000FB75A5
  | | - Tag 'x:xmpmeta/rdf:RDF/rdf:Description/photoshop:DocumentAncestors/rdf:Bag/rdf:li 227'
  | | DocumentAncestors = xmp.did:9D0D9797999EE41193BFE3E162C5B50C
  | | - Tag 'x:xmpmeta/rdf:RDF/rdf:Description/photoshop:DocumentAncestors/rdf:Bag/rdf:li 228'
  | | DocumentAncestors = xmp.did:A65843342923E411A15FDD5EB829D6CF
  | | - Tag 'x:xmpmeta/rdf:RDF/rdf:Description/photoshop:DocumentAncestors/rdf:Bag/rdf:li 229'
  | | DocumentAncestors = xmp.did:B644D45FBBBCE1119D66D9D8E4A4AB2E
  | | - Tag 'x:xmpmeta/rdf:RDF/rdf:Description/photoshop:DocumentAncestors/rdf:Bag/rdf:li 230'
  | | DocumentAncestors = xmp.did:B7A1306DA368E21194B2DCB767C38B70
  | | - Tag 'x:xmpmeta/rdf:RDF/rdf:Description/photoshop:DocumentAncestors/rdf:Bag/rdf:li 231'
  | | DocumentAncestors = xmp.did:B844D45FBBBCE1119D66D9D8E4A4AB2E
  | | - Tag 'x:xmpmeta/rdf:RDF/rdf:Description/photoshop:DocumentAncestors/rdf:Bag/rdf:li 232'
  | | DocumentAncestors = xmp.did:BA19A591633FE6118B589AE61772D815
  | | - Tag 'x:xmpmeta/rdf:RDF/rdf:Description/photoshop:DocumentAncestors/rdf:Bag/rdf:li 233'
  | | DocumentAncestors = xmp.did:CD0B892B2DA7E411B204F4CC894F2836
  | | - Tag 'x:xmpmeta/rdf:RDF/rdf:Description/photoshop:DocumentAncestors/rdf:Bag/rdf:li 234'
  | | DocumentAncestors = xmp.did:D35C2DD9103FE611887695DCDE94486C
  | | - Tag 'x:xmpmeta/rdf:RDF/rdf:Description/photoshop:DocumentAncestors/rdf:Bag/rdf:li 235'
  | | DocumentAncestors = xmp.did:E2465DCDA944E411B6E28C01EC3A081F
  | | - Tag 'x:xmpmeta/rdf:RDF/rdf:Description/photoshop:DocumentAncestors/rdf:Bag/rdf:li 236'
  | | DocumentAncestors = xmp.did:E6465DCDA944E411B6E28C01EC3A081F
  | | - Tag 'x:xmpmeta/rdf:RDF/rdf:Description/photoshop:DocumentAncestors/rdf:Bag/rdf:li 237'
  | | DocumentAncestors = xmp.did:E679195AAFC3E511B30DF07EB0FADE24
  | | - Tag 'x:xmpmeta/rdf:RDF/rdf:Description/photoshop:DocumentAncestors/rdf:Bag/rdf:li 238'
  | | DocumentAncestors = xmp.did:E7368B9DDBD6E4118EDED9318DFC5458
  | | - Tag 'x:xmpmeta/rdf:RDF/rdf:Description/photoshop:DocumentAncestors/rdf:Bag/rdf:li 239'
  | | DocumentAncestors = xmp.did:FC05A09BD220E4118462AF7374FB7815
  | | - Tag 'x:xmpmeta/rdf:RDF/rdf:Description/photoshop:DocumentAncestors/rdf:Bag/rdf:li 240'
  | | ICCProfileName = Adobe RGB (1998)
  | | - Tag 'x:xmpmeta/rdf:RDF/rdf:Description/photoshop:ICCProfile'
  | | State = Niedersachsen
  | | - Tag 'x:xmpmeta/rdf:RDF/rdf:Description/photoshop:State'
  | | Make = Canon
  | | - Tag 'x:xmpmeta/rdf:RDF/rdf:Description/tiff:Make'
  | | Model = Canon EOS 70D
  | | - Tag 'x:xmpmeta/rdf:RDF/rdf:Description/tiff:Model'
  | | Orientation = 1
  | | - Tag 'x:xmpmeta/rdf:RDF/rdf:Description/tiff:Orientation'
  | | XResolution = 72/1
  | | - Tag 'x:xmpmeta/rdf:RDF/rdf:Description/tiff:XResolution'
  | | YResolution = 72/1
  | | - Tag 'x:xmpmeta/rdf:RDF/rdf:Description/tiff:YResolution'
  | | CreateDate = 2015-10-11T14:41:44
  | | - Tag 'x:xmpmeta/rdf:RDF/rdf:Description/xmp:CreateDate'
  | | CreatorTool = Adobe Photoshop CC 2017 (Windows)
  | | - Tag 'x:xmpmeta/rdf:RDF/rdf:Description/xmp:CreatorTool'
  | | Label = 
  | | - Tag 'x:xmpmeta/rdf:RDF/rdf:Description/xmp:Label'
  | | MetadataDate = 2025-01-22T15:35:12.180Z
  | | - Tag 'x:xmpmeta/rdf:RDF/rdf:Description/xmp:MetadataDate'
  | | ModifyDate = 2015-10-11T14:41:44
  | | - Tag 'x:xmpmeta/rdf:RDF/rdf:Description/xmp:ModifyDate'
  | | Rating = 4
  | | - Tag 'x:xmpmeta/rdf:RDF/rdf:Description/xmp:Rating'
  | | DerivedFromDocumentID = xmp.did:1d863f65-8cb9-204c-a7f2-46ae0b82ab5d
  | | - Tag 'x:xmpmeta/rdf:RDF/rdf:Description/xmpMM:DerivedFrom/stRef:documentID'
  | | DerivedFromInstanceID = xmp.iid:538f1514-22d7-f448-8555-37cf07bc0117
  | | - Tag 'x:xmpmeta/rdf:RDF/rdf:Description/xmpMM:DerivedFrom/stRef:instanceID'
  | | DerivedFromOriginalDocumentID = CBD5B8C3D30C0B13434B30B971EBF9DA
  | | - Tag 'x:xmpmeta/rdf:RDF/rdf:Description/xmpMM:DerivedFrom/stRef:originalDocumentID'
  | | DocumentID = E9EC4E99-E201-4440-8D8E-B14E7776148D
  | | - Tag 'x:xmpmeta/rdf:RDF/rdf:Description/xmpMM:DocumentID'
  | | HistoryAction = derived
  | | - Tag 'x:xmpmeta/rdf:RDF/rdf:Description/xmpMM:History/rdf:Seq/rdf:li 10/stEvt:action'
  | | HistoryParameters = converted from image/x-canon-cr2 to image/tiff
  | | - Tag 'x:xmpmeta/rdf:RDF/rdf:Description/xmpMM:History/rdf:Seq/rdf:li 10/stEvt:parameters'
  | | HistoryAction = saved
  | | - Tag 'x:xmpmeta/rdf:RDF/rdf:Description/xmpMM:History/rdf:Seq/rdf:li 11/stEvt:action'
  | | HistoryChanged = /
  | | - Tag 'x:xmpmeta/rdf:RDF/rdf:Description/xmpMM:History/rdf:Seq/rdf:li 11/stEvt:changed'
  | | HistoryInstanceID = xmp.iid:1edd63cf-63f1-be43-8eb6-28739a04fc34
  | | - Tag 'x:xmpmeta/rdf:RDF/rdf:Description/xmpMM:History/rdf:Seq/rdf:li 11/stEvt:instanceID'
  | | HistorySoftwareAgent = Adobe Photoshop Camera Raw 9.12 (Windows)
  | | - Tag 'x:xmpmeta/rdf:RDF/rdf:Description/xmpMM:History/rdf:Seq/rdf:li 11/stEvt:softwareAgent'
  | | HistoryWhen = 2018-05-18T11:54:23+02:00
  | | - Tag 'x:xmpmeta/rdf:RDF/rdf:Description/xmpMM:History/rdf:Seq/rdf:li 11/stEvt:when'
  | | HistoryAction = saved
  | | - Tag 'x:xmpmeta/rdf:RDF/rdf:Description/xmpMM:History/rdf:Seq/rdf:li 12/stEvt:action'
  | | HistoryChanged = /
  | | - Tag 'x:xmpmeta/rdf:RDF/rdf:Description/xmpMM:History/rdf:Seq/rdf:li 12/stEvt:changed'
  | | HistoryInstanceID = xmp.iid:213d0dd5-b1d2-ea41-bd05-7e1fea066277
  | | - Tag 'x:xmpmeta/rdf:RDF/rdf:Description/xmpMM:History/rdf:Seq/rdf:li 12/stEvt:instanceID'
  | | HistorySoftwareAgent = Adobe Photoshop CC 2017 (Windows)
  | | - Tag 'x:xmpmeta/rdf:RDF/rdf:Description/xmpMM:History/rdf:Seq/rdf:li 12/stEvt:softwareAgent'
  | | HistoryWhen = 2018-05-18T12:11:10+02:00
  | | - Tag 'x:xmpmeta/rdf:RDF/rdf:Description/xmpMM:History/rdf:Seq/rdf:li 12/stEvt:when'
  | | HistoryAction = converted
  | | - Tag 'x:xmpmeta/rdf:RDF/rdf:Description/xmpMM:History/rdf:Seq/rdf:li 13/stEvt:action'
  | | HistoryParameters = from image/tiff to application/vnd.adobe.photoshop
  | | - Tag 'x:xmpmeta/rdf:RDF/rdf:Description/xmpMM:History/rdf:Seq/rdf:li 13/stEvt:parameters'
  | | HistoryAction = derived
  | | - Tag 'x:xmpmeta/rdf:RDF/rdf:Description/xmpMM:History/rdf:Seq/rdf:li 14/stEvt:action'
  | | HistoryParameters = converted from image/tiff to application/vnd.adobe.photoshop
  | | - Tag 'x:xmpmeta/rdf:RDF/rdf:Description/xmpMM:History/rdf:Seq/rdf:li 14/stEvt:parameters'
  | | HistoryAction = saved
  | | - Tag 'x:xmpmeta/rdf:RDF/rdf:Description/xmpMM:History/rdf:Seq/rdf:li 15/stEvt:action'
  | | HistoryChanged = /
  | | - Tag 'x:xmpmeta/rdf:RDF/rdf:Description/xmpMM:History/rdf:Seq/rdf:li 15/stEvt:changed'
  | | HistoryInstanceID = xmp.iid:1d863f65-8cb9-204c-a7f2-46ae0b82ab5d
  | | - Tag 'x:xmpmeta/rdf:RDF/rdf:Description/xmpMM:History/rdf:Seq/rdf:li 15/stEvt:instanceID'
  | | HistorySoftwareAgent = Adobe Photoshop CC 2017 (Windows)
  | | - Tag 'x:xmpmeta/rdf:RDF/rdf:Description/xmpMM:History/rdf:Seq/rdf:li 15/stEvt:softwareAgent'
  | | HistoryWhen = 2018-05-18T12:11:10+02:00
  | | - Tag 'x:xmpmeta/rdf:RDF/rdf:Description/xmpMM:History/rdf:Seq/rdf:li 15/stEvt:when'
  | | HistoryAction = saved
  | | - Tag 'x:xmpmeta/rdf:RDF/rdf:Description/xmpMM:History/rdf:Seq/rdf:li 16/stEvt:action'
  | | HistoryChanged = /
  | | - Tag 'x:xmpmeta/rdf:RDF/rdf:Description/xmpMM:History/rdf:Seq/rdf:li 16/stEvt:changed'
  | | HistoryInstanceID = xmp.iid:538f1514-22d7-f448-8555-37cf07bc0117
  | | - Tag 'x:xmpmeta/rdf:RDF/rdf:Description/xmpMM:History/rdf:Seq/rdf:li 16/stEvt:instanceID'
  | | HistorySoftwareAgent = Adobe Photoshop CC 2017 (Windows)
  | | - Tag 'x:xmpmeta/rdf:RDF/rdf:Description/xmpMM:History/rdf:Seq/rdf:li 16/stEvt:softwareAgent'
  | | HistoryWhen = 2018-05-18T12:12:44+02:00
  | | - Tag 'x:xmpmeta/rdf:RDF/rdf:Description/xmpMM:History/rdf:Seq/rdf:li 16/stEvt:when'
  | | HistoryAction = converted
  | | - Tag 'x:xmpmeta/rdf:RDF/rdf:Description/xmpMM:History/rdf:Seq/rdf:li 17/stEvt:action'
  | | HistoryParameters = from application/vnd.adobe.photoshop to image/jpeg
  | | - Tag 'x:xmpmeta/rdf:RDF/rdf:Description/xmpMM:History/rdf:Seq/rdf:li 17/stEvt:parameters'
  | | HistoryAction = derived
  | | - Tag 'x:xmpmeta/rdf:RDF/rdf:Description/xmpMM:History/rdf:Seq/rdf:li 18/stEvt:action'
  | | HistoryParameters = converted from application/vnd.adobe.photoshop to image/jpeg
  | | - Tag 'x:xmpmeta/rdf:RDF/rdf:Description/xmpMM:History/rdf:Seq/rdf:li 18/stEvt:parameters'
  | | HistoryAction = saved
  | | - Tag 'x:xmpmeta/rdf:RDF/rdf:Description/xmpMM:History/rdf:Seq/rdf:li 19/stEvt:action'
  | | HistoryChanged = /
  | | - Tag 'x:xmpmeta/rdf:RDF/rdf:Description/xmpMM:History/rdf:Seq/rdf:li 19/stEvt:changed'
  | | HistoryInstanceID = xmp.iid:a330c3fb-4e2f-f948-bd00-04e86112dfd9
  | | - Tag 'x:xmpmeta/rdf:RDF/rdf:Description/xmpMM:History/rdf:Seq/rdf:li 19/stEvt:instanceID'
  | | HistorySoftwareAgent = Adobe Photoshop CC 2017 (Windows)
  | | - Tag 'x:xmpmeta/rdf:RDF/rdf:Description/xmpMM:History/rdf:Seq/rdf:li 19/stEvt:softwareAgent'
  | | HistoryWhen = 2018-05-18T12:12:44+02:00
  | | - Tag 'x:xmpmeta/rdf:RDF/rdf:Description/xmpMM:History/rdf:Seq/rdf:li 19/stEvt:when'
  | | InstanceID = xmp.iid:A944B6DB-7704-4449-82BD-83D3C861D070
  | | - Tag 'x:xmpmeta/rdf:RDF/rdf:Description/xmpMM:InstanceID'
  | | OriginalDocumentID = E9EC4E99-E201-4440-8D8E-B14E7776148D
  | | - Tag 'x:xmpmeta/rdf:RDF/rdf:Description/xmpMM:OriginalDocumentID'
  | + [ItemPropertyContainer directory]
  | | 1)  ImageSpatialExtent = .`.@
  | |     - Tag 'ispe' (12 bytes):
  | |         014e: 00 00 00 00 00 00 15 60 00 00 0e 40             [.......`...@]
  | | ImageWidth = 5472
  | | ImageHeight = 3648
  | | 2)  ImagePixelDepth = ....
  | |     - Tag 'pixi' (8 bytes):
  | |         0162: 00 00 00 00 03 08 08 08                         [........]
  | | 3)  AV1Configuration (SubDirectory) -->
  | |     - Tag 'av1C' (4 bytes):
  | |         0172: 81 30 00 00                                     [.0..]
  | | + [BinaryData directory, 4 bytes, Big-endian]
  | | | AV1ConfigurationVersion = 1
  | | | - Tag 0x0000, mask 0x7f (1 bytes, int8u[1]):
  | | |     0172: 81                                              [.]
  | | | SeqProfile = 1
  | | | - Tag 0x0001, mask 0xe0 (1 bytes, int8u[1]):
  | | |     0173: 30                                              [0]
  | | | SeqTier0 = 0
  | | | - Tag 0x0002, mask 0x80 (1 bytes, int8u[1]):
  | | |     0174: 00                                              [.]
  | | | ChromaFormat = 0
  | | | - Tag '2.3', mask 0x1c (1 bytes, int8u[1]):
  | | |     0174: 00                                              [.]
  | | | ChromaSamplePosition = 0
  | | | - Tag '2.4', mask 0x03 (1 bytes, int8u[1]):
  | | |     0174: 00                                              [.]
  | | | InitialDelaySamples = 0
  | | | - Tag 0x0003 (1 bytes, int8u[1]):
  | | |     0175: 00                                              [.]
  | | 4)  ColorRepresentation (SubDirectory) -->
  | |     - Tag 'colr' (11 bytes):
  | |         017e: 6e 63 6c 78 00 01 00 02 00 06 80                [nclx.......]
  | | + [BinaryData directory, 11 bytes, Big-endian]
  | | | ColorProfiles = nclx
  | | | - Tag 0x0000 (4 bytes, undef[4]):
  | | |     017e: 6e 63 6c 78                                     [nclx]
  | | | ColorPrimaries = 1
  | | | - Tag 0x0004 (2 bytes, int16u[1]):
  | | |     0182: 00 01                                           [..]
  | | | TransferCharacteristics = 2
  | | | - Tag 0x0006 (2 bytes, int16u[1]):
  | | |     0184: 00 02                                           [..]
  | | | MatrixCoefficients = 6
  | | | - Tag 0x0008 (2 bytes, int16u[1]):
  | | |     0186: 00 06                                           [..]
  | | | VideoFullRangeFlag = 1
  | | | - Tag 0x000a, mask 0x80 (1 bytes, int8u[1]):
  | | |     0188: 80                                              [.]
  Movie (SubDirectory) -->
  - Tag 'moov' (874 bytes):
      01a8: 00 00 00 78 6d 76 68 64 01 00 00 00 00 00 00 00 [...xmvhd........]
      01b8: e6 0c e9 c4 00 00 00 00 e6 0c e9 c4 00 00 00 02 [................]
      01c8: ff ff ff ff ff ff ff ff 00 01 00 00 01 00 00 00 [................]
      01d8: 00 00 00 00 00 00 00 00 00 01 00 00 00 00 00 00 [................]
      01e8: 00 00 00 00 00 00 00 00 00 01 00 00 00 00 00 00 [................]
      01f8: 00 00 00 00 00 00 00 00 40 00 00 00 00 00 00 00 [........@.......]
      0208: 00 00 00 00 00 00 00 00 00 00 00 00 00 00 00 00 [................]
      0218: 00 00 00 00 00 00 00 03 00 00 02 f2 74 72 61 6b [............trak]
      0228: 00 00 00 68 74 6b 68 64 01 00 00 01 00 00 00 00 [...htkhd........]
      0238: e6 0c e9 c4 00 00 00 00 e6 0c e9 c4 00 00 00 01 [................]
      0248: 00 00 00 00 ff ff ff ff ff ff ff ff 00 00 00 00 [................]
      0258: 00 00 00 00 00 00 00 00 00 00 00 00 00 01 00 00 [................]
      0268: 00 00 00 00 00 00 00 00 00 00 00 00 00 01 00 00 [................]
      0278: 00 00 00 00 00 00 00 00 00 00 00 00 40 00 00 00 [............@...]
      0288: 15 60 00 00 0e 40 00 00 00 00 00 2c 65 64 74 73 [.`...@.....,edts]
      0298: 00 00 00 24 65 6c 73 74 01 00 00 01 00 00 00 01 [...$elst........]
      02a8: 00 00 00 00 00 00 00 02 00 00 00 00 00 00 00 00 [................]
      02b8: 00 01 00 00 00 00 00 ac 6d 65 74 61 00 00 00 00 [........meta....]
      02c8: 00 00 00 21 68 64 6c 72 00 00 00 00 00 00 00 00 [...!hdlr........]
      02d8: 70 69 63 74 00 00 00 00 00 00 00 00 00 00 00 00 [pict............]
      02e8: 00 00 00 00 2c 69 6c 6f 63 00 00 00 00 44 00 00 [....,iloc....D..]
      02f8: 02 00 02 00 00 00 01 00 00 05 1a 00 00 46 72 00 [.............Fr.]
      0308: 03 00 00 00 01 00 00 4b 8c 00 00 54 7f 00 00 00 [.......K...T....]
      0318: 53 69 69 6e 66 00 00 00 00 00 02 00 00 00 19 69 [Siinf..........i]
      0328: 6e 66 65 02 00 00 00 00 02 00 00 45 78 69 66 45 [nfe........ExifE]
      0338: 78 69 66 00 00 00 00 2c 69 6e 66 65 02 00 00 00 [xif....,infe....]
      0348: 00 03 00 00 6d 69 6d 65 58 4d 50 00 61 70 70 6c [....mimeXMP.appl]
      0358: 69 63 61 74 69 6f 6e 2f 72 64 66 2b 78 6d 6c 00 [ication/rdf+xml.]
      0368: 00 00 01 aa 6d 64 69 61 00 00 00 2c 6d 64 68 64 [....mdia...,mdhd]
      0378: 01 00 00 00 00 00 00 00 e6 0c e9 c4 00 00 00 00 [................]
      0388: e6 0c e9 c4 00 00 00 02 00 00 00 00 00 00 00 02 [................]
      0398: 55 c4 00 00 00 00 00 21 68 64 6c 72 00 00 00 00 [U......!hdlr....]
      03a8: 00 00 00 00 70 69 63 74 00 00 00 00 00 00 00 00 [....pict........]
      03b8: 00 00 00 00 00 00 00 01 55 6d 69 6e 66 00 00 00 [........Uminf...]
      03c8: 14 76 6d 68 64 00 00 00 01 00 00 00 00 00 00 00 [.vmhd...........]
      03d8: 00 00 00 00 24 64 69 6e 66 00 00 00 1c 64 72 65 [....$dinf....dre]
      03e8: 66 00 00 00 00 00 00 00 01 00 00 00 0c 75 72 6c [f............url]
      03f8: 20 00 00 00 01 00 00 01 15 73 74 62 6c 00 00 00 [ ........stbl...]
      0408: 95 73 74 73 64 00 00 00 00 00 00 00 01 00 00 00 [.stsd...........]
      0418: 85 61 76 30 31 00 00 00 00 00 00 00 01 00 00 00 [.av01...........]
      0428: 00 00 00 00 00 00 00 00 00 00 00 00 00 15 60 0e [..............`.]
      0438: 40 00 48 00 00 00 48 00 00 00 00 00 00 00 01 0a [@.H...H.........]
      0448: 41 4f 4d 20 43 6f 64 69 6e 67 00 00 00 00 00 00 [AOM Coding......]
      0458: 00 00 00 00 00 00 00 00 00 00 00 00 00 00 00 00 [................]
      0468: 18 ff ff 00 00 00 0c 61 76 31 43 81 30 00 00 00 [.......av1C.0...]
      0478: 00 00 13 63 6f 6c 72 6e 63 6c 78 00 01 00 02 00 [...colrnclx.....]
      0488: 06 80 00 00 00 10 63 63 73 74 00 00 00 00 7c 00 [......ccst....|.]
      0498: 00 00 00 00 00 18 73 74 74 73 00 00 00 00 00 00 [......stts......]
      04a8: 00 01 00 00 00 02 00 00 00 01 00 00 00 1c 73 74 [..............st]
      04b8: 73 63 00 00 00 00 00 00 00 01 00 00 00 01 00 00 [sc..............]
      04c8: 00 02 00 00 00 01 00 00 00 1c 73 74 73 7a 00 00 [..........stsz..]
      04d8: 00 00 00 00 00 00 00 00 00 02 00 04 9a 2b 00 04 [.............+..]
      04e8: 71 7d 00 00 00 14 73 74 63 6f 00 00 00 00 00 00 [q}....stco......]
      04f8: 00 01 00 00 a0 0b 00 00 00 14 73 74 73 73 00 00 [..........stss..]
      0508: 00 00 00 00 00 01 00 00 00 01                   [..........]
  + [Movie directory]
  | MovieHeader (SubDirectory) -->
  | - Tag 'mvhd' (112 bytes):
  |     01b0: 01 00 00 00 00 00 00 00 e6 0c e9 c4 00 00 00 00 [................]
  |     01c0: e6 0c e9 c4 00 00 00 02 ff ff ff ff ff ff ff ff [................]
  |     01d0: 00 01 00 00 01 00 00 00 00 00 00 00 00 00 00 00 [................]
  |     01e0: 00 01 00 00 00 00 00 00 00 00 00 00 00 00 00 00 [................]
  |     01f0: 00 01 00 00 00 00 00 00 00 00 00 00 00 00 00 00 [................]
  |     0200: 40 00 00 00 00 00 00 00 00 00 00 00 00 00 00 00 [@...............]
  |     0210: 00 00 00 00 00 00 00 00 00 00 00 00 00 00 00 03 [................]
  | + [BinaryData directory, 112 bytes, Big-endian]
  | | MovieHeaderVersion = 1
  | | - Tag 0x0000 (1 bytes, int8u[1]):
  | |     01b0: 01                                              [.]
  | | CreateDate = 3859605956
  | | - Tag 0x0001 (8 bytes, int64u[1]):
  | |     01b4: 00 00 00 00 e6 0c e9 c4                         [........]
  | | [offsets adjusted by +0x0004 after 0x0001 CreateDate]
  | | ModifyDate = 3859605956
  | | - Tag 0x0002 (8 bytes, int64u[1]):
  | |     01bc: 00 00 00 00 e6 0c e9 c4                         [........]
  | | [offsets adjusted by +0x0008 after 0x0002 ModifyDate]
  | | TimeScale = 2
  | | - Tag 0x0003 (4 bytes, int32u[1]):
  | |     01c4: 00 00 00 02                                     [....]
  | | Duration = 18446744073709551615
  | | - Tag 0x0004 (8 bytes, int64u[1]):
  | |     01c8: ff ff ff ff ff ff ff ff                         [........]
  | | [offsets adjusted by +0x000c after 0x0004 Duration]
  | | PreferredRate = 65536
  | | - Tag 0x0005 (4 bytes, int32u[1]):
  | |     01d0: 00 01 00 00                                     [....]
  | | PreferredVolume = 256
  | | - Tag 0x0006 (2 bytes, int16u[1]):
  | |     01d4: 01 00                                           [..]
  | | MatrixStructure = 1 0 0 0 1 0 0 0 16384
  | | - Tag 0x0009 (36 bytes, fixed32s[9]):
  | |     01e0: 00 01 00 00 00 00 00 00 00 00 00 00 00 00 00 00 [................]
  | |     01f0: 00 01 00 00 00 00 00 00 00 00 00 00 00 00 00 00 [................]
  | |     0200: 40 00 00 00                                     [@...]
  | | PreviewTime = 0
  | | - Tag 0x0012 (4 bytes, int32u[1]):
  | |     0204: 00 00 00 00                                     [....]
  | | PreviewDuration = 0
  | | - Tag 0x0013 (4 bytes, int32u[1]):
  | |     0208: 00 00 00 00                                     [....]
  | | PosterTime = 0
  | | - Tag 0x0014 (4 bytes, int32u[1]):
  | |     020c: 00 00 00 00                                     [....]
  | | SelectionTime = 0
  | | - Tag 0x0015 (4 bytes, int32u[1]):
  | |     0210: 00 00 00 00                                     [....]
  | | SelectionDuration = 0
  | | - Tag 0x0016 (4 bytes, int32u[1]):
  | |     0214: 00 00 00 00                                     [....]
  | | CurrentTime = 0
  | | - Tag 0x0017 (4 bytes, int32u[1]):
  | |     0218: 00 00 00 00                                     [....]
  | | NextTrackID = 3
  | | - Tag 0x0018 (4 bytes, int32u[1]):
  | |     021c: 00 00 00 03                                     [....]
  | Track (SubDirectory) -->
  | - Tag 'trak' (746 bytes):
  |     0228: 00 00 00 68 74 6b 68 64 01 00 00 01 00 00 00 00 [...htkhd........]
  |     0238: e6 0c e9 c4 00 00 00 00 e6 0c e9 c4 00 00 00 01 [................]
  |     0248: 00 00 00 00 ff ff ff ff ff ff ff ff 00 00 00 00 [................]
  |     0258: 00 00 00 00 00 00 00 00 00 00 00 00 00 01 00 00 [................]
  |     0268: 00 00 00 00 00 00 00 00 00 00 00 00 00 01 00 00 [................]
  |     0278: 00 00 00 00 00 00 00 00 00 00 00 00 40 00 00 00 [............@...]
  |     0288: 15 60 00 00 0e 40 00 00 00 00 00 2c 65 64 74 73 [.`...@.....,edts]
  |     0298: 00 00 00 24 65 6c 73 74 01 00 00 01 00 00 00 01 [...$elst........]
  |     02a8: 00 00 00 00 00 00 00 02 00 00 00 00 00 00 00 00 [................]
  |     02b8: 00 01 00 00 00 00 00 ac 6d 65 74 61 00 00 00 00 [........meta....]
  |     02c8: 00 00 00 21 68 64 6c 72 00 00 00 00 00 00 00 00 [...!hdlr........]
  |     02d8: 70 69 63 74 00 00 00 00 00 00 00 00 00 00 00 00 [pict............]
  |     02e8: 00 00 00 00 2c 69 6c 6f 63 00 00 00 00 44 00 00 [....,iloc....D..]
  |     02f8: 02 00 02 00 00 00 01 00 00 05 1a 00 00 46 72 00 [.............Fr.]
  |     0308: 03 00 00 00 01 00 00 4b 8c 00 00 54 7f 00 00 00 [.......K...T....]
  |     0318: 53 69 69 6e 66 00 00 00 00 00 02 00 00 00 19 69 [Siinf..........i]
  |     0328: 6e 66 65 02 00 00 00 00 02 00 00 45 78 69 66 45 [nfe........ExifE]
  |     0338: 78 69 66 00 00 00 00 2c 69 6e 66 65 02 00 00 00 [xif....,infe....]
  |     0348: 00 03 00 00 6d 69 6d 65 58 4d 50 00 61 70 70 6c [....mimeXMP.appl]
  |     0358: 69 63 61 74 69 6f 6e 2f 72 64 66 2b 78 6d 6c 00 [ication/rdf+xml.]
  |     0368: 00 00 01 aa 6d 64 69 61 00 00 00 2c 6d 64 68 64 [....mdia...,mdhd]
  |     0378: 01 00 00 00 00 00 00 00 e6 0c e9 c4 00 00 00 00 [................]
  |     0388: e6 0c e9 c4 00 00 00 02 00 00 00 00 00 00 00 02 [................]
  |     0398: 55 c4 00 00 00 00 00 21 68 64 6c 72 00 00 00 00 [U......!hdlr....]
  |     03a8: 00 00 00 00 70 69 63 74 00 00 00 00 00 00 00 00 [....pict........]
  |     03b8: 00 00 00 00 00 00 00 01 55 6d 69 6e 66 00 00 00 [........Uminf...]
  |     03c8: 14 76 6d 68 64 00 00 00 01 00 00 00 00 00 00 00 [.vmhd...........]
  |     03d8: 00 00 00 00 24 64 69 6e 66 00 00 00 1c 64 72 65 [....$dinf....dre]
  |     03e8: 66 00 00 00 00 00 00 00 01 00 00 00 0c 75 72 6c [f............url]
  |     03f8: 20 00 00 00 01 00 00 01 15 73 74 62 6c 00 00 00 [ ........stbl...]
  |     0408: 95 73 74 73 64 00 00 00 00 00 00 00 01 00 00 00 [.stsd...........]
  |     0418: 85 61 76 30 31 00 00 00 00 00 00 00 01 00 00 00 [.av01...........]
  |     0428: 00 00 00 00 00 00 00 00 00 00 00 00 00 15 60 0e [..............`.]
  |     0438: 40 00 48 00 00 00 48 00 00 00 00 00 00 00 01 0a [@.H...H.........]
  |     0448: 41 4f 4d 20 43 6f 64 69 6e 67 00 00 00 00 00 00 [AOM Coding......]
  |     0458: 00 00 00 00 00 00 00 00 00 00 00 00 00 00 00 00 [................]
  |     0468: 18 ff ff 00 00 00 0c 61 76 31 43 81 30 00 00 00 [.......av1C.0...]
  |     0478: 00 00 13 63 6f 6c 72 6e 63 6c 78 00 01 00 02 00 [...colrnclx.....]
  |     0488: 06 80 00 00 00 10 63 63 73 74 00 00 00 00 7c 00 [......ccst....|.]
  |     0498: 00 00 00 00 00 18 73 74 74 73 00 00 00 00 00 00 [......stts......]
  |     04a8: 00 01 00 00 00 02 00 00 00 01 00 00 00 1c 73 74 [..............st]
  |     04b8: 73 63 00 00 00 00 00 00 00 01 00 00 00 01 00 00 [sc..............]
  |     04c8: 00 02 00 00 00 01 00 00 00 1c 73 74 73 7a 00 00 [..........stsz..]
  |     04d8: 00 00 00 00 00 00 00 00 00 02 00 04 9a 2b 00 04 [.............+..]
  |     04e8: 71 7d 00 00 00 14 73 74 63 6f 00 00 00 00 00 00 [q}....stco......]
  |     04f8: 00 01 00 00 a0 0b 00 00 00 14 73 74 73 73 00 00 [..........stss..]
  |     0508: 00 00 00 00 00 01 00 00 00 01                   [..........]
  | + [Track directory]
  | | TrackHeader (SubDirectory) -->
  | | - Tag 'tkhd' (96 bytes):
  | |     0230: 01 00 00 01 00 00 00 00 e6 0c e9 c4 00 00 00 00 [................]
  | |     0240: e6 0c e9 c4 00 00 00 01 00 00 00 00 ff ff ff ff [................]
  | |     0250: ff ff ff ff 00 00 00 00 00 00 00 00 00 00 00 00 [................]
  | |     0260: 00 00 00 00 00 01 00 00 00 00 00 00 00 00 00 00 [................]
  | |     0270: 00 00 00 00 00 01 00 00 00 00 00 00 00 00 00 00 [................]
  | |     0280: 00 00 00 00 40 00 00 00 15 60 00 00 0e 40 00 00 [....@....`...@..]
  | | + [BinaryData directory, 96 bytes, Big-endian]
  | | | TrackHeaderVersion = 1
  | | | - Tag 0x0000 (1 bytes, int8u[1]):
  | | |     0230: 01                                              [.]
  | | | TrackCreateDate = 3859605956
  | | | - Tag 0x0001 (8 bytes, int64u[1]):
  | | |     0234: 00 00 00 00 e6 0c e9 c4                         [........]
  | | | [offsets adjusted by +0x0004 after 0x0001 TrackCreateDate]
  | | | TrackModifyDate = 3859605956
  | | | - Tag 0x0002 (8 bytes, int64u[1]):
  | | |     023c: 00 00 00 00 e6 0c e9 c4                         [........]
  | | | [offsets adjusted by +0x0008 after 0x0002 TrackModifyDate]
  | | | TrackID = 1
  | | | - Tag 0x0003 (4 bytes, int32u[1]):
  | | |     0244: 00 00 00 01                                     [....]
  | | | TrackDuration = 18446744073709551615
  | | | - Tag 0x0005 (8 bytes, int64u[1]):
  | | |     024c: ff ff ff ff ff ff ff ff                         [........]
  | | | [offsets adjusted by +0x000c after 0x0005 TrackDuration]
  | | | TrackLayer = 0
  | | | - Tag 0x0008 (2 bytes, int16u[1]):
  | | |     025c: 00 00                                           [..]
  | | | TrackVolume = 0
  | | | - Tag 0x0009 (2 bytes, int16u[1]):
  | | |     0260: 00 00                                           [..]
  | | | MatrixStructure = 1 0 0 0 1 0 0 0 16384
  | | | - Tag 0x000a (36 bytes, fixed32s[9]):
  | | |     0264: 00 01 00 00 00 00 00 00 00 00 00 00 00 00 00 00 [................]
  | | |     0274: 00 01 00 00 00 00 00 00 00 00 00 00 00 00 00 00 [................]
  | | |     0284: 40 00 00 00                                     [@...]
  | | | ImageWidth = 358612992
  | | | - Tag 0x0013 (4 bytes, int32u[1]):
  | | |     0288: 15 60 00 00                                     [.`..]
  | | | ImageHeight = 239075328
  | | | - Tag 0x0014 (4 bytes, int32u[1]):
  | | |     028c: 0e 40 00 00                                     [.@..]
  | | Unknown_edts = $elst.....
  | | - Tag 'edts' (36 bytes):
  | |     0298: 00 00 00 24 65 6c 73 74 01 00 00 01 00 00 00 01 [...$elst........]
  | |     02a8: 00 00 00 00 00 00 00 02 00 00 00 00 00 00 00 00 [................]
  | |     02b8: 00 01 00 00                                     [....]
  | | Meta (SubDirectory) -->
  | | - Tag 'meta' (164 bytes):
  | |     02c4: 00 00 00 00 00 00 00 21 68 64 6c 72 00 00 00 00 [.......!hdlr....]
  | |     02d4: 00 00 00 00 70 69 63 74 00 00 00 00 00 00 00 00 [....pict........]
  | |     02e4: 00 00 00 00 00 00 00 00 2c 69 6c 6f 63 00 00 00 [........,iloc...]
  | |     02f4: 00 44 00 00 02 00 02 00 00 00 01 00 00 05 1a 00 [.D..............]
  | |     0304: 00 46 72 00 03 00 00 00 01 00 00 4b 8c 00 00 54 [.Fr........K...T]
  | |     0314: 7f 00 00 00 53 69 69 6e 66 00 00 00 00 00 02 00 [....Siinf.......]
  | |     0324: 00 00 19 69 6e 66 65 02 00 00 00 00 02 00 00 45 [...infe........E]
  | |     0334: 78 69 66 45 78 69 66 00 00 00 00 2c 69 6e 66 65 [xifExif....,infe]
  | |     0344: 02 00 00 00 00 03 00 00 6d 69 6d 65 58 4d 50 00 [........mimeXMP.]
  | |     0354: 61 70 70 6c 69 63 61 74 69 6f 6e 2f 72 64 66 2b [application/rdf+]
  | |     0364: 78 6d 6c 00                                     [xml.]
  | | + [Meta directory]
  | | | [Terminator found in Meta with 160 bytes remaining]
  | | Media (SubDirectory) -->
  | | - Tag 'mdia' (418 bytes):
  | |     0370: 00 00 00 2c 6d 64 68 64 01 00 00 00 00 00 00 00 [...,mdhd........]
  | |     0380: e6 0c e9 c4 00 00 00 00 e6 0c e9 c4 00 00 00 02 [................]
  | |     0390: 00 00 00 00 00 00 00 02 55 c4 00 00 00 00 00 21 [........U......!]
  | |     03a0: 68 64 6c 72 00 00 00 00 00 00 00 00 70 69 63 74 [hdlr........pict]
  | |     03b0: 00 00 00 00 00 00 00 00 00 00 00 00 00 00 00 01 [................]
  | |     03c0: 55 6d 69 6e 66 00 00 00 14 76 6d 68 64 00 00 00 [Uminf....vmhd...]
  | |     03d0: 01 00 00 00 00 00 00 00 00 00 00 00 24 64 69 6e [............$din]
  | |     03e0: 66 00 00 00 1c 64 72 65 66 00 00 00 00 00 00 00 [f....dref.......]
  | |     03f0: 01 00 00 00 0c 75 72 6c 20 00 00 00 01 00 00 01 [.....url .......]
  | |     0400: 15 73 74 62 6c 00 00 00 95 73 74 73 64 00 00 00 [.stbl....stsd...]
  | |     0410: 00 00 00 00 01 00 00 00 85 61 76 30 31 00 00 00 [.........av01...]
  | |     0420: 00 00 00 00 01 00 00 00 00 00 00 00 00 00 00 00 [................]
  | |     0430: 00 00 00 00 00 15 60 0e 40 00 48 00 00 00 48 00 [......`.@.H...H.]
  | |     0440: 00 00 00 00 00 00 01 0a 41 4f 4d 20 43 6f 64 69 [........AOM Codi]
  | |     0450: 6e 67 00 00 00 00 00 00 00 00 00 00 00 00 00 00 [ng..............]
  | |     0460: 00 00 00 00 00 00 00 00 18 ff ff 00 00 00 0c 61 [...............a]
  | |     0470: 76 31 43 81 30 00 00 00 00 00 13 63 6f 6c 72 6e [v1C.0......colrn]
  | |     0480: 63 6c 78 00 01 00 02 00 06 80 00 00 00 10 63 63 [clx...........cc]
  | |     0490: 73 74 00 00 00 00 7c 00 00 00 00 00 00 18 73 74 [st....|.......st]
  | |     04a0: 74 73 00 00 00 00 00 00 00 01 00 00 00 02 00 00 [ts..............]
  | |     04b0: 00 01 00 00 00 1c 73 74 73 63 00 00 00 00 00 00 [......stsc......]
  | |     04c0: 00 01 00 00 00 01 00 00 00 02 00 00 00 01 00 00 [................]
  | |     04d0: 00 1c 73 74 73 7a 00 00 00 00 00 00 00 00 00 00 [..stsz..........]
  | |     04e0: 00 02 00 04 9a 2b 00 04 71 7d 00 00 00 14 73 74 [.....+..q}....st]
  | |     04f0: 63 6f 00 00 00 00 00 00 00 01 00 00 a0 0b 00 00 [co..............]
  | |     0500: 00 14 73 74 73 73 00 00 00 00 00 00 00 01 00 00 [..stss..........]
  | |     0510: 00 01                                           [..]
  | | + [Media directory]
  | | | MediaHeader (SubDirectory) -->
  | | | - Tag 'mdhd' (36 bytes):
  | | |     0378: 01 00 00 00 00 00 00 00 e6 0c e9 c4 00 00 00 00 [................]
  | | |     0388: e6 0c e9 c4 00 00 00 02 00 00 00 00 00 00 00 02 [................]
  | | |     0398: 55 c4 00 00                                     [U...]
  | | | + [BinaryData directory, 36 bytes, Big-endian]
  | | | | MediaHeaderVersion = 16777216
  | | | | - Tag 0x0000 (4 bytes, int32u[1]):
  | | | |     0378: 01 00 00 00                                     [....]
  | | | | MediaCreateDate = 3859605956
  | | | | - Tag 0x0001 (8 bytes, int64u[1]):
  | | | |     037c: 00 00 00 00 e6 0c e9 c4                         [........]
  | | | | [offsets adjusted by +0x0004 after 0x0001 MediaCreateDate]
  | | | | MediaModifyDate = 3859605956
  | | | | - Tag 0x0002 (8 bytes, int64u[1]):
  | | | |     0384: 00 00 00 00 e6 0c e9 c4                         [........]
  | | | | [offsets adjusted by +0x0008 after 0x0002 MediaModifyDate]
  | | | | MediaTimeScale = 2
  | | | | - Tag 0x0003 (4 bytes, int32u[1]):
  | | | |     038c: 00 00 00 02                                     [....]
  | | | | MediaDuration = 2
  | | | | - Tag 0x0004 (8 bytes, int64u[1]):
  | | | |     0390: 00 00 00 00 00 00 00 02                         [........]
  | | | | [offsets adjusted by +0x000c after 0x0004 MediaDuration]
  | | | | MediaLanguageCode = 21956
  | | | | - Tag 0x0005 (2 bytes, int16u[1]):
  | | | |     0398: 55 c4                                           [U.]
  | | | Handler (SubDirectory) -->
  | | | - Tag 'hdlr' (25 bytes):
  | | |     03a4: 00 00 00 00 00 00 00 00 70 69 63 74 00 00 00 00 [........pict....]
  | | |     03b4: 00 00 00 00 00 00 00 00 00                      [.........]
  | | | + [BinaryData directory, 25 bytes, Big-endian]
  | | | | HandlerClass = 
  | | | | - Tag 0x0004 (4 bytes, undef[4]):
  | | | |     03a8: 00 00 00 00                                     [....]
  | | | | HandlerType = pict
  | | | | - Tag 0x0008 (4 bytes, undef[4]):
  | | | |     03ac: 70 69 63 74                                     [pict]
  | | | | HandlerVendorID = 
  | | | | - Tag 0x000c (4 bytes, undef[4]):
  | | | |     03b0: 00 00 00 00                                     [....]
  | | | | HandlerDescription = 
  | | | | - Tag 0x0018 (1 bytes, string[1]):
  | | | |     03bc: 00                                              [.]
  | | | MediaInfo (SubDirectory) -->
  | | | - Tag 'minf' (333 bytes):
  | | |     03c5: 00 00 00 14 76 6d 68 64 00 00 00 01 00 00 00 00 [....vmhd........]
  | | |     03d5: 00 00 00 00 00 00 00 24 64 69 6e 66 00 00 00 1c [.......$dinf....]
  | | |     03e5: 64 72 65 66 00 00 00 00 00 00 00 01 00 00 00 0c [dref............]
  | | |     03f5: 75 72 6c 20 00 00 00 01 00 00 01 15 73 74 62 6c [url ........stbl]
  | | |     0405: 00 00 00 95 73 74 73 64 00 00 00 00 00 00 00 01 [....stsd........]
  | | |     0415: 00 00 00 85 61 76 30 31 00 00 00 00 00 00 00 01 [....av01........]
  | | |     0425: 00 00 00 00 00 00 00 00 00 00 00 00 00 00 00 00 [................]
  | | |     0435: 15 60 0e 40 00 48 00 00 00 48 00 00 00 00 00 00 [.`.@.H...H......]
  | | |     0445: 00 01 0a 41 4f 4d 20 43 6f 64 69 6e 67 00 00 00 [...AOM Coding...]
  | | |     0455: 00 00 00 00 00 00 00 00 00 00 00 00 00 00 00 00 [................]
  | | |     0465: 00 00 00 18 ff ff 00 00 00 0c 61 76 31 43 81 30 [..........av1C.0]
  | | |     0475: 00 00 00 00 00 13 63 6f 6c 72 6e 63 6c 78 00 01 [......colrnclx..]
  | | |     0485: 00 02 00 06 80 00 00 00 10 63 63 73 74 00 00 00 [.........ccst...]
  | | |     0495: 00 7c 00 00 00 00 00 00 18 73 74 74 73 00 00 00 [.|.......stts...]
  | | |     04a5: 00 00 00 00 01 00 00 00 02 00 00 00 01 00 00 00 [................]
  | | |     04b5: 1c 73 74 73 63 00 00 00 00 00 00 00 01 00 00 00 [.stsc...........]
  | | |     04c5: 01 00 00 00 02 00 00 00 01 00 00 00 1c 73 74 73 [.............sts]
  | | |     04d5: 7a 00 00 00 00 00 00 00 00 00 00 00 02 00 04 9a [z...............]
  | | |     04e5: 2b 00 04 71 7d 00 00 00 14 73 74 63 6f 00 00 00 [+..q}....stco...]
  | | |     04f5: 00 00 00 00 01 00 00 a0 0b 00 00 00 14 73 74 73 [.............sts]
  | | |     0505: 73 00 00 00 00 00 00 00 01 00 00 00 01          [s............]
  | | | + [MediaInfo directory]
  | | | | VideoHeader (SubDirectory) -->
  | | | | - Tag 'vmhd' (12 bytes):
  | | | |     03cd: 00 00 00 01 00 00 00 00 00 00 00 00             [............]
  | | | | + [BinaryData directory, 12 bytes, Big-endian]
  | | | | | GraphicsMode = 0
  | | | | | - Tag 0x0002 (2 bytes, int16u[1]):
  | | | | |     03d1: 00 00                                           [..]
  | | | | | OpColor = 0 0 0
  | | | | | - Tag 0x0003 (6 bytes, int16u[3]):
  | | | | |     03d3: 00 00 00 00 00 00                               [......]
  | | | | DataInfo (SubDirectory) -->
  | | | | - Tag 'dinf' (28 bytes):
  | | | |     03e1: 00 00 00 1c 64 72 65 66 00 00 00 00 00 00 00 01 [....dref........]
  | | | |     03f1: 00 00 00 0c 75 72 6c 20 00 00 00 01             [....url ....]
  | | | | + [DataInfo directory]
  | | | | | DataRef (SubDirectory) -->
  | | | | | - Tag 'dref' (20 bytes):
  | | | | |     03e9: 00 00 00 00 00 00 00 01 00 00 00 0c 75 72 6c 20 [............url ]
  | | | | |     03f9: 00 00 00 01                                     [....]
  | | | | | + [DataRef directory]
  | | | | | | URL = .
  | | | | | | - Tag 'url ' (4 bytes, undef):
  | | | | | |     03f9: 00 00 00 01                                     [....]
  | | | | SampleTable (SubDirectory) -->
  | | | | - Tag 'stbl' (269 bytes):
  | | | |     0405: 00 00 00 95 73 74 73 64 00 00 00 00 00 00 00 01 [....stsd........]
  | | | |     0415: 00 00 00 85 61 76 30 31 00 00 00 00 00 00 00 01 [....av01........]
  | | | |     0425: 00 00 00 00 00 00 00 00 00 00 00 00 00 00 00 00 [................]
  | | | |     0435: 15 60 0e 40 00 48 00 00 00 48 00 00 00 00 00 00 [.`.@.H...H......]
  | | | |     0445: 00 01 0a 41 4f 4d 20 43 6f 64 69 6e 67 00 00 00 [...AOM Coding...]
  | | | |     0455: 00 00 00 00 00 00 00 00 00 00 00 00 00 00 00 00 [................]
  | | | |     0465: 00 00 00 18 ff ff 00 00 00 0c 61 76 31 43 81 30 [..........av1C.0]
  | | | |     0475: 00 00 00 00 00 13 63 6f 6c 72 6e 63 6c 78 00 01 [......colrnclx..]
  | | | |     0485: 00 02 00 06 80 00 00 00 10 63 63 73 74 00 00 00 [.........ccst...]
  | | | |     0495: 00 7c 00 00 00 00 00 00 18 73 74 74 73 00 00 00 [.|.......stts...]
  | | | |     04a5: 00 00 00 00 01 00 00 00 02 00 00 00 01 00 00 00 [................]
  | | | |     04b5: 1c 73 74 73 63 00 00 00 00 00 00 00 01 00 00 00 [.stsc...........]
  | | | |     04c5: 01 00 00 00 02 00 00 00 01 00 00 00 1c 73 74 73 [.............sts]
  | | | |     04d5: 7a 00 00 00 00 00 00 00 00 00 00 00 02 00 04 9a [z...............]
  | | | |     04e5: 2b 00 04 71 7d 00 00 00 14 73 74 63 6f 00 00 00 [+..q}....stco...]
  | | | |     04f5: 00 00 00 00 01 00 00 a0 0b 00 00 00 14 73 74 73 [.............sts]
  | | | |     0505: 73 00 00 00 00 00 00 00 01 00 00 00 01          [s............]
  | | | | + [SampleTable directory]
  | | | | | OtherSampleDesc (SubDirectory) -->
  | | | | | - Tag 'stsd' (141 bytes):
  | | | | |     040d: 00 00 00 00 00 00 00 01 00 00 00 85 61 76 30 31 [............av01]
  | | | | |     041d: 00 00 00 00 00 00 00 01 00 00 00 00 00 00 00 00 [................]
  | | | | |     042d: 00 00 00 00 00 00 00 00 15 60 0e 40 00 48 00 00 [.........`.@.H..]
  | | | | |     043d: 00 48 00 00 00 00 00 00 00 01 0a 41 4f 4d 20 43 [.H.........AOM C]
  | | | | |     044d: 6f 64 69 6e 67 00 00 00 00 00 00 00 00 00 00 00 [oding...........]
  | | | | |     045d: 00 00 00 00 00 00 00 00 00 00 00 18 ff ff 00 00 [................]
  | | | | |     046d: 00 0c 61 76 31 43 81 30 00 00 00 00 00 13 63 6f [..av1C.0......co]
  | | | | |     047d: 6c 72 6e 63 6c 78 00 01 00 02 00 06 80 00 00 00 [lrnclx..........]
  | | | | |     048d: 10 63 63 73 74 00 00 00 00 7c 00 00 00          [.ccst....|...]
  | | | | | + [BinaryData directory, 94 bytes, Big-endian]
  | | | | | | OtherFormat = av01
  | | | | | | - Tag 0x0004 (4 bytes, undef[4]):
  | | | | | |     0419: 61 76 30 31                                     [av01]
  | | | | | + [OtherSampleDesc directory]
  | | | | | | Unknown_av1C = .0
  | | | | | | - Tag 'av1C' (4 bytes):
  | | | | | |     0473: 81 30 00 00                                     [.0..]
  | | | | | | Unknown_colr = nclx....
  | | | | | | - Tag 'colr' (11 bytes):
  | | | | | |     047f: 6e 63 6c 78 00 01 00 02 00 06 80                [nclx.......]
  | | | | | | Unknown_ccst = |
  | | | | | | - Tag 'ccst' (8 bytes):
  | | | | | |     0492: 00 00 00 00 7c 00 00 00                         [....|...]
  | | | | | TimeToSampleTable = ...
  | | | | | - Tag 'stts' (16 bytes, undef):
  | | | | |     04a2: 00 00 00 00 00 00 00 01 00 00 00 02 00 00 00 01 [................]
  | | | | | SampleToChunk = ....
  | | | | | - Tag 'stsc' (20 bytes):
  | | | | |     04ba: 00 00 00 00 00 00 00 01 00 00 00 01 00 00 00 02 [................]
  | | | | |     04ca: 00 00 00 01                                     [....]
  | | | | | SampleSizes = ...+.q}
  | | | | | - Tag 'stsz' (20 bytes):
  | | | | |     04d6: 00 00 00 00 00 00 00 00 00 00 00 02 00 04 9a 2b [...............+]
  | | | | |     04e6: 00 04 71 7d                                     [..q}]
  | | | | | ChunkOffset = ...
  | | | | | - Tag 'stco' (12 bytes):
  | | | | |     04f2: 00 00 00 00 00 00 00 01 00 00 a0 0b             [............]
  | | | | | SyncSampleTable = ..
  | | | | | - Tag 'stss' (12 bytes):
  | | | | |     0506: 00 00 00 00 00 00 00 01 00 00 00 01             [............]
  MediaDataSize = 632473
  MediaDataOffset = 1306
  MediaData = II*...........................(....2....;............i....%....$.$CanonCanon EOS 70DH.H.2015:10:11 14:41:44&............"....'.....0....2........0230.....................................................|... ........#....00....00....00...0100.........`.....@.....h$.....$.....$.....................0...1....$2...*$4...J$5...\$.< .2015:10:11 14:41:442015:10:11 14:41:44..`...2.)..1.....P....X..."`............. ..........%...........&....5...... ....JX..................t..............................@.!....@..*..@..0..@. 6..@..V..@. R..@..r..@......@..f!.@...!.@...! @...!!@...!$@.5.!%@..."'@..."b....;.......<.22.8 .....................2..$ZD.Hl......h.d.........Canon EOS 70DFirmware Version 1.1.1..h"h#X.-.>........2 ..J2s....P$@...@.nF0....n....WI............JP.................UU......UU.........P.<22.g...!N.....'..`.@.....(.......................................1.1.1B1(32)...Y...dde.ded.........t.....t.....t.....t.....t..................................................................................................(u.V.....7.:..SX...MN..p.....`.@.`.@..................................................................q.q.q.............s...o...o.....o.....o...o.........@.........WI......EF50mm f/1.8 STM-5.6 IS STMUUd.FA0381304....T................................................................................`.@.....P...S....."..|...T2..q....................].x.u.........}.c............o.Q.F.......&w....P.7.m.d.2............'.....M.w.....0.....l.......l.......l.......l...................l.......l.......l.......l.....................-.....P.v.....X.......p.....v... .......-.....D.........-.....D.-.....D.-.....D.-.....D.-.....D.......q.......q.......q.......q.......q...}.H..*....0..'......l E.....X.y.....p.............s.P.....J.\..9...h.Fc.....x......................).}.......H.`...........................E,C.f.......|.4...I...+%R0.....~.....f........7!...%......O.+.I..^...j.N......".D.v.....b....<h.~k.{m.h7...............t......?_......Ab......f. @`...........................8.:.'..q...@.p.....@.8.....@...X.|.... @[snip]
  - Tag 'mdat' (632473 bytes):
      051a: 00 00 00 00 49 49 2a 00 08 00 00 00 0c 00 0f 01 [....II*.........]
      052a: 02 00 06 00 00 00 9e 00 00 00 10 01 02 00 0e 00 [................]
      053a: 00 00 a4 00 00 00 12 01 03 00 01 00 00 00 01 00 [................]
      054a: 00 00 1a 01 05 00 01 00 00 00 b2 00 00 00 1b 01 [................]
      055a: 05 00 01 00 00 00 ba 00 00 00 28 01 03 00 01 00 [..........(.....]
      056a: 00 00 02 00 00 00 32 01 02 00 14 00 00 00 c2 00 [......2.........]
      057a: 00 00 3b 01 02 00 01 00 00 00 00 00 00 00 13 02 [..;.............]
      058a: 03 00 01 00 00 00 02 00 00 00 98 82 02 00 01 00 [................]
      059a: 00 00 00 00 00 00 69 87 04 00 01 00 00 00 d6 00 [......i.........]
      05aa: 00 00 25 88 04 00 01 00 00 00 86 24 00 00 98 24 [..%........$...$]
      05ba: 00 00 43 61 6e 6f 6e 00 43 61 6e 6f 6e 20 45 4f [..Canon.Canon EO]
      05ca: 53 20 37 30 44 00 48 00 00 00 01 00 00 00 48 00 [S 70D.H.......H.]
      05da: 00 00 01 00 00 00 32 30 31 35 3a 31 30 3a 31 31 [......2015:10:11]
      05ea: 20 31 34 3a 34 31 3a 34 34 00 26 00 9a 82 05 00 [ 14:41:44.&.....]
      05fa: 01 00 00 00 a4 02 00 00 9d 82 05 00 01 00 00 00 [................]
      060a: ac 02 00 00 22 88 03 00 01 00 00 00 02 00 00 00 [...."...........]
      061a: 27 88 03 00 01 00 00 00 90 01 00 00 30 88 03 00 ['...........0...]
      062a: 01 00 00 00 02 00 00 00 32 88 04 00 01 00 00 00 [........2.......]
      063a: 90 01 00 00 00 90 07 00 04 00 00 00 30 32 33 30 [............0230]
      064a: 03 90 02 00 14 00 00 00 b4 02 00 00 04 90 02 00 [................]
      065a: 14 00 00 00 c8 02 00 00 01 91 07 00 04 00 00 00 [................]
      066a: 01 02 03 00 01 92 0a 00 01 00 00 00 dc 02 00 00 [................]
      067a: 02 92 05 00 01 00 00 00 e4 02 00 00 04 92 0a 00 [................]
      068a: 01 00 00 00 ec 02 00 00 07 92 03 00 01 00 00 00 [................]
      069a: 05 00 00 00 09 92 03 00 01 00 00 00 10 00 00 00 [................]
      06aa: 0a 92 05 00 01 00 00 00 f4 02 00 00 7c 92 07 00 [............|...]
      06ba: 08 20 00 00 fc 02 00 00 86 92 07 00 08 01 00 00 [. ..............]
      06ca: 04 23 00 00 90 92 02 00 03 00 00 00 30 30 00 00 [.#..........00..]
      06da: 91 92 02 00 03 00 00 00 30 30 00 00 92 92 02 00 [........00......]
      06ea: 03 00 00 00 30 30 00 00 00 a0 07 00 04 00 00 00 [....00..........]
      06fa: 30 31 30 30 01 a0 03 00 01 00 00 00 01 00 00 00 [0100............]
      070a: 02 a0 03 00 01 00 00 00 60 15 00 00 03 a0 03 00 [........`.......]
      071a: 01 00 00 00 40 0e 00 00 05 a0 04 00 01 00 00 00 [....@...........]
      072a: 68 24 00 00 0e a2 05 00 01 00 00 00 0c 24 00 00 [h$...........$..]
      073a: 0f a2 05 00 01 00 00 00 14 24 00 00 10 a2 03 00 [.........$......]
      074a: 01 00 00 00 02 00 00 00 01 a4 03 00 01 00 00 00 [................]
      075a: 00 00 00 00 02 a4 03 00 01 00 00 00 00 00 00 00 [................]
      076a: 03 a4 03 00 01 00 00 00 00 00 00 00 06 a4 03 00 [................]
      077a: 01 00 00 00 00 00 00 00 30 a4 02 00 01 00 00 00 [........0.......]
      078a: 00 00 00 00 31 a4 02 00 0d 00 00 00 1c 24 00 00 [....1........$..]
      079a: 32 a4 05 00 04 00 00 00 2a 24 00 00 34 a4 02 00 [2.......*$..4...]
      07aa: 11 00 00 00 4a 24 00 00 35 a4 02 00 0b 00 00 00 [....J$..5.......]
      07ba: 5c 24 00 00 00 00 00 00 01 00 00 00 3c 00 00 00 [\$..........<...]
      07ca: 20 00 00 00 0a 00 00 00 32 30 31 35 3a 31 30 3a [ .......2015:10:]
      07da: 31 31 20 31 34 3a 34 31 3a 34 34 00 32 30 31 35 [11 14:41:44.2015]
      07ea: 3a 31 30 3a 31 31 20 31 34 3a 34 31 3a 34 34 00 [:10:11 14:41:44.]
      07fa: 00 00 06 00 00 00 01 00 00 60 03 00 00 00 01 00 [.........`......]
      080a: 00 00 00 00 01 00 00 00 32 00 00 00 01 00 00 00 [........2.......]
      081a: 29 00 01 00 03 00 31 00 00 00 ee 04 00 00 02 00 [).....1.........]
      082a: 03 00 04 00 00 00 50 05 00 00 03 00 03 00 04 00 [......P.........]
      083a: 00 00 58 05 00 00 04 00 03 00 22 00 00 00 60 05 [..X......."...`.]
      084a: 00 00 06 00 02 00 0e 00 00 00 a4 05 00 00 07 00 [................]
      085a: 02 00 18 00 00 00 b2 05 00 00 09 00 02 00 20 00 [.............. .]
      086a: 00 00 ca 05 00 00 0d 00 07 00 00 06 00 00 ea 05 [................]
      087a: 00 00 10 00 04 00 01 00 00 00 25 03 00 80 13 00 [..........%.....]
      088a: 03 00 04 00 00 00 ea 0b 00 00 19 00 03 00 01 00 [................]
      089a: 00 00 01 00 00 00 26 00 03 00 8b 00 00 00 f2 0b [......&.........]
      08aa: 00 00 35 00 04 00 04 00 00 00 08 0d 00 00 93 00 [..5.............]
      08ba: 03 00 20 00 00 00 18 0d 00 00 95 00 02 00 4a 00 [.. ...........J.]
      08ca: 00 00 58 0d 00 00 96 00 02 00 10 00 00 00 a2 0d [..X.............]
      08da: 00 00 97 00 07 00 00 04 00 00 b2 0d 00 00 98 00 [................]
      08ea: 03 00 04 00 00 00 b2 11 00 00 99 00 04 00 74 00 [..............t.]
      08fa: 00 00 ba 11 00 00 9a 00 04 00 05 00 00 00 8a 13 [................]
      090a: 00 00 a0 00 03 00 0e 00 00 00 9e 13 00 00 aa 00 [................]
      091a: 03 00 06 00 00 00 ba 13 00 00 b4 00 03 00 01 00 [................]
      092a: 00 00 01 00 00 00 d0 00 04 00 01 00 00 00 00 00 [................]
      093a: 00 00 e0 00 03 00 11 00 00 00 c6 13 00 00 01 40 [...............@]
      094a: 03 00 21 05 00 00 e8 13 00 00 08 40 03 00 03 00 [..!........@....]
      095a: 00 00 2a 1e 00 00 09 40 03 00 03 00 00 00 30 1e [..*....@......0.]
      096a: 00 00 10 40 02 00 20 00 00 00 36 1e 00 00 11 40 [...@.. ...6....@]
      097a: 07 00 fc 00 00 00 56 1e 00 00 12 40 02 00 20 00 [......V....@.. .]
      098a: 00 00 52 1f 00 00 13 40 04 00 0b 00 00 00 72 1f [..R....@......r.]
      099a: 00 00 15 40 07 00 c8 01 00 00 9e 1f 00 00 16 40 [...@...........@]
      09aa: 04 00 07 00 00 00 66 21 00 00 18 40 04 00 07 00 [......f!...@....]
      09ba: 00 00 82 21 00 00 19 40 07 00 1e 00 00 00 9e 21 [...!...@.......!]
      09ca: 00 00 20 40 04 00 07 00 00 00 bc 21 00 00 21 40 [.. @.......!..!@]
      09da: 04 00 05 00 00 00 d8 21 00 00 24 40 04 00 35 00 [.......!..$@..5.]
      09ea: 00 00 ec 21 00 00 25 40 04 00 09 00 00 00 c0 22 [...!..%@......."]
      09fa: 00 00 27 40 04 00 06 00 00 00 e4 22 00 00 00 00 [..'@......."....]
      0a0a: 00 00 62 00 02 00 00 00 03 00 00 00 00 00 00 00 [..b.............]
      0a1a: 02 00 00 00 01 00 00 00 3b 00 00 00 00 00 00 00 [........;.......]
      0a2a: ff 7f 0f 00 03 00 02 00 00 00 00 00 ff ff 3c 10 [..............<.]
      0a3a: 32 00 32 00 01 00 38 00 20 01 00 00 00 00 00 00 [2.2...8. .......]
      0a4a: 00 00 ff ff ff ff ff ff 00 00 00 00 00 00 00 00 [................]
      0a5a: ff ff ff ff 00 00 00 00 ff 7f ff ff ff ff ff ff [................]
      0a6a: 00 00 ff ff 00 00 32 00 16 0b 24 5a 00 00 00 00 [......2...$Z....]
      0a7a: 00 00 00 00 44 00 00 00 e0 00 48 00 6c 00 c0 00 [....D.....H.l...]
      0a8a: 00 00 00 00 03 00 00 00 08 00 08 00 95 00 00 00 [................]
      0a9a: 00 00 00 00 00 00 00 00 01 00 00 00 00 00 68 00 [..............h.]
      0aaa: c0 00 64 00 00 00 00 00 f8 00 ff ff ff ff ff ff [..d.............]
      0aba: ff ff 00 00 00 00 00 00 43 61 6e 6f 6e 20 45 4f [........Canon EO]
      0aca: 53 20 37 30 44 00 46 69 72 6d 77 61 72 65 20 56 [S 70D.Firmware V]
      0ada: 65 72 73 69 6f 6e 20 31 2e 31 2e 31 00 00 00 00 [ersion 1.1.1....]
      0aea: 00 00 00 00 00 00 00 00 00 00 00 00 00 00 00 00 [................]
      0afa: 00 00 00 00 00 00 00 00 00 00 00 00 00 00 aa aa [................]
      0b0a: 68 22 68 23 58 00 01 2d 01 3e 00 03 00 00 00 00 [h"h#X..-.>......]
      0b1a: 00 00 01 00 00 06 00 00 00 95 92 00 a6 00 af 00 [................]
      0b2a: a9 00 32 00 00 20 00 00 00 00 00 02 03 00 00 00 [..2.. ..........]
      0b3a: 00 00 4a 00 32 00 73 01 bb bb fa 50 00 24 40 90 [..J.2.s....P.$@.]
      0b4a: 00 00 00 00 00 00 00 00 00 00 00 00 00 00 00 00 [................]
      0b5a: ff 88 00 00 00 00 40 ff 00 6e 00 46 00 30 00 00 [......@..n.F.0..]
      0b6a: 00 00 00 00 00 00 00 00 00 00 00 00 b4 8d b7 94 [................]
      0b7a: 6e 00 00 00 00 00 00 00 00 00 01 01 00 00 00 00 [n...............]
      0b8a: 02 01 00 00 00 00 00 00 00 00 00 00 00 00 00 00 [................]
      0b9a: 00 00 57 00 49 04 00 00 00 00 00 00 00 00 ff ff [..W.I...........]
      0baa: ff ff 0c cc cc 16 00 00 00 03 00 00 00 00 00 00 [................]
      0bba: 00 00 00 00 00 00 00 00 00 00 ff 01 00 00 00 4a [...............J]
      0bca: 00 00 00 00 00 50 14 00 00 00 00 00 00 00 00 00 [.....P..........]
      0bda: 00 01 00 00 00 01 00 00 00 01 00 00 00 03 00 00 [................]
      0bea: 00 03 00 00 00 03 00 00 00 00 00 00 00 01 00 00 [................]
      0bfa: 00 00 00 00 00 01 00 00 00 87 00 00 00 01 00 00 [................]
      0c0a: 00 01 00 00 00 01 00 00 00 07 00 00 00 00 00 00 [................]
      0c1a: 03 05 03 55 55 00 00 00 00 0e 00 00 00 00 00 00 [...UU...........]
      0c2a: 00 00 00 00 00 00 00 03 07 07 11 0d 00 00 00 00 [................]
      0c3a: 00 00 00 00 00 00 00 00 00 00 00 55 55 05 00 00 [...........UU...]
      0c4a: 03 00 14 04 00 00 00 00 00 00 00 00 00 00 00 00 [................]
      0c5a: 00 00 00 00 00 00 03 02 02 00 00 00 00 00 00 00 [................]
      0c6a: 00 01 16 50 10 3c 00 32 00 32 81 67 92 7f 00 ff [...P.<.2.2.g....]
      0c7a: 00 00 00 00 00 00 00 21 4e 1c 01 00 03 07 16 00 [.......!N.......]
      0c8a: 27 02 00 00 00 00 00 00 00 00 00 00 00 00 00 00 ['...............]
      0c9a: 00 00 00 00 00 00 00 00 00 00 00 00 00 02 00 00 [................]
      0caa: 00 60 15 00 00 40 0e 00 00 9c 09 00 00 b0 05 00 [.`...@..........]
      0cba: 00 28 02 00 00 e0 02 00 00 d0 02 00 00 e0 01 00 [.(..............]
      0cca: 00 00 00 00 00 00 00 00 00 d0 02 00 00 e0 01 00 [................]
      0cda: 00 d0 02 00 00 e0 01 00 00 00 00 00 00 00 00 00 [................]
      0cea: 00 d0 02 00 00 e0 01 00 00 00 00 00 00 00 00 00 [................]
      0cfa: 00 01 00 00 00 00 00 00 00 00 00 00 00 00 00 00 [................]
      [snip 630441 bytes]
