  ExifToolVersion = 13.59
  FileName = media_4.jpg
  Directory = C:/Users/micro/IdeaProjects/kim/src/commonTest/resources/de/stefan_oltmann/kim/testdata/full
  FileSize = 1202519
  FileModifyDate = 1776264339.13306
  FileAccessDate = 1786601293.32229
  FileCreateDate = 1776264339.12906
  FilePermissions = 33206
  FileType = JPEG
  FileTypeExtension = JPG
  MIMEType = image/jpeg
JPEG APP1 (8666 bytes):
      0006: 45 78 69 66 00 00 49 49 2a 00 08 00 00 00 08 00 [Exif..II*.......]
      0016: 0f 01 02 00 06 00 00 00 6e 00 00 00 10 01 02 00 [........n.......]
      0026: 14 00 00 00 74 00 00 00 1a 01 05 00 01 00 00 00 [....t...........]
      0036: 88 00 00 00 1b 01 05 00 01 00 00 00 90 00 00 00 [................]
      0046: 28 01 03 00 01 00 00 00 02 00 00 00 31 01 02 00 [(...........1...]
      0056: 32 00 00 00 98 00 00 00 32 01 02 00 14 00 00 00 [2.......2.......]
      0066: ca 00 00 00 69 87 04 00 01 00 00 00 de 00 00 00 [....i...........]
      [snip 8554 bytes]
  ExifByteOrder = II
  + [IFD0 directory with 8 entries, Little-endian]
  | 0)  Make = Canon
  |     - Tag 0x010f (6 bytes, string[6]):
  |         007a: 43 61 6e 6f 6e 00                               [Canon.]
  | 1)  Model = Canon EOS REBEL T5i
  |     - Tag 0x0110 (20 bytes, string[20]):
  |         0080: 43 61 6e 6f 6e 20 45 4f 53 20 52 45 42 45 4c 20 [Canon EOS REBEL ]
  |         0090: 54 35 69 00                                     [T5i.]
  | 2)  XResolution = 300 (300/1)
  |     - Tag 0x011a (8 bytes, rational64u[1]):
  |         0094: 2c 01 00 00 01 00 00 00                         [,.......]
  | 3)  YResolution = 300 (300/1)
  |     - Tag 0x011b (8 bytes, rational64u[1]):
  |         009c: 2c 01 00 00 01 00 00 00                         [,.......]
  | 4)  ResolutionUnit = 2
  |     - Tag 0x0128 (2 bytes, int16u[1]):
  |         004e: 02 00                                           [..]
  | 5)  Software = Adobe Photoshop Lightroom Classic 9.1 (Macintosh)
  |     - Tag 0x0131 (50 bytes, string[50]):
  |         00a4: 41 64 6f 62 65 20 50 68 6f 74 6f 73 68 6f 70 20 [Adobe Photoshop ]
  |         00b4: 4c 69 67 68 74 72 6f 6f 6d 20 43 6c 61 73 73 69 [Lightroom Classi]
  |         00c4: 63 20 39 2e 31 20 28 4d 61 63 69 6e 74 6f 73 68 [c 9.1 (Macintosh]
  |         00d4: 29 00                                           [).]
  | 6)  ModifyDate = 2019:12:23 13:28:07
  |     - Tag 0x0132 (20 bytes, string[20]):
  |         00d6: 32 30 31 39 3a 31 32 3a 32 33 20 31 33 3a 32 38 [2019:12:23 13:28]
  |         00e6: 3a 30 37 00                                     [:07.]
  | 7)  ExifOffset (SubDirectory) -->
  |     - Tag 0x8769 (4 bytes, int32u[1]):
  |         0072: de 00 00 00                                     [....]
  | + [ExifIFD directory with 31 entries, Little-endian]
  | | 0)  ExposureTime = 0.0015625 (1/640)
  | |     - Tag 0x829a (8 bytes, rational64u[1]):
  | |         0264: 01 00 00 00 80 02 00 00                         [........]
  | | 1)  FNumber = 5.6 (56/10)
  | |     - Tag 0x829d (8 bytes, rational64u[1]):
  | |         026c: 38 00 00 00 0a 00 00 00                         [8.......]
  | | 2)  ExposureProgram = 1
  | |     - Tag 0x8822 (2 bytes, int16u[1]):
  | |         010c: 01 00                                           [..]
  | | 3)  ISO = 1600
  | |     - Tag 0x8827 (2 bytes, int16u[1]):
  | |         0118: 40 06                                           [@.]
  | | 4)  SensitivityType = 2
  | |     - Tag 0x8830 (2 bytes, int16u[1]):
  | |         0124: 02 00                                           [..]
  | | 5)  RecommendedExposureIndex = 1600
  | |     - Tag 0x8832 (4 bytes, int32u[1]):
  | |         0130: 40 06 00 00                                     [@...]
  | | 6)  ExifVersion = 0231
  | |     - Tag 0x9000 (4 bytes, undef[4]):
  | |         013c: 30 32 33 31                                     [0231]
  | | 7)  DateTimeOriginal = 2019:12:23 01:28:28
  | |     - Tag 0x9003 (20 bytes, string[20]):
  | |         0274: 32 30 31 39 3a 31 32 3a 32 33 20 30 31 3a 32 38 [2019:12:23 01:28]
  | |         0284: 3a 32 38 00                                     [:28.]
  | | 8)  CreateDate = 2019:12:23 01:28:28
  | |     - Tag 0x9004 (20 bytes, string[20]):
  | |         0288: 32 30 31 39 3a 31 32 3a 32 33 20 30 31 3a 32 38 [2019:12:23 01:28]
  | |         0298: 3a 32 38 00                                     [:28.]
  | | 9)  OffsetTime = -05:00
  | |     - Tag 0x9010 (7 bytes, string[7]):
  | |         029c: 2d 30 35 3a 30 30 00                            [-05:00.]
  | | 10) ShutterSpeedValue = 9.321928 (9321928/1000000)
  | |     - Tag 0x9201 (8 bytes, rational64s[1]):
  | |         02a4: c8 3d 8e 00 40 42 0f 00                         [.=..@B..]
  | | 11) ApertureValue = 4.970854 (4970854/1000000)
  | |     - Tag 0x9202 (8 bytes, rational64u[1]):
  | |         02ac: 66 d9 4b 00 40 42 0f 00                         [f.K.@B..]
  | | 12) ExposureCompensation = 0 (0/1)
  | |     - Tag 0x9204 (8 bytes, rational64s[1]):
  | |         02b4: 00 00 00 00 01 00 00 00                         [........]
  | | 13) MaxApertureValue = 3.625 (3625/1000)
  | |     - Tag 0x9205 (8 bytes, rational64u[1]):
  | |         02bc: 29 0e 00 00 e8 03 00 00                         [).......]
  | | 14) MeteringMode = 5
  | |     - Tag 0x9207 (2 bytes, int16u[1]):
  | |         019c: 05 00                                           [..]
  | | 15) Flash = 16
  | |     - Tag 0x9209 (2 bytes, int16u[1]):
  | |         01a8: 10 00                                           [..]
  | | 16) FocalLength = 18 (18/1)
  | |     - Tag 0x920a (8 bytes, rational64u[1]):
  | |         02c4: 12 00 00 00 01 00 00 00                         [........]
  | | 17) SubSecTimeOriginal = 23
  | |     - Tag 0x9291 (3 bytes, string[3]):
  | |         01c0: 32 33 00                                        [23.]
  | | 18) SubSecTimeDigitized = 23
  | |     - Tag 0x9292 (3 bytes, string[3]):
  | |         01cc: 32 33 00                                        [23.]
  | | 19) ColorSpace = 65535
  | |     - Tag 0xa001 (2 bytes, int16u[1]):
  | |         01d8: ff ff                                           [..]
  | | 20) FocalPlaneXResolution = 5798.657718 (5184000/894)
  | |     - Tag 0xa20e (8 bytes, rational64u[1]):
  | |         02cc: 00 1a 4f 00 7e 03 00 00                         [..O.~...]
  | | 21) FocalPlaneYResolution = 5788.944724 (3456000/597)
  | |     - Tag 0xa20f (8 bytes, rational64u[1]):
  | |         02d4: 00 bc 34 00 55 02 00 00                         [..4.U...]
  | | 22) FocalPlaneResolutionUnit = 2
  | |     - Tag 0xa210 (2 bytes, int16u[1]):
  | |         01fc: 02 00                                           [..]
  | | 23) CustomRendered = 0
  | |     - Tag 0xa401 (2 bytes, int16u[1]):
  | |         0208: 00 00                                           [..]
  | | 24) ExposureMode = 1
  | |     - Tag 0xa402 (2 bytes, int16u[1]):
  | |         0214: 01 00                                           [..]
  | | 25) WhiteBalance = 0
  | |     - Tag 0xa403 (2 bytes, int16u[1]):
  | |         0220: 00 00                                           [..]
  | | 26) SceneCaptureType = 0
  | |     - Tag 0xa406 (2 bytes, int16u[1]):
  | |         022c: 00 00                                           [..]
  | | 27) SerialNumber = 322034001175
  | |     - Tag 0xa431 (13 bytes, string[13]):
  | |         02dc: 33 32 32 30 33 34 30 30 31 31 37 35 00          [322034001175.]
  | | 28) LensInfo = 18 55 undef undef (18/1 55/1 0/0 0/0)
  | |     - Tag 0xa432 (32 bytes, rational64u[4]):
  | |         02ea: 12 00 00 00 01 00 00 00 37 00 00 00 01 00 00 00 [........7.......]
  | |         02fa: 00 00 00 00 00 00 00 00 00 00 00 00 00 00 00 00 [................]
  | | 29) LensModel = EF-S18-55mm f/3.5-5.6 IS STM
  | |     - Tag 0xa434 (29 bytes, string[29]):
  | |         030a: 45 46 2d 53 31 38 2d 35 35 6d 6d 20 66 2f 33 2e [EF-S18-55mm f/3.]
  | |         031a: 35 2d 35 2e 36 20 49 53 20 53 54 4d 00          [5-5.6 IS STM.]
  | | 30) LensSerialNumber = 0000070a01
  | |     - Tag 0xa435 (11 bytes, string[11]):
  | |         0328: 30 30 30 30 30 37 30 61 30 31 00                [0000070a01.]
  + [IFD1 directory with 6 entries, Little-endian]
  | 0)  Compression = 6
  |     - Tag 0x0103 (2 bytes, int16u[1]):
  |         033e: 06 00                                           [..]
  | 1)  XResolution = 72 (72/1)
  |     - Tag 0x011a (8 bytes, rational64u[1]):
  |         0382: 48 00 00 00 01 00 00 00                         [H.......]
  | 2)  YResolution = 72 (72/1)
  |     - Tag 0x011b (8 bytes, rational64u[1]):
  |         038a: 48 00 00 00 01 00 00 00                         [H.......]
  | 3)  ResolutionUnit = 2
  |     - Tag 0x0128 (2 bytes, int16u[1]):
  |         0362: 02 00                                           [..]
  | 4)  ThumbnailOffset = 902
  |     - Tag 0x0201 (4 bytes, int32u[1]):
  |         036e: 86 03 00 00                                     [....]
  | 5)  ThumbnailLength = 7757
  |     - Tag 0x0202 (4 bytes, int32u[1]):
  |         037a: 4d 1e 00 00                                     [M...]
JPEG APP13 (8048 bytes):
      21e4: 50 68 6f 74 6f 73 68 6f 70 20 33 2e 30 00 38 42 [Photoshop 3.0.8B]
      21f4: 49 4d 03 ed 00 00 00 00 00 10 01 2c 00 00 00 01 [IM.........,....]
      2204: 00 01 01 2c 00 00 00 01 00 01 38 42 49 4d 04 04 [...,......8BIM..]
      2214: 00 00 00 00 00 a7 1c 01 5a 00 03 1b 25 47 1c 01 [........Z...%G..]
      2224: 00 00 02 00 04 1c 02 00 00 02 00 04 1c 02 37 00 [..............7.]
      2234: 08 32 30 31 39 31 32 32 33 1c 02 3c 00 06 30 31 [.20191223..<..01]
      2244: 32 38 32 38 1c 02 3e 00 08 32 30 31 39 31 32 32 [2828..>..2019122]
      [snip 7936 bytes]
  + [Photoshop directory, 8034 bytes]
  | ResolutionInfo (SubDirectory) -->
  | - Tag 0x03ed (16 bytes):
  |     21fe: 01 2c 00 00 00 01 00 01 01 2c 00 00 00 01 00 01 [.,.......,......]
  | + [BinaryData directory, 16 bytes, Big-endian]
  | | XResolution = 19660800
  | | - Tag 0x0000 (4 bytes, int32u[1]):
  | |     21fe: 01 2c 00 00                                     [.,..]
  | | DisplayedUnitsX = 1
  | | - Tag 0x0002 (2 bytes, int16u[1]):
  | |     2202: 00 01                                           [..]
  | | YResolution = 19660800
  | | - Tag 0x0004 (4 bytes, int32u[1]):
  | |     2206: 01 2c 00 00                                     [.,..]
  | | DisplayedUnitsY = 1
  | | - Tag 0x0006 (2 bytes, int16u[1]):
  | |     220a: 00 01                                           [..]
  | IPTCData (SubDirectory) -->
  | - Tag 0x0404 (167 bytes):
  |     221a: 1c 01 5a 00 03 1b 25 47 1c 01 00 00 02 00 04 1c [..Z...%G........]
  |     222a: 02 00 00 02 00 04 1c 02 37 00 08 32 30 31 39 31 [........7..20191]
  |     223a: 32 32 33 1c 02 3c 00 06 30 31 32 38 32 38 1c 02 [223..<..012828..]
  |     224a: 3e 00 08 32 30 31 39 31 32 32 33 1c 02 3f 00 06 [>..20191223..?..]
  |     225a: 30 31 32 38 32 38 1c 02 78 00 16 63 61 74 20 72 [012828..x..cat r]
  |     226a: 65 63 6c 69 6e 69 6e 67 20 6f 6e 20 66 6c 6f 6f [eclining on floo]
  |     227a: 72 1c 02 19 00 04 77 6f 6f 64 1c 02 19 00 05 66 [r.....wood.....f]
  |     228a: 6c 6f 6f 72 1c 02 19 00 03 63 61 74 1c 02 19 00 [loor.....cat....]
  |     229a: 08 66 6c 6f 6f 72 69 6e 67 1c 02 19 00 06 6d 61 [.flooring.....ma]
  |     22aa: 6d 6d 61 6c 1c 02 19 00 03 70 65 74 1c 02 19 00 [mmal.....pet....]
  |     22ba: 06 61 6e 69 6d 61 6c                            [.animal]
  | + [IPTC directory, 167 bytes]
  | | CurrentIPTCDigest = ...kF.V.......Q.
  | | -- IPTCEnvelope record --
  | | CodedCharacterSet = .%G
  | | - Tag 0x005a, IPTCEnvelope record (3 bytes, string[0,32]):
  | |     221f: 1b 25 47                                        [.%G]
  | | EnvelopeRecordVersion = 4
  | | - Tag 0x0000, IPTCEnvelope record (2 bytes, int16u):
  | |     2227: 00 04                                           [..]
  | | -- IPTCApplication record --
  | | ApplicationRecordVersion = 4
  | | - Tag 0x0000, IPTCApplication record (2 bytes, int16u):
  | |     222e: 00 04                                           [..]
  | | DateCreated = 20191223
  | | - Tag 0x0037, IPTCApplication record (8 bytes, digits[8]):
  | |     2235: 32 30 31 39 31 32 32 33                         [20191223]
  | | TimeCreated = 012828
  | | - Tag 0x003c, IPTCApplication record (6 bytes, string[11]):
  | |     2242: 30 31 32 38 32 38                               [012828]
  | | DigitalCreationDate = 20191223
  | | - Tag 0x003e, IPTCApplication record (8 bytes, digits[8]):
  | |     224d: 32 30 31 39 31 32 32 33                         [20191223]
  | | DigitalCreationTime = 012828
  | | - Tag 0x003f, IPTCApplication record (6 bytes, string[11]):
  | |     225a: 30 31 32 38 32 38                               [012828]
  | | Caption-Abstract = cat reclining on floor
  | | - Tag 0x0078, IPTCApplication record (22 bytes, string[0,2000]):
  | |     2265: 63 61 74 20 72 65 63 6c 69 6e 69 6e 67 20 6f 6e [cat reclining on]
  | |     2275: 20 66 6c 6f 6f 72                               [ floor]
  | | Keywords = wood
  | | - Tag 0x0019, IPTCApplication record (4 bytes, string[0,64]):
  | |     2280: 77 6f 6f 64                                     [wood]
  | | Keywords = floor
  | | - Tag 0x0019, IPTCApplication record (5 bytes, string[0,64]):
  | |     2289: 66 6c 6f 6f 72                                  [floor]
  | | Keywords = cat
  | | - Tag 0x0019, IPTCApplication record (3 bytes, string[0,64]):
  | |     2293: 63 61 74                                        [cat]
  | | Keywords = flooring
  | | - Tag 0x0019, IPTCApplication record (8 bytes, string[0,64]):
  | |     229b: 66 6c 6f 6f 72 69 6e 67                         [flooring]
  | | Keywords = mammal
  | | - Tag 0x0019, IPTCApplication record (6 bytes, string[0,64]):
  | |     22a8: 6d 61 6d 6d 61 6c                               [mammal]
  | | Keywords = pet
  | | - Tag 0x0019, IPTCApplication record (3 bytes, string[0,64]):
  | |     22b3: 70 65 74                                        [pet]
  | | Keywords = animal
  | | - Tag 0x0019, IPTCApplication record (6 bytes, string[0,64]):
  | |     22bb: 61 6e 69 6d 61 6c                               [animal]
  | PhotoshopThumbnail = .......M........................................................................................................................................... ...Adobed........................................................................s......!.1AQ..a"q..2.....B#.R..3.b.$r..%C4S...cs.5D'...6.Tdt....&.......EF..V.U(........eu........fv........7GWgw........8HXhx........)9IYiy........*:JZjz.......................m.....!.1A.Q.a".q..2.......#B.Rbr.3$4C...S%.c...s.5.D..T......&6E.'dtU7....()...........eu........FVfv........GWgw........8HXhx........9IYiy........*:JZjz................?.h......R...:m?....>I...->.|NB,.#.id......Z"1....!J6..j.....&.j........UB.-~.4.I..*.._..T...8........T.~..1.U.....U...%..?..n?..~.........a..U[.......U..%O....T.......\.m...%?.?<.h..Urn.B....#.T.C....A]>...T..t.!.....\x..(}N3&.r.s..Q..FF\.c...x..nA....e.F.....#G.%j}.........zzq..zdG%(.0...'.'....(]9)..9..)......{....L?......%.v..>'.@L..l...X?~.R.....8.&....._v.vqT<.....^*.j?w7.~.Um..o..*.a........{...X....L.....U....1..._.O..T.....`*..._...S.a.U...%t_`..*...a..T...8P.]..U.../..*.o....*..x...).x.XS%TTo.1..%.Y.x.`..v.[H......+..........}.....'..|.9^FQ[d..1........E.v..&X.L....J...P.KD.%..p.............vA.P.x....qU(....?..S......1...m7.b.m..K..qV...O..X.r..(.....D.u.<UZ.|#.B_.2..../...".Mz0.Z_.p....p......1.U.i...Co..*.......P.....~.(i>..,>.>3....>.9..m.f\.R.U.n..#..j.a.....0.@......r....?..|.EZ.P ..B...z1v...r..Z.y0..[...Bi|.J..\%T..Y.>.?^!Qw...?....[|.LUl....?...l....o...h6..1U...)..?..Z?.....U..L......^51TE.~.}...R.h}...d.....`.qU.va.$.o..!.u.....J#...<..J...n+..s..|.........?N..F....F.*...X...[...U..9D...I{.VY%H...O.......'...h>.....S...*.U.m.F...rA.3..8..U..92.*....0..I.N.L.3..<.J.i......gTT.Y......T....WD..S..^*.........j..M..V[....T......<U....>.~.UR..UZ...~C.b.o.....*..m6D..`.g.Y....+....m..+L............-..~.....P%.....".....#.|..U..8.!......*..O....dy%..Yd...u.|.....Y.......`=.(cw'....9A....a....)..x....d........68B...9?..;.87UX.}.t...q..]......}8m..=@C#3T#.2... .+..........ZT...A..8....m.**.. .U.u......v!V....1U8M.O...Z[.%>x.w-...*..[snip]
  | - Tag 0x040c (7785 bytes):
  |     22ce: 00 00 00 01 00 00 01 00 00 00 00 ab 00 00 03 00 [................]
  |     22de: 00 02 01 00 00 00 1e 4d 00 18 00 01 ff d8 ff db [.......M........]
  |     22ee: 00 84 00 06 04 04 04 05 04 06 05 05 06 09 06 05 [................]
  |     22fe: 06 09 0b 08 06 06 08 0b 0c 0a 0a 0b 0a 0a 0c 10 [................]
  |     230e: 0c 0c 0c 0c 0c 0c 10 0c 0c 0c 0c 0c 0c 0c 0c 0c [................]
  |     231e: 0c 0c 0c 0c 0c 0c 0c 0c 0c 0c 0c 0c 0c 0c 0c 0c [................]
  |     232e: 0c 0c 0c 01 07 07 07 0d 0c 0d 18 10 10 18 14 0e [................]
  |     233e: 0e 0e 14 14 0e 0e 0e 0e 14 11 0c 0c 0c 0c 0c 11 [................]
  |     234e: 11 0c 0c 0c 0c 0c 0c 11 0c 0c 0c 0c 0c 0c 0c 0c [................]
  |     235e: 0c 0c 0c 0c 0c 0c 0c 0c 0c 0c 0c 0c 0c 0c 0c 0c [................]
  |     236e: 0c 0c 0c 0c ff dd 00 04 00 20 ff ee 00 0e 41 64 [......... ....Ad]
  |     237e: 6f 62 65 00 64 c0 00 00 00 01 ff c0 00 11 08 00 [obe.d...........]
  |     238e: ab 01 00 03 00 11 00 01 11 01 02 11 01 ff c4 01 [................]
  |     239e: a2 00 00 00 07 01 01 01 01 01 00 00 00 00 00 00 [................]
  |     23ae: 00 00 04 05 03 02 06 01 00 07 08 09 0a 0b 01 00 [................]
  |     23be: 02 02 03 01 01 01 01 01 00 00 00 00 00 00 00 01 [................]
  |     23ce: 00 02 03 04 05 06 07 08 09 0a 0b 10 00 02 01 03 [................]
  |     23de: 03 02 04 02 06 07 03 04 02 06 02 73 01 02 03 11 [...........s....]
  |     23ee: 04 00 05 21 12 31 41 51 06 13 61 22 71 81 14 32 [...!.1AQ..a"q..2]
  |     23fe: 91 a1 07 15 b1 42 23 c1 52 d1 e1 33 16 62 f0 24 [.....B#.R..3.b.$]
  |     240e: 72 82 f1 25 43 34 53 92 a2 b2 63 73 c2 35 44 27 [r..%C4S...cs.5D']
  |     241e: 93 a3 b3 36 17 54 64 74 c3 d2 e2 08 26 83 09 0a [...6.Tdt....&...]
  |     242e: 18 19 84 94 45 46 a4 b4 56 d3 55 28 1a f2 e3 f3 [....EF..V.U(....]
  |     243e: c4 d4 e4 f4 65 75 85 95 a5 b5 c5 d5 e5 f5 66 76 [....eu........fv]
  |     244e: 86 96 a6 b6 c6 d6 e6 f6 37 47 57 67 77 87 97 a7 [........7GWgw...]
  |     245e: b7 c7 d7 e7 f7 38 48 58 68 78 88 98 a8 b8 c8 d8 [.....8HXhx......]
  |     246e: e8 f8 29 39 49 59 69 79 89 99 a9 b9 c9 d9 e9 f9 [..)9IYiy........]
  |     247e: 2a 3a 4a 5a 6a 7a 8a 9a aa ba ca da ea fa 11 00 [*:JZjz..........]
  |     248e: 02 02 01 02 03 05 05 04 05 06 04 08 03 03 6d 01 [..............m.]
  |     249e: 00 02 11 03 04 21 12 31 41 05 51 13 61 22 06 71 [.....!.1A.Q.a".q]
  |     24ae: 81 91 32 a1 b1 f0 14 c1 d1 e1 23 42 15 52 62 72 [..2.......#B.Rbr]
  |     24be: f1 33 24 34 43 82 16 92 53 25 a2 63 b2 c2 07 73 [.3$4C...S%.c...s]
  |     24ce: d2 35 e2 44 83 17 54 93 08 09 0a 18 19 26 36 45 [.5.D..T......&6E]
  |     24de: 1a 27 64 74 55 37 f2 a3 b3 c3 28 29 d3 e3 f3 84 [.'dtU7....()....]
  |     24ee: 94 a4 b4 c4 d4 e4 f4 65 75 85 95 a5 b5 c5 d5 e5 [.......eu.......]
  |     24fe: f5 46 56 66 76 86 96 a6 b6 c6 d6 e6 f6 47 57 67 [.FVfv........GWg]
  |     250e: 77 87 97 a7 b7 c7 d7 e7 f7 38 48 58 68 78 88 98 [w........8HXhx..]
  |     251e: a8 b8 c8 d8 e8 f8 39 49 59 69 79 89 99 a9 b9 c9 [......9IYiy.....]
  |     252e: d9 e9 f9 2a 3a 4a 5a 6a 7a 8a 9a aa ba ca da ea [...*:JZjz.......]
  |     253e: fa ff da 00 0c 03 00 00 01 11 02 11 00 3f 00 9e [.............?..]
  |     254e: 68 a9 c6 da b9 08 f2 52 a5 ad 9e 3a 6d 3f 99 87 [h......R...:m?..]
  |     255e: f5 c1 3e 49 1c d2 dd 2d 3e 12 7c 4e 42 2c 8b 23 [..>I...->.|NB,.#]
  |     256e: 81 69 64 fe ea 7f 1c bb a3 5a 22 31 fb c4 f9 1c [.id......Z"1....]
  |     257e: 21 4a 36 ee b5 6a f5 a9 ae 12 c4 26 16 6a 16 c2 [!J6..j.....&.j..]
  |     258e: 11 e2 18 fd e6 b8 55 42 05 2d 7e 94 34 a5 49 fb [......UB.-~.4.I.]
  |     259e: 8e 2a 89 bf 5f 83 15 54 bb 1f bb 38 aa 1a dc 7f [.*.._..T...8....]
  |     25ae: a1 9f 99 c5 54 ad 7e c4 df 31 88 55 b6 a3 fb ef [....T.~..1.U....]
  |     25be: a3 00 55 b6 a3 fd 25 ff 00 d5 3f af 15 6e 3f f7 [..U...%...?..n?.]
  |     25ce: b5 7e 9f d5 8a af 93 fd ea 8f fd 61 fa f1 55 5b [.~.........a..U[]
  |     25de: a3 fb c5 f9 8f d7 85 55 2e 0d 25 4f f5 87 eb c5 [.......U..%O....]
  |     25ee: 54 ee cf ef fe 81 80 aa 5c df 6d fe 9c 8b 25 3f [T.......\.m...%?]
  |     25fe: d8 3f 3c 09 68 fd 8c 55 72 6e 98 42 0a ad b7 d9 [.?<.h..Urn.B....]
  |     260e: 23 0c 54 aa 43 b4 87 e5 88 41 5d 3e e9 84 a8 54 [#.T.C....A]>...T]
  |     261e: 8d bf 74 bf 21 8a 12 c9 07 19 5c 78 13 85 28 7d [..t.!.....\x..(}]
  |     262e: 4e 33 26 99 72 a3 73 e9 b1 51 ee 05 46 46 5c 8a [N3&.r.s..Q..FF\.]
  |     263e: 63 cd 84 b2 78 8c c4 6e 41 df c5 ce d2 65 f1 46 [c...x..nA....e.F]
  |     264e: a7 dd 80 84 84 23 47 ce 25 6a 7d a5 07 ef 19 10 [.....#G.%j}.....]
  |     265e: af ff d0 e8 7a 7a 71 b3 a7 7a 64 47 25 28 0f 30 [....zzq..zdG%(.0]
  |     266e: b0 16 d1 27 89 27 ee 19 19 a6 28 5d 39 29 10 f7 [...'.'....(]9)..]
  |     267e: 39 18 b2 29 f0 da cc fb 95 1f 7b 0c b7 a3 04 4c [9..)......{....L]
  |     268e: 3f de af d1 fa f0 86 25 15 76 c3 91 3e 27 09 40 [?......%.v..>'.@]
  |     269e: 4c a3 f8 6c e0 1f f1 58 3f 7e 15 52 b1 de f4 9f [L..l...X?~.R....]
  |     26ae: 05 38 aa 26 f3 a0 1e e3 15 5f 76 7f 76 71 54 3c [.8.&....._v.vqT<]
  |     26be: 1f ef 17 d2 7f 5e 2a a5 6a 3f 77 37 cc 7e ac 55 [.....^*.j?w7.~.U]
  |     26ce: 6d a0 da 6f 98 c4 2a db 61 fe 92 df ea 9c 0a e4 [m..o..*.a.......]
  |     26de: ff 00 7b 13 e9 fd 58 aa e9 07 fa 4c 7f eb 0f d7 [..{...X....L....]
  |     26ee: 85 55 ef 17 e2 1f 31 8a af bc 5f 89 4f b8 c5 54 [.U....1..._.O..T]
  |     26fe: 2e ff 00 be 07 d8 60 2a 81 7f ef 5f e9 c8 b2 53 [......`*..._...S]
  |     270e: 1f 61 b1 55 bf b1 80 25 74 5f 60 e1 08 2a 96 a7 [.a.U...%t_`..*..]
  |     271e: ed 61 8a 95 54 fe f7 e8 38 50 ba 5d d0 e2 55 a8 [.a..T...8P.]..U.]
  |     272e: da b1 2f b0 c4 2a 12 6f ef 9c f8 9c 2a b4 a0 78 [../..*.o....*..x]
  |     273e: dd 0f ed 29 1f 78 c5 58 53 25 54 54 6f df 31 1b [...).x.XS%TTo.1.]
  |     274e: 94 25 81 59 18 78 8a 60 a4 a5 76 e9 5b 48 81 ea [.%.Y.x.`..v.[H..]
  |     275e: 16 87 e8 db 2b 1c 99 17 ff d1 e8 f6 a2 96 e0 7d [....+..........}]
  |     276e: 18 02 94 a7 cc 27 e2 89 7c 01 39 5e 46 51 5b 64 [.....'..|.9^FQ[d]
  |     277e: b4 8d 31 8a 94 e5 b6 b6 8d 7f 9a 45 1f 76 ff 00 [..1........E.v..]
  |     278e: c3 26 58 84 4c 1b cb 92 0c 4a bd c1 c2 50 9b 4b [.&X.L....J...P.K]
  |     279e: 44 82 25 f0 8d 70 aa 86 9b bd db 9f f2 0f eb 18 [D.%..p..........]
  |     27ae: aa 2e eb 76 41 fe 50 fd 78 ab af 0f c0 71 55 28 [...vA.P.x....qU(]
  |     27be: 07 fa 0a fd 3f af 15 53 b5 1f ba 97 e7 fc 31 0a [....?..S......1.]
  |     27ce: b6 d4 6d 37 cc 62 ab 6d 87 fa 4b 7f aa 71 56 97 [..m7.b.m..K..qV.]
  |     27de: fd ec 4f 99 fd 58 ab 72 7f bd 28 7f ca 1f af 15 [..O..X.r..(.....]
  |     27ee: 44 de 75 1f 3c 55 5a ec 7c 23 15 42 5f 0e 32 8f [D.u.<UZ.|#.B_.2.]
  |     27fe: 96 02 a1 2f 7f ef 9b 22 c9 4d 7a 30 c5 5a 5f b0 [.../...".Mz0.Z_.]
  |     280e: 70 04 96 e0 e8 70 84 15 f6 c7 f7 8c 31 0a 55 d7 [p....p......1.U.]
  |     281e: 69 87 d3 92 43 6f f6 0e 2a d4 00 98 fe 93 fa f1 [i...Co..*.......]
  |     282e: 0a 50 f7 14 f5 cf c8 7e ac 28 69 3e d1 c5 2c 3e [.P.....~.(i>..,>]
  |     283e: e6 3e 33 ca bf ca ec 3e e6 39 8d 2e 6d c8 66 5c [.>3....>.9..m.f\]
  |     284e: 8a 52 bb 55 a4 6e bf c9 23 8f f8 6a e5 61 91 7f [.R.U.n..#..j.a..]
  |     285e: ff d2 e9 30 8a 40 be f8 02 a4 9a eb 72 ba 0b fc [...0.@......r...]
  |     286e: aa 3f 1c aa 7c d9 45 5a d4 50 20 f6 18 42 94 dd [.?..|.EZ.P ..B..]
  |     287e: d4 7a 31 76 a3 8f d4 72 c2 c1 5a d7 79 30 84 15 [.z1v...r..Z.y0..]
  |     288e: 5b 83 d7 09 42 69 7c dc 4a 8f 04 5c 25 54 f4 93 [[...Bi|.J..\%T..]
  |     289e: 59 a5 3e 0a 3f 5e 21 51 77 1f de c6 3f ca 1f af [Y.>.?^!Qw...?...]
  |     28ae: 15 5b 7c d4 4c 55 6c 1f ef 0a fd 3f ac e2 ab 6c [.[|.LUl....?...l]
  |     28be: ff 00 b9 97 fd 6f e1 8a b5 68 36 9b e6 31 55 96 [.....o...h6..1U.]
  |     28ce: e3 fd 29 bf d5 3f af 15 5a 3f de c4 f9 ff 00 0c [..)..?..Z?......]
  |     28de: 55 d3 d0 4c 9f eb 0f d7 8a ab 5e 35 31 54 45 d3 [U..L......^51TE.]
  |     28ee: 7e ec 7d 18 aa 1f 52 fb 68 7d b0 15 09 64 87 f7 [~.}...R.h}...d..]
  |     28fe: d9 12 c9 60 ea 71 55 a8 76 61 80 24 b7 6f d4 8c [...`.qU.va.$.o..]
  |     290e: 21 05 75 b9 a4 c7 11 cd 4a 23 fd da bf 3c 92 17 [!.u.....J#...<..]
  |     291e: 4a f0 a2 9e 6e 2b fc a3 73 85 09 7c b7 e7 8f 08 [J...n+..s..|....]
  |     292e: cf 15 a9 e9 b9 3f 4e 04 ae 46 e4 10 9e a5 46 14 [.....?N..F....F.]
  |     293e: 2a af da c5 58 d6 a7 18 5b e9 c7 f9 55 fb c0 39 [*...X...[...U..9]
  |     294e: 44 f9 b7 0e 49 7b a6 56 59 25 48 b4 b9 b9 4f 07 [D...I{.VY%H...O.]
  |     295e: af fc 12 8c af ab 27 ff d3 e9 68 3e 04 18 10 c7 [......'...h>....]
  |     296e: f5 53 ca f9 fc 2a 06 55 2e 6d 91 46 db 0f 89 72 [.S...*.U.m.F...r]
  |     297e: 41 05 33 94 d2 38 87 f9 55 ff 00 85 39 32 c0 2a [A.3..8..U...92.*]
  |     298e: da fd b6 fa 30 84 15 49 8d 4e 15 4c f5 33 fb d2 [....0..I.N.L.3..]
  |     299e: 3c 00 18 4a 16 69 07 e2 9c f8 05 fd 67 00 54 54 [<..J.i......g.TT]
  |     29ae: af 59 e2 1f e5 0f d7 85 54 ef 9f e1 c5 57 44 7f [.Y......T....WD.]
  |     29be: d0 53 e4 7f 5e 2a b6 cb fb 89 7f d6 fe 18 85 6a [.S..^*.........j]
  |     29ce: d4 d0 4d f3 c5 56 5b 9f f4 a6 ff 00 54 e2 ad 13 [..M..V[.....T...]
  |     29de: fe 96 9f 3c 55 ab 83 fb d5 3e 04 7e bc 55 52 f4 [...<U....>.~.UR.]
  |     29ee: e2 55 5a e4 fe e9 7e 43 f5 62 ab 6f f7 f4 8f 8a [.UZ...~C.b.o....]
  |     29fe: e0 2a 95 dc 6d 36 44 b2 0a 60 fc 67 15 59 19 dd [.*..m6D..`.g.Y..]
  |     2a0e: f1 09 2b ad eb cd 87 6d f1 08 2b 4c d1 c6 e5 eb [..+....m..+L....]
  |     2a1e: c8 f6 03 a7 df 86 90 a5 2d f4 ae 7e 1f 87 e5 b6 [........-..~....]
  |     2a2e: 15 50 25 9b ed 1f a3 0d 22 db 03 0a a2 e2 23 8a [.P%.....".....#.]
  |     2a3e: 7c a9 81 55 87 db 38 a5 21 d6 a3 02 fd 8f f3 2a [|..U..8.!......*]
  |     2a4e: b7 e1 4f e1 94 cf 9b 64 79 25 ce b9 59 64 94 ca [..O....dy%..Yd..]
  |     2a5e: bc 75 19 7c 19 14 fd d5 19 59 e6 cf a3 ff d4 e9 [.u.|.....Y......]
  |     2a6e: a3 60 3d 86 28 63 77 27 9d e3 1f 16 39 41 e6 d8 [.`=.(cw'....9A..]
  |     2a7e: 13 1b 61 fb c1 93 08 29 84 e7 78 87 fa c7 f5 64 [..a....)..x....d]
  |     2a8e: cb 10 bd 0b 04 90 8d 8d 36 38 42 0a 87 ab 39 3f [........68B...9?]
  |     2a9e: 11 e4 3b f6 38 37 55 58 2e 7d 0b 74 81 15 8c 71 [..;.87UX.}.t...q]
  |     2aae: 80 aa 5d d9 da 9e ec c4 b3 7d 38 6d 08 9b 3d 40 [..]......}8m..=@]
  |     [snip 5753 bytes]
  | IPTCDigest = h.Kx~.u....G....
  | - Tag 0x0425 (16 bytes):
  |     4144: 68 be 4b 78 7e af 75 c7 92 e5 b1 47 14 c3 b7 d5 [h.Kx~.u....G....]
  | Warning = IPTCDigest is not current. XMP may be out of sync
JPEG APP2 (562 bytes):
      4158: 49 43 43 5f 50 52 4f 46 49 4c 45 00 01 01 00 00 [ICC_PROFILE.....]
      4168: 02 24 61 70 70 6c 04 00 00 00 6d 6e 74 72 52 47 [.$appl....mntrRG]
      4178: 42 20 58 59 5a 20 07 df 00 0a 00 0e 00 0d 00 08 [B XYZ ..........]
      4188: 00 39 61 63 73 70 41 50 50 4c 00 00 00 00 41 50 [.9acspAPPL....AP]
      4198: 50 4c 00 00 00 00 00 00 00 00 00 00 00 00 00 00 [PL..............]
      41a8: 00 00 00 00 f6 d6 00 01 00 00 00 00 d3 2d 61 70 [.............-ap]
      41b8: 70 6c e5 bb 0e 98 67 bd 46 cd 4b be 44 6e bd 1b [pl....g.F.K.Dn..]
      [snip 450 bytes]
ICC_Profile chunk 1 of 1
  + [ICC_Profile directory with 10 entries, 548 bytes]
  | ProfileHeader (SubDirectory) -->
  | + [BinaryData directory, 128 bytes, Big-endian]
  | | ProfileCMMType = appl
  | | - Tag 0x0004 (4 bytes, string[4]):
  | |     0004: 61 70 70 6c                                     [appl]
  | | ProfileVersion = 1024
  | | - Tag 0x0008 (2 bytes, int16s[1]):
  | |     0008: 04 00                                           [..]
  | | ProfileClass = mntr
  | | - Tag 0x000c (4 bytes, string[4]):
  | |     000c: 6d 6e 74 72                                     [mntr]
  | | ColorSpaceData = RGB 
  | | - Tag 0x0010 (4 bytes, string[4]):
  | |     0010: 52 47 42 20                                     [RGB ]
  | | ProfileConnectionSpace = XYZ 
  | | - Tag 0x0014 (4 bytes, string[4]):
  | |     0014: 58 59 5a 20                                     [XYZ ]
  | | ProfileDateTime = 2015 10 14 13 8 57
  | | - Tag 0x0018 (12 bytes, int16u[6]):
  | |     0018: 07 df 00 0a 00 0e 00 0d 00 08 00 39             [...........9]
  | | ProfileFileSignature = acsp
  | | - Tag 0x0024 (4 bytes, string[4]):
  | |     0024: 61 63 73 70                                     [acsp]
  | | PrimaryPlatform = APPL
  | | - Tag 0x0028 (4 bytes, string[4]):
  | |     0028: 41 50 50 4c                                     [APPL]
  | | CMMFlags = 0
  | | - Tag 0x002c (4 bytes, int32u[1]):
  | |     002c: 00 00 00 00                                     [....]
  | | DeviceManufacturer = APPL
  | | - Tag 0x0030 (4 bytes, string[4]):
  | |     0030: 41 50 50 4c                                     [APPL]
  | | DeviceModel = 
  | | - Tag 0x0034 (4 bytes, string[4]):
  | |     0034: 00 00 00 00                                     [....]
  | | DeviceAttributes = 0 0
  | | - Tag 0x0038 (8 bytes, int32u[2]):
  | |     0038: 00 00 00 00 00 00 00 00                         [........]
  | | RenderingIntent = 0
  | | - Tag 0x0040 (4 bytes, int32u[1]):
  | |     0040: 00 00 00 00                                     [....]
  | | ConnectionSpaceIlluminant = 0.9642 1 0.82491
  | | - Tag 0x0044 (12 bytes, fixed32s[3]):
  | |     0044: 00 00 f6 d6 00 01 00 00 00 00 d3 2d             [...........-]
  | | ProfileCreator = appl
  | | - Tag 0x0050 (4 bytes, string[4]):
  | |     0050: 61 70 70 6c                                     [appl]
  | | ProfileID = 229 187 14 152 103 189 70 205 75 190 68 110 189 27 117 152
  | | - Tag 0x0054 (16 bytes, int8u[16]):
  | |     0054: e5 bb 0e 98 67 bd 46 cd 4b be 44 6e bd 1b 75 98 [....g.F.K.Dn..u.]
  | 0)  ProfileDescription = Display P3
  |     - Tag 'desc' (101 bytes, type 'desc'):
  |         00fc: 64 65 73 63 00 00 00 00 00 00 00 0b 44 69 73 70 [desc........Disp]
  |         010c: 6c 61 79 20 50 33 00 00 00 00 00 00 00 00 00 00 [lay P3..........]
  |         011c: 00 00 00 00 00 00 00 00 00 00 00 00 00 00 00 00 [................]
  |         012c: 00 00 00 00 00 00 00 00 00 00 00 00 00 00 00 00 [................]
  |         013c: 00 00 00 00 00 00 00 00 00 00 00 00 00 00 00 00 [................]
  |         014c: 00 00 00 00 00 00 00 00 00 00 00 00 00 00 00 00 [................]
  |         015c: 00 00 00 00 00                                  [.....]
  | 1)  ProfileCopyright = Copyright Apple Inc., 2015
  |     - Tag 'cprt' (35 bytes, type 'text'):
  |         0164: 74 65 78 74 00 00 00 00 43 6f 70 79 72 69 67 68 [text....Copyrigh]
  |         0174: 74 20 41 70 70 6c 65 20 49 6e 63 2e 2c 20 32 30 [t Apple Inc., 20]
  |         0184: 31 35 00                                        [15.]
  | 2)  MediaWhitePoint = 0.95045 1 1.08905
  |     - Tag 'wtpt' (20 bytes, type 'XYZ '):
  |         0188: 58 59 5a 20 00 00 00 00 00 00 f3 51 00 01 00 00 [XYZ .......Q....]
  |         0198: 00 01 16 cc                                     [....]
  | 3)  RedMatrixColumn = 0.51512 0.2412 -0.00105
  |     - Tag 'rXYZ' (20 bytes, type 'XYZ '):
  |         019c: 58 59 5a 20 00 00 00 00 00 00 83 df 00 00 3d bf [XYZ ..........=.]
  |         01ac: ff ff ff bb                                     [....]
  | 4)  GreenMatrixColumn = 0.29198 0.69225 0.04189
  |     - Tag 'gXYZ' (20 bytes, type 'XYZ '):
  |         01b0: 58 59 5a 20 00 00 00 00 00 00 4a bf 00 00 b1 37 [XYZ ......J....7]
  |         01c0: 00 00 0a b9                                     [....]
  | 5)  BlueMatrixColumn = 0.1571 0.06657 0.78407
  |     - Tag 'bXYZ' (20 bytes, type 'XYZ '):
  |         01c4: 58 59 5a 20 00 00 00 00 00 00 28 38 00 00 11 0b [XYZ ......(8....]
  |         01d4: 00 00 c8 b9                                     [....]
  | 6)  RedTRC = para..ff...P....
  |     - Tag 'rTRC' (32 bytes, type 'para'):
  |         01d8: 70 61 72 61 00 00 00 00 00 03 00 00 00 02 66 66 [para..........ff]
  |         01e8: 00 00 f2 b0 00 00 0d 50 00 00 13 b6 00 00 09 fc [.......P........]
  | 7)  ChromaticAdaptation = 1.04788 0.02292 -0.0502 0.02959 0.99048 -0.01706 -0.00923 0.01508 0.75168
  |     - Tag 'chad' (44 bytes, type 'sf32'):
  |         01f8: 73 66 33 32 00 00 00 00 00 01 0c 42 00 00 05 de [sf32.......B....]
  |         0208: ff ff f3 26 00 00 07 93 00 00 fd 90 ff ff fb a2 [...&............]
  |         0218: ff ff fd a3 00 00 03 dc 00 00 c0 6e             [...........n]
  | 8)  BlueTRC = para..ff...P....
  |     - Tag 'bTRC' (32 bytes, type 'para'):
  |         01d8: 70 61 72 61 00 00 00 00 00 03 00 00 00 02 66 66 [para..........ff]
  |         01e8: 00 00 f2 b0 00 00 0d 50 00 00 13 b6 00 00 09 fc [.......P........]
  | 9)  GreenTRC = para..ff...P....
  |     - Tag 'gTRC' (32 bytes, type 'para'):
  |         01d8: 70 61 72 61 00 00 00 00 00 03 00 00 00 02 66 66 [para..........ff]
  |         01e8: 00 00 f2 b0 00 00 0d 50 00 00 13 b6 00 00 09 fc [.......P........]
JPEG APP1 (14663 bytes):
      438e: 68 74 74 70 3a 2f 2f 6e 73 2e 61 64 6f 62 65 2e [http://ns.adobe.]
      439e: 63 6f 6d 2f 78 61 70 2f 31 2e 30 2f 00 3c 3f 78 [com/xap/1.0/.<?x]
      43ae: 70 61 63 6b 65 74 20 62 65 67 69 6e 3d 27 ef bb [packet begin='..]
      43be: bf 27 20 69 64 3d 27 57 35 4d 30 4d 70 43 65 68 [.' id='W5M0MpCeh]
      43ce: 69 48 7a 72 65 53 7a 4e 54 63 7a 6b 63 39 64 27 [iHzreSzNTczkc9d']
      43de: 3f 3e 0a 3c 78 3a 78 6d 70 6d 65 74 61 20 78 6d [?>.<x:xmpmeta xm]
      43ee: 6c 6e 73 3a 78 3d 27 61 64 6f 62 65 3a 6e 73 3a [lns:x='adobe:ns:]
      [snip 14551 bytes]
  + [XMP directory, 14634 bytes]
  | XMPToolkit = Image::ExifTool 12.27
  | ApproximateFocusDistance = 67/100
  | - Tag 'x:xmpmeta/rdf:RDF/rdf:Description/aux:ApproximateFocusDistance'
  | Firmware = 1.1.5
  | - Tag 'x:xmpmeta/rdf:RDF/rdf:Description/aux:Firmware'
  | FlashCompensation = 0/1
  | - Tag 'x:xmpmeta/rdf:RDF/rdf:Description/aux:FlashCompensation'
  | ImageNumber = 0
  | - Tag 'x:xmpmeta/rdf:RDF/rdf:Description/aux:ImageNumber'
  | LateralChromaticAberrationCorrectionAlreadyApplied = True
  | - Tag 'x:xmpmeta/rdf:RDF/rdf:Description/aux:LateralChromaticAberrationCorrectionAlreadyApplied'
  | Lens = EF-S18-55mm f/3.5-5.6 IS STM
  | - Tag 'x:xmpmeta/rdf:RDF/rdf:Description/aux:Lens'
  | LensID = 4146
  | - Tag 'x:xmpmeta/rdf:RDF/rdf:Description/aux:LensID'
  | LensInfo = 18/1 55/1 0/0 0/0
  | - Tag 'x:xmpmeta/rdf:RDF/rdf:Description/aux:LensInfo'
  | LensSerialNumber = 0000070a01
  | - Tag 'x:xmpmeta/rdf:RDF/rdf:Description/aux:LensSerialNumber'
  | SerialNumber = 322034001175
  | - Tag 'x:xmpmeta/rdf:RDF/rdf:Description/aux:SerialNumber'
  | Format = image/jpeg
  | - Tag 'x:xmpmeta/rdf:RDF/rdf:Description/dc:format'
  | LensModel = EF-S18-55mm f/3.5-5.6 IS STM
  | - Tag 'x:xmpmeta/rdf:RDF/rdf:Description/exifEX:LensModel'
  | DateCreated = 2019-12-23T01:28:28.23
  | - Tag 'x:xmpmeta/rdf:RDF/rdf:Description/photoshop:DateCreated'
  | CreateDate = 2019-12-23T01:28:28.23
  | - Tag 'x:xmpmeta/rdf:RDF/rdf:Description/xmp:CreateDate'
  | CreatorTool = Adobe Photoshop Lightroom Classic 9.1 (Macintosh)
  | - Tag 'x:xmpmeta/rdf:RDF/rdf:Description/xmp:CreatorTool'
  | MetadataDate = 2019-12-23T13:28:07-05:00
  | - Tag 'x:xmpmeta/rdf:RDF/rdf:Description/xmp:MetadataDate'
  | ModifyDate = 2019-12-23T13:28:07-05:00
  | - Tag 'x:xmpmeta/rdf:RDF/rdf:Description/xmp:ModifyDate'
  | Rating = 1
  | - Tag 'x:xmpmeta/rdf:RDF/rdf:Description/xmp:Rating'
  | DerivedFromDocumentID = D749B1BD13ECB96B04E98B6E2C04E2ED
  | - Tag 'x:xmpmeta/rdf:RDF/rdf:Description/xmpMM:DerivedFrom/stRef:documentID'
  | DerivedFromOriginalDocumentID = D749B1BD13ECB96B04E98B6E2C04E2ED
  | - Tag 'x:xmpmeta/rdf:RDF/rdf:Description/xmpMM:DerivedFrom/stRef:originalDocumentID'
  | DocumentID = xmp.did:61d558ea-ab7f-469a-8e30-064f02333d6c
  | - Tag 'x:xmpmeta/rdf:RDF/rdf:Description/xmpMM:DocumentID'
  | HistoryAction = derived
  | - Tag 'x:xmpmeta/rdf:RDF/rdf:Description/xmpMM:History/rdf:Seq/rdf:li 10/stEvt:action'
  | HistoryParameters = converted from image/x-canon-cr2 to image/jpeg, saved to new location
  | - Tag 'x:xmpmeta/rdf:RDF/rdf:Description/xmpMM:History/rdf:Seq/rdf:li 10/stEvt:parameters'
  | HistoryAction = saved
  | - Tag 'x:xmpmeta/rdf:RDF/rdf:Description/xmpMM:History/rdf:Seq/rdf:li 11/stEvt:action'
  | HistoryChanged = /
  | - Tag 'x:xmpmeta/rdf:RDF/rdf:Description/xmpMM:History/rdf:Seq/rdf:li 11/stEvt:changed'
  | HistoryInstanceID = xmp.iid:61d558ea-ab7f-469a-8e30-064f02333d6c
  | - Tag 'x:xmpmeta/rdf:RDF/rdf:Description/xmpMM:History/rdf:Seq/rdf:li 11/stEvt:instanceID'
  | HistorySoftwareAgent = Adobe Photoshop Lightroom Classic 9.1 (Macintosh)
  | - Tag 'x:xmpmeta/rdf:RDF/rdf:Description/xmpMM:History/rdf:Seq/rdf:li 11/stEvt:softwareAgent'
  | HistoryWhen = 2019-12-23T13:28:07-05:00
  | - Tag 'x:xmpmeta/rdf:RDF/rdf:Description/xmpMM:History/rdf:Seq/rdf:li 11/stEvt:when'
  | InstanceID = xmp.iid:61d558ea-ab7f-469a-8e30-064f02333d6c
  | - Tag 'x:xmpmeta/rdf:RDF/rdf:Description/xmpMM:InstanceID'
  | OriginalDocumentID = D749B1BD13ECB96B04E98B6E2C04E2ED
  | - Tag 'x:xmpmeta/rdf:RDF/rdf:Description/xmpMM:OriginalDocumentID'
  | PreservedFileName = IMG_9499.CR2
  | - Tag 'x:xmpmeta/rdf:RDF/rdf:Description/xmpMM:PreservedFileName'
  | AlreadyApplied = True
  | - Tag 'x:xmpmeta/rdf:RDF/rdf:Description/crs:AlreadyApplied'
  | AutoLateralCA = 1
  | - Tag 'x:xmpmeta/rdf:RDF/rdf:Description/crs:AutoLateralCA'
  | Blacks2012 = -9
  | - Tag 'x:xmpmeta/rdf:RDF/rdf:Description/crs:Blacks2012'
  | BlueHue = -10
  | - Tag 'x:xmpmeta/rdf:RDF/rdf:Description/crs:BlueHue'
  | BlueSaturation = -10
  | - Tag 'x:xmpmeta/rdf:RDF/rdf:Description/crs:BlueSaturation'
  | CameraProfile = Adobe Standard
  | - Tag 'x:xmpmeta/rdf:RDF/rdf:Description/crs:CameraProfile'
  | CameraProfileDigest = BA45C872F6A5D11497D00CBA08D5783F
  | - Tag 'x:xmpmeta/rdf:RDF/rdf:Description/crs:CameraProfileDigest'
  | Clarity2012 = 0
  | - Tag 'x:xmpmeta/rdf:RDF/rdf:Description/crs:Clarity2012'
  | ColorNoiseReduction = 25
  | - Tag 'x:xmpmeta/rdf:RDF/rdf:Description/crs:ColorNoiseReduction'
  | ColorNoiseReductionDetail = 50
  | - Tag 'x:xmpmeta/rdf:RDF/rdf:Description/crs:ColorNoiseReductionDetail'
  | ColorNoiseReductionSmoothness = 50
  | - Tag 'x:xmpmeta/rdf:RDF/rdf:Description/crs:ColorNoiseReductionSmoothness'
  | Contrast2012 = -18
  | - Tag 'x:xmpmeta/rdf:RDF/rdf:Description/crs:Contrast2012'
  | ConvertToGrayscale = False
  | - Tag 'x:xmpmeta/rdf:RDF/rdf:Description/crs:ConvertToGrayscale'
  | DefringeGreenAmount = 0
  | - Tag 'x:xmpmeta/rdf:RDF/rdf:Description/crs:DefringeGreenAmount'
  | DefringeGreenHueHi = 60
  | - Tag 'x:xmpmeta/rdf:RDF/rdf:Description/crs:DefringeGreenHueHi'
  | DefringeGreenHueLo = 40
  | - Tag 'x:xmpmeta/rdf:RDF/rdf:Description/crs:DefringeGreenHueLo'
  | DefringePurpleAmount = 0
  | - Tag 'x:xmpmeta/rdf:RDF/rdf:Description/crs:DefringePurpleAmount'
  | DefringePurpleHueHi = 70
  | - Tag 'x:xmpmeta/rdf:RDF/rdf:Description/crs:DefringePurpleHueHi'
  | DefringePurpleHueLo = 30
  | - Tag 'x:xmpmeta/rdf:RDF/rdf:Description/crs:DefringePurpleHueLo'
  | Dehaze = 0
  | - Tag 'x:xmpmeta/rdf:RDF/rdf:Description/crs:Dehaze'
  | Exposure2012 = +0.95
  | - Tag 'x:xmpmeta/rdf:RDF/rdf:Description/crs:Exposure2012'
  | GrainAmount = 22
  | - Tag 'x:xmpmeta/rdf:RDF/rdf:Description/crs:GrainAmount'
  | GrainFrequency = 50
  | - Tag 'x:xmpmeta/rdf:RDF/rdf:Description/crs:GrainFrequency'
  | GrainSeed = 3847824574
  | - Tag 'x:xmpmeta/rdf:RDF/rdf:Description/crs:GrainSeed'
  | GrainSize = 45
  | - Tag 'x:xmpmeta/rdf:RDF/rdf:Description/crs:GrainSize'
  | GreenHue = +50
  | - Tag 'x:xmpmeta/rdf:RDF/rdf:Description/crs:GreenHue'
  | GreenSaturation = -25
  | - Tag 'x:xmpmeta/rdf:RDF/rdf:Description/crs:GreenSaturation'
  | HasCrop = False
  | - Tag 'x:xmpmeta/rdf:RDF/rdf:Description/crs:HasCrop'
  | HasSettings = True
  | - Tag 'x:xmpmeta/rdf:RDF/rdf:Description/crs:HasSettings'
  | Highlights2012 = -94
  | - Tag 'x:xmpmeta/rdf:RDF/rdf:Description/crs:Highlights2012'
  | HueAdjustmentAqua = 0
  | - Tag 'x:xmpmeta/rdf:RDF/rdf:Description/crs:HueAdjustmentAqua'
  | HueAdjustmentBlue = +2
  | - Tag 'x:xmpmeta/rdf:RDF/rdf:Description/crs:HueAdjustmentBlue'
  | HueAdjustmentGreen = -10
  | - Tag 'x:xmpmeta/rdf:RDF/rdf:Description/crs:HueAdjustmentGreen'
  | HueAdjustmentMagenta = 0
  | - Tag 'x:xmpmeta/rdf:RDF/rdf:Description/crs:HueAdjustmentMagenta'
  | HueAdjustmentOrange = -15
  | - Tag 'x:xmpmeta/rdf:RDF/rdf:Description/crs:HueAdjustmentOrange'
  | HueAdjustmentPurple = 0
  | - Tag 'x:xmpmeta/rdf:RDF/rdf:Description/crs:HueAdjustmentPurple'
  | HueAdjustmentRed = -18
  | - Tag 'x:xmpmeta/rdf:RDF/rdf:Description/crs:HueAdjustmentRed'
  | HueAdjustmentYellow = -9
  | - Tag 'x:xmpmeta/rdf:RDF/rdf:Description/crs:HueAdjustmentYellow'
  | LensManualDistortionAmount = 0
  | - Tag 'x:xmpmeta/rdf:RDF/rdf:Description/crs:LensManualDistortionAmount'
  | LensProfileEnable = 0
  | - Tag 'x:xmpmeta/rdf:RDF/rdf:Description/crs:LensProfileEnable'
  | LensProfileSetup = LensDefaults
  | - Tag 'x:xmpmeta/rdf:RDF/rdf:Description/crs:LensProfileSetup'
  | LookAmount = 1.000000
  | - Tag 'x:xmpmeta/rdf:RDF/rdf:Description/crs:Look/crs:Amount'
  | LookGroup = Profiles
  | - Tag 'x:xmpmeta/rdf:RDF/rdf:Description/crs:Look/crs:Group/rdf:Alt/rdf:li 10'
  | LookName = Adobe Color
  | - Tag 'x:xmpmeta/rdf:RDF/rdf:Description/crs:Look/crs:Name'
  | LookParametersCameraProfile = Adobe Standard
  | - Tag 'x:xmpmeta/rdf:RDF/rdf:Description/crs:Look/crs:Parameters/crs:CameraProfile'
  | LookParametersConvertToGrayscale = False
  | - Tag 'x:xmpmeta/rdf:RDF/rdf:Description/crs:Look/crs:Parameters/crs:ConvertToGrayscale'
  | LookParametersLookTable = E1095149FDB39D7A057BAB208837E2E1
  | - Tag 'x:xmpmeta/rdf:RDF/rdf:Description/crs:Look/crs:Parameters/crs:LookTable'
  | LookParametersProcessVersion = 11.0
  | - Tag 'x:xmpmeta/rdf:RDF/rdf:Description/crs:Look/crs:Parameters/crs:ProcessVersion'
  | LookParametersToneCurvePV2012 = 0, 0
  | - Tag 'x:xmpmeta/rdf:RDF/rdf:Description/crs:Look/crs:Parameters/crs:ToneCurvePV2012/rdf:Seq/rdf:li 10'
  | LookParametersToneCurvePV2012 = 22, 16
  | - Tag 'x:xmpmeta/rdf:RDF/rdf:Description/crs:Look/crs:Parameters/crs:ToneCurvePV2012/rdf:Seq/rdf:li 11'
  | LookParametersToneCurvePV2012 = 40, 35
  | - Tag 'x:xmpmeta/rdf:RDF/rdf:Description/crs:Look/crs:Parameters/crs:ToneCurvePV2012/rdf:Seq/rdf:li 12'
  | LookParametersToneCurvePV2012 = 127, 127
  | - Tag 'x:xmpmeta/rdf:RDF/rdf:Description/crs:Look/crs:Parameters/crs:ToneCurvePV2012/rdf:Seq/rdf:li 13'
  | LookParametersToneCurvePV2012 = 224, 230
  | - Tag 'x:xmpmeta/rdf:RDF/rdf:Description/crs:Look/crs:Parameters/crs:ToneCurvePV2012/rdf:Seq/rdf:li 14'
  | LookParametersToneCurvePV2012 = 240, 246
  | - Tag 'x:xmpmeta/rdf:RDF/rdf:Description/crs:Look/crs:Parameters/crs:ToneCurvePV2012/rdf:Seq/rdf:li 15'
  | LookParametersToneCurvePV2012 = 255, 255
  | - Tag 'x:xmpmeta/rdf:RDF/rdf:Description/crs:Look/crs:Parameters/crs:ToneCurvePV2012/rdf:Seq/rdf:li 16'
  | LookParametersToneCurvePV2012Blue = 0, 0
  | - Tag 'x:xmpmeta/rdf:RDF/rdf:Description/crs:Look/crs:Parameters/crs:ToneCurvePV2012Blue/rdf:Seq/rdf:li 10'
  | LookParametersToneCurvePV2012Blue = 255, 255
  | - Tag 'x:xmpmeta/rdf:RDF/rdf:Description/crs:Look/crs:Parameters/crs:ToneCurvePV2012Blue/rdf:Seq/rdf:li 11'
  | LookParametersToneCurvePV2012Green = 0, 0
  | - Tag 'x:xmpmeta/rdf:RDF/rdf:Description/crs:Look/crs:Parameters/crs:ToneCurvePV2012Green/rdf:Seq/rdf:li 10'
  | LookParametersToneCurvePV2012Green = 255, 255
  | - Tag 'x:xmpmeta/rdf:RDF/rdf:Description/crs:Look/crs:Parameters/crs:ToneCurvePV2012Green/rdf:Seq/rdf:li 11'
  | LookParametersToneCurvePV2012Red = 0, 0
  | - Tag 'x:xmpmeta/rdf:RDF/rdf:Description/crs:Look/crs:Parameters/crs:ToneCurvePV2012Red/rdf:Seq/rdf:li 10'
  | LookParametersToneCurvePV2012Red = 255, 255
  | - Tag 'x:xmpmeta/rdf:RDF/rdf:Description/crs:Look/crs:Parameters/crs:ToneCurvePV2012Red/rdf:Seq/rdf:li 11'
  | LookParametersVersion = 12.1
  | - Tag 'x:xmpmeta/rdf:RDF/rdf:Description/crs:Look/crs:Parameters/crs:Version'
  | LookSupportsAmount = false
  | - Tag 'x:xmpmeta/rdf:RDF/rdf:Description/crs:Look/crs:SupportsAmount'
  | LookSupportsMonochrome = false
  | - Tag 'x:xmpmeta/rdf:RDF/rdf:Description/crs:Look/crs:SupportsMonochrome'
  | LookSupportsOutputReferred = false
  | - Tag 'x:xmpmeta/rdf:RDF/rdf:Description/crs:Look/crs:SupportsOutputReferred'
  | LookUUID = B952C231111CD8E0ECCF14B86BAA7077
  | - Tag 'x:xmpmeta/rdf:RDF/rdf:Description/crs:Look/crs:UUID'
  | LuminanceAdjustmentAqua = 0
  | - Tag 'x:xmpmeta/rdf:RDF/rdf:Description/crs:LuminanceAdjustmentAqua'
  | LuminanceAdjustmentBlue = -70
  | - Tag 'x:xmpmeta/rdf:RDF/rdf:Description/crs:LuminanceAdjustmentBlue'
  | LuminanceAdjustmentGreen = +17
  | - Tag 'x:xmpmeta/rdf:RDF/rdf:Description/crs:LuminanceAdjustmentGreen'
  | LuminanceAdjustmentMagenta = 0
  | - Tag 'x:xmpmeta/rdf:RDF/rdf:Description/crs:LuminanceAdjustmentMagenta'
  | LuminanceAdjustmentOrange = -39
  | - Tag 'x:xmpmeta/rdf:RDF/rdf:Description/crs:LuminanceAdjustmentOrange'
  | LuminanceAdjustmentPurple = 0
  | - Tag 'x:xmpmeta/rdf:RDF/rdf:Description/crs:LuminanceAdjustmentPurple'
  | LuminanceAdjustmentRed = -23
  | - Tag 'x:xmpmeta/rdf:RDF/rdf:Description/crs:LuminanceAdjustmentRed'
  | LuminanceAdjustmentYellow = -21
  | - Tag 'x:xmpmeta/rdf:RDF/rdf:Description/crs:LuminanceAdjustmentYellow'
  | LuminanceSmoothing = 0
  | - Tag 'x:xmpmeta/rdf:RDF/rdf:Description/crs:LuminanceSmoothing'
  | OverrideLookVignette = False
  | - Tag 'x:xmpmeta/rdf:RDF/rdf:Description/crs:OverrideLookVignette'
  | ParametricDarks = 0
  | - Tag 'x:xmpmeta/rdf:RDF/rdf:Description/crs:ParametricDarks'
  | ParametricHighlightSplit = 75
  | - Tag 'x:xmpmeta/rdf:RDF/rdf:Description/crs:ParametricHighlightSplit'
  | ParametricHighlights = 0
  | - Tag 'x:xmpmeta/rdf:RDF/rdf:Description/crs:ParametricHighlights'
  | ParametricLights = 0
  | - Tag 'x:xmpmeta/rdf:RDF/rdf:Description/crs:ParametricLights'
  | ParametricMidtoneSplit = 50
  | - Tag 'x:xmpmeta/rdf:RDF/rdf:Description/crs:ParametricMidtoneSplit'
  | ParametricShadowSplit = 25
  | - Tag 'x:xmpmeta/rdf:RDF/rdf:Description/crs:ParametricShadowSplit'
  | ParametricShadows = 0
  | - Tag 'x:xmpmeta/rdf:RDF/rdf:Description/crs:ParametricShadows'
  | PerspectiveAspect = 0
  | - Tag 'x:xmpmeta/rdf:RDF/rdf:Description/crs:PerspectiveAspect'
  | PerspectiveHorizontal = 0
  | - Tag 'x:xmpmeta/rdf:RDF/rdf:Description/crs:PerspectiveHorizontal'
  | PerspectiveRotate = 0.0
  | - Tag 'x:xmpmeta/rdf:RDF/rdf:Description/crs:PerspectiveRotate'
  | PerspectiveScale = 100
  | - Tag 'x:xmpmeta/rdf:RDF/rdf:Description/crs:PerspectiveScale'
  | PerspectiveUpright = 0
  | - Tag 'x:xmpmeta/rdf:RDF/rdf:Description/crs:PerspectiveUpright'
  | PerspectiveVertical = 0
  | - Tag 'x:xmpmeta/rdf:RDF/rdf:Description/crs:PerspectiveVertical'
  | PerspectiveX = 0.00
  | - Tag 'x:xmpmeta/rdf:RDF/rdf:Description/crs:PerspectiveX'
  | PerspectiveY = 0.00
  | - Tag 'x:xmpmeta/rdf:RDF/rdf:Description/crs:PerspectiveY'
  | PostCropVignetteAmount = 0
  | - Tag 'x:xmpmeta/rdf:RDF/rdf:Description/crs:PostCropVignetteAmount'
  | ProcessVersion = 11.0
  | - Tag 'x:xmpmeta/rdf:RDF/rdf:Description/crs:ProcessVersion'
  | RawFileName = IMG_9499.CR2
  | - Tag 'x:xmpmeta/rdf:RDF/rdf:Description/crs:RawFileName'
  | RedHue = +46
  | - Tag 'x:xmpmeta/rdf:RDF/rdf:Description/crs:RedHue'
  | RedSaturation = +5
  | - Tag 'x:xmpmeta/rdf:RDF/rdf:Description/crs:RedSaturation'
  | Saturation = -35
  | - Tag 'x:xmpmeta/rdf:RDF/rdf:Description/crs:Saturation'
  | SaturationAdjustmentAqua = -51
  | - Tag 'x:xmpmeta/rdf:RDF/rdf:Description/crs:SaturationAdjustmentAqua'
  | SaturationAdjustmentBlue = -19
  | - Tag 'x:xmpmeta/rdf:RDF/rdf:Description/crs:SaturationAdjustmentBlue'
  | SaturationAdjustmentGreen = -17
  | - Tag 'x:xmpmeta/rdf:RDF/rdf:Description/crs:SaturationAdjustmentGreen'
  | SaturationAdjustmentMagenta = 0
  | - Tag 'x:xmpmeta/rdf:RDF/rdf:Description/crs:SaturationAdjustmentMagenta'
  | SaturationAdjustmentOrange = +16
  | - Tag 'x:xmpmeta/rdf:RDF/rdf:Description/crs:SaturationAdjustmentOrange'
  | SaturationAdjustmentPurple = 0
  | - Tag 'x:xmpmeta/rdf:RDF/rdf:Description/crs:SaturationAdjustmentPurple'
  | SaturationAdjustmentRed = +5
  | - Tag 'x:xmpmeta/rdf:RDF/rdf:Description/crs:SaturationAdjustmentRed'
  | SaturationAdjustmentYellow = -15
  | - Tag 'x:xmpmeta/rdf:RDF/rdf:Description/crs:SaturationAdjustmentYellow'
  | ShadowTint = 0
  | - Tag 'x:xmpmeta/rdf:RDF/rdf:Description/crs:ShadowTint'
  | Shadows2012 = +55
  | - Tag 'x:xmpmeta/rdf:RDF/rdf:Description/crs:Shadows2012'
  | SharpenDetail = 25
  | - Tag 'x:xmpmeta/rdf:RDF/rdf:Description/crs:SharpenDetail'
  | SharpenEdgeMasking = 0
  | - Tag 'x:xmpmeta/rdf:RDF/rdf:Description/crs:SharpenEdgeMasking'
  | SharpenRadius = +1.0
  | - Tag 'x:xmpmeta/rdf:RDF/rdf:Description/crs:SharpenRadius'
  | Sharpness = 35
  | - Tag 'x:xmpmeta/rdf:RDF/rdf:Description/crs:Sharpness'
  | SplitToningBalance = 0
  | - Tag 'x:xmpmeta/rdf:RDF/rdf:Description/crs:SplitToningBalance'
  | SplitToningHighlightHue = 34
  | - Tag 'x:xmpmeta/rdf:RDF/rdf:Description/crs:SplitToningHighlightHue'
  | SplitToningHighlightSaturation = 0
  | - Tag 'x:xmpmeta/rdf:RDF/rdf:Description/crs:SplitToningHighlightSaturation'
  | SplitToningShadowHue = 52
  | - Tag 'x:xmpmeta/rdf:RDF/rdf:Description/crs:SplitToningShadowHue'
  | SplitToningShadowSaturation = 20
  | - Tag 'x:xmpmeta/rdf:RDF/rdf:Description/crs:SplitToningShadowSaturation'
  | ColorTemperature = 4659
  | - Tag 'x:xmpmeta/rdf:RDF/rdf:Description/crs:Temperature'
  | Texture = 0
  | - Tag 'x:xmpmeta/rdf:RDF/rdf:Description/crs:Texture'
  | Tint = +14
  | - Tag 'x:xmpmeta/rdf:RDF/rdf:Description/crs:Tint'
  | ToneCurve = 0, 0
  | - Tag 'x:xmpmeta/rdf:RDF/rdf:Description/crs:ToneCurve/rdf:Seq/rdf:li 10'
  | ToneCurve = 255, 255
  | - Tag 'x:xmpmeta/rdf:RDF/rdf:Description/crs:ToneCurve/rdf:Seq/rdf:li 11'
  | ToneCurveBlue = 0, 0
  | - Tag 'x:xmpmeta/rdf:RDF/rdf:Description/crs:ToneCurveBlue/rdf:Seq/rdf:li 10'
  | ToneCurveBlue = 255, 255
  | - Tag 'x:xmpmeta/rdf:RDF/rdf:Description/crs:ToneCurveBlue/rdf:Seq/rdf:li 11'
  | ToneCurveGreen = 0, 0
  | - Tag 'x:xmpmeta/rdf:RDF/rdf:Description/crs:ToneCurveGreen/rdf:Seq/rdf:li 10'
  | ToneCurveGreen = 255, 255
  | - Tag 'x:xmpmeta/rdf:RDF/rdf:Description/crs:ToneCurveGreen/rdf:Seq/rdf:li 11'
  | ToneCurveName = Linear
  | - Tag 'x:xmpmeta/rdf:RDF/rdf:Description/crs:ToneCurveName'
  | ToneCurveName2012 = Custom
  | - Tag 'x:xmpmeta/rdf:RDF/rdf:Description/crs:ToneCurveName2012'
  | ToneCurvePV2012 = 0, 0
  | - Tag 'x:xmpmeta/rdf:RDF/rdf:Description/crs:ToneCurvePV2012/rdf:Seq/rdf:li 10'
  | ToneCurvePV2012 = 59, 62
  | - Tag 'x:xmpmeta/rdf:RDF/rdf:Description/crs:ToneCurvePV2012/rdf:Seq/rdf:li 11'
  | ToneCurvePV2012 = 177, 163
  | - Tag 'x:xmpmeta/rdf:RDF/rdf:Description/crs:ToneCurvePV2012/rdf:Seq/rdf:li 12'
  | ToneCurvePV2012 = 255, 211
  | - Tag 'x:xmpmeta/rdf:RDF/rdf:Description/crs:ToneCurvePV2012/rdf:Seq/rdf:li 13'
  | ToneCurvePV2012Blue = 0, 0
  | - Tag 'x:xmpmeta/rdf:RDF/rdf:Description/crs:ToneCurvePV2012Blue/rdf:Seq/rdf:li 10'
  | ToneCurvePV2012Blue = 39, 13
  | - Tag 'x:xmpmeta/rdf:RDF/rdf:Description/crs:ToneCurvePV2012Blue/rdf:Seq/rdf:li 11'
  | ToneCurvePV2012Blue = 87, 65
  | - Tag 'x:xmpmeta/rdf:RDF/rdf:Description/crs:ToneCurvePV2012Blue/rdf:Seq/rdf:li 12'
  | ToneCurvePV2012Blue = 123, 124
  | - Tag 'x:xmpmeta/rdf:RDF/rdf:Description/crs:ToneCurvePV2012Blue/rdf:Seq/rdf:li 13'
  | ToneCurvePV2012Blue = 183, 199
  | - Tag 'x:xmpmeta/rdf:RDF/rdf:Description/crs:ToneCurvePV2012Blue/rdf:Seq/rdf:li 14'
  | ToneCurvePV2012Blue = 255, 255
  | - Tag 'x:xmpmeta/rdf:RDF/rdf:Description/crs:ToneCurvePV2012Blue/rdf:Seq/rdf:li 15'
  | ToneCurvePV2012Green = 0, 0
  | - Tag 'x:xmpmeta/rdf:RDF/rdf:Description/crs:ToneCurvePV2012Green/rdf:Seq/rdf:li 10'
  | ToneCurvePV2012Green = 40, 14
  | - Tag 'x:xmpmeta/rdf:RDF/rdf:Description/crs:ToneCurvePV2012Green/rdf:Seq/rdf:li 11'
  | ToneCurvePV2012Green = 83, 59
  | - Tag 'x:xmpmeta/rdf:RDF/rdf:Description/crs:ToneCurvePV2012Green/rdf:Seq/rdf:li 12'
  | ToneCurvePV2012Green = 123, 126
  | - Tag 'x:xmpmeta/rdf:RDF/rdf:Description/crs:ToneCurvePV2012Green/rdf:Seq/rdf:li 13'
  | ToneCurvePV2012Green = 172, 185
  | - Tag 'x:xmpmeta/rdf:RDF/rdf:Description/crs:ToneCurvePV2012Green/rdf:Seq/rdf:li 14'
  | ToneCurvePV2012Green = 255, 255
  | - Tag 'x:xmpmeta/rdf:RDF/rdf:Description/crs:ToneCurvePV2012Green/rdf:Seq/rdf:li 15'
  | ToneCurvePV2012Red = 0, 0
  | - Tag 'x:xmpmeta/rdf:RDF/rdf:Description/crs:ToneCurvePV2012Red/rdf:Seq/rdf:li 10'
  | ToneCurvePV2012Red = 40, 12
  | - Tag 'x:xmpmeta/rdf:RDF/rdf:Description/crs:ToneCurvePV2012Red/rdf:Seq/rdf:li 11'
  | ToneCurvePV2012Red = 84, 58
  | - Tag 'x:xmpmeta/rdf:RDF/rdf:Description/crs:ToneCurvePV2012Red/rdf:Seq/rdf:li 12'
  | ToneCurvePV2012Red = 123, 125
  | - Tag 'x:xmpmeta/rdf:RDF/rdf:Description/crs:ToneCurvePV2012Red/rdf:Seq/rdf:li 13'
  | ToneCurvePV2012Red = 186, 196
  | - Tag 'x:xmpmeta/rdf:RDF/rdf:Description/crs:ToneCurvePV2012Red/rdf:Seq/rdf:li 14'
  | ToneCurvePV2012Red = 255, 255
  | - Tag 'x:xmpmeta/rdf:RDF/rdf:Description/crs:ToneCurvePV2012Red/rdf:Seq/rdf:li 15'
  | ToneCurveRed = 0, 0
  | - Tag 'x:xmpmeta/rdf:RDF/rdf:Description/crs:ToneCurveRed/rdf:Seq/rdf:li 10'
  | ToneCurveRed = 255, 255
  | - Tag 'x:xmpmeta/rdf:RDF/rdf:Description/crs:ToneCurveRed/rdf:Seq/rdf:li 11'
  | ToneMapStrength = 0
  | - Tag 'x:xmpmeta/rdf:RDF/rdf:Description/crs:ToneMapStrength'
  | UprightCenterMode = 0
  | - Tag 'x:xmpmeta/rdf:RDF/rdf:Description/crs:UprightCenterMode'
  | UprightCenterNormX = 0.5
  | - Tag 'x:xmpmeta/rdf:RDF/rdf:Description/crs:UprightCenterNormX'
  | UprightCenterNormY = 0.5
  | - Tag 'x:xmpmeta/rdf:RDF/rdf:Description/crs:UprightCenterNormY'
  | UprightFocalLength35mm = 35
  | - Tag 'x:xmpmeta/rdf:RDF/rdf:Description/crs:UprightFocalLength35mm'
  | UprightFocalMode = 0
  | - Tag 'x:xmpmeta/rdf:RDF/rdf:Description/crs:UprightFocalMode'
  | UprightFourSegmentsCount = 0
  | - Tag 'x:xmpmeta/rdf:RDF/rdf:Description/crs:UprightFourSegmentsCount'
  | UprightPreview = False
  | - Tag 'x:xmpmeta/rdf:RDF/rdf:Description/crs:UprightPreview'
  | UprightTransformCount = 6
  | - Tag 'x:xmpmeta/rdf:RDF/rdf:Description/crs:UprightTransformCount'
  | UprightVersion = 151388160
  | - Tag 'x:xmpmeta/rdf:RDF/rdf:Description/crs:UprightVersion'
  | Version = 12.1
  | - Tag 'x:xmpmeta/rdf:RDF/rdf:Description/crs:Version'
  | Vibrance = -4
  | - Tag 'x:xmpmeta/rdf:RDF/rdf:Description/crs:Vibrance'
  | VignetteAmount = 0
  | - Tag 'x:xmpmeta/rdf:RDF/rdf:Description/crs:VignetteAmount'
  | WhiteBalance = Custom
  | - Tag 'x:xmpmeta/rdf:RDF/rdf:Description/crs:WhiteBalance'
  | Whites2012 = -99
  | - Tag 'x:xmpmeta/rdf:RDF/rdf:Description/crs:Whites2012'
JPEG DQT (130 bytes):
      7cd9: 00 0a 07 07 0b 08 0b 12 0a 0a 12 16 11 0e 11 16 [................]
      7ce9: 1b 17 16 16 17 1b 22 17 17 17 17 17 22 11 0c 0c [......"....."...]
      7cf9: 0c 0c 0c 0c 11 0c 0c 0c 0c 0c 0c 0c 0c 0c 0c 0c [................]
      7d09: 0c 0c 0c 0c 0c 0c 0c 0c 0c 0c 0c 0c 0c 0c 0c 0c [................]
      7d19: 0c 01 0b 0e 0e 1f 13 1f 22 18 18 22 14 0e 0e 0e [........".."....]
      7d29: 14 14 0e 0e 0e 0e 14 11 0c 0c 0c 0c 0c 11 11 0c [................]
      7d39: 0c 0c 0c 0c 0c 11 0c 0c 0c 0c 0c 0c 0c 0c 0c 0c [................]
      [snip 18 bytes]
JPEG DRI (2 bytes):
      7d5f: 02 88                                           [..]
JPEG APP14 (12 bytes):
      7d65: 41 64 6f 62 65 00 64 c0 00 00 00 01             [Adobe.d.....]
  + [BinaryData directory, 7 bytes, Big-endian]
  | DCTEncodeVersion = 100
  | - Tag 0x0000 (2 bytes, int16u[1]):
  |     7d6a: 00 64                                           [.d]
  | APP14Flags0 = 49152
  | - Tag 0x0001 (2 bytes, int16u[1]):
  |     7d6c: c0 00                                           [..]
  | APP14Flags1 = 0
  | - Tag 0x0002 (2 bytes, int16u[1]):
  |     7d6e: 00 00                                           [..]
  | ColorTransform = 1
  | - Tag 0x0003 (1 bytes, int8u[1]):
  |     7d70: 01                                              [.]
JPEG SOF0 (15 bytes):
      7d75: 08 0d 80 14 40 03 00 11 00 01 11 01 02 11 01    [....@..........]
  ImageWidth = 5184
  ImageHeight = 3456
  EncodingProcess = 0
  BitsPerSample = 8
  ColorComponents = 3
  YCbCrSubSampling = 1 1
JPEG DHT (150 bytes):
      7d88: 00 01 01 01 01 01 01 01 01 00 00 00 00 00 00 00 [................]
      7d98: 00 01 02 00 03 04 05 06 07 01 01 01 01 01 01 01 [................]
      7da8: 00 00 00 00 00 00 00 00 00 00 00 01 02 03 04 05 [................]
      7db8: 10 00 02 02 02 02 01 03 02 05 02 04 03 05 05 01 [................]
      7dc8: 11 00 01 02 11 21 31 12 41 03 04 51 61 22 71 05 [.....!1.A..Qa"q.]
      7dd8: 13 32 81 91 42 a1 14 52 62 b1 06 72 c1 23 82 b2 [.2..B..Rb..r.#..]
      7de8: c2 d1 15 33 92 a2 d2 e1 f0 f1 e2 f2 24 43 16 53 [...3........$C.S]
      [snip 38 bytes]
JPEG SOS
JPEG RST0
JPEG RST1
JPEG RST2
JPEG RST3
JPEG RST4
JPEG RST5
JPEG RST6
JPEG RST7
JPEG RST0
JPEG RST1
JPEG RST2
JPEG RST3
JPEG RST4
JPEG RST5
JPEG RST6
JPEG RST7
JPEG RST0
JPEG RST1
JPEG RST2
JPEG RST3
JPEG RST4
JPEG RST5
JPEG RST6
JPEG RST7
JPEG RST0
JPEG RST1
JPEG RST2
JPEG RST3
JPEG RST4
JPEG RST5
JPEG RST6
JPEG RST7
JPEG RST0
JPEG RST1
JPEG RST2
JPEG RST3
JPEG RST4
JPEG RST5
JPEG RST6
JPEG RST7
JPEG RST0
JPEG RST1
JPEG RST2
JPEG RST3
JPEG RST4
JPEG RST5
JPEG RST6
JPEG RST7
JPEG RST0
JPEG RST1
JPEG RST2
JPEG RST3
JPEG RST4
JPEG RST5
JPEG RST6
JPEG RST7
JPEG RST0
JPEG RST1
JPEG RST2
JPEG RST3
JPEG RST4
JPEG RST5
JPEG RST6
JPEG RST7
JPEG RST0
JPEG RST1
JPEG RST2
JPEG RST3
JPEG RST4
JPEG RST5
JPEG RST6
JPEG RST7
JPEG RST0
JPEG RST1
JPEG RST2
JPEG RST3
JPEG RST4
JPEG RST5
JPEG RST6
JPEG RST7
JPEG RST0
JPEG RST1
JPEG RST2
JPEG RST3
JPEG RST4
JPEG RST5
JPEG RST6
JPEG RST7
JPEG RST0
JPEG RST1
JPEG RST2
JPEG RST3
JPEG RST4
JPEG RST5
JPEG RST6
JPEG RST7
JPEG RST0
JPEG RST1
JPEG RST2
JPEG RST3
JPEG RST4
JPEG RST5
JPEG RST6
JPEG RST7
JPEG RST0
JPEG RST1
JPEG RST2
JPEG RST3
JPEG RST4
JPEG RST5
JPEG RST6
JPEG RST7
JPEG RST0
JPEG RST1
JPEG RST2
JPEG RST3
JPEG RST4
JPEG RST5
JPEG RST6
JPEG RST7
JPEG RST0
JPEG RST1
JPEG RST2
JPEG RST3
JPEG RST4
JPEG RST5
JPEG RST6
JPEG RST7
JPEG RST0
JPEG RST1
JPEG RST2
JPEG RST3
JPEG RST4
JPEG RST5
JPEG RST6
JPEG RST7
JPEG RST0
JPEG RST1
JPEG RST2
JPEG RST3
JPEG RST4
JPEG RST5
JPEG RST6
JPEG RST7
JPEG RST0
JPEG RST1
JPEG RST2
JPEG RST3
JPEG RST4
JPEG RST5
JPEG RST6
JPEG RST7
JPEG RST0
JPEG RST1
JPEG RST2
JPEG RST3
JPEG RST4
JPEG RST5
JPEG RST6
JPEG RST7
JPEG RST0
JPEG RST1
JPEG RST2
JPEG RST3
JPEG RST4
JPEG RST5
JPEG RST6
JPEG RST7
JPEG RST0
JPEG RST1
JPEG RST2
JPEG RST3
JPEG RST4
JPEG RST5
JPEG RST6
JPEG RST7
JPEG RST0
JPEG RST1
JPEG RST2
JPEG RST3
JPEG RST4
JPEG RST5
JPEG RST6
JPEG RST7
JPEG RST0
JPEG RST1
JPEG RST2
JPEG RST3
JPEG RST4
JPEG RST5
JPEG RST6
JPEG RST7
JPEG RST0
JPEG RST1
JPEG RST2
JPEG RST3
JPEG RST4
JPEG RST5
JPEG RST6
JPEG RST7
JPEG RST0
JPEG RST1
JPEG RST2
JPEG RST3
JPEG RST4
JPEG RST5
JPEG RST6
JPEG RST7
JPEG RST0
JPEG RST1
JPEG RST2
JPEG RST3
JPEG RST4
JPEG RST5
JPEG RST6
JPEG RST7
JPEG RST0
JPEG RST1
JPEG RST2
JPEG RST3
JPEG RST4
JPEG RST5
JPEG RST6
JPEG RST7
JPEG RST0
JPEG RST1
JPEG RST2
JPEG RST3
JPEG RST4
JPEG RST5
JPEG RST6
JPEG RST7
JPEG RST0
JPEG RST1
JPEG RST2
JPEG RST3
JPEG RST4
JPEG RST5
JPEG RST6
JPEG RST7
JPEG RST0
JPEG RST1
JPEG RST2
JPEG RST3
JPEG RST4
JPEG RST5
JPEG RST6
JPEG RST7
JPEG RST0
JPEG RST1
JPEG RST2
JPEG RST3
JPEG RST4
JPEG RST5
JPEG RST6
JPEG RST7
JPEG RST0
JPEG RST1
JPEG RST2
JPEG RST3
JPEG RST4
JPEG RST5
JPEG RST6
JPEG RST7
JPEG RST0
JPEG RST1
JPEG RST2
JPEG RST3
JPEG RST4
JPEG RST5
JPEG RST6
JPEG RST7
JPEG RST0
JPEG RST1
JPEG RST2
JPEG RST3
JPEG RST4
JPEG RST5
JPEG RST6
JPEG RST7
JPEG RST0
JPEG RST1
JPEG RST2
JPEG RST3
JPEG RST4
JPEG RST5
JPEG RST6
JPEG RST7
JPEG RST0
JPEG RST1
JPEG RST2
JPEG RST3
JPEG RST4
JPEG RST5
JPEG RST6
JPEG RST7
JPEG RST0
JPEG RST1
JPEG RST2
JPEG RST3
JPEG RST4
JPEG RST5
JPEG RST6
JPEG RST7
JPEG RST0
JPEG RST1
JPEG RST2
JPEG RST3
JPEG RST4
JPEG RST5
JPEG RST6
JPEG RST7
JPEG RST0
JPEG RST1
JPEG RST2
JPEG RST3
JPEG RST4
JPEG RST5
JPEG RST6
JPEG RST7
JPEG RST0
JPEG RST1
JPEG RST2
JPEG RST3
JPEG RST4
JPEG RST5
JPEG RST6
JPEG RST7
JPEG RST0
JPEG RST1
JPEG RST2
JPEG RST3
JPEG RST4
JPEG RST5
JPEG RST6
JPEG RST7
JPEG RST0
JPEG RST1
JPEG RST2
JPEG RST3
JPEG RST4
JPEG RST5
JPEG RST6
JPEG RST7
JPEG RST0
JPEG RST1
JPEG RST2
JPEG RST3
JPEG RST4
JPEG RST5
JPEG RST6
JPEG RST7
JPEG RST0
JPEG RST1
JPEG RST2
JPEG RST3
JPEG RST4
JPEG RST5
JPEG RST6
JPEG RST7
JPEG RST0
JPEG RST1
JPEG RST2
JPEG RST3
JPEG RST4
JPEG RST5
JPEG RST6
JPEG RST7
JPEG RST0
JPEG RST1
JPEG RST2
JPEG RST3
JPEG RST4
JPEG RST5
JPEG RST6
JPEG RST7
JPEG RST0
JPEG RST1
JPEG RST2
JPEG RST3
JPEG RST4
JPEG RST5
JPEG RST6
JPEG RST7
JPEG RST0
JPEG RST1
JPEG RST2
JPEG RST3
JPEG RST4
JPEG RST5
JPEG RST6
JPEG RST7
JPEG RST0
JPEG RST1
JPEG RST2
JPEG RST3
JPEG RST4
JPEG RST5
JPEG RST6
JPEG RST7
JPEG RST0
JPEG RST1
JPEG RST2
JPEG RST3
JPEG RST4
JPEG RST5
JPEG RST6
JPEG RST7
JPEG RST0
JPEG RST1
JPEG RST2
JPEG RST3
JPEG RST4
JPEG RST5
JPEG RST6
JPEG RST7
JPEG RST0
JPEG RST1
JPEG RST2
JPEG RST3
JPEG RST4
JPEG RST5
JPEG RST6
JPEG RST7
JPEG RST0
JPEG RST1
JPEG RST2
JPEG RST3
JPEG RST4
JPEG RST5
JPEG RST6
JPEG EOI
