  ExifToolVersion = 13.59
  FileName = media_21.jpg
  Directory = C:/Users/micro/IdeaProjects/kim/src/commonTest/resources/de/stefan_oltmann/kim/testdata/full
  FileSize = 6325994
  FileModifyDate = 1776264338.0502
  FileAccessDate = 1786601296.654
  FileCreateDate = 1776264338.0372
  FilePermissions = 33206
  FileType = JPEG
  FileTypeExtension = JPG
  MIMEType = image/jpeg
JPEG APP1 (20877 bytes):
      0006: 45 78 69 66 00 00 4d 4d 00 2a 00 00 00 08 00 0e [Exif..MM.*......]
      0016: 01 0f 00 02 00 00 00 11 00 00 00 b4 01 10 00 02 [................]
      0026: 00 00 00 0a 00 00 00 c7 01 12 00 03 00 00 00 01 [................]
      0036: 00 01 00 00 01 1a 00 05 00 00 00 01 00 00 00 d3 [................]
      0046: 01 1b 00 05 00 00 00 01 00 00 00 dc 01 28 00 03 [.............(..]
      0056: 00 00 00 01 00 02 00 00 01 31 00 02 00 00 00 13 [.........1......]
      0066: 00 00 00 e5 01 32 00 02 00 00 00 14 00 00 00 fa [.....2..........]
      [snip 20765 bytes]
  ExifByteOrder = MM
  + [IFD0 directory with 14 entries, Big-endian]
  | 0)  Make = NIKON CORPORATION
  |     - Tag 0x010f (17 bytes, string[17]):
  |         00c0: 4e 49 4b 4f 4e 20 43 4f 52 50 4f 52 41 54 49 4f [NIKON CORPORATIO]
  |         00d0: 4e                                              [N]
  | 1)  Model = NIKON D810
  |     - Tag 0x0110 (10 bytes, string[10]):
  |         00d3: 4e 49 4b 4f 4e 20 44 38 31 30                   [NIKON D810]
  | 2)  Orientation = 1
  |     - Tag 0x0112 (2 bytes, int16u[1]):
  |         0036: 00 01                                           [..]
  | 3)  XResolution = 300 (300/1)
  |     - Tag 0x011a (8 bytes, rational64u[1]):
  |         00df: 00 00 01 2c 00 00 00 01                         [...,....]
  | 4)  YResolution = 300 (300/1)
  |     - Tag 0x011b (8 bytes, rational64u[1]):
  |         00e8: 00 00 01 2c 00 00 00 01                         [...,....]
  | 5)  ResolutionUnit = 2
  |     - Tag 0x0128 (2 bytes, int16u[1]):
  |         005a: 00 02                                           [..]
  | 6)  Software = Polarr Photo Editor
  |     - Tag 0x0131 (19 bytes, string[19]):
  |         00f1: 50 6f 6c 61 72 72 20 50 68 6f 74 6f 20 45 64 69 [Polarr Photo Edi]
  |         0101: 74 6f 72                                        [tor]
  | 7)  ModifyDate = 2019:01:04 14:18:04
  |     - Tag 0x0132 (20 bytes, string[20]):
  |         0106: 32 30 31 39 3a 30 31 3a 30 34 20 31 34 3a 31 38 [2019:01:04 14:18]
  |         0116: 3a 30 34 00                                     [:04.]
  | 8)  Artist = 
  |     - Tag 0x013b (1 bytes, string[1]):
  |         007e: 00                                              [.]
  | 9)  YCbCrCoefficients = 0.299 0.587 0.114 (299/1000 587/1000 57/500)
  |     - Tag 0x0211 (24 bytes, rational64u[3]):
  |         011c: 00 00 01 2b 00 00 03 e8 00 00 02 4b 00 00 03 e8 [...+.......K....]
  |         012c: 00 00 00 39 00 00 01 f4                         [...9....]
  | 10) YCbCrPositioning = 2
  |     - Tag 0x0213 (2 bytes, int16u[1]):
  |         0096: 00 02                                           [..]
  | 11) Copyright = 
  |     - Tag 0x8298 (1 bytes, string[1] read as undef[1]):
  |         00a2: 00                                              [.]
  | 12) ExifOffset (SubDirectory) -->
  |     - Tag 0x8769 (4 bytes, int32u[1]):
  |         00ae: 00 00 01 2b                                     [...+]
  | + [ExifIFD directory with 41 entries, Big-endian]
  | | 0)  ExposureTime = 0.005 (1/200)
  | |     - Tag 0x829a (8 bytes, rational64u[1]):
  | |         0327: 00 00 00 01 00 00 00 c8                         [........]
  | | 1)  FNumber = 5.6 (28/5)
  | |     - Tag 0x829d (8 bytes, rational64u[1]):
  | |         0330: 00 00 00 1c 00 00 00 05                         [........]
  | | 2)  ExposureProgram = 1
  | |     - Tag 0x8822 (2 bytes, int16u[1]):
  | |         0159: 00 01                                           [..]
  | | 3)  ISO = 200
  | |     - Tag 0x8827 (2 bytes, int16u[1]):
  | |         0165: 00 c8                                           [..]
  | | 4)  SensitivityType = 2
  | |     - Tag 0x8830 (2 bytes, int16u[1]):
  | |         0171: 00 02                                           [..]
  | | 5)  ExifVersion = 0231
  | |     - Tag 0x9000 (4 bytes, undef[4]):
  | |         017d: 30 32 33 31                                     [0231]
  | | 6)  DateTimeOriginal = 2019:01:04 14:18:04
  | |     - Tag 0x9003 (20 bytes, string[20]):
  | |         0339: 32 30 31 39 3a 30 31 3a 30 34 20 31 34 3a 31 38 [2019:01:04 14:18]
  | |         0349: 3a 30 34 00                                     [:04.]
  | | 7)  CreateDate = 2019:01:04 14:18:04
  | |     - Tag 0x9004 (20 bytes, string[20]):
  | |         034f: 32 30 31 39 3a 30 31 3a 30 34 20 31 34 3a 31 38 [2019:01:04 14:18]
  | |         035f: 3a 30 34 00                                     [:04.]
  | | 8)  ComponentsConfiguration = 1 2 3 0
  | |     - Tag 0x9101 (4 bytes, undef[4] read as int8u[4]):
  | |         01a1: 01 02 03 00                                     [....]
  | | 9)  CompressedBitsPerPixel = 4 (4/1)
  | |     - Tag 0x9102 (8 bytes, rational64u[1]):
  | |         0365: 00 00 00 04 00 00 00 01                         [........]
  | | 10) ExposureCompensation = 0 (0/1)
  | |     - Tag 0x9204 (8 bytes, rational64s[1]):
  | |         036e: 00 00 00 00 00 00 00 01                         [........]
  | | 11) MaxApertureValue = 1 (1/1)
  | |     - Tag 0x9205 (8 bytes, rational64u[1]):
  | |         0377: 00 00 00 01 00 00 00 01                         [........]
  | | 12) MeteringMode = 5
  | |     - Tag 0x9207 (2 bytes, int16u[1]):
  | |         01d1: 00 05                                           [..]
  | | 13) LightSource = 0
  | |     - Tag 0x9208 (2 bytes, int16u[1]):
  | |         01dd: 00 00                                           [..]
  | | 14) Flash = 16
  | |     - Tag 0x9209 (2 bytes, int16u[1]):
  | |         01e9: 00 10                                           [..]
  | | 15) FocalLength = 85 (85/1)
  | |     - Tag 0x920a (8 bytes, rational64u[1]):
  | |         0380: 00 00 00 55 00 00 00 01                         [...U....]
  | | 16) MakerNoteNikon (SubDirectory) -->
  | |     - Tag 0x927c (19876 bytes, undef[19876]):
  | |         0389: 4e 69 6b 6f 6e 00 02 11 00 00 49 49 2a 00 08 00 [Nikon.....II*...]
  | |         0399: 00 00 3b 00 01 00 07 00 04 00 00 00 30 32 31 31 [..;.........0211]
  | |         03a9: 04 00 02 00 08 00 00 00 d2 02 00 00 05 00 02 00 [................]
  | |         03b9: 0d 00 00 00 da 02 00 00 07 00 02 00 07 00 00 00 [................]
  | |         03c9: ea 02 00 00 08 00 02 00 0d 00 00 00 f2 02 00 00 [................]
  | |         03d9: 09 00 02 00 14 00 00 00 02 03 00 00 0b 00 08 00 [................]
  | |         03e9: 02 00 00 00 00 00 00 00 0c 00 05 00 04 00 00 00 [................]
  | |         03f9: 16 03 00 00 0d 00 07 00 04 00 00 00 00 01 06 00 [................]
  | |         0409: 0e 00 07 00 04 00 00 00 ef 01 0c 00 12 00 07 00 [................]
  | |         0419: 04 00 00 00 ee 01 06 00 16 00 03 00 04 00 00 00 [................]
  | |         0429: 36 03 00 00 17 00 07 00 04 00 00 00 00 01 06 00 [6...............]
  | |         0439: 18 00 07 00 04 00 00 00 00 01 06 00 19 00 0a 00 [................]
  | |         0449: 01 00 00 00 56 03 00 00 1b 00 03 00 07 00 00 00 [....V...........]
  | |         0459: 5e 03 00 00 1c 00 07 00 03 00 00 00 00 01 06 00 [^...............]
  | |         0469: 1d 00 02 00 08 00 00 00 6e 03 00 00 1e 00 03 00 [........n.......]
  | |         0479: 01 00 00 00 02 00 00 00 1f 00 07 00 08 00 00 00 [................]
  | |         0489: 76 03 00 00 22 00 03 00 01 00 00 00 07 00 00 00 [v..."...........]
  | |         0499: 23 00 07 00 44 00 00 00 7e 03 00 00 24 00 07 00 [#...D...~...$...]
  | |         04a9: 04 00 00 00 e0 01 00 00 25 00 07 00 0e 00 00 00 [........%.......]
  | |         04b9: c2 03 00 00 2a 00 03 00 01 00 00 00 00 00 00 00 [....*...........]
  | |         04c9: 2b 00 07 00 10 00 00 00 d2 03 00 00 2c 00 07 00 [+...........,...]
  | |         04d9: 3e 02 00 00 e2 03 00 00 35 00 07 00 08 00 00 00 [>.......5.......]
  | |         04e9: 22 06 00 00 3b 00 05 00 04 00 00 00 2a 06 00 00 ["...;.......*...]
  | |         04f9: 3c 00 03 00 01 00 00 00 01 00 00 00 3e 00 03 00 [<...........>...]
  | |         0509: 01 00 00 00 01 00 00 00 3f 00 0a 00 02 00 00 00 [........?.......]
  | |         0519: 4a 06 00 00 40 00 07 00 0c 00 00 00 5a 06 00 00 [J...@.......Z...]
  | |         0529: 41 00 07 00 06 00 00 00 66 06 00 00 42 00 07 00 [A.......f...B...]
  | |         0539: 06 00 00 00 6e 06 00 00 83 00 01 00 01 00 00 00 [....n...........]
  | |         0549: 00 00 00 00 84 00 05 00 04 00 00 00 76 06 00 00 [............v...]
  | |         0559: 87 00 01 00 01 00 00 00 00 00 00 00 89 00 03 00 [................]
  | |         0569: 01 00 00 00 01 00 00 00 8a 00 03 00 01 00 00 00 [................]
  | |         0579: 01 00 00 00 8b 00 07 00 04 00 00 00 54 01 0c 00 [............T...]
  | |         0589: 91 00 07 00 d4 40 00 00 96 06 00 00 95 00 02 00 [.....@..........]
  | |         0599: 05 00 00 00 6a 47 00 00 97 00 07 00 c8 04 00 00 [....jG..........]
  | |         05a9: 72 47 00 00 98 00 07 00 21 00 00 00 3a 4c 00 00 [rG......!...:L..]
  | |         05b9: 9e 00 03 00 0a 00 00 00 5e 4c 00 00 a2 00 04 00 [........^L......]
  | |         05c9: 01 00 00 00 0c a9 34 01 a3 00 01 00 01 00 00 00 [......4.........]
  | |         05d9: 00 00 00 00 a7 00 04 00 01 00 00 00 7d da 00 00 [............}...]
  | |         05e9: a8 00 07 00 33 00 00 00 72 4c 00 00 b0 00 07 00 [....3...rL......]
  | |         05f9: 10 00 00 00 a6 4c 00 00 b1 00 03 00 01 00 00 00 [.....L..........]
  | |         0609: 06 00 00 00 b6 00 07 00 08 00 00 00 b6 4c 00 00 [.............L..]
  | |         0619: b7 00 07 00 1e 00 00 00 be 4c 00 00 b8 00 07 00 [.........L......]
  | |         0629: ac 00 00 00 de 4c 00 00 b9 00 07 00 04 00 00 00 [.....L..........]
  | |         0639: 00 ff 00 00 bb 00 07 00 08 00 00 00 8a 4d 00 00 [.............M..]
  | |         0649: bf 00 03 00 01 00 00 00 00 00 00 00 c0 00 07 00 [................]
  | |         0659: 08 00 00 00 92 4d 00 00 00 00 00 00 46 49 4e 45 [.....M......FINE]
  | |         0669: 20 20 20 00 41 55 54 4f 32 20 20 20 20 20 20 20 [   .AUTO2       ]
  | |         0679: 00 00 00 00 4d 41 4e 55 41 4c 00 00 20 20 20 20 [....MANUAL..    ]
  | |         0689: 20 20 20 20 20 20 20 20 00 00 00 00 20 20 20 20 [        ....    ]
  | |         0699: 20 20 20 20 20 20 20 20 20 20 20 20 20 20 20 00 [               .]
  | |         06a9: f1 01 00 00 00 01 00 00 7c 01 00 00 00 01 00 00 [........|.......]
  | |         06b9: 00 01 00 00 00 01 00 00 00 01 00 00 00 01 00 00 [................]
  | |         06c9: 00 00 00 00 c0 1c 30 13 00 00 00 00 00 00 00 00 [......0.........]
  | |         06d9: 00 00 00 00 00 00 00 00 00 00 00 00 00 00 00 00 [................]
  | |         06e9: 00 00 00 00 06 00 00 00 0b 00 d8 1c 40 13 d4 1c [............@...]
  | |         06f9: 40 13 00 00 00 00 00 00 38 35 30 38 31 39 30 00 [@.......8508190.]
  | |         0709: 30 31 30 30 02 02 00 00 30 32 30 30 53 54 41 4e [0100....0200STAN]
  | |         0719: 44 41 52 44 00 00 00 00 00 00 00 00 00 00 00 00 [DARD............]
  | |         0729: 53 54 41 4e 44 41 52 44 00 00 00 00 00 00 00 00 [STANDARD........]
  | |         0739: 00 00 00 00 01 00 00 00 02 80 01 90 04 84 04 80 [................]
  | |         0749: 04 80 04 80 04 74 04 ff ff ff 04 00 48 01 0c 00 [.....t......H...]
  | |         0759: 00 00 48 01 0c 00 00 00 00 00 00 00 30 31 30 30 [..H.........0100]
  | |         0769: 00 00 02 05 00 00 00 00 00 00 00 00 30 31 30 31 [............0101]
  | |         0779: 23 00 80 02 aa 01 00 00 00 00 00 00 00 00 00 00 [#...............]
  | |         0789: 00 00 00 00 00 00 00 00 00 00 00 00 00 00 00 00 [................]
  | |         0799: 00 00 00 00 00 00 00 00 00 00 00 00 00 00 00 00 [................]
  | |         07a9: 00 00 00 00 00 00 00 00 00 00 00 00 00 00 00 00 [................]
  | |         07b9: 00 00 00 00 00 00 00 00 00 00 00 00 00 00 00 00 [................]
  | |         07c9: 00 00 00 00 00 00 00 00 00 00 00 00 00 00 00 00 [................]
  | |         07d9: 00 00 00 00 00 00 00 00 00 00 00 00 00 00 00 00 [................]
  | |         07e9: 00 00 00 00 00 00 00 00 00 00 00 00 00 00 00 00 [................]
  | |         07f9: 00 00 00 00 00 00 00 00 00 00 00 00 00 00 00 00 [................]
  | |         0809: 00 00 00 00 00 00 00 00 00 00 00 00 00 00 00 00 [................]
  | |         0819: 00 00 00 00 00 00 00 00 00 00 00 00 00 00 00 00 [................]
  | |         0829: 00 00 00 00 00 00 00 00 00 00 00 00 00 00 00 00 [................]
  | |         0839: 00 00 00 00 00 00 00 00 00 00 00 00 00 00 00 00 [................]
  | |         0849: 00 00 00 00 00 00 00 00 00 00 00 00 00 00 00 00 [................]
  | |         0859: 00 00 00 00 00 00 00 00 00 00 00 00 00 00 00 00 [................]
  | |         0869: 00 00 00 00 00 00 00 00 00 00 00 00 00 00 00 00 [................]
  | |         0879: 00 00 00 00 00 00 00 00 00 00 00 00 00 00 00 00 [................]
  | |         0889: 00 00 00 00 00 00 00 00 00 00 00 00 00 00 00 00 [................]
  | |         0899: 00 00 00 00 00 00 00 00 00 00 00 00 00 00 00 00 [................]
  | |         08a9: 00 00 00 00 00 00 00 00 00 00 00 00 00 00 00 00 [................]
  | |         08b9: 00 00 00 00 00 00 00 00 00 00 00 00 00 00 00 00 [................]
  | |         08c9: 00 00 00 00 00 00 00 00 00 00 00 00 00 00 00 00 [................]
  | |         08d9: 00 00 00 00 00 00 00 00 00 00 00 00 00 00 00 00 [................]
  | |         08e9: 00 00 00 00 00 00 00 00 00 00 00 00 00 00 00 00 [................]
  | |         08f9: 00 00 00 00 00 00 00 00 00 00 00 00 00 00 00 00 [................]
  | |         0909: 00 00 00 00 00 00 00 00 00 00 00 00 00 00 00 00 [................]
  | |         0919: 00 00 00 00 00 00 00 00 00 00 00 00 00 00 00 00 [................]
  | |         0929: 00 00 00 00 00 00 00 00 00 00 00 00 00 00 00 00 [................]
  | |         0939: 00 00 00 00 00 00 00 00 00 00 00 00 00 00 00 00 [................]
  | |         0949: 00 00 00 00 00 00 00 00 00 00 00 00 00 00 00 00 [................]
  | |         0959: 00 00 00 00 00 00 00 00 00 00 00 00 00 00 00 00 [................]
  | |         0969: 00 00 00 00 00 00 00 00 00 00 00 00 00 00 00 00 [................]
  | |         0979: 00 00 00 00 00 00 00 00 00 00 00 00 00 00 00 00 [................]
  | |         0989: 00 00 00 00 00 00 00 00 00 00 00 00 00 00 00 00 [................]
  | |         0999: 00 00 00 00 00 00 00 00 00 00 00 00 00 00 00 00 [................]
  | |         09a9: 00 00 00 00 00 00 00 00 00 00 00 00 30 31 30 30 [............0100]
  | |         09b9: 00 00 00 ff 00 01 00 00 00 01 00 00 00 01 00 00 [................]
  | |         09c9: 00 01 00 00 00 01 00 00 00 01 00 00 00 01 00 00 [................]
  | |         09d9: 00 01 00 00 00 00 00 00 04 00 00 00 00 00 00 00 [................]
  | |         09e9: 04 00 00 00 30 31 30 30 01 00 43 00 30 31 31 32 [....0100..C.0112]
  | |         09f9: 30 31 30 30 00 01 00 00 30 31 30 30 03 00 00 00 [0100....0100....]
  | |         0a09: 52 03 00 00 0a 00 00 00 52 03 00 00 0a 00 00 00 [R.......R.......]
  | |         0a19: 0e 00 00 00 0a 00 00 00 0e 00 00 00 0a 00 00 00 [................]
  | |         0a29: 30 32 33 33 34 42 ab be 2f ce 18 29 20 a0 06 33 [02334B../..) ..3]
  | |         0a39: b3 e2 64 ad 29 93 32 97 d7 be 70 f1 39 48 1e bb [..d.).2...p.9H..]
  | |         0a49: 0b 5d 3c f5 32 ab ca 9f 59 89 c8 b9 0b e7 36 43 [.]<.2...Y.....6C]
  | |         0a59: 98 a5 14 3d 02 fc 62 a7 4b 9e 20 81 8d 81 4e cb [...=..b.K. ...N.]
  | |         0a69: 44 03 ec 85 6c 15 fa af b6 77 78 49 44 59 66 53 [D...l....wxIDYfS]
  | |         0a79: ac 9b c4 cd 55 2d 92 b7 67 4c d0 11 19 e8 7e db [....U-..gL....~.]
  | |         0a89: 37 f0 9c 15 1d 7c 2a bf 1b 3e 28 d9 51 90 96 63 [7....|*..>(.Q..c]
  | |         0a99: 9f 69 74 5d 95 bf c2 c7 3b 1d 80 a1 61 03 ae eb [.it]....;...a...]
  | |         0aa9: ef ba 4c a5 8d 90 5a cf 0b 0e d8 69 15 dc c6 73 [..L...Z....i...s]
  | |         0ab9: e7 22 24 ed 70 00 f9 af 9f 41 f1 12 81 88 66 fb [."$.p....A....f.]
  | |         0ac9: 4f 8a b0 34 32 fc 8a df fb de 89 f8 31 b0 bd c2 [O..42.......1...]
  | |         0ad9: cc 0d 4e 82 22 db 1c a7 80 39 f1 c1 0a 27 82 4b [..N."....9...'.K]
  | |         0ae9: 73 64 4d c5 c6 4c 8a ef 28 91 35 89 51 7f bc 93 [sdM..L..(.5.Q...]
  | |         0af9: b1 fd 84 0d 41 c3 93 d4 bf 95 c1 50 3b 2a a6 1b [....A......P;*..]
  | |         0b09: 3c 28 33 55 8e 9e 59 fd db 7e 33 05 c0 df 3e b1 [<(3U..Y..~3...>.]
  | |         0b19: 7f 95 11 94 40 cf ec 13 cc 6b dc e4 cc 72 ab 39 [....@....k...r.9]
  | |         0b29: 49 e9 da f4 0c e0 80 0a a5 48 ce b8 dc 2f 2a bf [I........H.../*.]
  | |         0b39: f1 68 bc 21 a5 1e 84 00 32 29 15 63 6e db d6 21 [.h.!....2).cn..!]
  | |         0b49: d4 d2 ff 64 ea 28 5c 13 65 1f 48 37 bd 7e 2c d1 [...d.(\.e.H7.~,.]
  | |         0b59: f9 35 47 b5 31 6d 83 38 e0 2a 9b 18 87 0b 5e 5b [.5G.1m.8.*....^[]
  | |         0b69: b5 94 22 0d a1 89 50 22 a6 e8 b2 cf b7 cc d0 de [.."...P"........]
  | |         [snip 17844 bytes]
  | | | MakerNoteByteOrder = II
  | | + [MakerNotes directory with 59 entries, Little-endian]
  | | | 0)  MakerNoteVersion = 0211
  | | |     - Tag 0x0001 (4 bytes, undef[4]):
  | | |         03a5: 30 32 31 31                                     [0211]
  | | | 1)  Quality = FINE   
  | | |     - Tag 0x0004 (8 bytes, string[8]):
  | | |         0665: 46 49 4e 45 20 20 20 00                         [FINE   .]
  | | | 2)  WhiteBalance = AUTO2       
  | | |     - Tag 0x0005 (13 bytes, string[13]):
  | | |         066d: 41 55 54 4f 32 20 20 20 20 20 20 20 00          [AUTO2       .]
  | | | 3)  FocusMode = MANUAL
  | | |     - Tag 0x0007 (7 bytes, string[7]):
  | | |         067d: 4d 41 4e 55 41 4c 00                            [MANUAL.]
  | | | 4)  FlashSetting =             
  | | |     - Tag 0x0008 (13 bytes, string[13]):
  | | |         0685: 20 20 20 20 20 20 20 20 20 20 20 20 00          [            .]
  | | | 5)  FlashType =                    
  | | |     - Tag 0x0009 (20 bytes, string[20]):
  | | |         0695: 20 20 20 20 20 20 20 20 20 20 20 20 20 20 20 20 [                ]
  | | |         06a5: 20 20 20 00                                     [   .]
  | | | 6)  WhiteBalanceFineTune = 0 0
  | | |     - Tag 0x000b (4 bytes, int16s[2]):
  | | |         03ed: 00 00 00 00                                     [....]
  | | | 7)  WB_RBLevels = 1.94140625 1.484375 1 1 (497/256 380/256 256/256 256/256)
  | | |     - Tag 0x000c (32 bytes, rational64u[4]):
  | | |         06a9: f1 01 00 00 00 01 00 00 7c 01 00 00 00 01 00 00 [........|.......]
  | | |         06b9: 00 01 00 00 00 01 00 00 00 01 00 00 00 01 00 00 [................]
  | | | 8)  ProgramShift = ..
  | | |     - Tag 0x000d (4 bytes, undef[4]):
  | | |         0405: 00 01 06 00                                     [....]
  | | | 9)  ExposureDifference = ...
  | | |     - Tag 0x000e (4 bytes, undef[4]):
  | | |         0411: ef 01 0c 00                                     [....]
  | | | 10) FlashExposureComp = ...
  | | |     - Tag 0x0012 (4 bytes, undef[4]):
  | | |         041d: ee 01 06 00                                     [....]
  | | | 11) ImageBoundary = 0 0 7360 4912
  | | |     - Tag 0x0016 (8 bytes, int16u[4]):
  | | |         06c9: 00 00 00 00 c0 1c 30 13                         [......0.]
  | | | 12) ExternalFlashExposureComp = ..
  | | |     - Tag 0x0017 (4 bytes, undef[4]):
  | | |         0435: 00 01 06 00                                     [....]
  | | | 13) FlashExposureBracketValue = ..
  | | |     - Tag 0x0018 (4 bytes, undef[4]):
  | | |         0441: 00 01 06 00                                     [....]
  | | | 14) ExposureBracketValue = 0 (0/6)
  | | |     - Tag 0x0019 (8 bytes, rational64s[1]):
  | | |         06e9: 00 00 00 00 06 00 00 00                         [........]
  | | | 15) CropHiSpeed = 11 7384 4928 7380 4928 0 0
  | | |     - Tag 0x001b (14 bytes, int16u[7]):
  | | |         06f1: 0b 00 d8 1c 40 13 d4 1c 40 13 00 00 00 00       [....@...@.....]
  | | | 16) ExposureTuning = ..
  | | |     - Tag 0x001c (3 bytes, undef[3]):
  | | |         0465: 00 01 06                                        [...]
  | | | 17) SerialNumber = 8508190
  | | |     - Tag 0x001d (8 bytes, string[8]):
  | | |         0701: 38 35 30 38 31 39 30 00                         [8508190.]
  | | | 18) ColorSpace = 2
  | | |     - Tag 0x001e (2 bytes, int16u[1]):
  | | |         047d: 02 00                                           [..]
  | | | 19) VRInfo (SubDirectory) -->
  | | |     - Tag 0x001f (8 bytes, undef[8]):
  | | |         0709: 30 31 30 30 02 02 00 00                         [0100....]
  | | | + [BinaryData directory, 8 bytes, Little-endian]
  | | | | VRInfoVersion = 0100
  | | | | - Tag 0x0000 (4 bytes, undef[4]):
  | | | |     0709: 30 31 30 30                                     [0100]
  | | | | VibrationReduction = 2
  | | | | - Tag 0x0004 (1 bytes, int8u[1]):
  | | | |     070d: 02                                              [.]
  | | | | VRMode = 0
  | | | | - Tag 0x0006 (1 bytes, int8u[1]):
  | | | |     070f: 00                                              [.]
  | | | 20) ActiveD-Lighting = 7
  | | |     - Tag 0x0022 (2 bytes, int16u[1]):
  | | |         0495: 07 00                                           [..]
  | | | 21) PictureControlData (SubDirectory) -->
  | | |     - Tag 0x0023 (68 bytes, undef[68]):
  | | |         0711: 30 32 30 30 53 54 41 4e 44 41 52 44 00 00 00 00 [0200STANDARD....]
  | | |         0721: 00 00 00 00 00 00 00 00 53 54 41 4e 44 41 52 44 [........STANDARD]
  | | |         0731: 00 00 00 00 00 00 00 00 00 00 00 00 01 00 00 00 [................]
  | | |         0741: 02 80 01 90 04 84 04 80 04 80 04 80 04 74 04 ff [.............t..]
  | | |         0751: ff ff 04 00                                     [....]
  | | | + [BinaryData directory, 68 bytes, Little-endian]
  | | | | PictureControlVersion = 0200
  | | | | - Tag 0x0000 (4 bytes, undef[4]):
  | | | |     0711: 30 32 30 30                                     [0200]
  | | | | PictureControlName = STANDARD
  | | | | - Tag 0x0004 (20 bytes, string[20]):
  | | | |     0715: 53 54 41 4e 44 41 52 44 00 00 00 00 00 00 00 00 [STANDARD........]
  | | | |     0725: 00 00 00 00                                     [....]
  | | | | PictureControlBase = STANDARD
  | | | | - Tag 0x0018 (20 bytes, string[20]):
  | | | |     0729: 53 54 41 4e 44 41 52 44 00 00 00 00 00 00 00 00 [STANDARD........]
  | | | |     0739: 00 00 00 00                                     [....]
  | | | | PictureControlAdjust = 2
  | | | | - Tag 0x0030 (1 bytes, int8u[1]):
  | | | |     0741: 02                                              [.]
  | | | | PictureControlQuickAdjust = 128
  | | | | - Tag 0x0031 (1 bytes, int8u[1]):
  | | | |     0742: 80                                              [.]
  | | | | Sharpness = 144
  | | | | - Tag 0x0033 (1 bytes, int8u[1]):
  | | | |     0744: 90                                              [.]
  | | | | Clarity = 132
  | | | | - Tag 0x0035 (1 bytes, int8u[1]):
  | | | |     0746: 84                                              [.]
  | | | | Contrast = 128
  | | | | - Tag 0x0037 (1 bytes, int8u[1]):
  | | | |     0748: 80                                              [.]
  | | | | Brightness = 128
  | | | | - Tag 0x0039 (1 bytes, int8u[1]):
  | | | |     074a: 80                                              [.]
  | | | | Saturation = 128
  | | | | - Tag 0x003b (1 bytes, int8u[1]):
  | | | |     074c: 80                                              [.]
  | | | | Hue = 116
  | | | | - Tag 0x003d (1 bytes, int8u[1]):
  | | | |     074e: 74                                              [t]
  | | | | FilterEffect = 255
  | | | | - Tag 0x003f (1 bytes, int8u[1]):
  | | | |     0750: ff                                              [.]
  | | | | ToningEffect = 255
  | | | | - Tag 0x0040 (1 bytes, int8u[1]):
  | | | |     0751: ff                                              [.]
  | | | | ToningSaturation = 255
  | | | | - Tag 0x0041 (1 bytes, int8u[1]):
  | | | |     0752: ff                                              [.]
  | | | 22) WorldTime (SubDirectory) -->
  | | |     - Tag 0x0024 (4 bytes, undef[4]):
  | | |         04ad: e0 01 00 00                                     [....]
  | | | + [BinaryData directory, 4 bytes, Little-endian]
  | | | | TimeZone = 480
  | | | | - Tag 0x0000 (2 bytes, int16s[1]):
  | | | |     04ad: e0 01                                           [..]
  | | | | DaylightSavings = 0
  | | | | - Tag 0x0002 (1 bytes, int8u[1]):
  | | | |     04af: 00                                              [.]
  | | | | DateDisplayFormat = 0
  | | | | - Tag 0x0003 (1 bytes, int8u[1]):
  | | | |     04b0: 00                                              [.]
  | | | 23) ISOInfo (SubDirectory) -->
  | | |     - Tag 0x0025 (14 bytes, undef[14]):
  | | |         0755: 48 01 0c 00 00 00 48 01 0c 00 00 00 00 00       [H.....H.......]
  | | | + [BinaryData directory, 14 bytes, Big-endian]
  | | | | ISO = 72
  | | | | - Tag 0x0000 (1 bytes, int8u[1]):
  | | | |     0755: 48                                              [H]
  | | | | ISOExpansion = 0
  | | | | - Tag 0x0004 (2 bytes, int16u[1]):
  | | | |     0759: 00 00                                           [..]
  | | | | ISO2 = 72
  | | | | - Tag 0x0006 (1 bytes, int8u[1]):
  | | | |     075b: 48                                              [H]
  | | | | ISOExpansion2 = 0
  | | | | - Tag 0x000a (2 bytes, int16u[1]):
  | | | |     075f: 00 00                                           [..]
  | | | 24) VignetteControl = 0
  | | |     - Tag 0x002a (2 bytes, int16u[1]):
  | | |         04c5: 00 00                                           [..]
  | | | 25) DistortInfo (SubDirectory) -->
  | | |     - Tag 0x002b (16 bytes, undef[16]):
  | | |         0765: 30 31 30 30 00 00 02 05 00 00 00 00 00 00 00 00 [0100............]
  | | | + [BinaryData directory, 16 bytes, Little-endian]
  | | | | DistortionVersion = 0100
  | | | | - Tag 0x0000 (4 bytes, undef[4]):
  | | | |     0765: 30 31 30 30                                     [0100]
  | | | | AutoDistortionControl = 0
  | | | | - Tag 0x0004 (1 bytes, int8u[1]):
  | | | |     0769: 00                                              [.]
  | | | 26) UnknownInfo (SubDirectory) -->
  | | |     - Tag 0x002c (574 bytes, undef[574]):
  | | |         0775: 30 31 30 31 23 00 80 02 aa 01 00 00 00 00 00 00 [0101#...........]
  | | |         0785: 00 00 00 00 00 00 00 00 00 00 00 00 00 00 00 00 [................]
  | | |         0795: 00 00 00 00 00 00 00 00 00 00 00 00 00 00 00 00 [................]
  | | |         07a5: 00 00 00 00 00 00 00 00 00 00 00 00 00 00 00 00 [................]
  | | |         07b5: 00 00 00 00 00 00 00 00 00 00 00 00 00 00 00 00 [................]
  | | |         07c5: 00 00 00 00 00 00 00 00 00 00 00 00 00 00 00 00 [................]
  | | |         07d5: 00 00 00 00 00 00 00 00 00 00 00 00 00 00 00 00 [................]
  | | |         07e5: 00 00 00 00 00 00 00 00 00 00 00 00 00 00 00 00 [................]
  | | |         07f5: 00 00 00 00 00 00 00 00 00 00 00 00 00 00 00 00 [................]
  | | |         0805: 00 00 00 00 00 00 00 00 00 00 00 00 00 00 00 00 [................]
  | | |         0815: 00 00 00 00 00 00 00 00 00 00 00 00 00 00 00 00 [................]
  | | |         0825: 00 00 00 00 00 00 00 00 00 00 00 00 00 00 00 00 [................]
  | | |         0835: 00 00 00 00 00 00 00 00 00 00 00 00 00 00 00 00 [................]
  | | |         0845: 00 00 00 00 00 00 00 00 00 00 00 00 00 00 00 00 [................]
  | | |         0855: 00 00 00 00 00 00 00 00 00 00 00 00 00 00 00 00 [................]
  | | |         0865: 00 00 00 00 00 00 00 00 00 00 00 00 00 00 00 00 [................]
  | | |         0875: 00 00 00 00 00 00 00 00 00 00 00 00 00 00 00 00 [................]
  | | |         0885: 00 00 00 00 00 00 00 00 00 00 00 00 00 00 00 00 [................]
  | | |         0895: 00 00 00 00 00 00 00 00 00 00 00 00 00 00 00 00 [................]
  | | |         08a5: 00 00 00 00 00 00 00 00 00 00 00 00 00 00 00 00 [................]
  | | |         08b5: 00 00 00 00 00 00 00 00 00 00 00 00 00 00 00 00 [................]
  | | |         08c5: 00 00 00 00 00 00 00 00 00 00 00 00 00 00 00 00 [................]
  | | |         08d5: 00 00 00 00 00 00 00 00 00 00 00 00 00 00 00 00 [................]
  | | |         08e5: 00 00 00 00 00 00 00 00 00 00 00 00 00 00 00 00 [................]
  | | |         08f5: 00 00 00 00 00 00 00 00 00 00 00 00 00 00 00 00 [................]
  | | |         0905: 00 00 00 00 00 00 00 00 00 00 00 00 00 00 00 00 [................]
  | | |         0915: 00 00 00 00 00 00 00 00 00 00 00 00 00 00 00 00 [................]
  | | |         0925: 00 00 00 00 00 00 00 00 00 00 00 00 00 00 00 00 [................]
  | | |         0935: 00 00 00 00 00 00 00 00 00 00 00 00 00 00 00 00 [................]
  | | |         0945: 00 00 00 00 00 00 00 00 00 00 00 00 00 00 00 00 [................]
  | | |         0955: 00 00 00 00 00 00 00 00 00 00 00 00 00 00 00 00 [................]
  | | |         0965: 00 00 00 00 00 00 00 00 00 00 00 00 00 00 00 00 [................]
  | | |         0975: 00 00 00 00 00 00 00 00 00 00 00 00 00 00 00 00 [................]
  | | |         0985: 00 00 00 00 00 00 00 00 00 00 00 00 00 00 00 00 [................]
  | | |         0995: 00 00 00 00 00 00 00 00 00 00 00 00 00 00 00 00 [................]
  | | |         09a5: 00 00 00 00 00 00 00 00 00 00 00 00 00 00       [..............]
  | | | + [BinaryData directory, 574 bytes, Big-endian]
  | | | | UnknownInfoVersion = 0101
  | | | | - Tag 0x0000 (4 bytes, undef[4]):
  | | | |     0775: 30 31 30 31                                     [0101]
  | | | 27) HDRInfo (SubDirectory) -->
  | | |     - Tag 0x0035 (8 bytes, undef[8]):
  | | |         09b5: 30 31 30 30 00 00 00 ff                         [0100....]
  | | | + [BinaryData directory, 8 bytes, Little-endian]
  | | | | HDRInfoVersion = 0100
  | | | | - Tag 0x0000 (4 bytes, string[4]):
  | | | |     09b5: 30 31 30 30                                     [0100]
  | | | | HDR = 0
  | | | | - Tag 0x0004 (1 bytes, int8u[1]):
  | | | |     09b9: 00                                              [.]
  | | | | HDRLevel = 0
  | | | | - Tag 0x0005 (1 bytes, int8u[1]):
  | | | |     09ba: 00                                              [.]
  | | | | HDRSmoothing = 0
  | | | | - Tag 0x0006 (1 bytes, int8u[1]):
  | | | |     09bb: 00                                              [.]
  | | | | HDRLevel2 = 255
  | | | | - Tag 0x0007 (1 bytes, int8u[1]):
  | | | |     09bc: ff                                              [.]
  | | | 28) Nikon_0x003b = 1 1 1 1 (256/256 256/256 256/256 256/256)
  | | |     - Tag 0x003b (32 bytes, rational64u[4]):
  | | |         09bd: 00 01 00 00 00 01 00 00 00 01 00 00 00 01 00 00 [................]
  | | |         09cd: 00 01 00 00 00 01 00 00 00 01 00 00 00 01 00 00 [................]
  | | | 29) Nikon_0x003c = 1
  | | |     - Tag 0x003c (2 bytes, int16u[1]):
  | | |         0501: 01 00                                           [..]
  | | | 30) ImageSizeRAW = 1
  | | |     - Tag 0x003e (2 bytes, int16u[1]):
  | | |         050d: 01 00                                           [..]
  | | | 31) WhiteBalanceFineTune = 0 0 (0/4 0/4)
  | | |     - Tag 0x003f (16 bytes, rational64s[2]):
  | | |         09dd: 00 00 00 00 04 00 00 00 00 00 00 00 04 00 00 00 [................]
  | | | 32) Nikon_0x0040 = 0100.C0112
  | | |     - Tag 0x0040 (12 bytes, undef[12]):
  | | |         09ed: 30 31 30 30 01 00 43 00 30 31 31 32             [0100..C.0112]
  | | | 33) Nikon_0x0041 = 0100.
  | | |     - Tag 0x0041 (6 bytes, undef[6]):
  | | |         09f9: 30 31 30 30 00 01                               [0100..]
  | | | 34) Nikon_0x0042 = 0100.
  | | |     - Tag 0x0042 (6 bytes, undef[6]):
  | | |         0a01: 30 31 30 30 03 00                               [0100..]
  | | | 35) LensType = 0
  | | |     - Tag 0x0083 (1 bytes, int8u[1]):
  | | |         0549: 00                                              [.]
  | | | 36) Lens = 85 85 1.4 1.4 (850/10 850/10 14/10 14/10)
  | | |     - Tag 0x0084 (32 bytes, rational64u[4]):
  | | |         0a09: 52 03 00 00 0a 00 00 00 52 03 00 00 0a 00 00 00 [R.......R.......]
  | | |         0a19: 0e 00 00 00 0a 00 00 00 0e 00 00 00 0a 00 00 00 [................]
  | | | 37) FlashMode = 0
  | | |     - Tag 0x0087 (1 bytes, int8u[1]):
  | | |         0561: 00                                              [.]
  | | | 38) ShootingMode = 1
  | | |     - Tag 0x0089 (2 bytes, int16u[1]):
  | | |         056d: 01 00                                           [..]
  | | | 39) Nikon_0x008a = 1
  | | |     - Tag 0x008a (2 bytes, int16u[1]):
  | | |         0579: 01 00                                           [..]
  | | | 40) LensFStops = T..
  | | |     - Tag 0x008b (4 bytes, undef[4]):
  | | |         0585: 54 01 0c 00                                     [T...]
  | | | 41) ShotInfoD810 (SubDirectory) -->
  | | |     - Tag 0x0091 (16596 bytes, undef[16596]):
  | | |         0a29: 30 32 33 33 34 42 ab be 2f ce 18 29 20 a0 06 33 [02334B../..) ..3]
  | | |         0a39: b3 e2 64 ad 29 93 32 97 d7 be 70 f1 39 48 1e bb [..d.).2...p.9H..]
  | | |         0a49: 0b 5d 3c f5 32 ab ca 9f 59 89 c8 b9 0b e7 36 43 [.]<.2...Y.....6C]
  | | |         0a59: 98 a5 14 3d 02 fc 62 a7 4b 9e 20 81 8d 81 4e cb [...=..b.K. ...N.]
  | | |         0a69: 44 03 ec 85 6c 15 fa af b6 77 78 49 44 59 66 53 [D...l....wxIDYfS]
  | | |         0a79: ac 9b c4 cd 55 2d 92 b7 67 4c d0 11 19 e8 7e db [....U-..gL....~.]
  | | |         0a89: 37 f0 9c 15 1d 7c 2a bf 1b 3e 28 d9 51 90 96 63 [7....|*..>(.Q..c]
  | | |         0a99: 9f 69 74 5d 95 bf c2 c7 3b 1d 80 a1 61 03 ae eb [.it]....;...a...]
  | | |         0aa9: ef ba 4c a5 8d 90 5a cf 0b 0e d8 69 15 dc c6 73 [..L...Z....i...s]
  | | |         0ab9: e7 22 24 ed 70 00 f9 af 9f 41 f1 12 81 88 66 fb [."$.p....A....f.]
  | | |         0ac9: 4f 8a b0 34 32 fc 8a df fb de 89 f8 31 b0 bd c2 [O..42.......1...]
  | | |         0ad9: cc 0d 4e 82 22 db 1c a7 80 39 f1 c1 0a 27 82 4b [..N."....9...'.K]
  | | |         0ae9: 73 64 4d c5 c6 4c 8a ef 28 91 35 89 51 7f bc 93 [sdM..L..(.5.Q...]
  | | |         0af9: b1 fd 84 0d 41 c3 93 d4 bf 95 c1 50 3b 2a a6 1b [....A......P;*..]
  | | |         0b09: 3c 28 33 55 8e 9e 59 fd db 7e 33 05 c0 df 3e b1 [<(3U..Y..~3...>.]
  | | |         0b19: 7f 95 11 94 40 cf ec 13 cc 6b dc e4 cc 72 ab 39 [....@....k...r.9]
  | | |         0b29: 49 e9 da f4 0c e0 80 0a a5 48 ce b8 dc 2f 2a bf [I........H.../*.]
  | | |         0b39: f1 68 bc 21 a5 1e 84 00 32 29 15 63 6e db d6 21 [.h.!....2).cn..!]
  | | |         0b49: d4 d2 ff 64 ea 28 5c 13 65 1f 48 37 bd 7e 2c d1 [...d.(\.e.H7.~,.]
  | | |         0b59: f9 35 47 b5 31 6d 83 38 e0 2a 9b 18 87 0b 5e 5b [.5G.1m.8.*....^[]
  | | |         0b69: b5 94 22 0d a1 89 50 22 a6 e8 b2 cf b7 cc d0 de [.."...P"........]
  | | |         0b79: 20 05 4f 4a 4a bc 69 20 65 f9 5c 8b e3 66 0d 5c [ .OJJ.i e.\..f.\]
  | | |         0b89: 7a 6c 7b 97 92 de c1 35 1c b2 72 53 29 1d 15 ef [zl{....5..rS)...]
  | | |         0b99: 36 d4 2d d8 88 0c fb 50 51 b4 f2 3a 2f b6 ae 6e [6.-....PQ..:/..n]
  | | |         0ba9: 87 3f 65 22 82 2d 6a 49 3a 8d 36 e6 ca 6e 1e fd [.?e".-jI:.6..n..]
  | | |         0bb9: 3e ab db 64 0c 5d bc 59 b9 5e 15 9c 01 13 6b 7c [>..d.].Y.^....k|]
  | | |         0bc9: 3d 03 db ba a8 79 f7 5e e9 5f c9 72 95 be 95 0c [=....y.^._.r....]
  | | |         0bd9: 6a 60 2e ee d3 b9 0a 7d df 65 ba 6a 48 42 e5 80 [j`.....}.e.jHB..]
  | | |         0be9: d0 d6 14 4f 08 c7 08 65 93 2f b5 04 35 18 a2 05 [...O...e./..5...]
  | | |         0bf9: 46 4c 02 9a 6d e2 73 52 0c 06 b2 d5 f5 b2 53 9f [FL..m.sR......S.]
  | | |         0c09: 87 ae 88 d7 18 1d f0 7c bb ff dc 9c eb 4c da 38 [.......|.....L.8]
  | | |         0c19: d0 03 d6 12 ef 54 e0 a6 2e f5 10 60 57 fc 0d ae [.....T.....`W...]
  | | |         0c29: 21 7f d5 64 45 6d 37 8e 4b c3 e6 2f 0a b5 b4 23 [!..dEm7.K../...#]
  | | |         0c39: a1 ed be a3 a9 9b 23 8d 43 a5 b8 f0 fa 4a 50 bf [......#.C....JP.]
  | | |         0c49: 40 4e 90 f0 96 b5 50 9b b9 9c 29 bb 14 fc d4 4b [@N....P...)....K]
  | | |         0c59: d5 b8 81 33 aa ea 97 bb 05 a6 a7 93 c7 94 48 cd [...3..........H.]
  | | |         0c69: 5e 12 76 8f 49 01 24 aa 3e 6c 4c 4d 83 49 e3 54 [^.v.I.$.>lLM.I.T]
  | | |         0c79: 97 88 63 c0 32 39 75 a8 89 71 26 32 a7 e5 59 d5 [..c.29u..q&2..Y.]
  | | |         0c89: 6d e4 c8 1d 3c 58 15 b9 30 3c 9c dc 50 9e 96 63 [m...<X..0<..P..c]
  | | |         0c99: 95 52 74 5d 0d 84 c2 c7 93 26 80 a1 89 38 ae eb [.Rt].....&...8..]
  | | |         0ca9: ef ba 4c a5 c5 ac 5a cf 0b 0e d8 69 c1 e0 c6 73 [..L...Z....i...s]
  | | |         0cb9: e7 22 24 ed 7d d4 f2 d7 83 f6 30 31 f9 88 de fb [."$.}.....01....]
  | | |         0cc9: df 8a fc 35 35 fc 8a df fb de 88 f9 31 30 f6 83 [...55.......10..]
  | | |         0cd9: d7 f2 d4 7d ed 24 22 e7 73 c6 e0 c1 69 d8 0e 0b [...}.$".s...i...]
  | | |         0ce9: cf 5a ac c5 a5 4c ba ef eb ae 38 89 a1 80 26 93 [.Z...L....8...&.]
  | | |         0cf9: c7 c2 84 0d 5d 74 52 f7 63 96 90 51 d9 28 3e 1b [....]tR.c..Q.(>.]
  | | |         0d09: bf 2a 5c 55 15 9c ea ff db 7e e8 19 11 d0 56 a3 [.*\U.....~....V.]
  | | |         0d19: b7 92 34 9d cd c4 82 07 53 66 40 e1 49 78 6e 2b [..4.....Sf@.Ixn+]
  | | |         0d29: af fa 0c e5 85 ec 1a 0f cb 4e 98 a9 81 20 86 b3 [.........N... ..]
  | | |         0d39: a7 62 e4 2d 3d 14 b2 17 43 36 f0 71 bb 7f 5f 18 [.b.-=...C6.q.._.]
  | | |         0d49: 43 cb 39 74 2a 3d cd 1e bf 1a 48 39 f3 c7 77 e0 [C.9t*=....H9..w.]
  | | |         0d59: 68 33 e5 bc 52 65 93 26 37 02 a0 01 2b af 0f 68 [h3..Re.&7...+..h]
  | | |         0d69: 70 9b 1d 04 9a 8d 0b 2e af ea f8 c9 63 77 27 f0 [p...........cw'.]
  | | |         0d79: 78 03 35 4c e2 b5 63 36 27 d2 50 91 ec c4 3e 78 [x.5L..c6'.P...>x]
  | | |         0d89: a3 69 4d 94 d4 dc aa 27 8b be a8 59 d1 10 17 e3 [.iM....'...Y....]
  | | |         0d99: 77 d2 f5 dd af 04 fb 41 0f 84 d3 34 d8 9c 83 77 [w......A...4...w]
  | | |         0da9: 90 c5 67 23 6a 2a 7b 45 41 88 f8 e9 2b 64 59 f2 [..g#j*{EA...+dY.]
  | | |         0db9: 07 bc 68 6c 0a 4b 03 56 6b 56 bd af cc 0c 00 7a [..hl.K.VkV.....z]
  | | |         0dc9: 62 09 7c b5 b7 cb cb 7c 7f 5a 08 7b b1 6d 66 03 [b.|....|.Z.{.mf.]
  | | |         0dd9: 57 87 49 fd 6d ea 82 67 f3 0b 7f 41 e9 46 91 8b [W.I.m..g...A.F..]
  | | |         0de9: 4f 66 3c 45 25 10 24 6f 6b 4f a7 09 21 9e b9 13 [Of<E%.$okO..!...]
  | | |         0df9: 47 fc 1a 8d dd 66 c2 77 e3 c4 0e d1 59 d2 a1 9b [G....f.w....Y...]
  | | |         0e09: 3f f3 fc d5 95 59 74 7f 5b 5d 78 99 91 94 c8 23 [?....Yt.[]x....#]
  | | |         0e19: 37 4d ab 1d 4d 58 23 87 d3 73 dd 61 c9 34 fe ab [7M..MX#..s.a.4..]
  | | |         0e29: 2f e6 91 65 05 cc ba 8f 4b 82 02 29 01 c4 26 33 [/..e....K..)..&3]
  | | |         0e39: 27 8e 75 ad bd cf 2c 97 c3 a4 50 f1 39 5b 01 bb ['.u...,...P.9[..]
  | | |         0e49: 1f 1f 23 f5 75 ed db 9f 3b e4 d6 b9 71 3f 29 43 [..#.u...;...q?)C]
  | | |         0e59: 17 e9 0b 3d 2d ef 7d a7 b3 d4 30 81 a9 89 50 cb [...=-.}...0...P.]
  | | |         0e69: 0f 68 cc 85 e5 dc e7 af 2b 14 58 49 e1 d5 76 53 [.h......+.XI..vS]
  | | |         0e79: 07 f2 d9 cd 9d 70 b3 b7 a3 bc cc 11 19 2a 5f db [.....p.......*_.]
  | | |         0e89: ff 10 8c 15 55 bd 31 bf 1b a2 09 d9 51 9e 8b 63 [....U.1.....Q..c]
  | | |         0e99: f7 b0 54 5d 15 95 a2 d9 64 39 11 81 78 25 a3 fa [..T]....d9..x%..]
  | | |         0ea9: bc a5 a7 bb e3 8c 03 d1 a2 1f 84 49 39 fd 03 53 [...........I9..S]
  | | |         0eb9: 5e 3f 08 fc 9c ca 38 c8 0b d6 35 2f 23 98 25 e6 [^?....8...5/#.%.]
  | | |         0ec9: d7 aa f4 2a af e3 e6 ce 39 c0 f4 e6 6a 2f 0f 9d [...*....9...j/..]
  | | |         0ed9: c3 e3 5f 63 f2 04 bd f8 a8 d8 42 d1 78 c6 af 2b [.._c......B.x..+]
  | | |         0ee9: ea 7a 1a da ae 5d de f2 c8 8f 3e 97 65 a0 f4 83 [.z...]....>.e...]
  | | |         0ef9: e7 de 19 2c 0f 6f b5 d6 38 95 90 51 fb 29 3e 1b [...,.o..8..Q.)>.]
  | | |         0f09: 06 28 5c 55 f3 9a ea ff 67 7a e8 19 60 d2 56 a3 [.(\U....gz..`.V.]
  | | |         0f19: 48 91 34 9d 7a 3b 7d f8 ea 67 40 e1 93 7b 6e 2b [H.4.z;}..g@..{n+]
  | | |         0f29: 5c ff 0c e5 9d 13 e5 f0 cb 4e 98 a9 81 20 86 e1 [\........N... ..]
  | | |         0f39: a7 62 e4 57 3d 14 b2 17 43 36 f0 71 b9 c8 9e 3b [.b.W=...C6.q...;]
  | | |         0f49: 9f ca bc 75 f5 3c 4a 1f bb 1e 48 39 f1 70 b6 c3 [...u.<J...H9.p..]
  | | |         0f59: 97 32 94 bd ad 64 e2 27 33 06 a0 01 dc 19 ce 4a [.2...d.'3......J]
  | | |         0f69: da 9b 3c 04 c7 ac 8e 06 ab ee f8 c9 61 c0 e7 d1 [..<.........a...]
  | | |         0f79: 84 06 41 48 18 b1 17 32 31 d6 45 91 99 68 fe 5b [..AH...21.E..h.[]
  | | |         0f89: 7f 6a 1c 95 d1 dc 7b 3f b3 be 22 59 d1 10 06 e3 [.j....{?.."Y....]
  | | |         0f99: 77 d2 f0 dd 8d 04 ac 47 a3 a4 b4 21 d8 b9 2e 6b [w......G...!...k]
  | | |         0fa9: 6f 3a cc 25 45 2c f9 4f 20 84 35 ec a7 6a 46 f3 [o:.%E,.O .5..jF.]
  | | |         0fb9: 67 a2 a4 6d ab 54 72 57 ed 6c b1 b0 78 09 5f 7a [g..m.TrW.l..x._z]
  | | |         0fc9: 5e 0b 7d 9c b4 7d 0b 5e 7a 63 09 78 b0 b1 77 02 [^.}..}.^zc.x..w.]
  | | |         0fd9: 56 73 55 d4 6c a5 a3 66 f2 7b 61 40 e8 59 8f 8a [VsU.l..f.{a@.Y..]
  | | |         0fe9: 4e db 2d 6c 24 cd 3b 6e 6a 13 b8 09 21 00 ac 0c [N.-l$.;nj...!...]
  | | |         0ff9: 38 5d 04 8d 2f d4 d2 77 bf 1a 10 d1 0a 7c bf 9b [8]../..w.....|..]
  | | |         1009: 22 b5 cc ca 5c 20 61 7f 92 0a 6e 99 d8 45 c9 23 ["...\ a...n..E.#]
  | | |         1019: 3e ec 8a 1d 84 d6 bf 87 da e7 b9 61 c0 2d d7 ab [>..........a.-..]
  | | |         1029: 26 d8 84 65 cc 52 93 8f 42 b7 18 29 48 04 1b 33 [&..e.R..B..)H..3]
  | | |         1039: 6e a4 7f ad 74 ac 14 97 ca f0 34 f1 70 ad b6 bb [n...t.....4.p...]
  | | |         1049: 56 e0 3d f5 74 bc cb 9f 3a 9e c9 b9 70 f0 37 43 [V.=.t...:...p.7C]
  | | |         1059: 16 b2 15 3d 2c e4 63 a7 b2 86 21 81 a8 98 4f cb [...=,.c...!...O.]
  | | |         1069: 0e 1a ed 85 ef 13 85 b0 2b 6e 78 49 e1 40 6c 4c [........+nxI.@lL]
  | | |         1079: 78 9d c4 cc 9d 35 92 b7 a3 56 d0 11 19 e8 7e db [x....5...V....~.]
  | | |         1089: ff ea 9c 15 55 5c 2a bf a2 47 22 d9 73 f5 97 63 [....U\*..G".s..c]
  | | |         1099: 85 76 75 5d 30 a5 c2 c7 7b 24 a3 a2 6b c7 ae ea [.vu]0...{$..k...]
  | | |         10a9: 51 ba b7 a2 56 ee 45 dc ee 09 d4 25 95 f3 f5 6c [Q...V.E....%...l]
  | | |         10b9: 8a 3d 17 f2 10 cb 72 55 8c f6 3c 30 e8 89 de fb [.=....rU..<0....]
  | | |         10c9: a3 86 fe 35 90 97 8b df f7 dc e4 f8 de 31 8d 82 [...5.........1..]
  | | |         10d9: d7 f2 54 fd 6d a4 a2 67 f3 46 60 41 e9 58 8e 8b [..T.m..g.F`A.X..]
  | | |         10e9: 4f da 2c 45 25 cc 3a 6f 6b 2e b8 09 21 00 a6 13 [O.,E%.:ok...!...]
  | | |         10f9: 47 42 84 0d e3 74 a9 f0 f0 d4 8f 42 3c 2f 32 57 [GB...t.....B</2W]
  | | |         1109: eb 39 6f 4a 78 83 d9 e0 b6 61 68 9b 1e d0 5a a2 [.9oJx....ah...Z.]
  | | |         1119: a6 93 34 9d b1 c8 80 07 f6 0d 41 e1 45 7a 02 2a [..4.......A.Ez.*]
  | | |         1129: 5e fb 70 e4 85 ec 9a 8f 4b ce 18 29 01 a0 06 33 [^.p.....K..)...3]
  | | |         1139: 27 e2 64 ad bd 94 32 97 c3 b6 70 f1 39 48 1e bb ['.d...2...p.9H..]
  | | |         1149: 1f 4a 3c f5 75 bc 4a 1f ba 1e 48 11 f1 70 b6 c3 [.J<.u.J...H..p..]
  | | |         1159: 97 32 f6 76 64 0d 90 35 30 06 0c 01 2b 18 ce 4b [.2.vd..50...+..K]
  | | |         1169: 8f 9a de 05 66 8c 7a 2f ab 11 f8 36 61 3f e6 2c [....f.z/...6a?.,]
  | | |         1179: 87 fd 44 b2 1d 4b 12 c8 23 29 50 6e 99 97 fe a4 [..D..K..#)Pn....]
  | | |         1189: 7f 95 1c 6a d5 23 aa c0 9b 41 a8 a6 d1 ef 16 1c [...j.#...A......]
  | | |         1199: 77 2d f4 22 8d fb 42 b8 13 59 00 de 09 47 2e 94 [w-."..B..Y...G..]
  | | |         11a9: 6f c5 cc da 45 d3 da b0 8b 71 58 16 41 9f 46 0c [o...E....qX.A.F.]
  | | |         11b9: 67 5d a4 92 04 d3 69 2f 03 76 b1 b1 78 08 e6 70 [g]....i/.v..x..p]
  | | |         11c9: aa 0b 29 b4 b5 7c 0a 5f 7b 5e 08 79 b1 b0 76 03 [..)..|._{^.y..v.]
  | | |         11d9: 56 72 54 fd 6d a4 c0 67 ea 46 6b 41 e9 58 8e 8b [VrT.m..g.FkA.X..]
  | | |         11e9: 4f da 2c 45 25 cc 3a 6f 6b 2e c0 09 b1 00 a6 13 [O.,E%.:ok.......]
  | | |         11f9: 44 42 05 8d dd f4 d2 77 e4 16 10 d1 59 a8 e6 99 [DB.....w....Y...]
  | | |         1209: 3f aa dd d5 95 1c fa 7f d7 fe ec 99 11 50 56 23 [?............PV#]
  | | |         [snip 14564 bytes]
  | | | + [Decrypted ShotInfoD810 directory]
  | | | |       0000: 30 32 33 33 31 2e 31 31 64 00 00 00 21 00 00 00 [02331.11d...!...]
  | | | |       0010: 94 00 00 00 94 07 00 00 14 08 00 00 00 00 00 00 [................]
  | | | |       0020: 14 17 00 00 47 17 00 00 62 17 00 00 7a 17 00 00 [....G...b...z...]
  | | | |       0030: 8f 17 00 00 2f 18 00 00 f8 18 00 00 24 19 00 00 [..../.......$...]
  | | | |       0040: 4b 19 00 00 89 19 00 00 9d 19 00 00 a5 19 00 00 [K...............]
  | | | |       0050: ab 19 00 00 c8 19 00 00 c4 1a 00 00 00 00 00 00 [................]
  | | | |       0060: c8 1a 00 00 48 20 00 00 00 00 00 00 00 00 00 00 [....H ..........]
  | | | |       0070: 68 3b 00 00 98 3b 00 00 a8 3b 00 00 e8 3b 00 00 [h;...;...;...;..]
  | | | |       0080: 00 00 00 00 48 3c 00 00 00 00 00 00 d4 3c 00 00 [....H<.......<..]
  | | | |       0090: 00 00 00 00 0d d4 0b 78 1c b7 c1 23 78 00 b8 00 [.......x...#x...]
  | | | |       00a0: 90 00 4c 01 07 00 00 00 00 00 01 01 00 80 4b 41 [..L...........KA]
  | | | |       00b0: 1b ff 9a ff cf ff 3e 40 f3 ff 11 00 63 ff 8c 40 [......>@....c..@]
  | | | |       00c0: bc 3e e1 00 63 00 30 00 c3 3f 0d 00 f0 ff 9a 00 [.>..c.0..?......]
  | | | |       00d0: 76 3f 00 00 1c b7 c1 23 dc 03 51 01 e2 02 98 00 [v?.....#..Q.....]
  | | | |       00e0: 83 02 6f 00 9b 02 b3 02 00 00 db 1c d1 0f 68 12 [..o...........h.]
  | | | |       00f0: c8 07 25 09 8d 0b 6e 14 9f 0d 9c 05 85 0a c5 12 [..%...n.........]
  | | | |       0100: e6 13 d6 11 89 0c 9a 05 6e 06 56 11 5d 0f ac 0c [........n.V.]...]
  | | | |       0110: 56 0a 58 0c 98 0a 36 17 71 1f e5 12 d7 13 48 1a [V.X...6.q.....H.]
  | | | |       0120: 4b 18 43 11 1f 14 16 0c de 01 00 0e 4c 0e 9a 12 [K.C.........L...]
  | | | |       0130: 6e 07 d3 08 9c 09 61 1f d3 2c 3b 19 ae 13 90 10 [n.....a..,;.....]
  | | | |       0140: 3a 0e 4e 08 c4 05 2a 0d 0d 06 4a 06 d6 0c 36 0d [:.N...*...J...6.]
  | | | |       0150: a7 07 0b 07 57 08 7b 17 46 2f 0c 1a 7a 0e f3 07 [....W.{.F/..z...]
  | | | |       0160: 05 06 67 02 47 02 6b 0a 87 0c da 0a f8 0d 03 0c [..g.G.k.........]
  | | | |       0170: 41 06 d9 05 05 08 b9 17 42 12 f2 1b 26 0e 80 05 [A.......B...&...]
  | | | |       0180: e8 05 a9 07 c7 01 b0 06 b1 03 6e 0f 8b 0e 58 0e [..........n...X.]
  | | | |       0190: 59 09 7f 09 f1 09 ce 0e ba 28 a5 2d 78 1b 35 07 [Y........(.-x.5.]
  | | | |       01a0: 62 09 a7 0f 1d 05 fd 01 92 01 c1 0b 24 0e e3 0f [b...........$...]
  | | | |       01b0: 3d 12 7a 13 be 1d a8 1a 2c 23 da 2b a1 1a 6b 0b [=.z.....,#.+..k.]
  | | | |       01c0: 9f 0c 38 0a 2d 0b 32 0a f8 01 0d 0d 14 18 04 16 [..8.-.2.........]
  | | | |       01d0: 01 0e 06 17 b0 16 a1 25 ef 10 a2 04 ac 1a ed 04 [.......%........]
  | | | |       01e0: b8 04 54 02 8d 01 9a 03 e0 01 b4 05 7a 1c 0c 1b [..T.........z...]
  | | | |       01f0: e7 11 62 0f a2 10 e2 21 fd 13 d0 01 9e 04 e3 05 [..b....!........]
  | | | |       0200: 0e 05 59 01 40 01 ad 01 00 0d fe 06 0b 15 b2 10 [..Y.@...........]
  | | | |       0210: 86 0f da 0e 14 0f 11 1a 80 13 c8 01 c3 02 4e 04 [..............N.]
  | | | |       0220: 5f 04 ac 05 e3 09 9a 04 82 02 e1 02 65 0c e2 08 [_...........e...]
  | | | |       0230: c2 0a 95 0e 87 0e f5 1c b6 20 87 12 6e 0c 06 06 [......... ..n...]
  | | | |       0240: 51 08 9a 0a ac 0d de 05 15 02 34 04 62 09 85 07 [Q.........4.b...]
  | | | |       0250: 90 0a a7 0d af 0d e7 1f 2a 27 f6 23 be 0d 27 0e [........*'.#..'.]
  | | | |       0260: 92 0e 54 08 69 04 3f 06 2b 02 b4 05 01 0e 00 00 [..T.i.?.+.......]
  | | | |       0270: 62 00 00 00 00 00 00 00 00 00 00 00 00 00 00 00 [b...............]
  | | | |       0280: 00 00 00 00 00 00 00 00 00 00 00 00 00 00 00 00 [................]
  | | | |       0290: 00 00 00 00 00 00 00 00 00 00 00 00 00 00 00 00 [................]
  | | | |       02a0: 00 00 00 00 00 00 00 00 00 00 00 00 00 00 00 00 [................]
  | | | |       02b0: 00 00 00 00 00 00 00 00 00 00 00 00 00 00 00 00 [................]
  | | | |       02c0: 00 00 00 00 00 00 00 00 00 00 00 00 00 00 00 00 [................]
  | | | |       02d0: 00 00 00 00 00 00 00 00 00 00 00 00 00 00 00 00 [................]
  | | | |       02e0: 00 00 00 00 00 00 00 00 00 00 00 00 00 00 00 00 [................]
  | | | |       02f0: 00 00 00 00 00 00 00 00 00 00 00 00 00 00 00 00 [................]
  | | | |       0300: 00 00 00 00 00 00 00 00 00 00 00 00 00 00 00 00 [................]
  | | | |       0310: 00 00 00 00 00 00 00 00 00 00 00 00 02 b7 c1 23 [...............#]
  | | | |       0320: dc 01 85 01 df 01 87 01 04 04 00 00 02 b7 c1 23 [...............#]
  | | | |       0330: ff 01 71 01 ff 01 71 01 04 04 00 00 02 b7 c1 23 [..q...q........#]
  | | | |       0340: ff 01 71 01 ff 01 71 01 04 04 00 00 02 b7 c1 23 [..q...q........#]
  | | | |       0350: ff 01 71 01 ff 01 71 01 04 04 00 00 75 ac c0 23 [..q...q.....u..#]
  | | | |       0360: dc 03 51 01 01 00 00 18 10 00 00 00 00 00 01 00 [..Q.............]
  | | | |       0370: 00 00 01 00 22 00 b9 06 1c 22 d3 15 d1 24 ad 1c [...."...."...$..]
  | | | |       0380: ff ff ab 06 2f 06 a1 0a ca 06 a0 00 6a 04 1f 01 [..../.......j...]
  | | | |       0390: 60 1e cc 01 f7 1f 71 01 68 20 0d 1e b5 04 5e 01 [`.....q.h ....^.]
  | | | |       03a0: 3d 03 00 00 02 b7 c1 23 04 04 00 02 00 dd 10 00 [=......#........]
  | | | |       03b0: 00 f5 1d 00 00 4e 20 00 00 4d 1f 00 00 1e 1f 00 [.....N ..M......]
  | | | |       03c0: 00 bc 10 00 00 dc 1e 00 00 61 1f 00 00 9e 1f 00 [.........a......]
  | | | |       03d0: 00 be 1e 00 00 92 10 00 00 d2 1e 00 00 7a 1f 00 [.............z..]
  | | | |       03e0: 00 59 20 00 00 45 1e 00 00 a3 10 00 00 c4 1e 00 [.Y ..E..........]
  | | | |       03f0: 00 5f 1f 00 00 1c 21 00 00 95 1d 00 00 cc 10 00 [._....!.........]
  | | | |       0400: 00 9c 1d 00 00 a0 20 00 00 4c 1a 00 00 64 20 00 [...... ..L...d .]
  | | | |       0410: 00 6c 11 00 00 5b 1e 00 00 12 20 00 00 13 1f 00 [.l...[.... .....]
  | | | |       0420: 00 55 1f 00 00 51 11 00 00 7a 1e 00 00 cf 1f 00 [.U...Q...z......]
  | | | |       0430: 00 5b 1f 00 00 0b 1f 00 00 52 10 00 00 11 1e 00 [.[.......R......]
  | | | |       0440: 00 72 20 00 00 d0 1d 00 00 7a 20 00 00 95 10 00 [.r ......z .....]
  | | | |       0450: 00 70 1d 00 00 44 21 00 00 ea 1c 00 00 c2 21 00 [.p...D!.......!.]
  | | | |       0460: 00 fa 10 00 00 e1 1b 00 00 9c 21 00 00 0e 1d 00 [..........!.....]
  | | | |       0470: 00 e2 20 00 18 11 60 1e f7 1f 91 20 f1 1d 0d 11 [.. ...`.... ....]
  | | | |       0480: 53 1f eb 1e 26 20 59 1e a9 11 5c 20 f8 1d c5 20 [S...& Y...\ ... ]
  | | | |       0490: b9 1d 2c 11 e1 1e ca 1f 88 20 05 1e da 10 fb 1d [..,...... ......]
  | | | |       04a0: 08 20 08 1f 9a 1f 6c 11 c2 1e 7c 1f 5b 1f f9 1e [. ....l...|.[...]
  | | | |       04b0: 14 11 8b 1e 1f 20 9f 1f db 1e a2 10 11 1e a1 20 [..... ......... ]
  | | | |       04c0: 25 20 b6 1f 0b 11 64 1d 23 21 06 1e c4 20 d2 10 [% ....d.#!... ..]
  | | | |       04d0: 20 1c 9d 21 52 1b e7 21 5b 03 00 00 22 01 00 00 [ ..!R..![..."...]
  | | | |       04e0: b9 02 00 00 e6 06 00 00 bc 04 00 00 71 02 00 00 [............q...]
  | | | |       04f0: ff 03 00 00 b7 ff ff ff b9 01 00 00 da 03 00 00 [................]
  | | | |       0500: f3 05 00 00 18 ff ff ff 00 00 00 00 00 00 00 52 [...............R]
  | | | |       0510: 00 00 00 7a 00 00 00 00 00 00 00 00 00 00 00 00 [...z............]
  | | | |       0520: 00 00 00 00 00 00 00 00 00 00 00 00 00 00 00 00 [................]
  | | | |       0530: 00 00 00 00 00 00 00 00 00 00 00 00 f5 01 00 01 [................]
  | | | |       0540: 55 01 50 01 a2 20 f4 29 00 00 00 00 00 00 01 02 [U.P.. .)........]
  | | | |       0550: 03 04 05 05 05 05 05 05 12 00 15 00 00 00 00 00 [................]
  | | | |       0560: 00 00 00 00 04 00 d1 00 28 00 8a 00 00 00 10 00 [........(.......]
  | | | |       0570: 00 00 04 00 00 00 ee 00 b0 02 b4 00 d1 01 00 00 [................]
  | | | |       0580: 00 00 00 00 00 00 23 00 ab 0a 6d 05 e6 0a 00 00 [......#...m.....]
  | | | |       0590: 00 00 00 00 56 00 00 00 ee 1a 01 01 01 01 01 01 [....V...........]
  | | | |       05a0: 01 01 01 29 01 01 01 01 01 3d 01 01 01 01 01 01 [...).....=......]
  | | | |       05b0: 01 01 01 29 01 01 01 01 01 3d 01 01 01 01 01 01 [...).....=......]
  | | | |       05c0: 01 01 01 29 01 01 01 01 01 3d 00 00 00 00 0a 1f [...).....=......]
  | | | |       05d0: 7f 1f 00 00 f2 20 00 00 5c 0c 00 00 53 d4 01 00 [..... ..\...S...]
  | | | |       05e0: 1d 1f 10 1f c9 3c 0b 00 c9 f4 06 00 49 15 1f 00 [.....<......I...]
  | | | |       05f0: 09 fe 3e 00 c9 92 bd 00 09 01 79 00 09 d5 39 00 [..>.......y...9.]
  | | | |       0600: 09 a2 08 00 c9 3e 09 00 09 79 00 00 49 a4 1d 00 [.....>...y..I...]
  | | | |       0610: 49 46 1b 00 c9 38 26 00 09 46 44 00 49 e5 a8 00 [IF...8&..FD.I...]
  | | | |       0620: 49 aa 01 00 01 00 01 00 01 00 01 00 01 00 01 00 [I...............]
  | | | |       0630: 01 00 01 00 01 00 01 00 01 00 01 00 01 00 01 00 [................]
  | | | |       0640: 01 00 01 00 0a 1f 7f 1f 00 00 00 00 00 00 0a 1f [................]
  | | | |       0650: 7f 1f 00 01 00 01 00 00 00 00 00 00 00 00 00 00 [................]
  | | | |       0660: 00 00 00 00 00 00 00 00 b9 79 0a 00 22 65 01 00 [.........y.."e..]
  | | | |       0670: 72 24 01 00 3d 21 00 00 e8 02 23 03 e2 ff 00 01 [r$..=!....#.....]
  | | | |       0680: be 00 fb 07 93 42 1f 13 e5 07 0c 4c 54 13 33 1f [.....B.....LT.3.]
  | | | |       0690: 6d 1f 33 1f 6d 1f 80 82 0f 00 0c 01 11 01 00 00 [m.3.m...........]
  | | | |       06a0: 7c 0c 02 00 a5 6b 01 00 0c 02 6c 01 ef 01 7b 01 [|....k....l...{.]
  | | | |       06b0: 00 00 80 80 80 80 80 80 80 80 80 80 80 80 80 80 [................]
  | | | |       06c0: 80 80 80 80 80 80 80 80 80 80 80 80 80 80 80 80 [................]
  | | | |       06d0: 80 80 00 00 be 00 fb 07 93 42 1f 13 e5 07 0c 4c [.........B.....L]
  | | | |       06e0: 54 13 33 1f 6d 1f 33 1f 6d 1f 80 82 0f 00 0c 01 [T.3.m.3.m.......]
  | | | |       06f0: 11 01 00 00 7c 0c 02 00 a5 6b 01 00 0c 02 6c 01 [....|....k....l.]
  | | | |       0700: f1 01 7c 01 00 00 80 80 80 80 80 80 80 80 80 80 [..|.............]
  | | | |       0710: 80 80 80 80 80 80 80 80 80 80 80 80 80 80 80 80 [................]
  | | | |       0720: 80 80 80 80 80 80 00 00 01 00 00 28 00 00 00 00 [...........(....]
  | | | |       0730: 00 00 62 cb c9 69 72 12 03 00 ac 00 02 00 00 00 [..b..ir.........]
  | | | |       0740: 00 00 b2 00 03 00 00 00 00 ff 00 ff 00 ff 00 ff [................]
  | | | |       0750: 00 ff 00 ff 00 ff 00 ff 00 ff 00 ff 00 ff 00 ff [................]
  | | | |       0760: 00 ff 00 ff 00 ff 00 ff 00 ff 00 ff 00 ff 00 ff [................]
  | | | |       0770: 00 ff 00 ff 00 ff 00 ff 00 ff 00 ff 00 ff 00 ff [................]
  | | | |       0780: 00 ff 00 ff 00 ff 00 ff 00 ff 00 ff 00 ff 00 ff [................]
  | | | |       0790: 00 ff 00 ff f9 87 1b 78 00 00 01 00 01 00 b8 0b [.......x........]
  | | | |       07a0: f5 01 55 01 00 00 00 00 00 00 00 00 00 00 00 00 [..U.............]
  | | | |       07b0: 01 00 00 00 00 00 62 00 19 00 0b 00 00 00 00 00 [......b.........]
  | | | |       07c0: 00 00 00 00 00 00 00 00 00 00 78 00 90 00 00 00 [..........x.....]
  | | | |       07d0: 03 00 01 00 00 00 00 00 07 00 00 00 00 00 58 02 [..............X.]
  | | | |       07e0: 00 00 01 00 00 00 90 00 8c 00 84 00 80 00 80 00 [................]
  | | | |       [snip 14564 bytes]
  | | | + [BinaryData directory, 16596 bytes, Little-endian]
  | | | | ShotInfoVersion = 0233
  | | | | - Tag 0x0000 (4 bytes, string[4]):
  | | | |     0a29: 30 32 33 33                                     [0233]
  | | | | FirmwareVersion = 1.11d
  | | | | - Tag 0x0004 (5 bytes, string[5]):
  | | | |     0a2d: 31 2e 31 31 64                                  [1.11d]
  | | | | SettingsOffset (SubDirectory) -->
  | | | | - Tag 0x0010 (4 bytes, int32u[1]):
  | | | |     0a39: 94 00 00 00                                     [....]
  | | | | + [BinaryData directory, 1792 bytes, Little-endian]
  | | | | | SecondarySlotFunction = 1
  | | | | | - Tag 0x013c, mask 0x03 (1 bytes, int8u[1]):
  | | | | |     0bf9: 01                                              [.]
  | | | | + [BinaryData directory, 4 bytes, Little-endian]
  | | | | + [BinaryData directory, 4 bytes, Little-endian]
  | | | | + [BinaryData directory, 4 bytes, Little-endian]
  | | | | BracketingOffset (SubDirectory) -->
  | | | | - Tag 0x0024 (4 bytes, int32u[1]):
  | | | |     0a4d: 47 17 00 00                                     [G...]
  | | | | + [BinaryData directory, 27 bytes, Little-endian]
  | | | | | AEBracketingSteps = 48
  | | | | | - Tag 0x000f, mask 0xff (1 bytes, int8u[1]):
  | | | | |     217f: 30                                              [0]
  | | | | | WBBracketingSteps = 0
  | | | | | - Tag 0x0010, mask 0xff (1 bytes, int8u[1]):
  | | | | |     2180: 00                                              [.]
  | | | | | NikonMeteringMode = 0
  | | | | | - Tag 0x0017, mask 0x03 (1 bytes, int8u[1]):
  | | | | |     2187: 40                                              [@]
  | | | | + [BinaryData directory, 4 bytes, Little-endian]
  | | | | + [BinaryData directory, 4 bytes, Little-endian]
  | | | | + [BinaryData directory, 4 bytes, Little-endian]
  | | | | + [BinaryData directory, 4 bytes, Little-endian]
  | | | | ISOAutoOffset (SubDirectory) -->
  | | | | - Tag 0x0038 (4 bytes, int32u[1]):
  | | | |     0a61: f8 18 00 00                                     [....]
  | | | | + [BinaryData directory, 44 bytes, Little-endian]
  | | | | | ISOAutoShutterTime = 9
  | | | | | - Tag 0x0004, mask 0x3f (1 bytes, int8u[1]):
  | | | | |     2325: 09                                              [.]
  | | | | | ISOAutoHiLimit = 72
  | | | | | - Tag 0x0005, mask 0xff (1 bytes, int8u[1]):
  | | | | |     2326: 48                                              [H]
  | | | | + [BinaryData directory, 4 bytes, Little-endian]
  | | | | CustomSettingsOffset (SubDirectory) -->
  | | | | - Tag 0x0040 (4 bytes, int32u[1]):
  | | | |     0a69: 4b 19 00 00                                     [K...]
  | | | | + [BinaryData directory, 62 bytes, Little-endian]
  | | | | | LightSwitch = 0
  | | | | | - Tag '0.1', mask 0x08 (1 bytes, int8u[1]):
  | | | | |     2374: 10                                              [.]
  | | | | | CustomSettingsBank = 0
  | | | | | - Tag '0.2', mask 0x03 (1 bytes, int8u[1]):
  | | | | |     2374: 10                                              [.]
  | | | | | AF-CPrioritySelection = 2
  | | | | | - Tag '1.1', mask 0xc0 (1 bytes, int8u[1]):
  | | | | |     2375: 83                                              [.]
  | | | | | AF-SPrioritySelection = 0
  | | | | | - Tag '1.2', mask 0x20 (1 bytes, int8u[1]):
  | | | | |     2375: 83                                              [.]
  | | | | | AFPointSelection = 0
  | | | | | - Tag '1.3', mask 0x10 (1 bytes, int8u[1]):
  | | | | |     2375: 83                                              [.]
  | | | | | FocusTrackingLockOn = 3
  | | | | | - Tag '1.4', mask 0x07 (1 bytes, int8u[1]):
  | | | | |     2375: 83                                              [.]
  | | | | | AFActivation = 0
  | | | | | - Tag '2.1', mask 0x80 (1 bytes, int8u[1]):
  | | | | |     2376: 0a                                              [.]
  | | | | | FocusPointWrap = 1
  | | | | | - Tag '2.2', mask 0x08 (1 bytes, int8u[1]):
  | | | | |     2376: 0a                                              [.]
  | | | | | AFPointBrightness = 1
  | | | | | - Tag '2.3', mask 0x06 (1 bytes, int8u[1]):
  | | | | |     2376: 0a                                              [.]
  | | | | | AFAssist = 0
  | | | | | - Tag '2.4', mask 0x01 (1 bytes, int8u[1]):
  | | | | |     2376: 0a                                              [.]
  | | | | | BatteryOrder = 0
  | | | | | - Tag '3.1', mask 0x40 (1 bytes, int8u[1]):
  | | | | |     2377: 00                                              [.]
  | | | | | MB-D12BatteryType = 0
  | | | | | - Tag '3.2', mask 0x03 (1 bytes, int8u[1]):
  | | | | |     2377: 00                                              [.]
  | | | | | Pitch = 0
  | | | | | - Tag '4.1', mask 0x40 (1 bytes, int8u[1]):
  | | | | |     2378: 24                                              [$]
  | | | | | NoMemoryCard = 1
  | | | | | - Tag '4.2', mask 0x20 (1 bytes, int8u[1]):
  | | | | |     2378: 24                                              [$]
  | | | | | ISODisplay = 1
  | | | | | - Tag '4.3', mask 0x0c (1 bytes, int8u[1]):
  | | | | |     2378: 24                                              [$]
  | | | | | GridDisplay = 0
  | | | | | - Tag '4.4', mask 0x02 (1 bytes, int8u[1]):
  | | | | |     2378: 24                                              [$]
  | | | | | ShootingInfoDisplay = 0
  | | | | | - Tag '5.1', mask 0xc0 (1 bytes, int8u[1]):
  | | | | |     2379: 04                                              [.]
  | | | | | LCDIllumination = 0
  | | | | | - Tag '5.2', mask 0x20 (1 bytes, int8u[1]):
  | | | | |     2379: 04                                              [.]
  | | | | | ElectronicFront-CurtainShutter = 0
  | | | | | - Tag '5.3', mask 0x08 (1 bytes, int8u[1]):
  | | | | |     2379: 04                                              [.]
  | | | | | ScreenTips = 1
  | | | | | - Tag '5.4', mask 0x04 (1 bytes, int8u[1]):
  | | | | |     2379: 04                                              [.]
  | | | | | Beep = 0
  | | | | | - Tag '5.5', mask 0x03 (1 bytes, int8u[1]):
  | | | | |     2379: 04                                              [.]
  | | | | | ReverseIndicators = 1
  | | | | | - Tag '6.1', mask 0x80 (1 bytes, int8u[1]):
  | | | | |     237a: 80                                              [.]
  | | | | | CommandDialsReverseRotation = 0
  | | | | | - Tag '6.2', mask 0x18 (1 bytes, int8u[1]):
  | | | | |     237a: 80                                              [.]
  | | | | | EasyExposureCompensation = 0
  | | | | | - Tag '6.3', mask 0x03 (1 bytes, int8u[1]):
  | | | | |     237a: 80                                              [.]
  | | | | | ExposureControlStepSize = 0
  | | | | | - Tag '7.1', mask 0xc0 (1 bytes, int8u[1]):
  | | | | |     237b: 00                                              [.]
  | | | | | ISOStepSize = 0
  | | | | | - Tag '7.2', mask 0x30 (1 bytes, int8u[1]):
  | | | | |     237b: 00                                              [.]
  | | | | | ExposureCompStepSize = 0
  | | | | | - Tag '7.3', mask 0x0c (1 bytes, int8u[1]):
  | | | | |     237b: 00                                              [.]
  | | | | | CenterWeightedAreaSize = 2
  | | | | | - Tag '8.1', mask 0xe0 (1 bytes, int8u[1]):
  | | | | |     237c: 40                                              [@]
  | | | | | FineTuneOptMatrixMetering = 0
  | | | | | - Tag '8.2', mask 0x0f (1 bytes, int8u[1]):
  | | | | |     237c: 40                                              [@]
  | | | | | FineTuneOptCenterWeighted = 0
  | | | | | - Tag '9.1', mask 0xf0 (1 bytes, int8u[1]):
  | | | | |     237d: 00                                              [.]
  | | | | | FineTuneOptSpotMetering = 0
  | | | | | - Tag '9.2', mask 0x0f (1 bytes, int8u[1]):
  | | | | |     237d: 00                                              [.]
  | | | | | MultiSelectorShootMode = 0
  | | | | | - Tag '10.1', mask 0xc0 (1 bytes, int8u[1]):
  | | | | |     237e: 00                                              [.]
  | | | | | MultiSelectorPlaybackMode = 0
  | | | | | - Tag '10.2', mask 0x30 (1 bytes, int8u[1]):
  | | | | |     237e: 00                                              [.]
  | | | | | MultiSelector = 0
  | | | | | - Tag '10.3', mask 0x01 (1 bytes, int8u[1]):
  | | | | |     237e: 00                                              [.]
  | | | | | ExposureDelayMode = 0
  | | | | | - Tag '11.1', mask 0xc0 (1 bytes, int8u[1]):
  | | | | |     237f: 03                                              [.]
  | | | | | CLModeShootingSpeed = 3
  | | | | | - Tag '11.2', mask 0x0f (1 bytes, int8u[1]):
  | | | | |     237f: 03                                              [.]
  | | | | | MaxContinuousRelease = 100
  | | | | | - Tag '12.1' (1 bytes, int8u[1]):
  | | | | |     2380: 64                                              [d]
  | | | | | AutoBracketSet = 0
  | | | | | - Tag '13.1', mask 0xe0 (1 bytes, int8u[1]):
  | | | | |     2381: 00                                              [.]
  | | | | | AutoBracketOrder = 0
  | | | | | - Tag '13.2', mask 0x10 (1 bytes, int8u[1]):
  | | | | |     2381: 00                                              [.]
  | | | | | AutoBracketModeM = 0
  | | | | | - Tag '13.3', mask 0x0c (1 bytes, int8u[1]):
  | | | | |     2381: 00                                              [.]
  | | | | | FuncButton = 0
  | | | | | - Tag '14.1', mask 0x1f (1 bytes, int8u[1]):
  | | | | |     2382: 00                                              [.]
  | | | | | PreviewButton = 1
  | | | | | - Tag '15.1', mask 0x1f (1 bytes, int8u[1]):
  | | | | |     2383: 01                                              [.]
  | | | | | AssignBktButton = 0
  | | | | | - Tag '16.1', mask 0x07 (1 bytes, int8u[1]):
  | | | | |     2384: 00                                              [.]
  | | | | | AELockButton = 8
  | | | | | - Tag '17.1', mask 0x1f (1 bytes, int8u[1]):
  | | | | |     2385: 08                                              [.]
  | | | | | CommandDialsChangeMainSub = 0
  | | | | | - Tag '18.1', mask 0xe0 (1 bytes, int8u[1]):
  | | | | |     2386: 0a                                              [.]
  | | | | | CommandDialsMenuAndPlayback = 1
  | | | | | - Tag '18.2', mask 0x18 (1 bytes, int8u[1]):
  | | | | |     2386: 0a                                              [.]
  | | | | | CommandDialsApertureSetting = 0
  | | | | | - Tag '18.3', mask 0x04 (1 bytes, int8u[1]):
  | | | | |     2386: 0a                                              [.]
  | | | | | ShutterReleaseButtonAE-L = 1
  | | | | | - Tag '18.4', mask 0x02 (1 bytes, int8u[1]):
  | | | | |     2386: 0a                                              [.]
  | | | | | ReleaseButtonToUseDial = 0
  | | | | | - Tag '18.5', mask 0x01 (1 bytes, int8u[1]):
  | | | | |     2386: 0a                                              [.]
  | | | | | StandbyTimer = 1
  | | | | | - Tag '19.1', mask 0xf0 (1 bytes, int8u[1]):
  | | | | |     2387: 10                                              [.]
  | | | | | SelfTimerTime = 2
  | | | | | - Tag '20.1', mask 0xc0 (1 bytes, int8u[1]):
  | | | | |     2388: 81                                              [.]
  | | | | | SelfTimerShotInterval = 0
  | | | | | - Tag '20.2', mask 0x30 (1 bytes, int8u[1]):
  | | | | |     2388: 81                                              [.]
  | | | | | SelfTimerShotCount = 1
  | | | | | - Tag '20.3', mask 0x0f (1 bytes, int8u[1]):
  | | | | |     2388: 81                                              [.]
  | | | | | ImageReviewMonitorOffTime = 1
  | | | | | - Tag '21.1', mask 0xe0 (1 bytes, int8u[1]):
  | | | | |     2389: 28                                              [(]
  | | | | | LiveViewMonitorOffTime = 2
  | | | | | - Tag '21.2', mask 0x1c (1 bytes, int8u[1]):
  | | | | |     2389: 28                                              [(]
  | | | | | MenuMonitorOffTime = 5
  | | | | | - Tag '22.1', mask 0xe0 (1 bytes, int8u[1]):
  | | | | |     238a: a8                                              [.]
  | | | | | ShootingInfoMonitorOffTime = 2
  | | | | | - Tag '22.2', mask 0x1c (1 bytes, int8u[1]):
  | | | | |     238a: a8                                              [.]
  | | | | | FlashSyncSpeed = 3
  | | | | | - Tag '23.1', mask 0xf0 (1 bytes, int8u[1]):
  | | | | |     238b: 30                                              [0]
  | | | | | FlashShutterSpeed = 0
  | | | | | - Tag '23.2', mask 0x0f (1 bytes, int8u[1]):
  | | | | |     238b: 30                                              [0]
  | | | | | FlashControlBuilt-in = 0
  | | | | | - Tag '24.1', mask 0xc0 (1 bytes, int8u[1]):
  | | | | |     238c: 00                                              [.]
  | | | | | ModelingFlash = 0
  | | | | | - Tag '31.1', mask 0x20 (1 bytes, int8u[1]):
  | | | | |     2393: 09                                              [.]
  | | | | | PlaybackMonitorOffTime = 1
  | | | | | - Tag '36.1', mask 0xe0 (1 bytes, int8u[1]):
  | | | | |     2398: 20                                              [ ]
  | | | | | MultiSelectorLiveView = 0
  | | | | | - Tag '37.1', mask 0xc0 (1 bytes, int8u[1]):
  | | | | |     2399: 00                                              [.]
  | | | | | ShutterSpeedLock = 0
  | | | | | - Tag '38.1', mask 0x80 (1 bytes, int8u[1]):
  | | | | |     239a: 00                                              [.]
  | | | | | ApertureLock = 0
  | | | | | - Tag '38.2', mask 0x40 (1 bytes, int8u[1]):
  | | | | |     239a: 00                                              [.]
  | | | | | MovieShutterButton = 0
  | | | | | - Tag '38.3', mask 0x20 (1 bytes, int8u[1]):
  | | | | |     239a: 00                                              [.]
  | | | | | FlashExposureCompArea = 0
  | | | | | - Tag '38.4', mask 0x04 (1 bytes, int8u[1]):
  | | | | |     239a: 00                                              [.]
  | | | | | MovieAELockButtonAssignment = 5
  | | | | | - Tag '40.1', mask 0x0f (1 bytes, int8u[1]):
  | | | | |     239c: 05                                              [.]
  | | | | | MovieFunctionButton = 4
  | | | | | - Tag '41.1', mask 0x70 (1 bytes, int8u[1]):
  | | | | |     239d: 43                                              [C]
  | | | | | MoviePreviewButton = 3
  | | | | | - Tag '41.2', mask 0x07 (1 bytes, int8u[1]):
  | | | | |     239d: 43                                              [C]
  | | | | | FuncButtonPlusDials = 2
  | | | | | - Tag '42.1', mask 0x0f (1 bytes, int8u[1]):
  | | | | |     239e: 02                                              [.]
  | | | | | PreviewButtonPlusDials = 0
  | | | | | - Tag '43.1', mask 0x0f (1 bytes, int8u[1]):
  | | | | |     239f: 00                                              [.]
  | | | | | AELockButtonPlusDials = 0
  | | | | | - Tag '44.1', mask 0x0f (1 bytes, int8u[1]):
  | | | | |     23a0: 00                                              [.]
  | | | | | AssignMovieRecordButton = 0
  | | | | | - Tag '45.1', mask 0x0f (1 bytes, int8u[1]):
  | | | | |     23a1: 00                                              [.]
  | | | | | FineTuneOptHighlightWeighted = 0
  | | | | | - Tag '46.1', mask 0x0f (1 bytes, int8u[1]):
  | | | | |     23a2: 00                                              [.]
  | | | | | DynamicAreaAFDisplay = 1
  | | | | | - Tag '47.1', mask 0x80 (1 bytes, int8u[1]):
  | | | | |     23a3: d0                                              [.]
  | | | | | AFPointIllumination = 1
  | | | | | - Tag '47.2', mask 0x40 (1 bytes, int8u[1]):
  | | | | |     23a3: d0                                              [.]
  | | | | | StoreByOrientation = 2
  | | | | | - Tag '47.3', mask 0x18 (1 bytes, int8u[1]):
  | | | | |     23a3: d0                                              [.]
  | | | | | GroupAreaAFIllumination = 0
  | | | | | - Tag '47.4', mask 0x04 (1 bytes, int8u[1]):
  | | | | |     23a3: d0                                              [.]
  | | | | | MatrixMetering = 0
  | | | | | - Tag '48.1', mask 0x80 (1 bytes, int8u[1]):
  | | | | |     23a4: 00                                              [.]
  | | | | | LiveViewButtonOptions = 0
  | | | | | - Tag '48.2', mask 0x30 (1 bytes, int8u[1]):
  | | | | |     23a4: 00                                              [.]
  | | | | | AFModeRestrictions = 0
  | | | | | - Tag '48.3', mask 0x03 (1 bytes, int8u[1]):
  | | | | |     23a4: 00                                              [.]
  | | | | | LimitAFAreaModeSelection = 0
  | | | | | - Tag '49.1', mask 0x7e (1 bytes, int8u[1]):
  | | | | |     23a5: 00                                              [.]
  | | | | | AF-OnForMB-D12 = 5
  | | | | | - Tag '50.1', mask 0x07 (1 bytes, int8u[1]):
  | | | | |     23a6: 05                                              [.]
  | | | | | AssignRemoteFnButton = 0
  | | | | | - Tag '51.1', mask 0x1f (1 bytes, int8u[1]):
  | | | | |     23a7: 00                                              [.]
  | | | | | LensFocusFunctionButtons = 7
  | | | | | - Tag '52.1', mask 0x3f (1 bytes, int8u[1]):
  | | | | |     23a8: 07                                              [.]
  | | | | + [BinaryData directory, 4 bytes, Little-endian]
  | | | | + [BinaryData directory, 4 bytes, Little-endian]
  | | | | + [BinaryData directory, 4 bytes, Little-endian]
  | | | | + [BinaryData directory, 4 bytes, Little-endian]
  | | | | + [BinaryData directory, 4 bytes, Little-endian]
  | | | | + [BinaryData directory, 4 bytes, Little-endian]
  | | | | + [BinaryData directory, 4 bytes, Little-endian]
  | | | | + [BinaryData directory, 4 bytes, Little-endian]
  | | | | + [BinaryData directory, 4 bytes, Little-endian]
  | | | | + [BinaryData directory, 4 bytes, Little-endian]
  | | | | + [BinaryData directory, 4 bytes, Little-endian]
  | | | | + [BinaryData directory, 4 bytes, Little-endian]
  | | | | OrientationOffset (SubDirectory) -->
  | | | | - Tag 0x0084 (4 bytes, int32u[1]):
  | | | |     0aad: 48 3c 00 00                                     [H<..]
  | | | | + [BinaryData directory, 140 bytes, Little-endian]
  | | | | | RollAngle = 89.61421
  | | | | | - Tag 0x0000 (4 bytes, fixed32u[1]):
  | | | | |     4671: 3d 9d 59 00                                     [=.Y.]
  | | | | | PitchAngle = 348.73264
  | | | | | - Tag 0x0004 (4 bytes, fixed32u[1]):
  | | | | |     4675: 8e bb 5c 01                                     [..\.]
  | | | | | YawAngle = 358.85986
  | | | | | - Tag 0x0008 (4 bytes, fixed32u[1]):
  | | | | |     4679: 20 dc 66 01                                     [ .f.]
  | | | | + [BinaryData directory, 4 bytes, Little-endian]
  | | | 42) NoiseReduction = OFF 
  | | |     - Tag 0x0095 (5 bytes, string[5]):
  | | |         4afd: 4f 46 46 20 00                                  [OFF .]
  | | | 43) ColorBalance0219 (SubDirectory) -->
  | | |     - Tag 0x0097 (1224 bytes, undef[1224]):
  | | |         4b05: 30 32 32 33 25 de 9b 8d 4b de f7 28 7a a1 f7 32 [0223%...K..(z..2]
  | | |         4b15: 5b e3 64 ad 3d 14 b2 17 43 36 f0 71 b9 c8 9e 3b [[.d.=...C6.q...;]
  | | |         4b25: 9f ca bc 75 f5 3c 4a 1f bb 1e 48 39 f1 70 b6 c3 [...u.<J...H9.p..]
  | | |         4b35: 97 32 94 bd 2d e4 e2 27 33 06 a0 01 29 18 ce 4b [.2..-..'3...)..K]
  | | |         4b45: 8f 9a 6c 05 65 8c 7a 2f ab ee f8 c9 61 c0 e6 d3 [..l.e.z/....a...]
  | | |         4b55: 87 02 44 4d 1d b4 65 b7 12 57 62 11 1a d7 35 9a [..DM..e..Wb...5.]
  | | |         4b65: e4 15 06 ea 9a a3 14 ff e8 c1 39 d9 32 6f 1a 23 [..........9.2o.#]
  | | |         4b75: f0 52 75 5d 89 84 c2 c7 93 26 80 a1 89 38 ae eb [.Ru].....&...8..]
  | | |         4b85: 1e bb 4c a4 c5 ad 26 ce a3 f3 70 94 69 1d 6e 8e [..L...&...p.i.n.]
  | | |         4b95: cb 23 08 ec 51 d5 de d6 83 f6 3e 30 99 88 6f fb [.#..Q.....>0..o.]
  | | |         4ba5: bf 8a fe 37 37 fe b2 de bb de 9f ec 32 30 c4 83 [...77.......20..]
  | | |         4bb5: da f2 ce 7d ef 24 20 e7 73 c6 fd c1 6d d8 0a 0b [...}.$ .s...m...]
  | | |         4bc5: cf 5a af c5 b9 4c ba ef f3 ae 26 89 b3 80 24 93 [.Z...L....&...$.]
  | | |         4bd5: c5 c2 8f 0d 56 74 56 f3 63 91 97 51 d9 28 7e 1b [....VtV.c..Q.(~.]
  | | |         4be5: d9 2a 5e 5a ea 9f f5 0a c4 71 20 19 81 d1 76 a0 [.*^Z.....q ...v.]
  | | |         4bf5: ff 9f 24 93 c5 d4 9d 18 fe 66 01 e0 49 79 ce 2b [..$......f..Iy.+]
  | | |         4c05: 5f fa c0 1a 85 ec 1a 0f 1b 4e 9c a9 7e 20 86 b3 [_........N..~ ..]
  | | |         4c15: 27 62 c8 2c 21 16 b2 16 43 37 f0 70 b9 c8 9e 3b ['b.,!...C7.p...;]
  | | |         4c25: 9f ca bc 75 f5 3c 4a 1f bb 1e 48 39 f1 70 49 bc [...u.<J...H9.pI.]
  | | |         4c35: 97 33 94 bc ad 65 1d 24 33 06 a4 01 29 18 ce 4f [.3...e.$3...)..O]
  | | |         4c45: 8f 9a 6c 05 65 8c 7a 2b ab ee f8 c9 61 c0 e6 d7 [..l.e.z+....a...]
  | | |         4c55: 11 02 5f 4c 3d b4 b4 c8 d7 28 36 90 10 69 70 a5 [.._L=....(6..ip.]
  | | |         4c65: 96 95 2f 95 d5 dd 2a 3f 1b be 28 59 51 10 56 e3 [../...*?..(YQ.V.]
  | | |         4c75: f7 d2 f4 dd 8c 04 42 43 13 a2 00 25 09 bc 2e 6f [......BC...%...o]
  | | |         4c85: 6f 3a cc 25 45 2c c5 4b 74 71 58 e9 fa 9f ea f0 [o:.%E,.KtqX.....]
  | | |         4c95: 64 a1 a4 6d fd 54 71 57 30 74 b0 b1 79 08 5e 7b [d..m.TqW0t..y.^{]
  | | |         4ca5: a2 0b 4a b5 b5 7c c0 a0 86 5f 08 79 b0 b1 89 fe [..J..|..._.y....]
  | | |         4cb5: ab 8c 54 f8 45 a4 a2 67 f3 46 60 41 5d 58 2e 8b [..T.E..g.F`A]X..]
  | | |         4cc5: 4f db 2c 44 24 cd 3e 6b 6f 2e b8 09 37 2c 8a 13 [O.,D$.>ko...7,..]
  | | |         4cd5: 47 4a 04 8d dd f4 d2 77 e3 1e 10 d1 59 a8 be 9b [GJ.....w....Y...]
  | | |         4ce5: 3f a2 dc d5 95 9c 6a ff 5a fe 68 99 91 50 dc 23 [?.....j.Z.h..P.#]
  | | |         4cf5: 35 12 b7 1d 4e 44 00 87 d3 e6 c0 61 d6 f8 f1 ab [5...ND.....a....]
  | | |         4d05: 30 7a 93 65 05 6c 9a 8f 4b ce 18 29 02 a0 04 33 [0z.e.l..K..)...3]
  | | |         4d15: 27 e2 65 ad bc 94 33 97 c3 b6 70 f1 39 48 1f bb ['.e...3...p.9H..]
  | | |         4d25: 1e 4a 3c f5 75 bc cb 9f 3a 9e e4 b8 80 f1 36 42 [.J<.u...:.....6B]
  | | |         4d35: 6b b3 5f 3d 66 e4 29 a7 b3 86 64 81 a9 98 4e cb [k._=f.)...d...N.]
  | | |         4d45: 0f 1a ec 85 e5 0c fa af 2b 6e 79 49 f9 40 67 53 [........+nyI.@gS]
  | | |         4d55: 0b 82 c6 cd 9f 34 92 b7 a3 56 d4 11 1d e8 7e db [.....4...V....~.]
  | | |         4d65: e0 ea 83 15 55 5c 2a bf 1b 3e 28 d9 50 90 97 63 [....U\*..>(.P..c]
  | | |         4d75: f7 52 74 5d 0d 84 c3 c7 92 26 80 a1 89 38 af eb [.Rt].....&...8..]
  | | |         4d85: ee ba 4c a5 c5 ad 5a ce 0b 0f d8 69 c1 e0 c6 73 [..L...Z....i...s]
  | | |         4d95: e7 22 24 ed 7d d4 f2 d7 83 f6 30 31 f9 88 de fb [."$.}.....01....]
  | | |         4da5: df 8a fd 35 2d fc 8b df f7 de 8a f9 33 30 f7 83 [...5-.......30..]
  | | |         4db5: d6 f2 d0 7d e9 24 22 e7 6c c6 ff c1 69 d8 0e 0b [...}.$".l...i...]
  | | |         4dc5: cf 5a ac c5 a4 4c bb ef eb ae 38 89 a1 80 27 93 [.Z...L....8...'.]
  | | |         4dd5: c6 c2 84 0d 5d 74 53 f7 62 96 90 51 d9 29 3e 1a [....]tS.b..Q.)>.]
  | | |         4de5: bf 2b 5c 55 15 9c ea ff db 7e e8 19 11 d0 56 a3 [.+\U.....~....V.]
  | | |         4df5: b7 92 34 9d cd c4 82 07 53 66 40 e1 51 78 6e 2b [..4.....Sf@.Qxn+]
  | | |         4e05: a3 fa 0e e5 87 ec 1a 0f cb 4e 9c a9 85 20 86 b3 [.........N... ..]
  | | |         4e15: af 62 fb 2d 3d 14 b2 17 42 36 f0 71 b9 c8 9f 3b [.b.-=...B6.q...;]
  | | |         4e25: 9e ca bc 75 f5 3c 4a 1f bb 1e 49 39 f1 70 b7 c3 [...u.<J...I9.p..]
  | | |         4e35: 96 32 94 bd ad 65 e2 26 33 07 a0 01 29 18 ce 4b [.2...e.&3...)..K]
  | | |         4e45: 8f 9a 6c 05 65 8c 7a 2f ab ee f8 c9 61 c0 e6 d3 [..l.e.z/....a...]
  | | |         4e55: 87 02 44 4d 1d b4 12 37 23 d6 50 91 99 68 fe 5b [..DM...7#.P..h.[]
  | | |         4e65: 7f 6a 18 95 d1 dc a8 3f 9b be a8 59 51 10 16 e3 [.j.....?...YQ...]
  | | |         4e75: 76 d2 f4 dd 8d 04 43 47 12 a6 00 21 09 b8 2e 6b [v.....CG...!...k]
  | | |         4e85: 6f 3a cd 25 44 2c db 4f 8a 8e 58 e9 41 61 46 f2 [o:.%D,.O..X.AaF.]
  | | |         4e95: 67 a3 a4 6d fd 54 72 57 03 76 b0 b1 79 08 5e 7b [g..m.TrW.v..y.^{]
  | | |         4ea5: 5f 0a 7c b5 b5 7c 0a 5f 7b 5e 08 79 b1 b0 76 03 [_.|..|._{^.y..v.]
  | | |         4eb5: 57 72 54 fd 6d a4 a2 67 f3 46 64 41 ed 58 8c 8b [WrT.m..g.FdA.X..]
  | | |         4ec5: 4f da 2c 45 a5 cc 3a 6f 6a 2e b8 09 21 00 a7 13 [O.,E..:oj...!...]
  | | |         4ed5: 46 42 04 8d dd f4 d2 77 e3 16 11 d1 58 a8 bf 9b [FB.....w....X...]
  | | |         4ee5: 3e aa dc d5 95 1d 6a 7e 5b ff 68 99 91 50 d6 23 [>.....j~[.h..P.#]
  | | |         4ef5: 37 12 b4 1d 4d 44 02 87 d3 e6 c0 61 c9 f8 ee ab [7...MD.....a....]
  | | |         4f05: 2f 7a 8c 65 05 6c 9a 8f 4b ce 18 29 01 a0 06 33 [/z.e.l..K..)...3]
  | | |         4f15: 27 e2 60 ad b9 94 30 97 c3 b6 70 f1 b9 48 1e bb ['.`...0...p..H..]
  | | |         4f25: 19 4b 77 b4 6e 43 50 60 f4 61 f6 f9 82 0f 27 43 [.Kw.nCP`.a....'C]
  | | |         4f35: 74 4d 98 7d 3d e4 62 a0 b5 88 20 95 a9 99 4e cb [tM.}=.b... ...N.]
  | | |         4f45: 0c 9a 6c 05 65 8c 7a 2f ab ee f8 c9 61 c0 e6 d3 [..l.e.z/....a...]
  | | |         4f55: 87 02 44 4d 1d b4 12 37 23 d6 50 91 99 68 fe 5b [..DM...7#.P..h.[]
  | | |         4f65: 7f eb 9c 14 55 5d 3e bf 1b 3f 28 26 51 90 97 61 [....U]>..?(&Q..a]
  | | |         4f75: f7 52 75 5d 0d 84 c2 c7 93 27 80 5e 88 38 ae 14 [.Ru].....'.^.8..]
  | | |         4f85: ef 45 4c 5a c5 53 5a 30 0b f1 d8 96 c1 1f c6 8c [.ELZ.SZ0........]
  | | |         4f95: e7 dd 24 12 7d 2b f2 28 83 09 30 ce f9 77 de 04 [..$.}+.(..0..w..]
  | | |         4fa5: c2 8a 89 35 11 df cb f4 ff 21 e4 f7 91 39 ba 82 [...5.....!...9..]
  | | |         4fb5: 22 f3 81 7c ed 24 22 e6 73 c6 e0 3e 69 d8 2e f3 ["..|.$".s..>i...]
  | | |         4fc5: 4f 5a a8 35 a7 4c be 07                         [OZ.5.L..]
  | | | + [Decrypted ColorBalance0219 directory]
  | | | |       0000: 30 32 32 33 20 b2 01 02 00 10 ef 01 7b 01 f1 01 [0223 .......{...]
  | | | |       0010: 7c 01 00 00 80 80 80 80 80 80 80 80 80 80 80 80 [|...............]
  | | | |       0020: 80 80 80 80 80 80 80 80 80 80 80 80 80 80 80 80 [................]
  | | | |       0030: 80 80 80 80 00 00 80 80 80 80 80 80 80 80 80 80 [................]
  | | | |       0040: 80 80 80 80 80 80 80 80 80 80 80 80 80 80 80 80 [................]
  | | | |       0050: 80 80 80 80 80 80 f7 00 b1 01 b2 00 03 3f 4b 41 [.............?KA]
  | | | |       0060: 1b ff 9a ff cf ff 3e 40 f3 ff 11 00 63 ff 8c 40 [......>@....c..@]
  | | | |       0070: 07 00 01 00 84 00 00 00 00 00 00 00 00 00 00 00 [................]
  | | | |       0080: f1 01 00 01 00 01 7c 01 a8 fd a8 fd a8 fd a8 fd [......|.........]
  | | | |       0090: 2c 01 2c 01 2c 01 2c 01 00 00 0e 01 60 00 b1 00 [,.,.,.,.....`...]
  | | | |       00a0: 60 00 02 02 02 02 38 01 40 00 17 15 03 00 32 00 [`.....8.@.....2.]
  | | | |       00b0: 0d 00 1a 00 02 00 02 00 00 00 1d 00 04 00 04 00 [................]
  | | | |       00c0: 00 00 03 00 1c 00 00 00 18 00 1e 00 12 00 02 00 [................]
  | | | |       00d0: 02 00 0b 00 0b 00 04 04 00 07 07 00 00 00 40 00 [..............@.]
  | | | |       00e0: 66 00 02 0f ff 03 1f f5 1f 0f c8 00 90 01 20 03 [f............. .]
  | | | |       00f0: 48 0d 10 0e 08 10 1f 1f ad 00 41 01 00 01 a0 00 [H.........A.....]
  | | | |       0100: f0 00 cc ff 00 00 00 00 d0 00 04 00 ff 00 00 00 [................]
  | | | |       0110: 80 00 2c 01 1c 02 00 01 00 01 00 01 00 00 00 00 [..,.............]
  | | | |       0120: 00 00 00 00 00 00 00 00 00 00 00 00 00 00 ff 7f [................]
  | | | |       0130: 00 01 00 01 00 01 ff 03 00 00 04 00 00 00 00 04 [................]
  | | | |       0140: 00 00 00 00 00 00 00 04 00 00 00 00 00 00 00 04 [................]
  | | | |       0150: 96 00 1b 01 20 00 a6 ff f4 fe 66 01 89 01 8e fe [.... .....f.....]
  | | | |       0160: e9 ff 33 00 00 01 80 00 80 00 80 00 80 00 40 00 [..3...........@.]
  | | | |       0170: 80 00 00 00 01 00 00 04 00 04 00 04 00 04 00 04 [................]
  | | | |       0180: 00 00 00 00 00 00 1f 04 ff ff 00 00 bb ff ac 03 [................]
  | | | |       0190: 03 03 00 00 00 00 03 00 33 02 00 00 00 00 00 00 [........3.......]
  | | | |       01a0: fd 01 36 00 00 00 ca ff fd 01 00 00 01 01 ff fd [..6.............]
  | | | |       01b0: fc fe 00 05 28 00 00 00 00 00 00 00 b4 00 a0 00 [....(...........]
  | | | |       01c0: 00 01 00 01 01 01 04 04 04 00 00 00 16 2c 2c 00 [.............,,.]
  | | | |       01d0: 00 08 00 00 00 00 00 00 00 08 00 00 00 00 00 00 [................]
  | | | |       01e0: 00 08 00 00 00 80 00 80 01 00 00 00 00 00 0a 00 [................]
  | | | |       01f0: 02 00 03 00 03 00 02 00 00 00 00 00 1f 00 1f 00 [................]
  | | | |       0200: 1f 00 1f 00 00 00 00 00 00 00 00 00 03 00 02 00 [................]
  | | | |       0210: 00 00 01 00 01 00 01 00 00 00 00 00 00 00 01 00 [................]
  | | | |       0220: 01 00 00 00 00 00 01 00 01 00 2c 01 f1 01 00 01 [..........,.....]
  | | | |       0230: 7c 01 4b 00 4b 00 4b 00 00 00 44 00 00 00 00 00 [|.K.K.K...D.....]
  | | | |       0240: 00 00 00 00 00 00 00 00 00 00 01 00 18 00 01 00 [................]
  | | | |       0250: 0c 00 02 00 02 00 00 00 00 00 04 00 04 00 00 00 [................]
  | | | |       0260: 1f 00 1f 00 00 00 00 00 00 00 00 00 01 00 01 00 [................]
  | | | |       0270: 00 00 00 00 00 00 01 00 01 00 00 00 00 00 01 00 [................]
  | | | |       0280: 01 00 00 00 00 01 00 01 00 01 00 00 00 00 00 00 [................]
  | | | |       0290: 00 00 00 00 00 00 00 00 00 00 00 00 00 00 00 00 [................]
  | | | |       02a0: 00 00 01 00 18 00 01 00 0c 00 02 00 02 00 01 00 [................]
  | | | |       02b0: 01 00 04 00 04 00 00 00 1f 00 1f 00 00 00 00 00 [................]
  | | | |       02c0: 00 00 00 00 01 00 01 00 00 00 00 00 00 00 01 00 [................]
  | | | |       02d0: 01 00 00 00 00 00 01 00 01 00 00 00 00 01 00 01 [................]
  | | | |       02e0: 00 01 00 00 00 00 00 00 00 00 00 00 00 00 00 00 [................]
  | | | |       02f0: 00 00 00 00 00 00 00 00 00 00 00 00 18 00 00 00 [................]
  | | | |       0300: 0c 00 02 00 02 00 00 00 00 00 04 00 04 00 00 00 [................]
  | | | |       0310: 08 00 1f 00 00 00 00 00 01 00 00 00 00 00 01 00 [................]
  | | | |       0320: 01 00 00 00 00 00 00 00 00 00 01 00 00 00 01 00 [................]
  | | | |       0330: 01 00 00 00 00 01 00 01 00 01 00 00 00 00 00 00 [................]
  | | | |       0340: 00 00 00 00 00 00 00 00 00 00 00 00 00 00 00 00 [................]
  | | | |       0350: 00 00 00 00 00 00 00 00 00 00 00 00 00 00 00 00 [................]
  | | | |       0360: 00 00 04 00 04 00 02 00 00 00 00 00 80 00 00 00 [................]
  | | | |       0370: 01 00 00 00 00 00 01 00 01 00 00 00 00 00 00 00 [................]
  | | | |       0380: 00 00 01 00 01 00 01 00 01 00 00 00 00 01 00 01 [................]
  | | | |       0390: 00 01 00 00 00 00 00 00 00 00 00 00 00 00 00 00 [................]
  | | | |       03a0: 00 00 00 00 00 00 00 00 00 00 00 00 00 00 00 00 [................]
  | | | |       03b0: 00 00 00 00 00 00 00 00 00 00 04 00 04 00 02 00 [................]
  | | | |       03c0: 00 00 00 00 80 00 00 00 01 00 00 00 00 00 01 00 [................]
  | | | |       03d0: 01 00 00 00 00 00 00 00 00 00 01 00 01 00 01 00 [................]
  | | | |       03e0: 01 00 00 00 00 01 00 01 00 01 00 00 00 00 00 00 [................]
  | | | |       03f0: 00 00 00 00 00 00 00 00 00 00 00 00 00 00 00 00 [................]
  | | | |       0400: 00 00 00 00 00 00 00 00 00 00 00 00 00 00 00 00 [................]
  | | | |       0410: 00 00 04 00 04 00 02 00 00 00 00 00 80 00 00 00 [................]
  | | | |       0420: 06 01 4b 41 1b ff 9a ff cf ff 3e 40 f3 ff 11 00 [..KA......>@....]
  | | | |       0430: 63 ff 8c 40 10 00 00 07 06 0e 00 14 00 01 00 00 [c..@............]
  | | | |       0440: 03 80 80 80 80 80 80 80 80 80 80 80 80 80 80 80 [................]
  | | | |       0450: 80 80 80 80 80 80 80 80 80 80 80 80 80 80 80 80 [................]
  | | | |       0460: 80 01 00 01 00 01 14 00 00 01 00 ff 00 00 01 02 [................]
  | | | |       0470: 00 00 01 00 00 00 00 00 00 01 00 ff 01 00 00 ff [................]
  | | | |       0480: 00 ff 00 ff 00 ff 00 ff 00 ff 00 ff 00 ff 00 ff [................]
  | | | |       0490: 00 ff 00 ff 00 ff 00 ff 00 ff 00 ff 00 ff 00 ff [................]
  | | | |       04a0: 1d 00 75 00 24 23 41 2b 04 ff 6c 0e a0 09 4c 01 [..u.$#A+..l...L.]
  | | | |       04b0: f5 01 55 01 00 00 00 01 00 00 00 ff 00 00 20 f8 [..U........... .]
  | | | |       04c0: 80 00 04 f0 02 00 04 e8                         [........]
  | | | + [BinaryData directory, 1096 bytes, Little-endian]
  | | | | WB_RGGBLevels = 497 256 256 380
  | | | | - Tag 0x0000 (8 bytes, int16u[4]):
  | | | |     4b85: f1 01 00 01 00 01 7c 01                         [......|.]
  | | | 44) LensData0204 (SubDirectory) -->
  | | |     - Tag 0x0098 (33 bytes, undef[33]):
  | | |         4fcd: 30 32 30 34 1c 67 98 8e 4b 8e 18 4b 00 f4 64 51 [0204.g..K..K..dQ]
  | | |         4fdd: 2b ee 64 a1 bd 94 32 97 c3 b6 70 f1 39 48 1e bb [+.d...2...p.9H..]
  | | |         4fed: 1f                                              [.]
  | | | + [Decrypted LensData0204 directory]
  | | | |       0000: 30 32 30 34 19 0b 02 01 00 40 00 62 01 54 62 62 [0204.....@.b.Tbb]
  | | | |       0010: 0c 0c 00 0c 00 00 00 00 00 00 00 00 00 00 00 00 [................]
  | | | |       0020: 00                                              [.]
  | | | + [BinaryData directory, 33 bytes, Little-endian]
  | | | | LensDataVersion = 0204
  | | | | - Tag 0x0000 (4 bytes, string[4]):
  | | | |     4fcd: 30 32 30 34                                     [0204]
  | | | | ExitPupilPosition = 25
  | | | | - Tag 0x0004 (1 bytes, int8u[1]):
  | | | |     4fd1: 19                                              [.]
  | | | | AFAperture = 11
  | | | | - Tag 0x0005 (1 bytes, int8u[1]):
  | | | |     4fd2: 0b                                              [.]
  | | | | FocusPosition = 0
  | | | | - Tag 0x0008 (1 bytes, int8u[1]):
  | | | |     4fd5: 00                                              [.]
  | | | | FocusDistance = 0
  | | | | - Tag 0x000a (1 bytes, int8u[1]):
  | | | |     4fd7: 00                                              [.]
  | | | | FocalLength = 98
  | | | | - Tag 0x000b (1 bytes, int8u[1]):
  | | | |     4fd8: 62                                              [b]
  | | | | LensIDNumber = 1
  | | | | - Tag 0x000c (1 bytes, int8u[1]):
  | | | |     4fd9: 01                                              [.]
  | | | | LensFStops = 84
  | | | | - Tag 0x000d (1 bytes, int8u[1]):
  | | | |     4fda: 54                                              [T]
  | | | | MinFocalLength = 98
  | | | | - Tag 0x000e (1 bytes, int8u[1]):
  | | | |     4fdb: 62                                              [b]
  | | | | MaxFocalLength = 98
  | | | | - Tag 0x000f (1 bytes, int8u[1]):
  | | | |     4fdc: 62                                              [b]
  | | | | MaxApertureAtMinFocal = 12
  | | | | - Tag 0x0010 (1 bytes, int8u[1]):
  | | | |     4fdd: 0c                                              [.]
  | | | | MaxApertureAtMaxFocal = 12
  | | | | - Tag 0x0011 (1 bytes, int8u[1]):
  | | | |     4fde: 0c                                              [.]
  | | | | MCUVersion = 0
  | | | | - Tag 0x0012 (1 bytes, int8u[1]):
  | | | |     4fdf: 00                                              [.]
  | | | | EffectiveMaxAperture = 12
  | | | | - Tag 0x0013 (1 bytes, int8u[1]):
  | | | |     4fe0: 0c                                              [.]
  | | | 45) RetouchHistory = 0 0 0 0 0 0 0 0 0 0
  | | |     - Tag 0x009e (20 bytes, int16u[10]):
  | | |         4ff1: 00 00 00 00 00 00 00 00 00 00 00 00 00 00 00 00 [................]
  | | |         5001: 00 00 00 00                                     [....]
  | | | 46) ImageDataSize = 20228364
  | | |     - Tag 0x00a2 (4 bytes, int32u[1]):
  | | |         05cd: 0c a9 34 01                                     [..4.]
  | | | 47) Nikon_0x00a3 = 0
  | | |     - Tag 0x00a3 (1 bytes, int8u[1]):
  | | |         05d9: 00                                              [.]
  | | | 48) ShutterCount = 55933
  | | |     - Tag 0x00a7 (4 bytes, int32u[1]):
  | | |         05e5: 7d da 00 00                                     [}...]
  | | | 49) FlashInfo0107 (SubDirectory) -->
  | | |     - Tag 0x00a8 (51 bytes, undef[51]):
  | | |         5005: 30 31 30 37 00 00 00 00 00 00 00 00 00 00 00 00 [0107............]
  | | |         5015: 00 00 00 00 00 00 00 00 00 00 00 00 00 00 00 00 [................]
  | | |         5025: 00 00 00 00 00 00 00 00 00 00 00 00 00 00 00 00 [................]
  | | |         5035: 00 00 00                                        [...]
  | | | + [BinaryData directory, 51 bytes, Little-endian]
  | | | | FlashInfoVersion = 0107
  | | | | - Tag 0x0000 (4 bytes, string[4]):
  | | | |     5005: 30 31 30 37                                     [0107]
  | | | | FlashSource = 0
  | | | | - Tag 0x0004 (1 bytes, int8u[1]):
  | | | |     5009: 00                                              [.]
  | | | | ExternalFlashFirmware = 0 0
  | | | | - Tag 0x0006 (2 bytes, int8u[2]):
  | | | |     500b: 00 00                                           [..]
  | | | | ExternalFlashZoomOverride = 0
  | | | | - Tag '8.1', mask 0x80 (1 bytes, int8u[1]):
  | | | |     500d: 00                                              [.]
  | | | | ExternalFlashStatus = 0
  | | | | - Tag '8.2', mask 0x01 (1 bytes, int8u[1]):
  | | | |     500d: 00                                              [.]
  | | | | ExternalFlashReadyState = 0
  | | | | - Tag '9.1', mask 0x07 (1 bytes, int8u[1]):
  | | | |     500e: 00                                              [.]
  | | | | FlashCompensation = 0
  | | | | - Tag 0x000a (1 bytes, int8s[1]):
  | | | |     500f: 00                                              [.]
  | | | | FlashFocalLength = 0
  | | | | - Tag 0x000c (1 bytes, int8u[1]):
  | | | |     5011: 00                                              [.]
  | | | | RepeatingFlashRate = 0
  | | | | - Tag 0x000d (1 bytes, int8u[1]):
  | | | |     5012: 00                                              [.]
  | | | | RepeatingFlashCount = 0
  | | | | - Tag 0x000e (1 bytes, int8u[1]):
  | | | |     5013: 00                                              [.]
  | | | | FlashGNDistance = 0
  | | | | - Tag 0x000f (1 bytes, int8u[1]):
  | | | |     5014: 00                                              [.]
  | | | | FlashGroupAControlMode = 0
  | | | | - Tag '17.1', mask 0x0f (1 bytes, int8u[1]):
  | | | |     5016: 00                                              [.]
  | | | | FlashGroupBControlMode = 0
  | | | | - Tag '18.1', mask 0xf0 (1 bytes, int8u[1]):
  | | | |     5017: 00                                              [.]
  | | | | FlashGroupCControlMode = 0
  | | | | - Tag '18.2', mask 0x0f (1 bytes, int8u[1]):
  | | | |     5017: 00                                              [.]
  | | | | FlashGroupACompensation = 0
  | | | | - Tag 0x0028 (1 bytes, int8s[1]):
  | | | |     502d: 00                                              [.]
  | | | | FlashGroupBCompensation = 0
  | | | | - Tag 0x0029 (1 bytes, int8s[1]):
  | | | |     502e: 00                                              [.]
  | | | | FlashGroupCCompensation = 0
  | | | | - Tag 0x002a (1 bytes, int8s[1]):
  | | | |     502f: 00                                              [.]
  | | | 50) MultiExposure (SubDirectory) -->
  | | |     - Tag 0x00b0 (16 bytes, undef[16]):
  | | |         5039: 30 31 30 30 00 00 00 00 00 00 00 00 00 00 00 00 [0100............]
  | | | + [BinaryData directory, 16 bytes, Little-endian]
  | | | | MultiExposureVersion = 0100
  | | | | - Tag 0x0000 (4 bytes, string[4]):
  | | | |     5039: 30 31 30 30                                     [0100]
  | | | | MultiExposureMode = 0
  | | | | - Tag 0x0001 (4 bytes, int32u[1]):
  | | | |     503d: 00 00 00 00                                     [....]
  | | | | MultiExposureShots = 0
  | | | | - Tag 0x0002 (4 bytes, int32u[1]):
  | | | |     5041: 00 00 00 00                                     [....]
  | | | | MultiExposureAutoGain = 0
  | | | | - Tag 0x0003 (4 bytes, int32u[1]):
  | | | |     5045: 00 00 00 00                                     [....]
  | | | 51) HighISONoiseReduction = 6
  | | |     - Tag 0x00b1 (2 bytes, int16u[1]):
  | | |         0609: 06 00                                           [..]
  | | | 52) PowerUpTime = .....3.
  | | |     - Tag 0x00b6 (8 bytes, undef[8]):
  | | |         5049: e2 07 0a 0a 07 33 06 00                         [.....3..]
  | | | 53) AFInfo2 (SubDirectory) -->
  | | |     - Tag 0x00b7 (30 bytes, undef[30]):
  | | |         5051: 30 31 30 30 00 00 00 00 00 00 00 00 00 00 00 00 [0100............]
  | | |         5061: 00 00 00 00 00 00 00 00 00 00 00 00 00 00       [..............]
  | | | + [BinaryData directory, 30 bytes, Little-endian]
  | | | | AFInfo2Version = 0100
  | | | | - Tag 0x0000 (4 bytes, undef[4]):
  | | | |     5051: 30 31 30 30                                     [0100]
  | | | | AFDetectionMethod = 0
  | | | | - Tag 0x0004 (1 bytes, int8u[1]):
  | | | |     5055: 00                                              [.]
  | | | | AFAreaMode = 0
  | | | | - Tag 0x0005 (1 bytes, int8u[1]):
  | | | |     5056: 00                                              [.]
  | | | | FocusPointSchema = 0
  | | | | - Tag 0x0006 (1 bytes, int8u[1]):
  | | | |     5057: 00                                              [.]
  | | | | PrimaryAFPoint = 0
  | | | | - Tag 0x0007 (1 bytes, int8u[1]):
  | | | |     5058: 00                                              [.]
  | | | | AFPointsUsed = 0
  | | | | - Tag 0x0008 (1 bytes, int8u[1]):
  | | | |     5059: 00                                              [.]
  | | | 54) FileInfo (SubDirectory) -->
  | | |     - Tag 0x00b8 (172 bytes, undef[172]):
  | | |         5071: 30 31 30 30 01 00 17 03 48 13 00 00 00 00 00 00 [0100....H.......]
  | | |         5081: 00 00 00 00 00 00 00 00 00 00 00 00 00 00 00 00 [................]
  | | |         5091: 00 00 00 00 00 00 00 00 00 00 00 00 00 00 00 00 [................]
  | | |         50a1: 00 00 00 00 00 00 00 00 00 00 00 00 00 00 00 00 [................]
  | | |         50b1: 00 00 00 00 00 00 00 00 00 00 00 00 00 00 00 00 [................]
  | | |         50c1: 00 00 00 00 00 00 00 00 00 00 00 00 00 00 00 00 [................]
  | | |         50d1: 00 00 00 00 00 00 00 00 00 00 00 00 00 00 00 00 [................]
  | | |         50e1: 00 00 00 00 00 00 00 00 00 00 00 00 00 00 00 00 [................]
  | | |         50f1: 00 00 00 00 00 00 00 00 00 00 00 00 00 00 00 00 [................]
  | | |         5101: 00 00 00 00 00 00 00 00 00 00 00 00 00 00 00 00 [................]
  | | |         5111: 00 00 00 00 00 00 00 00 00 00 00 00             [............]
  | | | + [BinaryData directory, 172 bytes, Little-endian]
  | | | | FileInfoVersion = 0100
  | | | | - Tag 0x0000 (4 bytes, undef[4]):
  | | | |     5071: 30 31 30 30                                     [0100]
  | | | | MemoryCardNumber = 1
  | | | | - Tag 0x0002 (2 bytes, int16u[1]):
  | | | |     5075: 01 00                                           [..]
  | | | | DirectoryNumber = 791
  | | | | - Tag 0x0003 (2 bytes, int16u[1]):
  | | | |     5077: 17 03                                           [..]
  | | | | FileNumber = 4936
  | | | | - Tag 0x0004 (2 bytes, int16u[1]):
  | | | |     5079: 48 13                                           [H.]
  | | | 55) AFTune (SubDirectory) -->
  | | |     - Tag 0x00b9 (4 bytes, undef[4]):
  | | |         0639: 00 ff 00 00                                     [....]
  | | | + [BinaryData directory, 4 bytes, Little-endian]
  | | | | AFFineTune = 0
  | | | | - Tag 0x0000 (1 bytes, int8u[1]):
  | | | |     0639: 00                                              [.]
  | | | | AFFineTuneIndex = 255
  | | | | - Tag 0x0001 (1 bytes, int8u[1]):
  | | | |     063a: ff                                              [.]
  | | | | AFFineTuneAdj = 0
  | | | | - Tag 0x0002 (1 bytes, int8s[1]):
  | | | |     063b: 00                                              [.]
  | | | | AFFineTuneAdjTele = 0
  | | | | - Tag 0x0003 (1 bytes, int8s[1]):
  | | | |     063c: 00                                              [.]
  | | | 56) RetouchInfo (SubDirectory) -->
  | | |     - Tag 0x00bb (8 bytes, undef[8]):
  | | |         511d: 30 32 30 30 ff ff ff 00                         [0200....]
  | | | + [BinaryData directory, 8 bytes, Little-endian]
  | | | | RetouchInfoVersion = 0200
  | | | | - Tag 0x0000 (4 bytes, undef[4]):
  | | | |     511d: 30 32 30 30                                     [0200]
  | | | | RetouchNEFProcessing = -1
  | | | | - Tag 0x0005 (1 bytes, int8s[1]):
  | | | |     5122: ff                                              [.]
  | | | 57) SilentPhotography = 0
  | | |     - Tag 0x00bf (2 bytes, int16u[1]):
  | | |         0651: 00 00                                           [..]
  | | | 58) Nikon_0x00c0 = 4.....
  | | |     - Tag 0x00c0 (8 bytes, undef[8]):
  | | |         5125: 34 01 0c 00 90 01 0c 00                         [4.......]
  | | 17) UserComment = ASCII                                    
  | |     - Tag 0x9286 (44 bytes, undef[44]):
  | |         512e: 41 53 43 49 49 00 00 00 20 20 20 20 20 20 20 20 [ASCII...        ]
  | |         513e: 20 20 20 20 20 20 20 20 20 20 20 20 20 20 20 20 [                ]
  | |         514e: 20 20 20 20 20 20 20 20 20 20 20 20             [            ]
  | | 18) SubSecTime = 70
  | |     - Tag 0x9290 (2 bytes, string[2]):
  | |         0219: 37 30                                           [70]
  | | 19) SubSecTimeOriginal = 70
  | |     - Tag 0x9291 (2 bytes, string[2]):
  | |         0225: 37 30                                           [70]
  | | 20) SubSecTimeDigitized = 70
  | |     - Tag 0x9292 (2 bytes, string[2]):
  | |         0231: 37 30                                           [70]
  | | 21) FlashpixVersion = 0100
  | |     - Tag 0xa000 (4 bytes, undef[4]):
  | |         023d: 30 31 30 30                                     [0100]
  | | 22) ColorSpace = 1
  | |     - Tag 0xa001 (2 bytes, int16u[1]):
  | |         0249: 00 01                                           [..]
  | | 23) ExifImageWidth = 4522
  | |     - Tag 0xa002 (4 bytes, int32u[1]):
  | |         0255: 00 00 11 aa                                     [....]
  | | 24) ExifImageHeight = 6783
  | |     - Tag 0xa003 (4 bytes, int32u[1]):
  | |         0261: 00 00 1a 7f                                     [....]
  | | 25) SensingMethod = 2
  | |     - Tag 0xa217 (2 bytes, int16u[1]):
  | |         026d: 00 02                                           [..]
  | | 26) FileSource = 3
  | |     - Tag 0xa300 (1 bytes, undef[1]):
  | |         0279: 03                                              [.]
  | | 27) SceneType = 1
  | |     - Tag 0xa301 (1 bytes, undef[1]):
  | |         0285: 01                                              [.]
  | | 28) CFAPattern = .....
  | |     - Tag 0xa302 (8 bytes, undef[8]):
  | |         515b: 02 00 02 00 00 01 01 02                         [........]
  | | 29) CustomRendered = 0
  | |     - Tag 0xa401 (2 bytes, int16u[1]):
  | |         029d: 00 00                                           [..]
  | | 30) ExposureMode = 1
  | |     - Tag 0xa402 (2 bytes, int16u[1]):
  | |         02a9: 00 01                                           [..]
  | | 31) WhiteBalance = 0
  | |     - Tag 0xa403 (2 bytes, int16u[1]):
  | |         02b5: 00 00                                           [..]
  | | 32) DigitalZoomRatio = 1 (1/1)
  | |     - Tag 0xa404 (8 bytes, rational64u[1]):
  | |         5164: 00 00 00 01 00 00 00 01                         [........]
  | | 33) FocalLengthIn35mmFormat = 85
  | |     - Tag 0xa405 (2 bytes, int16u[1]):
  | |         02cd: 00 55                                           [.U]
  | | 34) SceneCaptureType = 0
  | |     - Tag 0xa406 (2 bytes, int16u[1]):
  | |         02d9: 00 00                                           [..]
  | | 35) GainControl = 0 (0/1)
  | |     - Tag 0xa407 (8 bytes, rational64u[1]):
  | |         516d: 00 00 00 00 00 00 00 01                         [........]
  | | 36) Contrast = 0
  | |     - Tag 0xa408 (2 bytes, int16u[1]):
  | |         02f1: 00 00                                           [..]
  | | 37) Saturation = 0
  | |     - Tag 0xa409 (2 bytes, int16u[1]):
  | |         02fd: 00 00                                           [..]
  | | 38) Sharpness = 0
  | |     - Tag 0xa40a (2 bytes, int16u[1]):
  | |         0309: 00 00                                           [..]
  | | 39) SubjectDistanceRange = 0
  | |     - Tag 0xa40c (2 bytes, int16u[1]):
  | |         0315: 00 00                                           [..]
  | | 40) Gamma = 2.2 (11/5)
  | |     - Tag 0xa500 (8 bytes, rational64u[1]):
  | |         5176: 00 00 00 0b 00 00 00 05                         [........]
  | 13) GPSInfo (SubDirectory) -->
  |     - Tag 0x8825 (4 bytes, int32u[1]):
  |         00ba: 00 00 51 75                                     [..Qu]
  | + [GPS directory with 1 entries, Big-endian]
  | | 0)  GPSVersionID = 2 3 0 0
  | |     - Tag 0x0000 (4 bytes, int8u[4]):
  | |         518b: 02 03 00 00                                     [....]
  Warning = Short directory size for IFD1 (missing 393883 bytes)
  | Warning = Bad IFD1 directory
JPEG APP13 (162 bytes):
      5197: 50 68 6f 74 6f 73 68 6f 70 20 33 2e 30 00 38 42 [Photoshop 3.0.8B]
      51a7: 49 4d 04 04 00 00 00 00 00 87 1c 02 78 00 31 67 [IM..........x.1g]
      51b7: 75 69 6e 65 61 20 70 69 67 20 73 69 74 74 69 6e [uinea pig sittin]
      51c7: 67 20 69 6e 20 66 72 6f 6e 74 20 6f 66 20 74 6f [g in front of to]
      51d7: 79 20 61 72 63 61 64 65 20 6d 61 63 68 69 6e 65 [y arcade machine]
      51e7: 1c 02 00 00 02 00 04 1c 02 19 00 06 6d 61 6d 6d [............mamm]
      51f7: 61 6c 1c 02 19 00 06 61 6e 69 6d 61 6c 1c 02 19 [al.....animal...]
      [snip 50 bytes]
  + [Photoshop directory, 148 bytes]
  | IPTCData (SubDirectory) -->
  | - Tag 0x0404 (135 bytes):
  |     51b1: 1c 02 78 00 31 67 75 69 6e 65 61 20 70 69 67 20 [..x.1guinea pig ]
  |     51c1: 73 69 74 74 69 6e 67 20 69 6e 20 66 72 6f 6e 74 [sitting in front]
  |     51d1: 20 6f 66 20 74 6f 79 20 61 72 63 61 64 65 20 6d [ of toy arcade m]
  |     51e1: 61 63 68 69 6e 65 1c 02 00 00 02 00 04 1c 02 19 [achine..........]
  |     51f1: 00 06 6d 61 6d 6d 61 6c 1c 02 19 00 06 61 6e 69 [..mammal.....ani]
  |     5201: 6d 61 6c 1c 02 19 00 0b 67 69 61 6e 74 20 70 61 [mal.....giant pa]
  |     5211: 6e 64 61 1c 02 19 00 04 62 65 61 72 1c 02 19 00 [nda.....bear....]
  |     5221: 08 77 69 6c 64 6c 69 66 65 1c 02 19 00 09 66 75 [.wildlife.....fu]
  |     5231: 72 6e 69 74 75 72 65                            [rniture]
  | + [IPTC directory, 135 bytes]
  | | CurrentIPTCDigest = =....N..E...^./y
  | | -- IPTCApplication record --
  | | Caption-Abstract = guinea pig sitting in front of toy arcade machine
  | | - Tag 0x0078, IPTCApplication record (49 bytes, string[0,2000]):
  | |     51b6: 67 75 69 6e 65 61 20 70 69 67 20 73 69 74 74 69 [guinea pig sitti]
  | |     51c6: 6e 67 20 69 6e 20 66 72 6f 6e 74 20 6f 66 20 74 [ng in front of t]
  | |     51d6: 6f 79 20 61 72 63 61 64 65 20 6d 61 63 68 69 6e [oy arcade machin]
  | |     51e6: 65                                              [e]
  | | ApplicationRecordVersion = 4
  | | - Tag 0x0000, IPTCApplication record (2 bytes, int16u):
  | |     51ec: 00 04                                           [..]
  | | Keywords = mammal
  | | - Tag 0x0019, IPTCApplication record (6 bytes, string[0,64]):
  | |     51f3: 6d 61 6d 6d 61 6c                               [mammal]
  | | Keywords = animal
  | | - Tag 0x0019, IPTCApplication record (6 bytes, string[0,64]):
  | |     51fe: 61 6e 69 6d 61 6c                               [animal]
  | | Keywords = giant panda
  | | - Tag 0x0019, IPTCApplication record (11 bytes, string[0,64]):
  | |     5209: 67 69 61 6e 74 20 70 61 6e 64 61                [giant panda]
  | | Keywords = bear
  | | - Tag 0x0019, IPTCApplication record (4 bytes, string[0,64]):
  | |     5219: 62 65 61 72                                     [bear]
  | | Keywords = wildlife
  | | - Tag 0x0019, IPTCApplication record (8 bytes, string[0,64]):
  | |     5222: 77 69 6c 64 6c 69 66 65                         [wildlife]
  | | Keywords = furniture
  | | - Tag 0x0019, IPTCApplication record (9 bytes, string[0,64]):
  | |     522f: 66 75 72 6e 69 74 75 72 65                      [furniture]
JPEG APP1 (13308 bytes):
      523d: 68 74 74 70 3a 2f 2f 6e 73 2e 61 64 6f 62 65 2e [http://ns.adobe.]
      524d: 63 6f 6d 2f 78 61 70 2f 31 2e 30 2f 00 3c 3f 78 [com/xap/1.0/.<?x]
      525d: 70 61 63 6b 65 74 20 62 65 67 69 6e 3d 22 ef bb [packet begin="..]
      526d: bf 22 20 69 64 3d 22 57 35 4d 30 4d 70 43 65 68 [." id="W5M0MpCeh]
      527d: 69 48 7a 72 65 53 7a 4e 54 63 7a 6b 63 39 64 22 [iHzreSzNTczkc9d"]
      528d: 3f 3e 3c 78 3a 78 6d 70 6d 65 74 61 20 78 6d 6c [?><x:xmpmeta xml]
      529d: 6e 73 3a 78 3d 22 61 64 6f 62 65 3a 6e 73 3a 6d [ns:x="adobe:ns:m]
      [snip 13196 bytes]
  + [XMP directory, 13279 bytes]
  | CreatorTool = NIKON D810 Ver.1.12     
  | - Tag 'x:xmpmeta/rdf:RDF/rdf:Description/xmp:CreatorTool'
  | CreateDate = 2019-01-04T14:18:04.70
  | - Tag 'x:xmpmeta/rdf:RDF/rdf:Description/xmp:CreateDate'
JPEG DQT (130 bytes):
      863d: 00 02 01 01 01 01 01 02 01 01 01 02 02 02 02 02 [................]
      864d: 04 03 02 02 02 02 05 04 04 03 04 06 05 06 06 06 [................]
      865d: 05 06 06 06 07 09 08 06 07 09 07 06 06 08 0b 08 [................]
      866d: 09 0a 0a 0a 0a 0a 06 08 0b 0c 0b 0a 0c 09 0a 0a [................]
      867d: 0a 01 02 02 02 02 02 02 05 03 03 05 0a 07 06 07 [................]
      868d: 0a 0a 0a 0a 0a 0a 0a 0a 0a 0a 0a 0a 0a 0a 0a 0a [................]
      869d: 0a 0a 0a 0a 0a 0a 0a 0a 0a 0a 0a 0a 0a 0a 0a 0a [................]
      [snip 18 bytes]
JPEG SOF0 (15 bytes):
      86c3: 08 1a 7f 11 aa 03 01 11 00 02 11 01 03 11 01    [...............]
  ImageWidth = 4522
  ImageHeight = 6783
  EncodingProcess = 0
  BitsPerSample = 8
  ColorComponents = 3
  YCbCrSubSampling = 1 1
JPEG DHT (416 bytes):
      86d6: 00 00 01 05 01 01 01 01 01 01 00 00 00 00 00 00 [................]
      86e6: 00 00 01 02 03 04 05 06 07 08 09 0a 0b 10 00 02 [................]
      86f6: 01 03 03 02 04 03 05 05 04 04 00 00 01 7d 01 02 [.............}..]
      8706: 03 00 04 11 05 12 21 31 41 06 13 51 61 07 22 71 [......!1A..Qa."q]
      8716: 14 32 81 91 a1 08 23 42 b1 c1 15 52 d1 f0 24 33 [.2....#B...R..$3]
      8726: 62 72 82 09 0a 16 17 18 19 1a 25 26 27 28 29 2a [br........%&'()*]
      8736: 34 35 36 37 38 39 3a 43 44 45 46 47 48 49 4a 53 [456789:CDEFGHIJS]
      [snip 304 bytes]
JPEG SOS
JPEG EOI
