  ExifToolVersion = 13.59
  FileName = media_66.dng
  Directory = C:/Users/micro/IdeaProjects/kim/src/commonTest/resources/de/stefan_oltmann/kim/testdata/full
  FileSize = 22064720
  FileModifyDate = 1776264337.02365
  FileAccessDate = 1786601584.90781
  FileCreateDate = 1776264336.98013
  FilePermissions = 33206
  FileType = DNG
  FileTypeExtension = DNG
  MIMEType = image/x-adobe-dng
  ExifByteOrder = II
  + [IFD0 directory with 59 entries, Little-endian]
  | 0)  SubfileType = 1
  |     - Tag 0x00fe (4 bytes, int32u[1]):
  |         0012: 01 00 00 00                                     [....]
  | 1)  ImageWidth = 256
  |     - Tag 0x0100 (4 bytes, int32u[1]):
  |         001e: 00 01 00 00                                     [....]
  | 2)  ImageHeight = 171
  |     - Tag 0x0101 (4 bytes, int32u[1]):
  |         002a: ab 00 00 00                                     [....]
  | 3)  BitsPerSample = 8 8 8
  |     - Tag 0x0102 (6 bytes, int16u[3]):
  |         02d2: 08 00 08 00 08 00                               [......]
  | 4)  Compression = 1
  |     - Tag 0x0103 (2 bytes, int16u[1]):
  |         0042: 01 00                                           [..]
  | 5)  PhotometricInterpretation = 2
  |     - Tag 0x0106 (2 bytes, int16u[1]):
  |         004e: 02 00                                           [..]
  | 6)  Make = Canon
  |     - Tag 0x010f (6 bytes, string[6]):
  |         02d8: 43 61 6e 6f 6e 00                               [Canon.]
  | 7)  Model = Canon EOS 60D
  |     - Tag 0x0110 (14 bytes, string[14]):
  |         02de: 43 61 6e 6f 6e 20 45 4f 53 20 36 30 44 00       [Canon EOS 60D.]
  | 8)  StripOffsets = 114342
  |     - Tag 0x0111 (4 bytes, int32u[1]):
  |         0072: a6 be 01 00                                     [....]
  | 9)  Orientation = 1
  |     - Tag 0x0112 (2 bytes, int16u[1]):
  |         007e: 01 00                                           [..]
  | 10) SamplesPerPixel = 3
  |     - Tag 0x0115 (2 bytes, int16u[1]):
  |         008a: 03 00                                           [..]
  | 11) RowsPerStrip = 171
  |     - Tag 0x0116 (4 bytes, int32u[1]):
  |         0096: ab 00 00 00                                     [....]
  | 12) StripByteCounts = 131328
  |     - Tag 0x0117 (4 bytes, int32u[1]):
  |         00a2: 00 01 02 00                                     [....]
  | 13) PlanarConfiguration = 1
  |     - Tag 0x011c (2 bytes, int16u[1]):
  |         00ae: 01 00                                           [..]
  | 14) Software = Adobe DNG Converter 15.4 (Macintosh)
  |     - Tag 0x0131 (37 bytes, string[37]):
  |         02ec: 41 64 6f 62 65 20 44 4e 47 20 43 6f 6e 76 65 72 [Adobe DNG Conver]
  |         02fc: 74 65 72 20 31 35 2e 34 20 28 4d 61 63 69 6e 74 [ter 15.4 (Macint]
  |         030c: 6f 73 68 29 00                                  [osh).]
  | 15) ModifyDate = 2023:07:26 06:11:34
  |     - Tag 0x0132 (20 bytes, string[20]):
  |         0312: 32 30 32 33 3a 30 37 3a 32 36 20 30 36 3a 31 31 [2023:07:26 06:11]
  |         0322: 3a 33 34 00                                     [:34.]
  | 16) Artist = Stefan Oltmann
  |     - Tag 0x013b (15 bytes, string[15]):
  |         0326: 53 74 65 66 61 6e 20 4f 6c 74 6d 61 6e 6e 00    [Stefan Oltmann.]
  | 17) SubIFD (SubDirectory) -->
  |     - Tag 0x014a (20 bytes, int32u[5]):
  |         0336: ea ab 01 00 e4 b6 01 00 6c b8 01 00 92 ba 01 00 [........l.......]
  |         0346: 9c bc 01 00                                     [....]
  | + [SubIFD directory with 27 entries, Little-endian]
  | | 0)  SubfileType = 0
  | |     - Tag 0x00fe (4 bytes, int32u[1]):
  | |        1abf4: 00 00 00 00                                     [....]
  | | 1)  ImageWidth = 5344
  | |     - Tag 0x0100 (4 bytes, int32u[1]):
  | |        1ac00: e0 14 00 00                                     [....]
  | | 2)  ImageHeight = 3516
  | |     - Tag 0x0101 (4 bytes, int32u[1]):
  | |        1ac0c: bc 0d 00 00                                     [....]
  | | 3)  BitsPerSample = 16
  | |     - Tag 0x0102 (2 bytes, int16u[1]):
  | |        1ac18: 10 00                                           [..]
  | | 4)  Compression = 7
  | |     - Tag 0x0103 (2 bytes, int16u[1]):
  | |        1ac24: 07 00                                           [..]
  | | 5)  PhotometricInterpretation = 32803
  | |     - Tag 0x0106 (2 bytes, int16u[1]):
  | |        1ac30: 23 80                                           [#.]
  | | 6)  SamplesPerPixel = 1
  | |     - Tag 0x0115 (2 bytes, int16u[1]):
  | |        1ac3c: 01 00                                           [..]
  | | 7)  PlanarConfiguration = 1
  | |     - Tag 0x011c (2 bytes, int16u[1]):
  | |        1ac48: 01 00                                           [..]
  | | 8)  TileWidth = 256
  | |     - Tag 0x0142 (4 bytes, int32u[1]):
  | |        1ac54: 00 01 00 00                                     [....]
  | | 9)  TileLength = 256
  | |     - Tag 0x0143 (4 bytes, int32u[1]):
  | |        1ac60: 00 01 00 00                                     [....]
  | | 10) TileOffsets = 725232 781888 845174 909008 975328 1043474 1113692 1189776 1270176 1352912 1436920 1521536 1606116 1690046 1772668 1852548 1928156 2000944 2073824 2143202 2211336 2275296 2332414 2395842 2459900 2527284 2595798 2668802 2747178 2829816 2914350 3000686 3087622 3174660 3260186 3344450 3426600 3504686 3578050 3650168 3720750 3789008 3853510 3907300 3965436 4024510 4086230 4151298 4216906 4289864 4371002 4453244 4536250 4619998 4702786 4783610 4865422 4943786 5016892 5082950 5145654 5208470 5270656 5330108 5384136 5442658 5502382 5566776 5634810 5706058 5785548 5852576 5924146 5998134 6070242 6138854 6205054 6269224 6331018 6410276 6478068 6540914 6603594 6666310 6725972 6779806 6838506 6898506 6964958 7037612 7114884 7195468 7256996 7340720 7429326 7512498 7597854 7679516 7754840 7813304 7893376 7962398 8025666 8087606 8150788 8210398 8263932 8321578 8379548 8440744 8504940 8575880 8653572 8721190 8796480 8873114 8951636 9022210 9093494 9161006 9218970 9299176 9368568 9432394 9494160 9557412 9616914 9670498 9728550 9786590 9845008 9907440 9975684 10052750 10145708 10240426 10333948 10427558 10518214 10606592 10684312 10743490 10827160 10901840 10970978 11035744 11098894 11158264 11211912 11270154 11329516 11389036 11453994 11522944 11601018 11684656 11769604 11865880 11965900 12065660 12167764 12263766 12346914 12426718 12495152 12561008 12621880 12683188 12741040 12800090 12866038 12934098 13002566 13076422 13156556 13243058 13328676 13416024 13508462 13606244 13705286 13806620 13902478 13976992 14064270 14144166 14218368 14289366 14360292 14426484 14485326 14551092 14619110 14687590 14759398 14838088 14923364 15009686 15093932 15187626 15285248 15383390 15486008 15582748 15667706 15753688 15832370 15905606 15977202 16047014 16112742 16171408 16236904 16303942 16373000 16442586 16519962 16604598 16691382 16780224 16874162 16969276 17060640 17153332 17242832 17328948 17413474 17490222 17562316 17633802 17702278 17767566 17826150 17891314 17957164 18026190 18094522 18168612 18251292 18330176 18408834 18489072 18[snip]
  | |     - Tag 0x0144 (1176 bytes, int32u[294]):
  | |        1ad34: f0 10 0b 00 40 ee 0b 00 76 e5 0c 00 d0 de 0d 00 [....@...v.......]
  | |        1ad44: e0 e1 0e 00 12 ec 0f 00 5c fe 10 00 90 27 12 00 [........\....'..]
  | |        1ad54: a0 61 13 00 d0 a4 14 00 f8 ec 15 00 80 37 17 00 [.a...........7..]
  | |        1ad64: e4 81 18 00 be c9 19 00 7c 0c 1b 00 84 44 1c 00 [........|....D..]
  | |        1ad74: dc 6b 1d 00 30 88 1e 00 e0 a4 1f 00 e2 b3 20 00 [.k..0......... .]
  | |        1ad84: 08 be 21 00 e0 b7 22 00 fe 96 23 00 c2 8e 24 00 [..!..."...#...$.]
  | |        1ad94: fc 88 25 00 34 90 26 00 d6 9b 27 00 02 b9 28 00 [..%.4.&...'...(.]
  | |        1ada4: 2a eb 29 00 f8 2d 2b 00 2e 78 2c 00 6e c9 2d 00 [*.)..-+..x,.n.-.]
  | |        1adb4: 06 1d 2f 00 04 71 30 00 1a bf 31 00 42 08 33 00 [../..q0...1.B.3.]
  | |        1adc4: 28 49 34 00 2e 7a 35 00 c2 98 36 00 78 b2 37 00 [(I4..z5...6.x.7.]
  | |        1add4: 2e c6 38 00 d0 d0 39 00 c6 cc 3a 00 e4 9e 3b 00 [..8...9...:...;.]
  | |        1ade4: fc 81 3c 00 be 68 3d 00 d6 59 3e 00 02 58 3f 00 [..<..h=..Y>..X?.]
  | |        1adf4: 4a 58 40 00 48 75 41 00 3a b2 42 00 7c f3 43 00 [JX@.HuA.:.B.|.C.]
  | |        1ae04: ba 37 45 00 de 7e 46 00 42 c2 47 00 fa fd 48 00 [.7E..~F.B.G...H.]
  | |        1ae14: 8e 3d 4a 00 aa 6f 4b 00 3c 8d 4c 00 46 8f 4d 00 [.=J..oK.<.L.F.M.]
  | |        1ae24: 36 84 4e 00 96 79 4f 00 80 6c 50 00 bc 54 51 00 [6.N..yO..lP..TQ.]
  | |        1ae34: c8 27 52 00 62 0c 53 00 ae f5 53 00 38 f1 54 00 [.'R.b.S...S.8.T.]
  | |        1ae44: fa fa 55 00 4a 11 57 00 cc 47 58 00 a0 4d 59 00 [..U.J.W..GX..MY.]
  | |        1ae54: 32 65 5a 00 36 86 5b 00 e2 9f 5c 00 e6 ab 5d 00 [2eZ.6.[...\...].]
  | |        1ae64: 7e ae 5e 00 28 a9 5f 00 8a 9a 60 00 24 d0 61 00 [~.^.(._...`.$.a.]
  | |        1ae74: f4 d8 62 00 72 ce 63 00 4a c3 64 00 46 b8 65 00 [..b.r.c.J.d.F.e.]
  | |        1ae84: 54 a1 66 00 9e 73 67 00 ea 58 68 00 4a 43 69 00 [T.f..sg..Xh.JCi.]
  | |        1ae94: de 46 6a 00 ac 62 6b 00 84 90 6c 00 4c cb 6d 00 [.Fj..bk...l.L.m.]
  | |        1aea4: a4 bb 6e 00 b0 02 70 00 ce 5c 71 00 b2 a1 72 00 [..n...p..\q...r.]
  | |        1aeb4: 1e ef 73 00 1c 2e 75 00 58 54 76 00 b8 38 77 00 [..s...u.XTv..8w.]
  | |        1aec4: 80 71 78 00 1e 7f 79 00 42 76 7a 00 36 68 7b 00 [.qx...y.Bvz.6h{.]
  | |        1aed4: 04 5f 7c 00 de 47 7d 00 fc 18 7e 00 2a fa 7e 00 [._|..G}...~.*.~.]
  | |        1aee4: 9c dc 7f 00 a8 cb 80 00 6c c6 81 00 88 db 82 00 [........l.......]
  | |        1aef4: 04 0b 84 00 26 13 85 00 40 39 86 00 9a 64 87 00 [....&...@9...d..]
  | |        1af04: 54 97 88 00 02 ab 89 00 76 c1 8a 00 2e c9 8b 00 [T.......v.......]
  | |        1af14: 9a ab 8c 00 e8 e4 8d 00 f8 f3 8e 00 4a ed 8f 00 [............J...]
  | |        1af24: 90 de 90 00 a4 d5 91 00 12 be 92 00 62 8f 93 00 [............b...]
  | |        1af34: 26 72 94 00 de 54 95 00 10 39 96 00 f0 2c 97 00 [&r...T...9...,..]
  | |        1af44: 84 37 98 00 8e 64 99 00 ac cf 9a 00 aa 41 9c 00 [.7...d.......A..]
  | |        1af54: fc ae 9d 00 a6 1c 9f 00 c6 7e a0 00 00 d8 a1 00 [.........~......]
  | |        1af64: 98 07 a3 00 c2 ee a3 00 98 35 a5 00 50 59 a6 00 [.........5..PY..]
  | |        1af74: 62 67 a7 00 60 64 a8 00 0e 5b a9 00 f8 42 aa 00 [bg..`d...[...B..]
  | |        1af84: 88 14 ab 00 0a f8 ab 00 ec df ac 00 6c c8 ad 00 [............l...]
  | |        1af94: 2a c6 ae 00 80 d3 af 00 7a 04 b1 00 30 4b b2 00 [*.......z...0K..]
  | |        1afa4: 04 97 b3 00 18 0f b5 00 cc 95 b6 00 7c 1b b8 00 [............|...]
  | |        1afb4: 54 aa b9 00 56 21 bb 00 22 66 bc 00 de 9d bd 00 [T...V!.."f......]
  | |        1afc4: 30 a9 be 00 70 aa bf 00 38 98 c0 00 b4 87 c1 00 [0...p...8.......]
  | |        1afd4: b0 69 c2 00 5a 50 c3 00 f6 51 c4 00 d2 5b c5 00 [.i..ZP...Q...[..]
  | |        1afe4: 46 67 c6 00 c6 87 c7 00 cc c0 c8 00 b2 12 ca 00 [Fg..............]
  | |        1aff4: 24 61 cb 00 58 b6 cc 00 6e 1f ce 00 64 9d cf 00 [$a..X...n...d...]
  | |        1b004: 46 20 d1 00 1c ac d2 00 8e 22 d4 00 a0 45 d5 00 [F ......."...E..]
  | |        1b014: 8e 9a d6 00 a6 d2 d7 00 80 f4 d8 00 d6 09 da 00 [................]
  | |        1b024: e4 1e db 00 74 21 dc 00 4e 07 dd 00 34 08 de 00 [....t!..N...4...]
  | |        1b034: e6 11 df 00 66 1d e0 00 e6 35 e1 00 48 69 e2 00 [....f....5..Hi..]
  | |        1b044: 64 b6 e3 00 96 07 e5 00 ac 50 e6 00 aa be e7 00 [d........P......]
  | |        1b054: 00 3c e9 00 5e bb ea 00 38 4c ec 00 1c c6 ed 00 [.<..^...8L......]
  | |        1b064: fa 11 ef 00 d8 61 f0 00 32 95 f1 00 46 b3 f2 00 [.....a..2...F...]
  | |        1b074: f2 ca f3 00 a6 db f4 00 66 dc f5 00 90 c1 f6 00 [........f.......]
  | |        1b084: 68 c1 f7 00 46 c7 f8 00 08 d5 f9 00 da e4 fa 00 [h...F...........]
  | |        1b094: 1a 13 fc 00 b6 5d fd 00 b6 b0 fe 00 c0 0b 00 01 [.....]..........]
  | |        1b0a4: b2 7a 01 01 3c ee 02 01 20 53 04 01 34 bd 05 01 [.z..<... S..4...]
  | |        1b0b4: d0 1a 07 01 34 6b 08 01 62 b5 09 01 2e e1 0a 01 [....4k..b.......]
  | |        1b0c4: cc fa 0b 01 0a 12 0d 01 86 1d 0e 01 8e 1c 0f 01 [................]
  | |        1b0d4: 66 01 10 01 f2 ff 10 01 2c 01 12 01 ce 0e 13 01 [f.......,.......]
  | |        1b0e4: ba 19 14 01 24 3b 15 01 1c 7e 16 01 40 b2 17 01 [....$;...~..@...]
  | |        1b0f4: 82 e5 18 01 f0 1e 1a 01 74 54 1b 01 fe 86 1c 01 [........tT......]
  | |        1b104: fe b8 1d 01 9c dc 1e 01 ea f1 1f 01 fe 32 21 01 [.............2!.]
  | |        1b114: 76 55 22 01 6a 6e 23 01 3e 81 24 01 9e 8b 25 01 [vU".jn#.>.$...%.]
  | |        1b124: ec 88 26 01 8a 6c 27 01 7c 68 28 01 c2 66 29 01 [..&..l'.|h(..f).]
  | |        1b134: c0 70 2a 01 c4 7c 2b 01 a4 8e 2c 01 7c c0 2d 01 [.p*..|+...,.|.-.]
  | |        1b144: 6e ef 2e 01 b8 16 30 01 a6 33 31 01 14 53 32 01 [n.....0..31..S2.]
  | |        1b154: b8 71 33 01 c8 a3 34 01 26 d7 35 01 d2 fc 36 01 [.q3...4.&.5...6.]
  | |        1b164: 10 2d 38 01 da 44 39 01 7e 5c 3a 01 74 69 3b 01 [.-8..D9.~\:.ti;.]
  | |        1b174: 0c 73 3c 01 a2 6f 3d 01 44 2e 3e 01 dc ff 3e 01 [.s<..o=.D.>...>.]
  | |        1b184: 42 d3 3f 01 b8 ab 40 01 fa 8b 41 01 64 6b 42 01 [B.?...@...A.dkB.]
  | |        1b194: c4 58 43 01 f6 54 44 01 ac 59 45 01 f8 63 46 01 [.XC..TD..YE..cF.]
  | |        1b1a4: 00 6c 47 01 10 73 48 01 70 7b 49 01 cc 7b 4a 01 [.lG..sH.p{I..{J.]
  | |        1b1b4: 82 73 4b 01 e2 5e 4c 01 66 44 4d 01 e4 27 4e 01 [.sK..^L.fDM..'N.]
  | |        1b1c4: e4 05 4f 01 5a e2 4f 01                         [..O.Z.O.]
  | | 11) TileByteCounts = 56655 63285 63833 66319 68146 70217 76083 80399 82735 84008 84616 84579 83929 82622 79879 75607 72788 72879 69377 68134 63960 57117 63427 64057 67384 68514 73004 78376 82638 84534 86336 86935 87038 85525 84264 82149 78086 73363 72117 70581 68258 64502 53790 58136 59073 61719 65068 65608 72957 81137 82242 83006 83748 82787 80823 81812 78364 73105 66058 62704 62815 62186 59451 54028 58521 59724 64393 68034 71248 79489 67027 71570 73988 72107 68612 66199 64169 61793 79258 67791 62845 62680 62715 59662 53833 58700 59999 66452 72653 77271 80583 61527 83723 88606 83171 85356 81662 75324 58464 80071 69022 63268 61939 63181 59609 53533 57646 57970 61195 64195 70940 77691 67617 75289 76634 78522 70573 71283 67511 57963 80205 69391 63826 61766 63251 59501 53583 58051 58040 58418 62432 68244 77066 92957 94718 93521 93609 90655 88378 77720 59178 83669 74679 69137 64766 63150 59369 53648 58242 59362 59520 64957 68949 78074 83637 84947 96275 100019 99760 102104 96002 83148 79804 68433 65856 60871 61307 57851 59050 65947 68059 68468 73855 80134 86502 85618 87348 92438 97782 99041 101334 95857 74513 87277 79895 74202 70998 70926 66192 58842 65765 68018 68480 71807 78690 85275 86322 84246 93694 97622 98142 102617 96740 84957 85982 78681 73235 71596 69811 65728 58665 65495 67037 69057 69586 77375 84636 86783 88841 93937 95114 91363 92691 89499 86115 84526 76747 72094 71485 68475 65288 58584 65163 65849 69025 68332 74090 82680 78883 78657 80238 79236 78474 78336 74653 70990 82195 74360 71924 70356 68192 64846 58269 64497 65094 68093 68612 70112 78295 77554 75594 72941 73581 73380 78352 78685 75179 77886 71626 71587 68854 67992 64662 48802 53656 54118 55413 57409 57194 60768 64562 66742 68172 67591 67344 67680 65627 63413 60256 58756 58238 56831 56438 52214
  | |     - Tag 0x0145 (1176 bytes, int32u[294]):
  | |        1b1cc: 4f dd 00 00 35 f7 00 00 59 f9 00 00 0f 03 01 00 [O...5...Y.......]
  | |        1b1dc: 32 0a 01 00 49 12 01 00 33 29 01 00 0f 3a 01 00 [2...I...3)...:..]
  | |        1b1ec: 2f 43 01 00 28 48 01 00 88 4a 01 00 63 4a 01 00 [/C..(H...J..cJ..]
  | |        1b1fc: d9 47 01 00 be 42 01 00 07 38 01 00 57 27 01 00 [.G...B...8..W'..]
  | |        1b20c: 54 1c 01 00 af 1c 01 00 01 0f 01 00 26 0a 01 00 [T...........&...]
  | |        1b21c: d8 f9 00 00 1d df 00 00 c3 f7 00 00 39 fa 00 00 [............9...]
  | |        1b22c: 38 07 01 00 a2 0b 01 00 2c 1d 01 00 28 32 01 00 [8.......,...(2..]
  | |        1b23c: ce 42 01 00 36 4a 01 00 40 51 01 00 97 53 01 00 [.B..6J..@Q...S..]
  | |        1b24c: fe 53 01 00 15 4e 01 00 28 49 01 00 e5 40 01 00 [.S...N..(I...@..]
  | |        1b25c: 06 31 01 00 93 1e 01 00 b5 19 01 00 b5 13 01 00 [.1..............]
  | |        1b26c: a2 0a 01 00 f6 fb 00 00 1e d2 00 00 18 e3 00 00 [................]
  | |        1b27c: c1 e6 00 00 17 f1 00 00 2c fe 00 00 48 00 01 00 [........,...H...]
  | |        1b28c: fd 1c 01 00 f1 3c 01 00 42 41 01 00 3e 44 01 00 [.....<..BA..>D..]
  | |        1b29c: 24 47 01 00 63 43 01 00 b7 3b 01 00 94 3f 01 00 [$G..cC...;...?..]
  | |        1b2ac: 1c 32 01 00 91 1d 01 00 0a 02 01 00 f0 f4 00 00 [.2..............]
  | |        1b2bc: 5f f5 00 00 ea f2 00 00 3b e8 00 00 0c d3 00 00 [_.......;.......]
  | |        1b2cc: 99 e4 00 00 4c e9 00 00 89 fb 00 00 c2 09 01 00 [....L...........]
  | |        1b2dc: 50 16 01 00 81 36 01 00 d3 05 01 00 92 17 01 00 [P....6..........]
  | |        1b2ec: 04 21 01 00 ab 19 01 00 04 0c 01 00 97 02 01 00 [.!..............]
  | |        1b2fc: a9 fa 00 00 61 f1 00 00 9a 35 01 00 cf 08 01 00 [....a....5......]
  | |        1b30c: 7d f5 00 00 d8 f4 00 00 fb f4 00 00 0e e9 00 00 [}...............]
  | |        1b31c: 49 d2 00 00 4c e5 00 00 5f ea 00 00 94 03 01 00 [I...L..._.......]
  | |        1b32c: cd 1b 01 00 d7 2d 01 00 c7 3a 01 00 57 f0 00 00 [.....-...:..W...]
  | |        1b33c: 0b 47 01 00 1e 5a 01 00 e3 44 01 00 6c 4d 01 00 [.G...Z...D..lM..]
  | |        1b34c: fe 3e 01 00 3c 26 01 00 60 e4 00 00 c7 38 01 00 [.>..<&..`....8..]
  | |        1b35c: 9e 0d 01 00 24 f7 00 00 f3 f1 00 00 cd f6 00 00 [....$...........]
  | |        1b36c: d9 e8 00 00 1d d1 00 00 2e e1 00 00 72 e2 00 00 [............r...]
  | |        1b37c: 0b ef 00 00 c3 fa 00 00 1c 15 01 00 7b 2f 01 00 [............{/..]
  | |        1b38c: 21 08 01 00 19 26 01 00 5a 2b 01 00 ba 32 01 00 [!....&..Z+...2..]
  | |        1b39c: ad 13 01 00 73 16 01 00 b7 07 01 00 6b e2 00 00 [....s.......k...]
  | |        1b3ac: 4d 39 01 00 0f 0f 01 00 52 f9 00 00 46 f1 00 00 [M9......R...F...]
  | |        1b3bc: 13 f7 00 00 6d e8 00 00 4f d1 00 00 c3 e2 00 00 [....m...O.......]
  | |        1b3cc: b8 e2 00 00 32 e4 00 00 e0 f3 00 00 94 0a 01 00 [....2...........]
  | |        1b3dc: 0a 2d 01 00 1d 6b 01 00 fe 71 01 00 51 6d 01 00 [.-...k...q..Qm..]
  | |        1b3ec: a9 6d 01 00 1f 62 01 00 3a 59 01 00 98 2f 01 00 [.m...b..:Y.../..]
  | |        1b3fc: 2a e7 00 00 d5 46 01 00 b7 23 01 00 11 0e 01 00 [*....F...#......]
  | |        1b40c: fe fc 00 00 ae f6 00 00 e9 e7 00 00 90 d1 00 00 [................]
  | |        1b41c: 82 e3 00 00 e2 e7 00 00 80 e8 00 00 bd fd 00 00 [................]
  | |        1b42c: 55 0d 01 00 fa 30 01 00 b5 46 01 00 d3 4b 01 00 [U....0...F...K..]
  | |        1b43c: 13 78 01 00 b3 86 01 00 b0 85 01 00 d8 8e 01 00 [.x..............]
  | |        1b44c: 02 77 01 00 cc 44 01 00 bc 37 01 00 51 0b 01 00 [.w...D...7..Q...]
  | |        1b45c: 40 01 01 00 c7 ed 00 00 7b ef 00 00 fb e1 00 00 [@.......{.......]
  | |        1b46c: aa e6 00 00 9b 01 01 00 db 09 01 00 74 0b 01 00 [............t...]
  | |        1b47c: 7f 20 01 00 06 39 01 00 e6 51 01 00 72 4e 01 00 [. ...9...Q..rN..]
  | |        1b48c: 34 55 01 00 16 69 01 00 f6 7d 01 00 e1 82 01 00 [4U...i...}......]
  | |        1b49c: d6 8b 01 00 71 76 01 00 11 23 01 00 ed 54 01 00 [....qv...#...T..]
  | |        1b4ac: 17 38 01 00 da 21 01 00 56 15 01 00 0e 15 01 00 [.8...!..V.......]
  | |        1b4bc: 90 02 01 00 da e5 00 00 e5 00 01 00 b2 09 01 00 [................]
  | |        1b4cc: 80 0b 01 00 7f 18 01 00 62 33 01 00 1b 4d 01 00 [........b3...M..]
  | |        1b4dc: 32 51 01 00 16 49 01 00 fe 6d 01 00 56 7d 01 00 [2Q...I...m..V}..]
  | |        1b4ec: 5e 7f 01 00 d9 90 01 00 e4 79 01 00 dd 4b 01 00 [^........y...K..]
  | |        1b4fc: de 4f 01 00 59 33 01 00 13 1e 01 00 ac 17 01 00 [.O..Y3..........]
  | |        1b50c: b3 10 01 00 c0 00 01 00 29 e5 00 00 d7 ff 00 00 [........).......]
  | |        1b51c: dd 05 01 00 c1 0d 01 00 d2 0f 01 00 3f 2e 01 00 [............?...]
  | |        1b52c: 9c 4a 01 00 ff 52 01 00 09 5b 01 00 f1 6e 01 00 [.J...R...[...n..]
  | |        1b53c: 8a 73 01 00 e3 64 01 00 13 6a 01 00 9b 5d 01 00 [.s...d...j...]..]
  | |        1b54c: 63 50 01 00 2e 4a 01 00 cb 2b 01 00 9e 19 01 00 [cP...J...+......]
  | |        1b55c: 3d 17 01 00 7b 0b 01 00 08 ff 00 00 d8 e4 00 00 [=...{...........]
  | |        1b56c: 8b fe 00 00 39 01 01 00 a1 0d 01 00 ec 0a 01 00 [....9...........]
  | |        1b57c: 6a 21 01 00 f8 42 01 00 23 34 01 00 41 33 01 00 [j!...B..#4..A3..]
  | |        1b58c: 6e 39 01 00 84 35 01 00 8a 32 01 00 00 32 01 00 [n9...5...2...2..]
  | |        1b59c: 9d 23 01 00 4e 15 01 00 13 41 01 00 78 22 01 00 [.#..N....A..x"..]
  | |        1b5ac: f4 18 01 00 d4 12 01 00 60 0a 01 00 4e fd 00 00 [........`...N...]
  | |        1b5bc: 9d e3 00 00 f1 fb 00 00 46 fe 00 00 fd 09 01 00 [........F.......]
  | |        1b5cc: 04 0c 01 00 e0 11 01 00 d7 31 01 00 f2 2e 01 00 [.........1......]
  | |        1b5dc: 4a 27 01 00 ed 1c 01 00 6d 1f 01 00 a4 1e 01 00 [J'......m.......]
  | |        1b5ec: 10 32 01 00 5d 33 01 00 ab 25 01 00 3e 30 01 00 [.2..]3...%..>0..]
  | |        1b5fc: ca 17 01 00 a3 17 01 00 f6 0c 01 00 98 09 01 00 [................]
  | |        1b60c: 96 fc 00 00 a2 be 00 00 98 d1 00 00 66 d3 00 00 [............f...]
  | |        1b61c: 75 d8 00 00 41 e0 00 00 6a df 00 00 60 ed 00 00 [u...A...j...`...]
  | |        1b62c: 32 fc 00 00 b6 04 01 00 4c 0a 01 00 07 08 01 00 [2.......L.......]
  | |        1b63c: 10 07 01 00 60 08 01 00 5b 00 01 00 b5 f7 00 00 [....`...[.......]
  | |        1b64c: 60 eb 00 00 84 e5 00 00 7e e3 00 00 ff dd 00 00 [`.......~.......]
  | |        1b65c: 76 dc 00 00 f6 cb 00 00                         [v.......]
  | | 12) CFARepeatPatternDim = 2 2
  | |     - Tag 0x828d (4 bytes, int16u[2]):
  | |        1ac84: 02 00 02 00                                     [....]
  | | 13) CFAPattern2 = 0 1 1 2
  | |     - Tag 0x828e (4 bytes, int8u[4]):
  | |        1ac90: 00 01 01 02                                     [....]
  | | 14) CFAPlaneColor = 0 1 2
  | |     - Tag 0xc616 (3 bytes, int8u[3]):
  | |        1ac9c: 00 01 02                                        [...]
  | | 15) CFALayout = 1
  | |     - Tag 0xc617 (2 bytes, int16u[1]):
  | |        1aca8: 01 00                                           [..]
  | | 16) BlackLevelRepeatDim = 2 2
  | |     - Tag 0xc619 (4 bytes, int16u[2]):
  | |        1acb4: 02 00 02 00                                     [....]
  | | 17) BlackLevel = 2047 2047 2047 2047 (524032/256 524032/256 524032/256 524032/256)
  | |     - Tag 0xc61a (32 bytes, rational64u[4]):
  | |        1b664: 00 ff 07 00 00 01 00 00 00 ff 07 00 00 01 00 00 [................]
  | |        1b674: 00 ff 07 00 00 01 00 00 00 ff 07 00 00 01 00 00 [................]
  | | 18) WhiteLevel = 15000
  | |     - Tag 0xc61d (2 bytes, int16u[1]):
  | |        1accc: 98 3a                                           [.:]
  | | 19) DefaultScale = 1 1 (1/1 1/1)
  | |     - Tag 0xc61e (16 bytes, rational64u[2]):
  | |        1b684: 01 00 00 00 01 00 00 00 01 00 00 00 01 00 00 00 [................]
  | | 20) DefaultCropOrigin = 10 5 (10/1 5/1)
  | |     - Tag 0xc61f (16 bytes, rational64u[2]):
  | |        1b694: 0a 00 00 00 01 00 00 00 05 00 00 00 01 00 00 00 [................]
  | | 21) DefaultCropSize = 5184 3456 (5184/1 3456/1)
  | |     - Tag 0xc620 (16 bytes, rational64u[2]):
  | |        1b6a4: 40 14 00 00 01 00 00 00 80 0d 00 00 01 00 00 00 [@...............]
  | | 22) BayerGreenSplit = 250
  | |     - Tag 0xc62d (4 bytes, int32u[1]):
  | |        1acfc: fa 00 00 00                                     [....]
  | | 23) AntiAliasStrength = 1 (100/100)
  | |     - Tag 0xc632 (8 bytes, rational64u[1]):
  | |        1b6b4: 64 00 00 00 64 00 00 00                         [d...d...]
  | | 24) BestQualityScale = 1 (1/1)
  | |     - Tag 0xc65c (8 bytes, rational64u[1]):
  | |        1b6bc: 01 00 00 00 01 00 00 00                         [........]
  | | 25) ActiveArea = 51 142 3516 5344
  | |     - Tag 0xc68d (16 bytes, int32u[4]):
  | |        1b6c4: 33 00 00 00 8e 00 00 00 bc 0d 00 00 e0 14 00 00 [3...............]
  | | 26) NoiseProfile = 0.00013662623025864 3.88289544149032e-07
  | |     - Tag 0xc761 (16 bytes, double[2]):
  | |        1b6d4: 27 3b a8 61 6a e8 21 3f 2c da 95 79 c3 0e 9a 3e [';.aj.!?,..y...>]
  | + [SubIFD1 directory with 20 entries, Little-endian]
  | | 0)  SubfileType = 1
  | |     - Tag 0x00fe (4 bytes, int32u[1]):
  | |        1b6ee: 01 00 00 00                                     [....]
  | | 1)  ImageWidth = 1024
  | |     - Tag 0x0100 (4 bytes, int32u[1]):
  | |        1b6fa: 00 04 00 00                                     [....]
  | | 2)  ImageHeight = 683
  | |     - Tag 0x0101 (4 bytes, int32u[1]):
  | |        1b706: ab 02 00 00                                     [....]
  | | 3)  BitsPerSample = 8 8 8
  | |     - Tag 0x0102 (6 bytes, int16u[3]):
  | |        1b7da: 08 00 08 00 08 00                               [......]
  | | 4)  Compression = 7
  | |     - Tag 0x0103 (2 bytes, int16u[1]):
  | |        1b71e: 07 00                                           [..]
  | | 5)  PhotometricInterpretation = 6
  | |     - Tag 0x0106 (2 bytes, int16u[1]):
  | |        1b72a: 06 00                                           [..]
  | | 6)  PreviewImageStart = 245670
  | |     - Tag 0x0111 (4 bytes, int32u[1]):
  | |        1b736: a6 bf 03 00                                     [....]
  | | 7)  SamplesPerPixel = 3
  | |     - Tag 0x0115 (2 bytes, int16u[1]):
  | |        1b742: 03 00                                           [..]
  | | 8)  RowsPerStrip = 683
  | |     - Tag 0x0116 (4 bytes, int32u[1]):
  | |        1b74e: ab 02 00 00                                     [....]
  | | 9)  PreviewImageLength = 68064
  | |     - Tag 0x0117 (4 bytes, int32u[1]):
  | |        1b75a: e0 09 01 00                                     [....]
  | | 10) PlanarConfiguration = 1
  | |     - Tag 0x011c (2 bytes, int16u[1]):
  | |        1b766: 01 00                                           [..]
  | | 11) YCbCrCoefficients = 0.299 0.587 0.114 (299/1000 587/1000 114/1000)
  | |     - Tag 0x0211 (24 bytes, rational64u[3]):
  | |        1b7e0: 2b 01 00 00 e8 03 00 00 4b 02 00 00 e8 03 00 00 [+.......K.......]
  | |        1b7f0: 72 00 00 00 e8 03 00 00                         [r.......]
  | | 12) YCbCrSubSampling = 2 2
  | |     - Tag 0x0212 (4 bytes, int16u[2]):
  | |        1b77e: 02 00 02 00                                     [....]
  | | 13) YCbCrPositioning = 0
  | |     - Tag 0x0213 (2 bytes, int16u[1]):
  | |        1b78a: 00 00                                           [..]
  | | 14) ReferenceBlackWhite = 0 255 128 255 128 255 (0/1 255/1 128/1 255/1 128/1 255/1)
  | |     - Tag 0x0214 (48 bytes, rational64u[6]):
  | |        1b7f8: 00 00 00 00 01 00 00 00 ff 00 00 00 01 00 00 00 [................]
  | |        1b808: 80 00 00 00 01 00 00 00 ff 00 00 00 01 00 00 00 [................]
  | |        1b818: 80 00 00 00 01 00 00 00 ff 00 00 00 01 00 00 00 [................]
  | | 15) PreviewApplicationName = Adobe DNG Converter
  | |     - Tag 0xc716 (20 bytes, string[20]):
  | |        1b828: 41 64 6f 62 65 20 44 4e 47 20 43 6f 6e 76 65 72 [Adobe DNG Conver]
  | |        1b838: 74 65 72 00                                     [ter.]
  | | 16) PreviewApplicationVersion = 15.4
  | |     - Tag 0xc717 (5 bytes, string[5]):
  | |        1b83c: 31 35 2e 34 00                                  [15.4.]
  | | 17) PreviewSettingsDigest = ..ql...........i
  | |     - Tag 0xc719 (16 bytes, int8u[16] read as undef[16]):
  | |        1b842: af da 71 6c 9c 81 bc 81 a5 9a a6 da df fe bb 69 [..ql...........i]
  | | 18) PreviewColorSpace = 2
  | |     - Tag 0xc71a (4 bytes, int32u[1]):
  | |        1b7c6: 02 00 00 00                                     [....]
  | | 19) PreviewDateTime = 2023-07-26T06:11:34+02:00
  | |     - Tag 0xc71b (26 bytes, string[26]):
  | |        1b852: 32 30 32 33 2d 30 37 2d 32 36 54 30 36 3a 31 31 [2023-07-26T06:11]
  | |        1b862: 3a 33 34 2b 30 32 3a 30 30 00                   [:34+02:00.]
  | + [SubIFD2 directory with 16 entries, Little-endian]
  | | 0)  SubfileType = 1
  | |     - Tag 0x00fe (4 bytes, int32u[1]):
  | |        1b876: 01 00 00 00                                     [....]
  | | 1)  ImageWidth = 1728
  | |     - Tag 0x0100 (4 bytes, int32u[1]):
  | |        1b882: c0 06 00 00                                     [....]
  | | 2)  ImageHeight = 1152
  | |     - Tag 0x0101 (4 bytes, int32u[1]):
  | |        1b88e: 80 04 00 00                                     [....]
  | | 3)  BitsPerSample = 8 8 8
  | |     - Tag 0x0102 (6 bytes, int16u[3]):
  | |        1b932: 08 00 08 00 08 00                               [......]
  | | 4)  Compression = 34892
  | |     - Tag 0x0103 (2 bytes, int16u[1]):
  | |        1b8a6: 4c 88                                           [L.]
  | | 5)  PhotometricInterpretation = 34892
  | |     - Tag 0x0106 (2 bytes, int16u[1]):
  | |        1b8b2: 4c 88                                           [L.]
  | | 6)  SamplesPerPixel = 3
  | |     - Tag 0x0115 (2 bytes, int16u[1]):
  | |        1b8be: 03 00                                           [..]
  | | 7)  PlanarConfiguration = 1
  | |     - Tag 0x011c (2 bytes, int16u[1]):
  | |        1b8ca: 01 00                                           [..]
  | | 8)  TileWidth = 432
  | |     - Tag 0x0142 (4 bytes, int32u[1]):
  | |        1b8d6: b0 01 00 00                                     [....]
  | | 9)  TileLength = 576
  | |     - Tag 0x0143 (4 bytes, int32u[1]):
  | |        1b8e2: 40 02 00 00                                     [@...]
  | | 10) TileOffsets = 313734 343958 403788 463356 493450 512300 580486 656646
  | |     - Tag 0x0144 (32 bytes, int32u[8]):
  | |        1b938: 86 c9 04 00 96 3f 05 00 4c 29 06 00 fc 11 07 00 [.....?..L)......]
  | |        1b948: 8a 87 07 00 2c d1 07 00 86 db 08 00 06 05 0a 00 [....,...........]
  | | 11) TileByteCounts = 30223 59830 59567 30093 18849 68186 76159 22869
  | |     - Tag 0x0145 (32 bytes, int32u[8]):
  | |        1b958: 0f 76 00 00 b6 e9 00 00 af e8 00 00 8d 75 00 00 [.v...........u..]
  | |        1b968: a1 49 00 00 5a 0a 01 00 7f 29 01 00 55 59 00 00 [.I..Z....)..UY..]
  | | 12) PreviewApplicationName = Adobe DNG Converter
  | |     - Tag 0xc716 (20 bytes, string[20]):
  | |        1b978: 41 64 6f 62 65 20 44 4e 47 20 43 6f 6e 76 65 72 [Adobe DNG Conver]
  | |        1b988: 74 65 72 00                                     [ter.]
  | | 13) PreviewApplicationVersion = 15.4
  | |     - Tag 0xc717 (5 bytes, string[5]):
  | |        1b98c: 31 35 2e 34 00                                  [15.4.]
  | | 14) OpcodeList2 = ....D........>..X..C.?T....Qn?...%......D.........?T.C..,.?c!..F..?...v.M....D.........?4.C....?ax.VX..?.U.....
  | |     - Tag 0xc741 (256 bytes, undef[256]):
  | |        1b992: 00 00 00 03 00 00 00 08 01 03 00 00 00 00 00 00 [................]
  | |        1b9a2: 00 00 00 44 00 00 00 00 00 00 00 00 00 00 04 80 [...D............]
  | |        1b9b2: 00 00 06 c0 00 00 00 00 00 00 00 01 00 00 00 01 [................]
  | |        1b9c2: 00 00 00 01 00 00 00 03 3e f2 87 58 a9 a7 43 bf [........>..X..C.]
  | |        1b9d2: 3f 54 e7 e5 f1 ab 51 6e 00 00 00 00 00 00 00 00 [?T....Qn........]
  | |        1b9e2: 3f c4 be 16 25 c7 fa cb 00 00 00 08 01 03 00 00 [?...%...........]
  | |        1b9f2: 00 00 00 00 00 00 00 44 00 00 00 00 00 00 00 00 [.......D........]
  | |        1ba02: 00 00 04 80 00 00 06 c0 00 00 00 01 00 00 00 01 [................]
  | |        1ba12: 00 00 00 01 00 00 00 01 00 00 00 03 3f 54 d8 43 [............?T.C]
  | |        1ba22: be dc 2c cb 3f 63 21 13 9d 46 db 97 00 00 00 00 [..,.?c!..F......]
  | |        1ba32: 00 00 00 00 3f d2 fa d1 76 0c 4d e0 00 00 00 08 [....?...v.M.....]
  | |        1ba42: 01 03 00 00 00 00 00 00 00 00 00 44 00 00 00 00 [...........D....]
  | |        1ba52: 00 00 00 00 00 00 04 80 00 00 06 c0 00 00 00 02 [................]
  | |        1ba62: 00 00 00 01 00 00 00 01 00 00 00 01 00 00 00 03 [................]
  | |        1ba72: 3f 34 d8 43 be dc 2e 87 3f 61 78 a7 56 58 bc 2e [?4.C....?ax.VX..]
  | |        1ba82: 00 00 00 00 00 00 00 00 3f d1 55 b6 07 ac 0a b6 [........?.U.....]
  | | 15) CacheVersion = 0 1 0 0
  | |     - Tag 0xc7aa (4 bytes, int32u[1] read as int8u[4]):
  | |        1b92a: 00 01 00 00                                     [....]
  | + [SubIFD3 directory with 17 entries, Little-endian]
  | | 0)  SubfileType = 1
  | |     - Tag 0x00fe (4 bytes, int32u[1]):
  | |        1ba9c: 01 00 00 00                                     [....]
  | | 1)  ImageWidth = 512
  | |     - Tag 0x0100 (4 bytes, int32u[1]):
  | |        1baa8: 00 02 00 00                                     [....]
  | | 2)  ImageHeight = 341
  | |     - Tag 0x0101 (4 bytes, int32u[1]):
  | |        1bab4: 55 01 00 00                                     [U...]
  | | 3)  BitsPerSample = 8 8 8
  | |     - Tag 0x0102 (6 bytes, int16u[3]):
  | |        1bb64: 08 00 08 00 08 00                               [......]
  | | 4)  Compression = 34892
  | |     - Tag 0x0103 (2 bytes, int16u[1]):
  | |        1bacc: 4c 88                                           [L.]
  | | 5)  PhotometricInterpretation = 34892
  | |     - Tag 0x0106 (2 bytes, int16u[1]):
  | |        1bad8: 4c 88                                           [L.]
  | | 6)  SamplesPerPixel = 3
  | |     - Tag 0x0115 (2 bytes, int16u[1]):
  | |        1bae4: 03 00                                           [..]
  | | 7)  PlanarConfiguration = 1
  | |     - Tag 0x011c (2 bytes, int16u[1]):
  | |        1baf0: 01 00                                           [..]
  | | 8)  TileWidth = 512
  | |     - Tag 0x0142 (4 bytes, int32u[1]):
  | |        1bafc: 00 02 00 00                                     [....]
  | | 9)  TileLength = 341
  | |     - Tag 0x0143 (4 bytes, int32u[1]):
  | |        1bb08: 55 01 00 00                                     [U...]
  | | 10) TileOffsets = 679516
  | |     - Tag 0x0144 (4 bytes, int32u[1]):
  | |        1bb14: 5c 5e 0a 00                                     [\^..]
  | | 11) TileByteCounts = 34398
  | |     - Tag 0x0145 (4 bytes, int32u[1]):
  | |        1bb20: 5e 86 00 00                                     [^...]
  | | 12) BlackLevel = 51 51 50 (51/1 51/1 50/1)
  | |     - Tag 0xc61a (24 bytes, rational64u[3]):
  | |        1bb6a: 33 00 00 00 01 00 00 00 33 00 00 00 01 00 00 00 [3.......3.......]
  | |        1bb7a: 32 00 00 00 01 00 00 00                         [2.......]
  | | 13) PreviewApplicationName = Adobe DNG Converter
  | |     - Tag 0xc716 (20 bytes, string[20]):
  | |        1bb82: 41 64 6f 62 65 20 44 4e 47 20 43 6f 6e 76 65 72 [Adobe DNG Conver]
  | |        1bb92: 74 65 72 00                                     [ter.]
  | | 14) PreviewApplicationVersion = 15.4
  | |     - Tag 0xc717 (5 bytes, string[5]):
  | |        1bb96: 31 35 2e 34 00                                  [15.4.]
  | | 15) OpcodeList2 = ....D.U.....?P!.P..+?..R&..-...D.U......?bs.....?.N.wlYv...D.U......?[.~_...?...b\..
  | |     - Tag 0xc741 (256 bytes, undef[256]):
  | |        1bb9c: 00 00 00 03 00 00 00 08 01 03 00 00 00 00 00 00 [................]
  | |        1bbac: 00 00 00 44 00 00 00 00 00 00 00 00 00 00 01 55 [...D...........U]
  | |        1bbbc: 00 00 02 00 00 00 00 00 00 00 00 01 00 00 00 01 [................]
  | |        1bbcc: 00 00 00 01 00 00 00 03 00 00 00 00 00 00 00 00 [................]
  | |        1bbdc: 3f 50 21 95 50 b3 7f 2b 00 00 00 00 00 00 00 00 [?P!.P..+........]
  | |        1bbec: 3f c0 01 52 26 12 18 2d 00 00 00 08 01 03 00 00 [?..R&..-........]
  | |        1bbfc: 00 00 00 00 00 00 00 44 00 00 00 00 00 00 00 00 [.......D........]
  | |        1bc0c: 00 00 01 55 00 00 02 00 00 00 00 01 00 00 00 01 [...U............]
  | |        1bc1c: 00 00 00 01 00 00 00 01 00 00 00 03 00 00 00 00 [................]
  | |        1bc2c: 00 00 00 00 3f 62 73 14 a0 ad b4 e0 00 00 00 00 [....?bs.........]
  | |        1bc3c: 00 00 00 00 3f d2 4e 2e 77 6c 59 76 00 00 00 08 [....?.N.wlYv....]
  | |        1bc4c: 01 03 00 00 00 00 00 00 00 00 00 44 00 00 00 00 [...........D....]
  | |        1bc5c: 00 00 00 00 00 00 01 55 00 00 02 00 00 00 00 02 [.......U........]
  | |        1bc6c: 00 00 00 01 00 00 00 01 00 00 00 01 00 00 00 03 [................]
  | |        1bc7c: 00 00 00 00 00 00 00 00 3f 5b ce 7e 5f 1a b5 18 [........?[.~_...]
  | |        1bc8c: 00 00 00 00 00 00 00 00 3f cb 96 e1 62 5c 7f ae [........?...b\..]
  | | 16) CacheVersion = 0 1 0 0
  | |     - Tag 0xc7aa (4 bytes, int32u[1] read as int8u[4]):
  | |        1bb5c: 00 01 00 00                                     [....]
  | + [SubIFD4 directory with 17 entries, Little-endian]
  | | 0)  SubfileType = 1
  | |     - Tag 0x00fe (4 bytes, int32u[1]):
  | |        1bca6: 01 00 00 00                                     [....]
  | | 1)  ImageWidth = 256
  | |     - Tag 0x0100 (4 bytes, int32u[1]):
  | |        1bcb2: 00 01 00 00                                     [....]
  | | 2)  ImageHeight = 171
  | |     - Tag 0x0101 (4 bytes, int32u[1]):
  | |        1bcbe: ab 00 00 00                                     [....]
  | | 3)  BitsPerSample = 8 8 8
  | |     - Tag 0x0102 (6 bytes, int16u[3]):
  | |        1bd6e: 08 00 08 00 08 00                               [......]
  | | 4)  Compression = 34892
  | |     - Tag 0x0103 (2 bytes, int16u[1]):
  | |        1bcd6: 4c 88                                           [L.]
  | | 5)  PhotometricInterpretation = 34892
  | |     - Tag 0x0106 (2 bytes, int16u[1]):
  | |        1bce2: 4c 88                                           [L.]
  | | 6)  SamplesPerPixel = 3
  | |     - Tag 0x0115 (2 bytes, int16u[1]):
  | |        1bcee: 03 00                                           [..]
  | | 7)  PlanarConfiguration = 1
  | |     - Tag 0x011c (2 bytes, int16u[1]):
  | |        1bcfa: 01 00                                           [..]
  | | 8)  TileWidth = 256
  | |     - Tag 0x0142 (4 bytes, int32u[1]):
  | |        1bd06: 00 01 00 00                                     [....]
  | | 9)  TileLength = 171
  | |     - Tag 0x0143 (4 bytes, int32u[1]):
  | |        1bd12: ab 00 00 00                                     [....]
  | | 10) TileOffsets = 713914
  | |     - Tag 0x0144 (4 bytes, int32u[1]):
  | |        1bd1e: ba e4 0a 00                                     [....]
  | | 11) TileByteCounts = 11318
  | |     - Tag 0x0145 (4 bytes, int32u[1]):
  | |        1bd2a: 36 2c 00 00                                     [6,..]
  | | 12) BlackLevel = 51 51 51 (51/1 51/1 51/1)
  | |     - Tag 0xc61a (24 bytes, rational64u[3]):
  | |        1bd74: 33 00 00 00 01 00 00 00 33 00 00 00 01 00 00 00 [3.......3.......]
  | |        1bd84: 33 00 00 00 01 00 00 00                         [3.......]
  | | 13) PreviewApplicationName = Adobe DNG Converter
  | |     - Tag 0xc716 (20 bytes, string[20]):
  | |        1bd8c: 41 64 6f 62 65 20 44 4e 47 20 43 6f 6e 76 65 72 [Adobe DNG Conver]
  | |        1bd9c: 74 65 72 00                                     [ter.]
  | | 14) PreviewApplicationVersion = 15.4
  | |     - Tag 0xc717 (5 bytes, string[5]):
  | |        1bda0: 31 35 2e 34 00                                  [15.4.]
  | | 15) OpcodeList2 = ....D......?L.&..J.?._.kh.....D.......?ai.^N.H?.F.+.F....D.......?Y.].?.3?.[A6[..
  | |     - Tag 0xc741 (256 bytes, undef[256]):
  | |        1bda6: 00 00 00 03 00 00 00 08 01 03 00 00 00 00 00 00 [................]
  | |        1bdb6: 00 00 00 44 00 00 00 00 00 00 00 00 00 00 00 ab [...D............]
  | |        1bdc6: 00 00 01 00 00 00 00 00 00 00 00 01 00 00 00 01 [................]
  | |        1bdd6: 00 00 00 01 00 00 00 03 00 00 00 00 00 00 00 00 [................]
  | |        1bde6: 3f 4c 99 26 b8 da 4a 8e 00 00 00 00 00 00 00 00 [?L.&..J.........]
  | |        1bdf6: 3f bc 5f f4 6b 68 95 f9 00 00 00 08 01 03 00 00 [?._.kh..........]
  | |        1be06: 00 00 00 00 00 00 00 44 00 00 00 00 00 00 00 00 [.......D........]
  | |        1be16: 00 00 00 ab 00 00 01 00 00 00 00 01 00 00 00 01 [................]
  | |        1be26: 00 00 00 01 00 00 00 01 00 00 00 03 00 00 00 00 [................]
  | |        1be36: 00 00 00 00 3f 61 69 99 5e 4e e4 48 00 00 00 00 [....?ai.^N.H....]
  | |        1be46: 00 00 00 00 3f d1 46 c6 2b 92 46 7f 00 00 00 08 [....?.F.+.F.....]
  | |        1be56: 01 03 00 00 00 00 00 00 00 00 00 44 00 00 00 00 [...........D....]
  | |        1be66: 00 00 00 00 00 00 00 ab 00 00 01 00 00 00 00 02 [................]
  | |        1be76: 00 00 00 01 00 00 00 01 00 00 00 01 00 00 00 03 [................]
  | |        1be86: 00 00 00 00 00 00 00 00 3f 59 8e 5d f2 3f 8c 33 [........?Y.].?.3]
  | |        1be96: 00 00 00 00 00 00 00 00 3f c9 5b 41 36 5b 0d 1b [........?.[A6[..]
  | | 16) CacheVersion = 0 1 0 0
  | |     - Tag 0xc7aa (4 bytes, int32u[1] read as int8u[4]):
  | |        1bd66: 00 01 00 00                                     [....]
  | 18) ApplicationNotes (SubDirectory) -->
  |     - Tag 0x02bc (6763 bytes, int8u[6763] read as undef[6763]):
  |         034a: 3c 3f 78 70 61 63 6b 65 74 20 62 65 67 69 6e 3d [<?xpacket begin=]
  |         035a: 22 ef bb bf 22 20 69 64 3d 22 57 35 4d 30 4d 70 ["..." id="W5M0Mp]
  |         036a: 43 65 68 69 48 7a 72 65 53 7a 4e 54 63 7a 6b 63 [CehiHzreSzNTczkc]
  |         037a: 39 64 22 3f 3e 0a 3c 78 3a 78 6d 70 6d 65 74 61 [9d"?>.<x:xmpmeta]
  |         038a: 20 78 6d 6c 6e 73 3a 78 3d 22 61 64 6f 62 65 3a [ xmlns:x="adobe:]
  |         039a: 6e 73 3a 6d 65 74 61 2f 22 20 78 3a 78 6d 70 74 [ns:meta/" x:xmpt]
  |         03aa: 6b 3d 22 41 64 6f 62 65 20 58 4d 50 20 43 6f 72 [k="Adobe XMP Cor]
  |         03ba: 65 20 37 2e 30 2d 63 30 30 30 20 31 2e 30 30 30 [e 7.0-c000 1.000]
  |         03ca: 30 30 30 2c 20 30 30 30 30 2f 30 30 2f 30 30 2d [000, 0000/00/00-]
  |         03da: 30 30 3a 30 30 3a 30 30 20 20 20 20 20 20 20 20 [00:00:00        ]
  |         03ea: 22 3e 0a 20 3c 72 64 66 3a 52 44 46 20 78 6d 6c [">. <rdf:RDF xml]
  |         03fa: 6e 73 3a 72 64 66 3d 22 68 74 74 70 3a 2f 2f 77 [ns:rdf="http://w]
  |         040a: 77 77 2e 77 33 2e 6f 72 67 2f 31 39 39 39 2f 30 [ww.w3.org/1999/0]
  |         041a: 32 2f 32 32 2d 72 64 66 2d 73 79 6e 74 61 78 2d [2/22-rdf-syntax-]
  |         042a: 6e 73 23 22 3e 0a 20 20 3c 72 64 66 3a 44 65 73 [ns#">.  <rdf:Des]
  |         043a: 63 72 69 70 74 69 6f 6e 20 72 64 66 3a 61 62 6f [cription rdf:abo]
  |         044a: 75 74 3d 22 22 0a 20 20 20 20 78 6d 6c 6e 73 3a [ut="".    xmlns:]
  |         045a: 78 6d 70 3d 22 68 74 74 70 3a 2f 2f 6e 73 2e 61 [xmp="http://ns.a]
  |         046a: 64 6f 62 65 2e 63 6f 6d 2f 78 61 70 2f 31 2e 30 [dobe.com/xap/1.0]
  |         047a: 2f 22 0a 20 20 20 20 78 6d 6c 6e 73 3a 64 63 3d [/".    xmlns:dc=]
  |         048a: 22 68 74 74 70 3a 2f 2f 70 75 72 6c 2e 6f 72 67 ["http://purl.org]
  |         049a: 2f 64 63 2f 65 6c 65 6d 65 6e 74 73 2f 31 2e 31 [/dc/elements/1.1]
  |         04aa: 2f 22 0a 20 20 20 20 78 6d 6c 6e 73 3a 61 75 78 [/".    xmlns:aux]
  |         04ba: 3d 22 68 74 74 70 3a 2f 2f 6e 73 2e 61 64 6f 62 [="http://ns.adob]
  |         04ca: 65 2e 63 6f 6d 2f 65 78 69 66 2f 31 2e 30 2f 61 [e.com/exif/1.0/a]
  |         04da: 75 78 2f 22 0a 20 20 20 20 78 6d 6c 6e 73 3a 65 [ux/".    xmlns:e]
  |         04ea: 78 69 66 45 58 3d 22 68 74 74 70 3a 2f 2f 63 69 [xifEX="http://ci]
  |         04fa: 70 61 2e 6a 70 2f 65 78 69 66 2f 31 2e 30 2f 22 [pa.jp/exif/1.0/"]
  |         050a: 0a 20 20 20 20 78 6d 6c 6e 73 3a 70 68 6f 74 6f [.    xmlns:photo]
  |         051a: 73 68 6f 70 3d 22 68 74 74 70 3a 2f 2f 6e 73 2e [shop="http://ns.]
  |         052a: 61 64 6f 62 65 2e 63 6f 6d 2f 70 68 6f 74 6f 73 [adobe.com/photos]
  |         053a: 68 6f 70 2f 31 2e 30 2f 22 0a 20 20 20 20 78 6d [hop/1.0/".    xm]
  |         054a: 6c 6e 73 3a 78 6d 70 4d 4d 3d 22 68 74 74 70 3a [lns:xmpMM="http:]
  |         055a: 2f 2f 6e 73 2e 61 64 6f 62 65 2e 63 6f 6d 2f 78 [//ns.adobe.com/x]
  |         056a: 61 70 2f 31 2e 30 2f 6d 6d 2f 22 0a 20 20 20 20 [ap/1.0/mm/".    ]
  |         057a: 78 6d 6c 6e 73 3a 73 74 45 76 74 3d 22 68 74 74 [xmlns:stEvt="htt]
  |         058a: 70 3a 2f 2f 6e 73 2e 61 64 6f 62 65 2e 63 6f 6d [p://ns.adobe.com]
  |         059a: 2f 78 61 70 2f 31 2e 30 2f 73 54 79 70 65 2f 52 [/xap/1.0/sType/R]
  |         05aa: 65 73 6f 75 72 63 65 45 76 65 6e 74 23 22 0a 20 [esourceEvent#". ]
  |         05ba: 20 20 20 78 6d 6c 6e 73 3a 73 74 52 65 66 3d 22 [   xmlns:stRef="]
  |         05ca: 68 74 74 70 3a 2f 2f 6e 73 2e 61 64 6f 62 65 2e [http://ns.adobe.]
  |         05da: 63 6f 6d 2f 78 61 70 2f 31 2e 30 2f 73 54 79 70 [com/xap/1.0/sTyp]
  |         05ea: 65 2f 52 65 73 6f 75 72 63 65 52 65 66 23 22 0a [e/ResourceRef#".]
  |         05fa: 20 20 20 20 78 6d 6c 6e 73 3a 63 72 64 3d 22 68 [    xmlns:crd="h]
  |         060a: 74 74 70 3a 2f 2f 6e 73 2e 61 64 6f 62 65 2e 63 [ttp://ns.adobe.c]
  |         061a: 6f 6d 2f 63 61 6d 65 72 61 2d 72 61 77 2d 64 65 [om/camera-raw-de]
  |         062a: 66 61 75 6c 74 73 2f 31 2e 30 2f 22 0a 20 20 20 [faults/1.0/".   ]
  |         063a: 20 78 6d 6c 6e 73 3a 63 72 73 3d 22 68 74 74 70 [ xmlns:crs="http]
  |         064a: 3a 2f 2f 6e 73 2e 61 64 6f 62 65 2e 63 6f 6d 2f [://ns.adobe.com/]
  |         065a: 63 61 6d 65 72 61 2d 72 61 77 2d 73 65 74 74 69 [camera-raw-setti]
  |         066a: 6e 67 73 2f 31 2e 30 2f 22 0a 20 20 20 78 6d 70 [ngs/1.0/".   xmp]
  |         067a: 3a 4d 6f 64 69 66 79 44 61 74 65 3d 22 32 30 32 [:ModifyDate="202]
  |         068a: 33 2d 30 37 2d 32 36 54 30 36 3a 31 31 3a 33 34 [3-07-26T06:11:34]
  |         069a: 2b 30 32 3a 30 30 22 0a 20 20 20 78 6d 70 3a 43 [+02:00".   xmp:C]
  |         06aa: 72 65 61 74 65 44 61 74 65 3d 22 32 30 32 31 2d [reateDate="2021-]
  |         06ba: 31 32 2d 30 36 54 30 35 3a 32 37 3a 33 33 2e 38 [12-06T05:27:33.8]
  |         06ca: 32 22 0a 20 20 20 78 6d 70 3a 43 72 65 61 74 6f [2".   xmp:Creato]
  |         06da: 72 54 6f 6f 6c 3d 22 41 64 6f 62 65 20 44 4e 47 [rTool="Adobe DNG]
  |         06ea: 20 43 6f 6e 76 65 72 74 65 72 20 31 35 2e 34 20 [ Converter 15.4 ]
  |         06fa: 28 4d 61 63 69 6e 74 6f 73 68 29 22 0a 20 20 20 [(Macintosh)".   ]
  |         070a: 78 6d 70 3a 4d 65 74 61 64 61 74 61 44 61 74 65 [xmp:MetadataDate]
  |         071a: 3d 22 32 30 32 33 2d 30 37 2d 32 36 54 30 36 3a [="2023-07-26T06:]
  |         072a: 31 31 3a 33 34 2b 30 32 3a 30 30 22 0a 20 20 20 [11:34+02:00".   ]
  |         073a: 64 63 3a 66 6f 72 6d 61 74 3d 22 69 6d 61 67 65 [dc:format="image]
  |         074a: 2f 64 6e 67 22 0a 20 20 20 61 75 78 3a 53 65 72 [/dng".   aux:Ser]
  |         075a: 69 61 6c 4e 75 6d 62 65 72 3d 22 31 35 38 31 30 [ialNumber="15810]
  |         076a: 33 36 33 38 37 22 0a 20 20 20 61 75 78 3a 4c 65 [36387".   aux:Le]
  |         077a: 6e 73 49 6e 66 6f 3d 22 31 35 2f 31 20 38 35 2f [nsInfo="15/1 85/]
  |         078a: 31 20 30 2f 30 20 30 2f 30 22 0a 20 20 20 61 75 [1 0/0 0/0".   au]
  |         079a: 78 3a 4c 65 6e 73 3d 22 45 46 2d 53 31 35 2d 38 [x:Lens="EF-S15-8]
  |         07aa: 35 6d 6d 20 66 2f 33 2e 35 2d 35 2e 36 20 49 53 [5mm f/3.5-5.6 IS]
  |         07ba: 20 55 53 4d 22 0a 20 20 20 61 75 78 3a 4c 65 6e [ USM".   aux:Len]
  |         07ca: 73 49 44 3d 22 34 38 38 22 0a 20 20 20 61 75 78 [sID="488".   aux]
  |         07da: 3a 4c 65 6e 73 53 65 72 69 61 6c 4e 75 6d 62 65 [:LensSerialNumbe]
  |         07ea: 72 3d 22 30 30 30 30 31 31 38 34 38 34 22 0a 20 [r="0000118484". ]
  |         07fa: 20 20 61 75 78 3a 49 6d 61 67 65 4e 75 6d 62 65 [  aux:ImageNumbe]
  |         080a: 72 3d 22 30 22 0a 20 20 20 61 75 78 3a 41 70 70 [r="0".   aux:App]
  |         081a: 72 6f 78 69 6d 61 74 65 46 6f 63 75 73 44 69 73 [roximateFocusDis]
  |         082a: 74 61 6e 63 65 3d 22 34 36 2f 31 30 30 22 0a 20 [tance="46/100". ]
  |         083a: 20 20 61 75 78 3a 46 6c 61 73 68 43 6f 6d 70 65 [  aux:FlashCompe]
  |         084a: 6e 73 61 74 69 6f 6e 3d 22 30 2f 31 22 0a 20 20 [nsation="0/1".  ]
  |         085a: 20 61 75 78 3a 4f 77 6e 65 72 4e 61 6d 65 3d 22 [ aux:OwnerName="]
  |         086a: 53 74 65 66 61 6e 20 4f 6c 74 6d 61 6e 6e 22 0a [Stefan Oltmann".]
  |         087a: 20 20 20 61 75 78 3a 46 69 72 6d 77 61 72 65 3d [   aux:Firmware=]
  |         088a: 22 31 2e 31 2e 31 22 0a 20 20 20 65 78 69 66 45 ["1.1.1".   exifE]
  |         089a: 58 3a 4c 65 6e 73 4d 6f 64 65 6c 3d 22 45 46 2d [X:LensModel="EF-]
  |         08aa: 53 31 35 2d 38 35 6d 6d 20 66 2f 33 2e 35 2d 35 [S15-85mm f/3.5-5]
  |         08ba: 2e 36 20 49 53 20 55 53 4d 22 0a 20 20 20 70 68 [.6 IS USM".   ph]
  |         08ca: 6f 74 6f 73 68 6f 70 3a 44 61 74 65 43 72 65 61 [otoshop:DateCrea]
  |         08da: 74 65 64 3d 22 32 30 32 31 2d 31 32 2d 30 36 54 [ted="2021-12-06T]
  |         08ea: 30 35 3a 32 37 3a 33 33 2e 38 32 22 0a 20 20 20 [05:27:33.82".   ]
  |         08fa: 78 6d 70 4d 4d 3a 44 6f 63 75 6d 65 6e 74 49 44 [xmpMM:DocumentID]
  |         090a: 3d 22 78 6d 70 2e 64 69 64 3a 30 61 34 32 66 38 [="xmp.did:0a42f8]
  |         091a: 32 38 2d 32 31 64 66 2d 34 61 34 36 2d 61 65 64 [28-21df-4a46-aed]
  |         092a: 35 2d 30 36 66 64 32 37 39 31 33 65 31 32 22 0a [5-06fd27913e12".]
  |         093a: 20 20 20 78 6d 70 4d 4d 3a 4f 72 69 67 69 6e 61 [   xmpMM:Origina]
  |         094a: 6c 44 6f 63 75 6d 65 6e 74 49 44 3d 22 36 42 34 [lDocumentID="6B4]
  |         095a: 37 37 42 31 36 38 42 38 44 42 45 38 37 41 30 31 [77B168B8DBE87A01]
  |         096a: 42 39 41 33 32 36 34 45 42 30 38 43 33 22 0a 20 [B9A3264EB08C3". ]
  |         097a: 20 20 78 6d 70 4d 4d 3a 49 6e 73 74 61 6e 63 65 [  xmpMM:Instance]
  |         098a: 49 44 3d 22 78 6d 70 2e 69 69 64 3a 30 61 34 32 [ID="xmp.iid:0a42]
  |         099a: 66 38 32 38 2d 32 31 64 66 2d 34 61 34 36 2d 61 [f828-21df-4a46-a]
  |         09aa: 65 64 35 2d 30 36 66 64 32 37 39 31 33 65 31 32 [ed5-06fd27913e12]
  |         09ba: 22 0a 20 20 20 63 72 64 3a 43 61 6d 65 72 61 50 [".   crd:CameraP]
  |         09ca: 72 6f 66 69 6c 65 3d 22 43 61 6d 65 72 61 20 53 [rofile="Camera S]
  |         09da: 74 61 6e 64 61 72 64 22 0a 20 20 20 63 72 64 3a [tandard".   crd:]
  |         09ea: 4c 6f 6f 6b 4e 61 6d 65 3d 22 22 0a 20 20 20 63 [LookName="".   c]
  |         09fa: 72 73 3a 48 61 73 53 65 74 74 69 6e 67 73 3d 22 [rs:HasSettings="]
  |         0a0a: 46 61 6c 73 65 22 0a 20 20 20 63 72 73 3a 48 61 [False".   crs:Ha]
  |         0a1a: 73 43 72 6f 70 3d 22 46 61 6c 73 65 22 0a 20 20 [sCrop="False".  ]
  |         0a2a: 20 63 72 73 3a 41 6c 72 65 61 64 79 41 70 70 6c [ crs:AlreadyAppl]
  |         0a3a: 69 65 64 3d 22 46 61 6c 73 65 22 3e 0a 20 20 20 [ied="False">.   ]
  |         0a4a: 3c 64 63 3a 63 72 65 61 74 6f 72 3e 0a 20 20 20 [<dc:creator>.   ]
  |         0a5a: 20 3c 72 64 66 3a 53 65 71 3e 0a 20 20 20 20 20 [ <rdf:Seq>.     ]
  |         0a6a: 3c 72 64 66 3a 6c 69 3e 53 74 65 66 61 6e 20 4f [<rdf:li>Stefan O]
  |         0a7a: 6c 74 6d 61 6e 6e 3c 2f 72 64 66 3a 6c 69 3e 0a [ltmann</rdf:li>.]
  |         0a8a: 20 20 20 20 3c 2f 72 64 66 3a 53 65 71 3e 0a 20 [    </rdf:Seq>. ]
  |         0a9a: 20 20 3c 2f 64 63 3a 63 72 65 61 74 6f 72 3e 0a [  </dc:creator>.]
  |         0aaa: 20 20 20 3c 64 63 3a 72 69 67 68 74 73 3e 0a 20 [   <dc:rights>. ]
  |         0aba: 20 20 20 3c 72 64 66 3a 41 6c 74 3e 0a 20 20 20 [   <rdf:Alt>.   ]
  |         0aca: 20 20 3c 72 64 66 3a 6c 69 20 78 6d 6c 3a 6c 61 [  <rdf:li xml:la]
  |         0ada: 6e 67 3d 22 78 2d 64 65 66 61 75 6c 74 22 3e 53 [ng="x-default">S]
  |         0aea: 74 65 66 61 6e 20 4f 6c 74 6d 61 6e 6e 3c 2f 72 [tefan Oltmann</r]
  |         0afa: 64 66 3a 6c 69 3e 0a 20 20 20 20 3c 2f 72 64 66 [df:li>.    </rdf]
  |         0b0a: 3a 41 6c 74 3e 0a 20 20 20 3c 2f 64 63 3a 72 69 [:Alt>.   </dc:ri]
  |         0b1a: 67 68 74 73 3e 0a 20 20 20 3c 78 6d 70 4d 4d 3a [ghts>.   <xmpMM:]
  |         0b2a: 48 69 73 74 6f 72 79 3e 0a 20 20 20 20 3c 72 64 [History>.    <rd]
  |         [snip 4731 bytes]
  | + [XMP directory, 6763 bytes]
  | | XMPToolkit = Adobe XMP Core 7.0-c000 1.000000, 0000/00/00-00:00:00        
  | | ModifyDate = 2023-07-26T06:11:34+02:00
  | | - Tag 'x:xmpmeta/rdf:RDF/rdf:Description/xmp:ModifyDate'
  | | CreateDate = 2021-12-06T05:27:33.82
  | | - Tag 'x:xmpmeta/rdf:RDF/rdf:Description/xmp:CreateDate'
  | | CreatorTool = Adobe DNG Converter 15.4 (Macintosh)
  | | - Tag 'x:xmpmeta/rdf:RDF/rdf:Description/xmp:CreatorTool'
  | | MetadataDate = 2023-07-26T06:11:34+02:00
  | | - Tag 'x:xmpmeta/rdf:RDF/rdf:Description/xmp:MetadataDate'
  | | Format = image/dng
  | | - Tag 'x:xmpmeta/rdf:RDF/rdf:Description/dc:format'
  | | SerialNumber = 1581036387
  | | - Tag 'x:xmpmeta/rdf:RDF/rdf:Description/aux:SerialNumber'
  | | LensInfo = 15/1 85/1 0/0 0/0
  | | - Tag 'x:xmpmeta/rdf:RDF/rdf:Description/aux:LensInfo'
  | | Lens = EF-S15-85mm f/3.5-5.6 IS USM
  | | - Tag 'x:xmpmeta/rdf:RDF/rdf:Description/aux:Lens'
  | | LensID = 488
  | | - Tag 'x:xmpmeta/rdf:RDF/rdf:Description/aux:LensID'
  | | LensSerialNumber = 0000118484
  | | - Tag 'x:xmpmeta/rdf:RDF/rdf:Description/aux:LensSerialNumber'
  | | ImageNumber = 0
  | | - Tag 'x:xmpmeta/rdf:RDF/rdf:Description/aux:ImageNumber'
  | | ApproximateFocusDistance = 46/100
  | | - Tag 'x:xmpmeta/rdf:RDF/rdf:Description/aux:ApproximateFocusDistance'
  | | FlashCompensation = 0/1
  | | - Tag 'x:xmpmeta/rdf:RDF/rdf:Description/aux:FlashCompensation'
  | | OwnerName = Stefan Oltmann
  | | - Tag 'x:xmpmeta/rdf:RDF/rdf:Description/aux:OwnerName'
  | | Firmware = 1.1.1
  | | - Tag 'x:xmpmeta/rdf:RDF/rdf:Description/aux:Firmware'
  | | LensModel = EF-S15-85mm f/3.5-5.6 IS USM
  | | - Tag 'x:xmpmeta/rdf:RDF/rdf:Description/exifEX:LensModel'
  | | DateCreated = 2021-12-06T05:27:33.82
  | | - Tag 'x:xmpmeta/rdf:RDF/rdf:Description/photoshop:DateCreated'
  | | DocumentID = xmp.did:0a42f828-21df-4a46-aed5-06fd27913e12
  | | - Tag 'x:xmpmeta/rdf:RDF/rdf:Description/xmpMM:DocumentID'
  | | OriginalDocumentID = 6B477B168B8DBE87A01B9A3264EB08C3
  | | - Tag 'x:xmpmeta/rdf:RDF/rdf:Description/xmpMM:OriginalDocumentID'
  | | InstanceID = xmp.iid:0a42f828-21df-4a46-aed5-06fd27913e12
  | | - Tag 'x:xmpmeta/rdf:RDF/rdf:Description/xmpMM:InstanceID'
  | | CameraProfile = Camera Standard
  | | - Tag 'x:xmpmeta/rdf:RDF/rdf:Description/crd:CameraProfile'
  | | LookName = 
  | | - Tag 'x:xmpmeta/rdf:RDF/rdf:Description/crd:LookName'
  | | HasSettings = False
  | | - Tag 'x:xmpmeta/rdf:RDF/rdf:Description/crs:HasSettings'
  | | HasCrop = False
  | | - Tag 'x:xmpmeta/rdf:RDF/rdf:Description/crs:HasCrop'
  | | AlreadyApplied = False
  | | - Tag 'x:xmpmeta/rdf:RDF/rdf:Description/crs:AlreadyApplied'
  | | Creator = Stefan Oltmann
  | | - Tag 'x:xmpmeta/rdf:RDF/rdf:Description/dc:creator/rdf:Seq/rdf:li 10'
  | | Rights = Stefan Oltmann
  | | - Tag 'x:xmpmeta/rdf:RDF/rdf:Description/dc:rights/rdf:Alt/rdf:li 10'
  | | HistoryAction = derived
  | | - Tag 'x:xmpmeta/rdf:RDF/rdf:Description/xmpMM:History/rdf:Seq/rdf:li 10/stEvt:action'
  | | HistoryParameters = converted from image/x-canon-cr2 to image/dng, saved to new location
  | | - Tag 'x:xmpmeta/rdf:RDF/rdf:Description/xmpMM:History/rdf:Seq/rdf:li 10/stEvt:parameters'
  | | HistoryAction = saved
  | | - Tag 'x:xmpmeta/rdf:RDF/rdf:Description/xmpMM:History/rdf:Seq/rdf:li 11/stEvt:action'
  | | HistoryInstanceID = xmp.iid:0a42f828-21df-4a46-aed5-06fd27913e12
  | | - Tag 'x:xmpmeta/rdf:RDF/rdf:Description/xmpMM:History/rdf:Seq/rdf:li 11/stEvt:instanceID'
  | | HistoryWhen = 2023-07-26T06:11:34+02:00
  | | - Tag 'x:xmpmeta/rdf:RDF/rdf:Description/xmpMM:History/rdf:Seq/rdf:li 11/stEvt:when'
  | | HistorySoftwareAgent = Adobe DNG Converter 15.4 (Macintosh)
  | | - Tag 'x:xmpmeta/rdf:RDF/rdf:Description/xmpMM:History/rdf:Seq/rdf:li 11/stEvt:softwareAgent'
  | | HistoryChanged = /
  | | - Tag 'x:xmpmeta/rdf:RDF/rdf:Description/xmpMM:History/rdf:Seq/rdf:li 11/stEvt:changed'
  | | DerivedFromDocumentID = 6B477B168B8DBE87A01B9A3264EB08C3
  | | - Tag 'x:xmpmeta/rdf:RDF/rdf:Description/xmpMM:DerivedFrom/stRef:documentID'
  | | DerivedFromOriginalDocumentID = 6B477B168B8DBE87A01B9A3264EB08C3
  | | - Tag 'x:xmpmeta/rdf:RDF/rdf:Description/xmpMM:DerivedFrom/stRef:originalDocumentID'
  | 19) Copyright = Stefan Oltmann
  |     - Tag 0x8298 (15 bytes, string[15] read as undef[15]):
  |         1db6: 53 74 65 66 61 6e 20 4f 6c 74 6d 61 6e 6e 00    [Stefan Oltmann.]
  | 20) ExifOffset (SubDirectory) -->
  |     - Tag 0x8769 (4 bytes, int32u[1]):
  |         0102: 86 a9 01 00                                     [....]
  | + [ExifIFD directory with 32 entries, Little-endian]
  | | 0)  ExposureTime = 0.01666666667 (1/60)
  | |     - Tag 0x829a (8 bytes, rational64u[1]):
  | |        1ab0c: 01 00 00 00 3c 00 00 00                         [....<...]
  | | 1)  FNumber = 5 (5/1)
  | |     - Tag 0x829d (8 bytes, rational64u[1]):
  | |        1ab14: 05 00 00 00 01 00 00 00                         [........]
  | | 2)  ExposureProgram = 3
  | |     - Tag 0x8822 (2 bytes, int16u[1]):
  | |        1a9a8: 03 00                                           [..]
  | | 3)  ISO = 400
  | |     - Tag 0x8827 (2 bytes, int16u[1]):
  | |        1a9b4: 90 01                                           [..]
  | | 4)  SensitivityType = 2
  | |     - Tag 0x8830 (2 bytes, int16u[1]):
  | |        1a9c0: 02 00                                           [..]
  | | 5)  RecommendedExposureIndex = 400
  | |     - Tag 0x8832 (4 bytes, int32u[1]):
  | |        1a9cc: 90 01 00 00                                     [....]
  | | 6)  ExifVersion = 0231
  | |     - Tag 0x9000 (4 bytes, undef[4]):
  | |        1a9d8: 30 32 33 31                                     [0231]
  | | 7)  DateTimeOriginal = 2021:12:06 05:27:33
  | |     - Tag 0x9003 (20 bytes, string[20]):
  | |        1ab1c: 32 30 32 31 3a 31 32 3a 30 36 20 30 35 3a 32 37 [2021:12:06 05:27]
  | |        1ab2c: 3a 33 33 00                                     [:33.]
  | | 8)  CreateDate = 2021:12:06 05:27:33
  | |     - Tag 0x9004 (20 bytes, string[20]):
  | |        1ab30: 32 30 32 31 3a 31 32 3a 30 36 20 30 35 3a 32 37 [2021:12:06 05:27]
  | |        1ab40: 3a 33 33 00                                     [:33.]
  | | 9)  OffsetTime = +02:00
  | |     - Tag 0x9010 (7 bytes, string[7]):
  | |        1ab44: 2b 30 32 3a 30 30 00                            [+02:00.]
  | | 10) ShutterSpeedValue = 5.906891 (5906891/1000000)
  | |     - Tag 0x9201 (8 bytes, rational64s[1]):
  | |        1ab4c: cb 21 5a 00 40 42 0f 00                         [.!Z.@B..]
  | | 11) ApertureValue = 4.643856 (4643856/1000000)
  | |     - Tag 0x9202 (8 bytes, rational64u[1]):
  | |        1ab54: 10 dc 46 00 40 42 0f 00                         [..F.@B..]
  | | 12) ExposureCompensation = 0 (0/1)
  | |     - Tag 0x9204 (8 bytes, rational64s[1]):
  | |        1ab5c: 00 00 00 00 01 00 00 00                         [........]
  | | 13) MaxApertureValue = 4.125 (4125/1000)
  | |     - Tag 0x9205 (8 bytes, rational64u[1]):
  | |        1ab64: 1d 10 00 00 e8 03 00 00                         [........]
  | | 14) MeteringMode = 5
  | |     - Tag 0x9207 (2 bytes, int16u[1]):
  | |        1aa38: 05 00                                           [..]
  | | 15) Flash = 16
  | |     - Tag 0x9209 (2 bytes, int16u[1]):
  | |        1aa44: 10 00                                           [..]
  | | 16) FocalLength = 24 (24/1)
  | |     - Tag 0x920a (8 bytes, rational64u[1]):
  | |        1ab6c: 18 00 00 00 01 00 00 00                         [........]
  | | 17) SubSecTimeOriginal = 82
  | |     - Tag 0x9291 (3 bytes, string[3]):
  | |        1aa5c: 38 32 00                                        [82.]
  | | 18) SubSecTimeDigitized = 82
  | |     - Tag 0x9292 (3 bytes, string[3]):
  | |        1aa68: 38 32 00                                        [82.]
  | | 19) ColorSpace = 1
  | |     - Tag 0xa001 (2 bytes, int16u[1]):
  | |        1aa74: 01 00                                           [..]
  | | 20) FocalPlaneXResolution = 5728.176796 (5184000/905)
  | |     - Tag 0xa20e (8 bytes, rational64u[1]):
  | |        1ab74: 00 1a 4f 00 89 03 00 00                         [..O.....]
  | | 21) FocalPlaneYResolution = 5808.403361 (3456000/595)
  | |     - Tag 0xa20f (8 bytes, rational64u[1]):
  | |        1ab7c: 00 bc 34 00 53 02 00 00                         [..4.S...]
  | | 22) FocalPlaneResolutionUnit = 2
  | |     - Tag 0xa210 (2 bytes, int16u[1]):
  | |        1aa98: 02 00                                           [..]
  | | 23) CustomRendered = 0
  | |     - Tag 0xa401 (2 bytes, int16u[1]):
  | |        1aaa4: 00 00                                           [..]
  | | 24) ExposureMode = 0
  | |     - Tag 0xa402 (2 bytes, int16u[1]):
  | |        1aab0: 00 00                                           [..]
  | | 25) WhiteBalance = 0
  | |     - Tag 0xa403 (2 bytes, int16u[1]):
  | |        1aabc: 00 00                                           [..]
  | | 26) SceneCaptureType = 0
  | |     - Tag 0xa406 (2 bytes, int16u[1]):
  | |        1aac8: 00 00                                           [..]
  | | 27) OwnerName = Stefan Oltmann
  | |     - Tag 0xa430 (15 bytes, string[15]):
  | |        1ab84: 53 74 65 66 61 6e 20 4f 6c 74 6d 61 6e 6e 00    [Stefan Oltmann.]
  | | 28) SerialNumber = 1581036387
  | |     - Tag 0xa431 (11 bytes, string[11]):
  | |        1ab94: 31 35 38 31 30 33 36 33 38 37 00                [1581036387.]
  | | 29) LensInfo = 15 85 undef undef (15/1 85/1 0/0 0/0)
  | |     - Tag 0xa432 (32 bytes, rational64u[4]):
  | |        1aba0: 0f 00 00 00 01 00 00 00 55 00 00 00 01 00 00 00 [........U.......]
  | |        1abb0: 00 00 00 00 00 00 00 00 00 00 00 00 00 00 00 00 [................]
  | | 30) LensModel = EF-S15-85mm f/3.5-5.6 IS USM
  | |     - Tag 0xa434 (29 bytes, string[29]):
  | |        1abc0: 45 46 2d 53 31 35 2d 38 35 6d 6d 20 66 2f 33 2e [EF-S15-85mm f/3.]
  | |        1abd0: 35 2d 35 2e 36 20 49 53 20 55 53 4d 00          [5-5.6 IS USM.]
  | | 31) LensSerialNumber = 0000118484
  | |     - Tag 0xa435 (11 bytes, string[11]):
  | |        1abde: 30 30 30 30 31 31 38 34 38 34 00                [0000118484.]
  | 21) ImageNumber = 0
  |     - Tag 0x9211 (4 bytes, int32u[1]):
  |         010e: 00 00 00 00                                     [....]
  | 22) DNGVersion = 1 4 0 0
  |     - Tag 0xc612 (4 bytes, int8u[4]):
  |         011a: 01 04 00 00                                     [....]
  | 23) DNGBackwardVersion = 1 1 0 0
  |     - Tag 0xc613 (4 bytes, int8u[4]):
  |         0126: 01 01 00 00                                     [....]
  | 24) UniqueCameraModel = Canon EOS 60D
  |     - Tag 0xc614 (14 bytes, string[14]):
  |         1dc6: 43 61 6e 6f 6e 20 45 4f 53 20 36 30 44 00       [Canon EOS 60D.]
  | 25) ColorMatrix1 = 0.7428 -0.1897 -0.0491 -0.3505 1.0963 0.2929 -0.0337 0.1242 0.6413 (7428/10000 -1897/10000 -491/10000 -3505/10000 10963/10000 2929/10000 -337/10000 1242/10000 6413/10000)
  |     - Tag 0xc621 (72 bytes, rational64s[9]):
  |         1dd4: 04 1d 00 00 10 27 00 00 97 f8 ff ff 10 27 00 00 [.....'.......'..]
  |         1de4: 15 fe ff ff 10 27 00 00 4f f2 ff ff 10 27 00 00 [.....'..O....'..]
  |         1df4: d3 2a 00 00 10 27 00 00 71 0b 00 00 10 27 00 00 [.*...'..q....'..]
  |         1e04: af fe ff ff 10 27 00 00 da 04 00 00 10 27 00 00 [.....'.......'..]
  |         1e14: 0d 19 00 00 10 27 00 00                         [.....'..]
  | 26) ColorMatrix2 = 0.6719 -0.0994 -0.0925 -0.4408 1.2426 0.2211 -0.0887 0.2129 0.6051 (6719/10000 -994/10000 -925/10000 -4408/10000 12426/10000 2211/10000 -887/10000 2129/10000 6051/10000)
  |     - Tag 0xc622 (72 bytes, rational64s[9]):
  |         1e1c: 3f 1a 00 00 10 27 00 00 1e fc ff ff 10 27 00 00 [?....'.......'..]
  |         1e2c: 63 fc ff ff 10 27 00 00 c8 ee ff ff 10 27 00 00 [c....'.......'..]
  |         1e3c: 8a 30 00 00 10 27 00 00 a3 08 00 00 10 27 00 00 [.0...'.......'..]
  |         1e4c: 89 fc ff ff 10 27 00 00 51 08 00 00 10 27 00 00 [.....'..Q....'..]
  |         1e5c: a3 17 00 00 10 27 00 00                         [.....'..]
  | 27) CameraCalibration1 = 1.0102 0 0 0 1 0 0 0 0.9529 (10102/10000 0/10000 0/10000 0/10000 10000/10000 0/10000 0/10000 0/10000 9529/10000)
  |     - Tag 0xc623 (72 bytes, rational64s[9]):
  |         1e64: 76 27 00 00 10 27 00 00 00 00 00 00 10 27 00 00 [v'...'.......'..]
  |         1e74: 00 00 00 00 10 27 00 00 00 00 00 00 10 27 00 00 [.....'.......'..]
  |         1e84: 10 27 00 00 10 27 00 00 00 00 00 00 10 27 00 00 [.'...'.......'..]
  |         1e94: 00 00 00 00 10 27 00 00 00 00 00 00 10 27 00 00 [.....'.......'..]
  |         1ea4: 39 25 00 00 10 27 00 00                         [9%...'..]
  | 28) CameraCalibration2 = 1.0102 0 0 0 1 0 0 0 0.9529 (10102/10000 0/10000 0/10000 0/10000 10000/10000 0/10000 0/10000 0/10000 9529/10000)
  |     - Tag 0xc624 (72 bytes, rational64s[9]):
  |         1eac: 76 27 00 00 10 27 00 00 00 00 00 00 10 27 00 00 [v'...'.......'..]
  |         1ebc: 00 00 00 00 10 27 00 00 00 00 00 00 10 27 00 00 [.....'.......'..]
  |         1ecc: 10 27 00 00 10 27 00 00 00 00 00 00 10 27 00 00 [.'...'.......'..]
  |         1edc: 00 00 00 00 10 27 00 00 00 00 00 00 10 27 00 00 [.....'.......'..]
  |         1eec: 39 25 00 00 10 27 00 00                         [9%...'..]
  | 29) AnalogBalance = 1 1 1 (1000000/1000000 1000000/1000000 1000000/1000000)
  |     - Tag 0xc627 (24 bytes, rational64u[3]):
  |         1ef4: 40 42 0f 00 40 42 0f 00 40 42 0f 00 40 42 0f 00 [@B..@B..@B..@B..]
  |         1f04: 40 42 0f 00 40 42 0f 00                         [@B..@B..]
  | 30) AsShotNeutral = 0.42971 1 0.704264 (429710/1000000 1000000/1000000 704264/1000000)
  |     - Tag 0xc628 (24 bytes, rational64u[3]):
  |         1f0c: 8e 8e 06 00 40 42 0f 00 40 42 0f 00 40 42 0f 00 [....@B..@B..@B..]
  |         1f1c: 08 bf 0a 00 40 42 0f 00                         [....@B..]
  | 31) BaselineExposure = 0 (0/100)
  |     - Tag 0xc62a (8 bytes, rational64s[1]):
  |         1f24: 00 00 00 00 64 00 00 00                         [....d...]
  | 32) BaselineNoise = 0.8 (80/100)
  |     - Tag 0xc62b (8 bytes, rational64u[1]):
  |         1f2c: 50 00 00 00 64 00 00 00                         [P...d...]
  | 33) BaselineSharpness = 1.25 (125/100)
  |     - Tag 0xc62c (8 bytes, rational64u[1]):
  |         1f34: 7d 00 00 00 64 00 00 00                         [}...d...]
  | 34) LinearResponseLimit = 1 (100/100)
  |     - Tag 0xc62e (8 bytes, rational64u[1]):
  |         1f3c: 64 00 00 00 64 00 00 00                         [d...d...]
  | 35) CameraSerialNumber = 1581036387
  |     - Tag 0xc62f (11 bytes, string[11]):
  |         1f44: 31 35 38 31 30 33 36 33 38 37 00                [1581036387.]
  | 36) DNGLensInfo = 15 85 undef undef (15/1 85/1 0/0 0/0)
  |     - Tag 0xc630 (32 bytes, rational64u[4]):
  |         1f50: 0f 00 00 00 01 00 00 00 55 00 00 00 01 00 00 00 [........U.......]
  |         1f60: 00 00 00 00 00 00 00 00 00 00 00 00 00 00 00 00 [................]
  | 37) ShadowScale = 1 (1/1)
  |     - Tag 0xc633 (8 bytes, rational64u[1]):
  |         1f70: 01 00 00 00 01 00 00 00                         [........]
  | 38) DNGAdobeData (SubDirectory) -->
  |     - Tag 0xc634 (45224 bytes, int8u[45224] read as undef[45224]):
  |         1f78: 41 64 6f 62 65 00 4d 61 6b 4e 00 00 b0 9a 49 49 [Adobe.MakN....II]
  |         1f88: 00 00 03 d8 29 00 01 00 03 00 31 00 00 00 ca 05 [....).....1.....]
  |         1f98: 00 00 02 00 03 00 04 00 00 00 2c 06 00 00 03 00 [..........,.....]
  |         1fa8: 03 00 04 00 00 00 34 06 00 00 04 00 03 00 22 00 [......4.......".]
  |         1fb8: 00 00 3c 06 00 00 06 00 02 00 0e 00 00 00 80 06 [..<.............]
  |         1fc8: 00 00 07 00 02 00 18 00 00 00 a0 06 00 00 09 00 [................]
  |         1fd8: 02 00 20 00 00 00 b8 06 00 00 0c 00 04 00 01 00 [.. .............]
  |         1fe8: 00 00 63 b3 3c 5e 0d 00 07 00 00 06 00 00 d8 06 [..c.<^..........]
  |         1ff8: 00 00 10 00 04 00 01 00 00 00 87 02 00 80 13 00 [................]
  |         2008: 03 00 04 00 00 00 d8 0c 00 00 15 00 04 00 01 00 [................]
  |         2018: 00 00 00 00 00 a0 19 00 03 00 01 00 00 00 01 00 [................]
  |         2028: 00 00 26 00 03 00 30 00 00 00 e0 0c 00 00 83 00 [..&...0.........]
  |         2038: 04 00 01 00 00 00 00 00 00 00 93 00 03 00 1b 00 [................]
  |         2048: 00 00 a0 0f 00 00 95 00 02 00 46 00 00 00 d6 0f [..........F.....]
  |         2058: 00 00 96 00 02 00 10 00 00 00 1c 10 00 00 97 00 [................]
  |         2068: 07 00 00 04 00 00 2c 10 00 00 98 00 03 00 04 00 [......,.........]
  |         2078: 00 00 2c 14 00 00 99 00 04 00 4a 00 00 00 34 14 [..,.......J...4.]
  |         2088: 00 00 9a 00 04 00 05 00 00 00 5c 15 00 00 a0 00 [..........\.....]
  |         2098: 03 00 0e 00 00 00 70 15 00 00 aa 00 03 00 06 00 [......p.........]
  |         20a8: 00 00 8c 15 00 00 b4 00 03 00 01 00 00 00 01 00 [................]
  |         20b8: 00 00 d0 00 04 00 01 00 00 00 00 00 00 00 e0 00 [................]
  |         20c8: 03 00 11 00 00 00 98 15 00 00 01 40 03 00 42 05 [...........@..B.]
  |         20d8: 00 00 ba 15 00 00 02 40 03 00 da 28 00 00 3e 20 [.......@...(..> ]
  |         20e8: 00 00 05 40 07 00 58 40 00 00 f2 71 00 00 08 40 [...@..X@...q...@]
  |         20f8: 03 00 03 00 00 00 4a b2 00 00 09 40 03 00 03 00 [......J....@....]
  |         2108: 00 00 50 b2 00 00 10 40 02 00 20 00 00 00 56 b2 [..P....@.. ...V.]
  |         2118: 00 00 11 40 07 00 fc 00 00 00 76 b2 00 00 12 40 [...@......v....@]
  |         2128: 02 00 20 00 00 00 72 b3 00 00 15 40 07 00 74 00 [.. ...r....@..t.]
  |         2138: 00 00 92 b3 00 00 16 40 04 00 06 00 00 00 06 b4 [.......@........]
  |         2148: 00 00 17 40 04 00 02 00 00 00 1e b4 00 00 18 40 [...@...........@]
  |         2158: 04 00 03 00 00 00 26 b4 00 00 19 40 07 00 1e 00 [......&....@....]
  |         2168: 00 00 32 b4 00 00 20 40 04 00 05 00 00 00 50 b4 [..2... @......P.]
  |         2178: 00 00 00 00 00 00 62 00 02 00 00 00 04 00 00 00 [......b.........]
  |         2188: 05 00 00 00 01 00 00 00 07 00 00 00 01 00 00 00 [................]
  |         2198: 00 00 00 00 ff 7f ff 7f 03 00 02 00 00 00 03 00 [................]
  |         21a8: ff ff e8 01 55 00 0f 00 01 00 84 00 30 01 00 00 [....U.......0...]
  |         21b8: 00 00 00 00 00 00 ff ff ff ff ff ff 00 00 00 00 [................]
  |         21c8: 00 00 00 00 ff ff ff ff 00 00 00 00 ff 7f ff ff [................]
  |         21d8: ff ff 00 00 00 00 03 00 00 00 18 00 c6 22 ea 4c [.............".L]
  |         21e8: 00 00 00 00 00 00 00 00 44 00 00 00 e0 00 7c 00 [........D.....|.]
  |         21f8: 94 00 c0 00 00 00 00 00 03 00 00 00 08 00 08 00 [................]
  |         2208: 95 00 00 00 00 00 00 00 00 00 00 00 00 00 00 00 [................]
  |         2218: 00 00 98 00 c4 00 75 00 00 00 00 00 f8 00 ff ff [......u.........]
  |         2228: ff ff ff ff ff ff 00 00 00 00 00 00 43 61 6e 6f [............Cano]
  |         2238: 6e 20 45 4f 53 20 36 30 44 00 00 00 00 00 00 00 [n EOS 60D.......]
  |         2248: 00 00 00 00 00 00 00 00 00 00 00 00 46 69 72 6d [............Firm]
  |         2258: 77 61 72 65 20 56 65 72 73 69 6f 6e 20 31 2e 31 [ware Version 1.1]
  |         2268: 2e 31 00 00 53 74 65 66 61 6e 20 4f 6c 74 6d 61 [.1..Stefan Oltma]
  |         2278: 6e 6e 00 00 00 00 00 00 00 00 00 00 00 00 00 00 [nn..............]
  |         2288: 00 00 00 00 aa aa 69 2e 68 2d 58 00 75 77 00 03 [......i.h-X.uw..]
  |         2298: 00 00 00 00 00 00 00 00 00 06 00 00 00 95 ba 6d [...............m]
  |         22a8: 7a 7c 00 18 7e 01 00 00 00 00 00 00 00 00 00 01 [z|..~...........]
  |         22b8: bb bb 01 01 00 00 00 00 01 01 00 00 00 00 00 00 [................]
  |         22c8: 00 00 00 00 00 00 00 00 00 40 d0 00 00 00 00 00 [.........@......]
  |         22d8: 19 47 00 00 00 00 00 7f 00 00 30 00 2d 00 0c cc [.G........0.-...]
  |         22e8: cc 02 00 00 00 03 00 00 00 04 00 00 00 58 00 00 [.............X..]
  |         22f8: 00 00 00 00 00 00 01 00 00 00 00 00 00 00 00 00 [................]
  |         2308: 00 88 13 00 00 00 00 00 00 00 00 00 00 07 00 00 [................]
  |         2318: 00 07 00 00 00 07 00 00 00 03 00 00 00 03 00 00 [................]
  |         2328: 00 03 00 00 00 00 00 00 00 01 00 00 00 00 00 00 [................]
  |         2338: 00 01 00 00 00 81 00 00 00 01 00 00 00 01 00 00 [................]
  |         2348: 00 01 00 00 00 00 00 00 00 00 00 00 00 04 00 00 [................]
  |         2358: 00 06 00 00 00 00 00 df ff 06 00 05 00 00 00 ff [................]
  |         2368: 7e 00 00 00 00 00 00 00 00 01 29 54 01 e8 00 0f [~.........)T....]
  |         2378: 00 55 91 77 ba ef 08 ff ff ff ff ff ff 02 00 00 [.U.w............]
  |         2388: 00 00 00 00 00 00 00 00 00 00 00 00 00 00 00 00 [................]
  |         2398: 00 00 00 00 00 00 00 00 00 01 00 00 00 40 14 00 [.............@..]
  |         23a8: 00 80 0d 00 00 34 10 00 00 74 09 00 00 06 02 00 [.....4...t......]
  |         23b8: 00 b3 02 00 00 d0 02 00 00 e0 01 00 00 00 00 00 [................]
  |         23c8: 00 00 00 00 00 d0 02 00 00 e0 01 00 00 d0 02 00 [................]
  |         23d8: 00 e0 01 00 00 00 00 00 00 00 00 00 00 d0 02 00 [................]
  |         23e8: 00 e0 01 00 00 00 00 00 00 00 00 00 00 01 00 00 [................]
  |         23f8: 00 00 00 00 00 01 00 00 00 00 00 00 00 00 00 00 [................]
  |         2408: 00 00 00 00 00 00 00 00 00 00 02 00 00 00 01 00 [................]
  |         2418: 00 01 00 02 01 00 00 00 00 00 00 00 00 31 2e 31 [.............1.1]
  |         2428: 2e 31 00 36 43 28 32 66 29 00 00 00 00 53 74 65 [.1.6C(2f)....Ste]
  |         2438: 66 61 6e 20 4f 6c 74 6d 61 6e 6e 00 61 00 00 00 [fan Oltmann.a...]
  |         2448: 00 00 00 00 00 00 00 00 00 00 00 00 00 8e 00 00 [................]
  |         2458: 00 65 00 00 00 64 00 00 00 00 00 00 00 17 21 00 [.e...d........!.]
  |         2468: 00 00 00 00 00 64 00 00 00 66 00 00 00 64 00 00 [.....d...f...d..]
  |         2478: 00 08 00 00 00 08 00 00 00 08 00 00 00 08 00 00 [................]
  |         2488: 00 01 00 00 00 00 00 00 00 00 00 00 00 00 00 00 [................]
  |         2498: 00 00 00 00 00 00 00 00 00 00 00 00 00 00 00 00 [................]
  |         24a8: 00 00 00 00 00 e9 01 00 04 00 04 9f 02 00 00 00 [................]
  |         24b8: 00 00 00 00 00 00 00 00 00 00 00 00 00 00 00 00 [................]
  |         24c8: 00 00 00 00 00 00 00 00 00 00 00 00 00 00 00 00 [................]
  |         24d8: 00 00 00 00 00 00 00 00 00 e9 01 00 04 00 04 9f [................]
  |         24e8: 02 00 00 00 00 00 00 00 00 00 00 00 00 00 00 00 [................]
  |         24f8: 00 00 00 00 00 00 00 00 00 00 00 00 00 00 00 00 [................]
  |         2508: 00 00 00 00 00 00 00 00 00 00 00 00 00 e9 01 00 [................]
  |         2518: 04 00 04 9f 02 00 00 00 00 00 00 00 00 00 00 00 [................]
  |         2528: 00 00 00 00 00 00 00 00 00 00 00 00 00 00 00 00 [................]
  |         2538: 00 00 00 00 00 00 00 00 00 00 00 00 00 00 00 00 [................]
  |         2548: 00 e9 01 00 04 00 04 9f 02 00 00 00 00 00 00 00 [................]
  |         2558: 00 00 00 00 00 00 00 00 00 00 00 00 00 00 00 00 [................]
  |         2568: 00 00 00 00 00 00 00 00 00 00 00 00 00 00 00 00 [................]
  |         2578: 00 00 00 00 00 e9 01 00 04 00 04 9f 02 00 00 00 [................]
  |         2588: 00 00 00 00 00 00 00 00 00 00 00 00 00 01 00 00 [................]
  |         2598: 00 00 00 00 00 00 00 00 00 00 00 00 00 00 00 00 [................]
  |         25a8: 00 01 00 00 00 00 00 00 00 03 00 00 00 00 00 00 [................]
  |         25b8: 00 00 00 00 00 ef be ad de ef be ad de 00 00 00 [................]
  |         25c8: 00 02 00 00 00 00 00 00 00 00 00 00 00 ef be ad [................]
  |         25d8: de ef be ad de 00 00 00 00 04 00 00 00 00 00 00 [................]
  |         25e8: 00 00 00 00 00 ef be ad de ef be ad de 00 00 00 [................]
  |         25f8: 00 00 00 00 00 00 00 00 00 00 00 00 00 ef be ad [................]
  |         2608: de ef be ad de 00 00 00 00 00 00 00 00 00 00 00 [................]
  |         2618: 00 00 00 00 00 ef be ad de ef be ad de 00 00 00 [................]
  |         2628: 00 03 00 00 00 ef be ad de ef be ad de 00 00 00 [................]
  |         2638: 00 00 00 00 00 00 00 00 00 00 00 00 00 00 00 00 [................]
  |         2648: 00 00 00 00 00 00 00 00 00 00 00 00 00 00 00 00 [................]
  |         2658: 00 03 00 00 00 00 00 00 00 00 00 00 00 00 00 00 [................]
  |         2668: 00 00 00 00 00 00 00 00 00 03 00 00 00 00 00 00 [................]
  |         2678: 00 00 00 00 00 00 00 00 00 00 00 00 00 00 00 00 [................]
  |         2688: 00 03 00 00 00 00 00 00 00 00 00 00 00 00 00 00 [................]
  |         2698: 00 00 00 00 00 81 00 81 00 81 00 00 00 ff ff ff [................]
  |         26a8: ff ff ff ff ff 00 00 00 00 00 00 00 00 00 00 00 [................]
  |         26b8: 00 00 00 00 00 00 00 00 00 00 00 00 00 00 00 00 [................]
  |         26c8: 00 00 00 00 00 00 04 00 04 00 04 00 04 00 00 00 [................]
  |         26d8: 00 00 00 00 00 00 00 00 00 00 00 00 00 00 00 00 [................]
  |         26e8: 00 00 00 00 00 00 00 00 00 00 00 00 00 00 04 00 [................]
  |         26f8: 04 00 04 00 04 00 00 00 00 00 00 00 00 00 00 00 [................]
  |         2708: 00 00 00 00 00 00 00 00 00 00 00 00 00 00 00 00 [................]
  |         2718: 00 00 00 00 00 00 04 00 04 00 04 00 04 00 00 00 [................]
  |         2728: 00 00 00 00 00 00 00 00 00 00 00 00 00 00 00 00 [................]
  |         2738: 00 00 00 00 00 00 00 00 00 00 00 00 00 00 04 00 [................]
  |         2748: 04 00 04 00 04 00 00 00 00 00 00 00 00 00 00 00 [................]
  |         2758: 00 00 00 00 00 00 00 00 00 00 00 00 00 00 00 00 [................]
  |         [snip 43192 bytes]
  | + [DNGAdobeData directory, 45224 bytes]
  | | MakN = II..)..1.....,....4..."<............. .....c.<^........................&.0............F..........,....,...J4....\....p...................@.B....@..(> .@.X@.q.@..J..@..P..@. V..@..v..@. r..@.t...@.....@.....@..&..@..2. @..P.b.................U...0....................".LD.|........u.........Canon EOS 60DFirmware Version 1.1.1Stefan Oltmann..i.h-Xuw....mz|.~........@..G.0-......X......................~.)T...U.w...........@...4.t............................1.1.16C(2f)Stefan Oltmanna.ed.!dfd...........................................................................................................................E..a<.......3.-t...p`...@...@...lXXX.XXXlVkkk.kkkV..\...X...\.......w.w.......6....m0-..EF-S15-85mm f/3.5-5.6 IS USMWB0607529(...\.......................,...........D.................D.................@.................".......8.........~.2.............;.:.&........h.v.v.D.........s.p.t......L..............R............E............i.O.....@.O.....@.M.......@.......9.d.n...y.P.....|.X.......p............./...B......._.....W.n...y.P.n...y.P.n...y.P.n...y.P.n...y.P.....'.......'.......'.......'.......'.....o.o..*..z.Q..'......l /.....X.g.....p.............y.P....I.\..'...h.AQ.....sz...............}.......j...z...8.`.....!............."')+.-00811.....$$&$)*+05:=+...."!% %%+)81@,.....""'&),6+/;D9:8FQ[afjehgxb^)48>KVTXS[Z\hr..H=<<CMJRENQ^\zc.QB<;@ELNWZ`d|ek..:84=DKNQRNOKUFB.48=EKIKFMJINSZV2?=;@HEK@FDMG\N[6G?<@DJJRPRSbMQWY22.49?BCD>?<D62.+-0597847449=D@!0/-/0-1(+,20>0C#1,+,(++/012=13<A&2>.........;..GF.......G.....e...k...z.....;.2.......WPGE.+<+...."....*.$..4.E.......fX@..........K...U0..p.....O..........M..b....................9.................P. @`.......................................8.:.'..P................#$9......(o.....J.....Q. ...............p....r..f..........@@@.}.x......M..xN.g.1...iv"....2....1.......0..&...t0..,.E._0..0.vI.p.8...h(.....1....0.....n0.....E0...........3.::.1...   ..Pgd4!""".H....Ff....B..P.p......w..(..D.....w..(..B.....wh...*.....p@..(.....Z......Z...... ........:.........u.....[snip]
  | | - Tag 'MakN' (45210 bytes):
  | |     1f86: 49 49 00 00 03 d8 29 00 01 00 03 00 31 00 00 00 [II....).....1...]
  | |     1f96: ca 05 00 00 02 00 03 00 04 00 00 00 2c 06 00 00 [............,...]
  | |     1fa6: 03 00 03 00 04 00 00 00 34 06 00 00 04 00 03 00 [........4.......]
  | |     1fb6: 22 00 00 00 3c 06 00 00 06 00 02 00 0e 00 00 00 ["...<...........]
  | |     1fc6: 80 06 00 00 07 00 02 00 18 00 00 00 a0 06 00 00 [................]
  | |     1fd6: 09 00 02 00 20 00 00 00 b8 06 00 00 0c 00 04 00 [.... ...........]
  | |     1fe6: 01 00 00 00 63 b3 3c 5e 0d 00 07 00 00 06 00 00 [....c.<^........]
  | |     1ff6: d8 06 00 00 10 00 04 00 01 00 00 00 87 02 00 80 [................]
  | |     2006: 13 00 03 00 04 00 00 00 d8 0c 00 00 15 00 04 00 [................]
  | |     2016: 01 00 00 00 00 00 00 a0 19 00 03 00 01 00 00 00 [................]
  | |     2026: 01 00 00 00 26 00 03 00 30 00 00 00 e0 0c 00 00 [....&...0.......]
  | |     2036: 83 00 04 00 01 00 00 00 00 00 00 00 93 00 03 00 [................]
  | |     2046: 1b 00 00 00 a0 0f 00 00 95 00 02 00 46 00 00 00 [............F...]
  | |     2056: d6 0f 00 00 96 00 02 00 10 00 00 00 1c 10 00 00 [................]
  | |     2066: 97 00 07 00 00 04 00 00 2c 10 00 00 98 00 03 00 [........,.......]
  | |     2076: 04 00 00 00 2c 14 00 00 99 00 04 00 4a 00 00 00 [....,.......J...]
  | |     2086: 34 14 00 00 9a 00 04 00 05 00 00 00 5c 15 00 00 [4...........\...]
  | |     2096: a0 00 03 00 0e 00 00 00 70 15 00 00 aa 00 03 00 [........p.......]
  | |     20a6: 06 00 00 00 8c 15 00 00 b4 00 03 00 01 00 00 00 [................]
  | |     20b6: 01 00 00 00 d0 00 04 00 01 00 00 00 00 00 00 00 [................]
  | |     20c6: e0 00 03 00 11 00 00 00 98 15 00 00 01 40 03 00 [.............@..]
  | |     20d6: 42 05 00 00 ba 15 00 00 02 40 03 00 da 28 00 00 [B........@...(..]
  | |     20e6: 3e 20 00 00 05 40 07 00 58 40 00 00 f2 71 00 00 [> ...@..X@...q..]
  | |     20f6: 08 40 03 00 03 00 00 00 4a b2 00 00 09 40 03 00 [.@......J....@..]
  | |     2106: 03 00 00 00 50 b2 00 00 10 40 02 00 20 00 00 00 [....P....@.. ...]
  | |     2116: 56 b2 00 00 11 40 07 00 fc 00 00 00 76 b2 00 00 [V....@......v...]
  | |     2126: 12 40 02 00 20 00 00 00 72 b3 00 00 15 40 07 00 [.@.. ...r....@..]
  | |     2136: 74 00 00 00 92 b3 00 00 16 40 04 00 06 00 00 00 [t........@......]
  | |     2146: 06 b4 00 00 17 40 04 00 02 00 00 00 1e b4 00 00 [.....@..........]
  | |     2156: 18 40 04 00 03 00 00 00 26 b4 00 00 19 40 07 00 [.@......&....@..]
  | |     2166: 1e 00 00 00 32 b4 00 00 20 40 04 00 05 00 00 00 [....2... @......]
  | |     2176: 50 b4 00 00 00 00 00 00 62 00 02 00 00 00 04 00 [P.......b.......]
  | |     2186: 00 00 05 00 00 00 01 00 00 00 07 00 00 00 01 00 [................]
  | |     2196: 00 00 00 00 00 00 ff 7f ff 7f 03 00 02 00 00 00 [................]
  | |     21a6: 03 00 ff ff e8 01 55 00 0f 00 01 00 84 00 30 01 [......U.......0.]
  | |     21b6: 00 00 00 00 00 00 00 00 ff ff ff ff ff ff 00 00 [................]
  | |     21c6: 00 00 00 00 00 00 ff ff ff ff 00 00 00 00 ff 7f [................]
  | |     21d6: ff ff ff ff 00 00 00 00 03 00 00 00 18 00 c6 22 [..............."]
  | |     21e6: ea 4c 00 00 00 00 00 00 00 00 44 00 00 00 e0 00 [.L........D.....]
  | |     21f6: 7c 00 94 00 c0 00 00 00 00 00 03 00 00 00 08 00 [|...............]
  | |     2206: 08 00 95 00 00 00 00 00 00 00 00 00 00 00 00 00 [................]
  | |     2216: 00 00 00 00 98 00 c4 00 75 00 00 00 00 00 f8 00 [........u.......]
  | |     2226: ff ff ff ff ff ff ff ff 00 00 00 00 00 00 43 61 [..............Ca]
  | |     2236: 6e 6f 6e 20 45 4f 53 20 36 30 44 00 00 00 00 00 [non EOS 60D.....]
  | |     2246: 00 00 00 00 00 00 00 00 00 00 00 00 00 00 46 69 [..............Fi]
  | |     2256: 72 6d 77 61 72 65 20 56 65 72 73 69 6f 6e 20 31 [rmware Version 1]
  | |     2266: 2e 31 2e 31 00 00 53 74 65 66 61 6e 20 4f 6c 74 [.1.1..Stefan Olt]
  | |     2276: 6d 61 6e 6e 00 00 00 00 00 00 00 00 00 00 00 00 [mann............]
  | |     2286: 00 00 00 00 00 00 aa aa 69 2e 68 2d 58 00 75 77 [........i.h-X.uw]
  | |     2296: 00 03 00 00 00 00 00 00 00 00 00 06 00 00 00 95 [................]
  | |     22a6: ba 6d 7a 7c 00 18 7e 01 00 00 00 00 00 00 00 00 [.mz|..~.........]
  | |     22b6: 00 01 bb bb 01 01 00 00 00 00 01 01 00 00 00 00 [................]
  | |     22c6: 00 00 00 00 00 00 00 00 00 00 00 40 d0 00 00 00 [...........@....]
  | |     22d6: 00 00 19 47 00 00 00 00 00 7f 00 00 30 00 2d 00 [...G........0.-.]
  | |     22e6: 0c cc cc 02 00 00 00 03 00 00 00 04 00 00 00 58 [...............X]
  | |     22f6: 00 00 00 00 00 00 00 00 01 00 00 00 00 00 00 00 [................]
  | |     2306: 00 00 00 88 13 00 00 00 00 00 00 00 00 00 00 07 [................]
  | |     2316: 00 00 00 07 00 00 00 07 00 00 00 03 00 00 00 03 [................]
  | |     2326: 00 00 00 03 00 00 00 00 00 00 00 01 00 00 00 00 [................]
  | |     2336: 00 00 00 01 00 00 00 81 00 00 00 01 00 00 00 01 [................]
  | |     2346: 00 00 00 01 00 00 00 00 00 00 00 00 00 00 00 04 [................]
  | |     2356: 00 00 00 06 00 00 00 00 00 df ff 06 00 05 00 00 [................]
  | |     2366: 00 ff 7e 00 00 00 00 00 00 00 00 01 29 54 01 e8 [..~.........)T..]
  | |     2376: 00 0f 00 55 91 77 ba ef 08 ff ff ff ff ff ff 02 [...U.w..........]
  | |     2386: 00 00 00 00 00 00 00 00 00 00 00 00 00 00 00 00 [................]
  | |     2396: 00 00 00 00 00 00 00 00 00 00 00 01 00 00 00 40 [...............@]
  | |     23a6: 14 00 00 80 0d 00 00 34 10 00 00 74 09 00 00 06 [.......4...t....]
  | |     23b6: 02 00 00 b3 02 00 00 d0 02 00 00 e0 01 00 00 00 [................]
  | |     23c6: 00 00 00 00 00 00 00 d0 02 00 00 e0 01 00 00 d0 [................]
  | |     23d6: 02 00 00 e0 01 00 00 00 00 00 00 00 00 00 00 d0 [................]
  | |     23e6: 02 00 00 e0 01 00 00 00 00 00 00 00 00 00 00 01 [................]
  | |     23f6: 00 00 00 00 00 00 00 01 00 00 00 00 00 00 00 00 [................]
  | |     2406: 00 00 00 00 00 00 00 00 00 00 00 00 02 00 00 00 [................]
  | |     2416: 01 00 00 01 00 02 01 00 00 00 00 00 00 00 00 31 [...............1]
  | |     2426: 2e 31 2e 31 00 36 43 28 32 66 29 00 00 00 00 53 [.1.1.6C(2f)....S]
  | |     2436: 74 65 66 61 6e 20 4f 6c 74 6d 61 6e 6e 00 61 00 [tefan Oltmann.a.]
  | |     2446: 00 00 00 00 00 00 00 00 00 00 00 00 00 00 00 8e [................]
  | |     2456: 00 00 00 65 00 00 00 64 00 00 00 00 00 00 00 17 [...e...d........]
  | |     2466: 21 00 00 00 00 00 00 64 00 00 00 66 00 00 00 64 [!......d...f...d]
  | |     2476: 00 00 00 08 00 00 00 08 00 00 00 08 00 00 00 08 [................]
  | |     2486: 00 00 00 01 00 00 00 00 00 00 00 00 00 00 00 00 [................]
  | |     2496: 00 00 00 00 00 00 00 00 00 00 00 00 00 00 00 00 [................]
  | |     24a6: 00 00 00 00 00 00 00 e9 01 00 04 00 04 9f 02 00 [................]
  | |     24b6: 00 00 00 00 00 00 00 00 00 00 00 00 00 00 00 00 [................]
  | |     24c6: 00 00 00 00 00 00 00 00 00 00 00 00 00 00 00 00 [................]
  | |     24d6: 00 00 00 00 00 00 00 00 00 00 00 e9 01 00 04 00 [................]
  | |     24e6: 04 9f 02 00 00 00 00 00 00 00 00 00 00 00 00 00 [................]
  | |     24f6: 00 00 00 00 00 00 00 00 00 00 00 00 00 00 00 00 [................]
  | |     2506: 00 00 00 00 00 00 00 00 00 00 00 00 00 00 00 e9 [................]
  | |     2516: 01 00 04 00 04 9f 02 00 00 00 00 00 00 00 00 00 [................]
  | |     2526: 00 00 00 00 00 00 00 00 00 00 00 00 00 00 00 00 [................]
  | |     2536: 00 00 00 00 00 00 00 00 00 00 00 00 00 00 00 00 [................]
  | |     2546: 00 00 00 e9 01 00 04 00 04 9f 02 00 00 00 00 00 [................]
  | |     2556: 00 00 00 00 00 00 00 00 00 00 00 00 00 00 00 00 [................]
  | |     2566: 00 00 00 00 00 00 00 00 00 00 00 00 00 00 00 00 [................]
  | |     2576: 00 00 00 00 00 00 00 e9 01 00 04 00 04 9f 02 00 [................]
  | |     2586: 00 00 00 00 00 00 00 00 00 00 00 00 00 00 00 01 [................]
  | |     2596: 00 00 00 00 00 00 00 00 00 00 00 00 00 00 00 00 [................]
  | |     25a6: 00 00 00 01 00 00 00 00 00 00 00 03 00 00 00 00 [................]
  | |     25b6: 00 00 00 00 00 00 00 ef be ad de ef be ad de 00 [................]
  | |     25c6: 00 00 00 02 00 00 00 00 00 00 00 00 00 00 00 ef [................]
  | |     25d6: be ad de ef be ad de 00 00 00 00 04 00 00 00 00 [................]
  | |     25e6: 00 00 00 00 00 00 00 ef be ad de ef be ad de 00 [................]
  | |     25f6: 00 00 00 00 00 00 00 00 00 00 00 00 00 00 00 ef [................]
  | |     2606: be ad de ef be ad de 00 00 00 00 00 00 00 00 00 [................]
  | |     2616: 00 00 00 00 00 00 00 ef be ad de ef be ad de 00 [................]
  | |     2626: 00 00 00 03 00 00 00 ef be ad de ef be ad de 00 [................]
  | |     2636: 00 00 00 00 00 00 00 00 00 00 00 00 00 00 00 00 [................]
  | |     2646: 00 00 00 00 00 00 00 00 00 00 00 00 00 00 00 00 [................]
  | |     2656: 00 00 00 03 00 00 00 00 00 00 00 00 00 00 00 00 [................]
  | |     2666: 00 00 00 00 00 00 00 00 00 00 00 03 00 00 00 00 [................]
  | |     2676: 00 00 00 00 00 00 00 00 00 00 00 00 00 00 00 00 [................]
  | |     2686: 00 00 00 03 00 00 00 00 00 00 00 00 00 00 00 00 [................]
  | |     2696: 00 00 00 00 00 00 00 81 00 81 00 81 00 00 00 ff [................]
  | |     26a6: ff ff ff ff ff ff ff 00 00 00 00 00 00 00 00 00 [................]
  | |     26b6: 00 00 00 00 00 00 00 00 00 00 00 00 00 00 00 00 [................]
  | |     26c6: 00 00 00 00 00 00 00 00 04 00 04 00 04 00 04 00 [................]
  | |     26d6: 00 00 00 00 00 00 00 00 00 00 00 00 00 00 00 00 [................]
  | |     26e6: 00 00 00 00 00 00 00 00 00 00 00 00 00 00 00 00 [................]
  | |     26f6: 04 00 04 00 04 00 04 00 00 00 00 00 00 00 00 00 [................]
  | |     2706: 00 00 00 00 00 00 00 00 00 00 00 00 00 00 00 00 [................]
  | |     2716: 00 00 00 00 00 00 00 00 04 00 04 00 04 00 04 00 [................]
  | |     2726: 00 00 00 00 00 00 00 00 00 00 00 00 00 00 00 00 [................]
  | |     2736: 00 00 00 00 00 00 00 00 00 00 00 00 00 00 00 00 [................]
  | |     2746: 04 00 04 00 04 00 04 00 00 00 00 00 00 00 00 00 [................]
  | |     2756: 00 00 00 00 00 00 00 00 00 00 00 00 00 00 00 00 [................]
  | |     2766: 00 00 00 00 00 00 00 00 04 00 04 00 04 00 04 00 [................]
  | |     [snip 43178 bytes]
  | | + [AdobeMakN directory, 45210 bytes]
  | | | + [MakerNotes directory with 41 entries, Little-endian]
  | | | | 0)  CanonCameraSettings (SubDirectory) -->
  | | | |     - Tag 0x0001 (98 bytes, int16u[49] read as undef[98]):
  | | | |         217e: 62 00 02 00 00 00 04 00 00 00 05 00 00 00 01 00 [b...............]
  | | | |         218e: 00 00 07 00 00 00 01 00 00 00 00 00 00 00 ff 7f [................]
  | | | |         219e: ff 7f 03 00 02 00 00 00 03 00 ff ff e8 01 55 00 [..............U.]
  | | | |         21ae: 0f 00 01 00 84 00 30 01 00 00 00 00 00 00 00 00 [......0.........]
  | | | |         21be: ff ff ff ff ff ff 00 00 00 00 00 00 00 00 ff ff [................]
  | | | |         21ce: ff ff 00 00 00 00 ff 7f ff ff ff ff 00 00 00 00 [................]
  | | | |         21de: 03 00                                           [..]
  | | | | + [BinaryData directory, 98 bytes, Little-endian]
  | | | | | MacroMode = 2
  | | | | | - Tag 0x0001 (2 bytes, int16s[1]):
  | | | | |     2180: 02 00                                           [..]
  | | | | | SelfTimer = 0
  | | | | | - Tag 0x0002 (2 bytes, int16s[1]):
  | | | | |     2182: 00 00                                           [..]
  | | | | | Quality = 4
  | | | | | - Tag 0x0003 (2 bytes, int16s[1]):
  | | | | |     2184: 04 00                                           [..]
  | | | | | CanonFlashMode = 0
  | | | | | - Tag 0x0004 (2 bytes, int16s[1]):
  | | | | |     2186: 00 00                                           [..]
  | | | | | ContinuousDrive = 5
  | | | | | - Tag 0x0005 (2 bytes, int16s[1]):
  | | | | |     2188: 05 00                                           [..]
  | | | | | FocusMode = 1
  | | | | | - Tag 0x0007 (2 bytes, int16s[1]):
  | | | | |     218c: 01 00                                           [..]
  | | | | | RecordMode = 7
  | | | | | - Tag 0x0009 (2 bytes, int16s[1]):
  | | | | |     2190: 07 00                                           [..]
  | | | | | CanonImageSize = 0
  | | | | | - Tag 0x000a (2 bytes, int16s[1]):
  | | | | |     2192: 00 00                                           [..]
  | | | | | EasyMode = 1
  | | | | | - Tag 0x000b (2 bytes, int16s[1]):
  | | | | |     2194: 01 00                                           [..]
  | | | | | DigitalZoom = 0
  | | | | | - Tag 0x000c (2 bytes, int16s[1]):
  | | | | |     2196: 00 00                                           [..]
  | | | | | Contrast = 0
  | | | | | - Tag 0x000d (2 bytes, int16s[1]):
  | | | | |     2198: 00 00                                           [..]
  | | | | | Saturation = 0
  | | | | | - Tag 0x000e (2 bytes, int16s[1]):
  | | | | |     219a: 00 00                                           [..]
  | | | | | Sharpness = 32767
  | | | | | - Tag 0x000f (2 bytes, int16s[1]):
  | | | | |     219c: ff 7f                                           [..]
  | | | | | CameraISO = 32767
  | | | | | - Tag 0x0010 (2 bytes, int16s[1]):
  | | | | |     219e: ff 7f                                           [..]
  | | | | | MeteringMode = 3
  | | | | | - Tag 0x0011 (2 bytes, int16s[1]):
  | | | | |     21a0: 03 00                                           [..]
  | | | | | FocusRange = 2
  | | | | | - Tag 0x0012 (2 bytes, int16s[1]):
  | | | | |     21a2: 02 00                                           [..]
  | | | | | AFPoint = 0
  | | | | | - Tag 0x0013 (2 bytes, int16s[1]):
  | | | | |     21a4: 00 00                                           [..]
  | | | | | CanonExposureMode = 3
  | | | | | - Tag 0x0014 (2 bytes, int16s[1]):
  | | | | |     21a6: 03 00                                           [..]
  | | | | | LensType = 488
  | | | | | - Tag 0x0016 (2 bytes, int16u[1]):
  | | | | |     21aa: e8 01                                           [..]
  | | | | | MaxFocalLength = 85
  | | | | | - Tag 0x0017 (2 bytes, int16u[1]):
  | | | | |     21ac: 55 00                                           [U.]
  | | | | | MinFocalLength = 15
  | | | | | - Tag 0x0018 (2 bytes, int16u[1]):
  | | | | |     21ae: 0f 00                                           [..]
  | | | | | FocalUnits = 1
  | | | | | - Tag 0x0019 (2 bytes, int16s[1]):
  | | | | |     21b0: 01 00                                           [..]
  | | | | | MaxAperture = 132
  | | | | | - Tag 0x001a (2 bytes, int16s[1]):
  | | | | |     21b2: 84 00                                           [..]
  | | | | | MinAperture = 304
  | | | | | - Tag 0x001b (2 bytes, int16s[1]):
  | | | | |     21b4: 30 01                                           [0.]
  | | | | | FlashModel = 0
  | | | | | - Tag 0x001c, mask 0x7f (2 bytes, int16s[1]):
  | | | | |     21b6: 00 00                                           [..]
  | | | | | FlashBits = 0
  | | | | | - Tag 0x001d (2 bytes, int16s[1]):
  | | | | |     21b8: 00 00                                           [..]
  | | | | | FocusContinuous = -1
  | | | | | - Tag 0x0020 (2 bytes, int16s[1]):
  | | | | |     21be: ff ff                                           [..]
  | | | | | AESetting = -1
  | | | | | - Tag 0x0021 (2 bytes, int16s[1]):
  | | | | |     21c0: ff ff                                           [..]
  | | | | | ImageStabilization = -1
  | | | | | - Tag 0x0022 (2 bytes, int16s[1]):
  | | | | |     21c2: ff ff                                           [..]
  | | | | | DisplayAperture = 0
  | | | | | - Tag 0x0023 (2 bytes, int16s[1]):
  | | | | |     21c4: 00 00                                           [..]
  | | | | | ZoomSourceWidth = 0
  | | | | | - Tag 0x0024 (2 bytes, int16s[1]):
  | | | | |     21c6: 00 00                                           [..]
  | | | | | ZoomTargetWidth = 0
  | | | | | - Tag 0x0025 (2 bytes, int16s[1]):
  | | | | |     21c8: 00 00                                           [..]
  | | | | | SpotMeteringMode = -1
  | | | | | - Tag 0x0027 (2 bytes, int16s[1]):
  | | | | |     21cc: ff ff                                           [..]
  | | | | | PhotoEffect = -1
  | | | | | - Tag 0x0028 (2 bytes, int16s[1]):
  | | | | |     21ce: ff ff                                           [..]
  | | | | | ManualFlashOutput = 0
  | | | | | - Tag 0x0029 (2 bytes, int16s[1]):
  | | | | |     21d0: 00 00                                           [..]
  | | | | | ColorTone = 0
  | | | | | - Tag 0x002a (2 bytes, int16s[1]):
  | | | | |     21d2: 00 00                                           [..]
  | | | | | SRAWQuality = 0
  | | | | | - Tag 0x002e (2 bytes, int16s[1]):
  | | | | |     21da: 00 00                                           [..]
  | | | | 1)  CanonFocalLength (SubDirectory) -->
  | | | |     - Tag 0x0002 (8 bytes, int16u[4] read as undef[8]):
  | | | |         21e0: 00 00 18 00 c6 22 ea 4c                         [.....".L]
  | | | | + [BinaryData directory, 8 bytes, Little-endian]
  | | | | | FocalType = 0
  | | | | | - Tag 0x0000 (2 bytes, int16u[1]):
  | | | | |     21e0: 00 00                                           [..]
  | | | | | FocalLength = 24
  | | | | | - Tag 0x0001 (2 bytes, int16u[1]):
  | | | | |     21e2: 18 00                                           [..]
  | | | | | FocalPlaneXUnknown = 8902
  | | | | | - Tag 0x0002 (2 bytes, int16u[1]):
  | | | | |     21e4: c6 22                                           [."]
  | | | | | FocalPlaneYUnknown = 19690
  | | | | | - Tag 0x0003 (2 bytes, int16u[1]):
  | | | | |     21e6: ea 4c                                           [.L]
  | | | | 2)  CanonFlashInfo = 0 0 0 0
  | | | |     - Tag 0x0003 (8 bytes, int16u[4]):
  | | | |         21e8: 00 00 00 00 00 00 00 00                         [........]
  | | | | 3)  CanonShotInfo (SubDirectory) -->
  | | | |     - Tag 0x0004 (68 bytes, int16u[34] read as undef[68]):
  | | | |         21f0: 44 00 00 00 e0 00 7c 00 94 00 c0 00 00 00 00 00 [D.....|.........]
  | | | |         2200: 03 00 00 00 08 00 08 00 95 00 00 00 00 00 00 00 [................]
  | | | |         2210: 00 00 00 00 00 00 00 00 00 00 98 00 c4 00 75 00 [..............u.]
  | | | |         2220: 00 00 00 00 f8 00 ff ff ff ff ff ff ff ff 00 00 [................]
  | | | |         2230: 00 00 00 00                                     [....]
  | | | | + [BinaryData directory, 68 bytes, Little-endian]
  | | | | | AutoISO = 0
  | | | | | - Tag 0x0001 (2 bytes, int16s[1]):
  | | | | |     21f2: 00 00                                           [..]
  | | | | | BaseISO = 224
  | | | | | - Tag 0x0002 (2 bytes, int16s[1]):
  | | | | |     21f4: e0 00                                           [..]
  | | | | | MeasuredEV = 124
  | | | | | - Tag 0x0003 (2 bytes, int16s[1]):
  | | | | |     21f6: 7c 00                                           [|.]
  | | | | | TargetAperture = 148
  | | | | | - Tag 0x0004 (2 bytes, int16s[1]):
  | | | | |     21f8: 94 00                                           [..]
  | | | | | TargetExposureTime = 192
  | | | | | - Tag 0x0005 (2 bytes, int16s[1]):
  | | | | |     21fa: c0 00                                           [..]
  | | | | | ExposureCompensation = 0
  | | | | | - Tag 0x0006 (2 bytes, int16s[1]):
  | | | | |     21fc: 00 00                                           [..]
  | | | | | WhiteBalance = 0
  | | | | | - Tag 0x0007 (2 bytes, int16s[1]):
  | | | | |     21fe: 00 00                                           [..]
  | | | | | SlowShutter = 3
  | | | | | - Tag 0x0008 (2 bytes, int16s[1]):
  | | | | |     2200: 03 00                                           [..]
  | | | | | SequenceNumber = 0
  | | | | | - Tag 0x0009 (2 bytes, int16s[1]):
  | | | | |     2202: 00 00                                           [..]
  | | | | | OpticalZoomCode = 8
  | | | | | - Tag 0x000a (2 bytes, int16s[1]):
  | | | | |     2204: 08 00                                           [..]
  | | | | | CameraTemperature = 149
  | | | | | - Tag 0x000c (2 bytes, int16s[1]):
  | | | | |     2208: 95 00                                           [..]
  | | | | | FlashGuideNumber = 0
  | | | | | - Tag 0x000d (2 bytes, int16s[1]):
  | | | | |     220a: 00 00                                           [..]
  | | | | | AFPointsInFocus = 0
  | | | | | - Tag 0x000e (2 bytes, int16s[1]):
  | | | | |     220c: 00 00                                           [..]
  | | | | | FlashExposureComp = 0
  | | | | | - Tag 0x000f (2 bytes, int16s[1]):
  | | | | |     220e: 00 00                                           [..]
  | | | | | AutoExposureBracketing = 0
  | | | | | - Tag 0x0010 (2 bytes, int16s[1]):
  | | | | |     2210: 00 00                                           [..]
  | | | | | AEBBracketValue = 0
  | | | | | - Tag 0x0011 (2 bytes, int16s[1]):
  | | | | |     2212: 00 00                                           [..]
  | | | | | ControlMode = 0
  | | | | | - Tag 0x0012 (2 bytes, int16s[1]):
  | | | | |     2214: 00 00                                           [..]
  | | | | | FocusDistanceUpper = 0
  | | | | | - Tag 0x0013 (2 bytes, int16u[1]):
  | | | | |     2216: 00 00                                           [..]
  | | | | | FNumber = 152
  | | | | | - Tag 0x0015 (2 bytes, int16s[1]):
  | | | | |     221a: 98 00                                           [..]
  | | | | | ExposureTime = 196
  | | | | | - Tag 0x0016 (2 bytes, int16s[1]):
  | | | | |     221c: c4 00                                           [..]
  | | | | | MeasuredEV2 = 117
  | | | | | - Tag 0x0017 (2 bytes, int16s[1]):
  | | | | |     221e: 75 00                                           [u.]
  | | | | | BulbDuration = 0
  | | | | | - Tag 0x0018 (2 bytes, int16s[1]):
  | | | | |     2220: 00 00                                           [..]
  | | | | | CameraType = 248
  | | | | | - Tag 0x001a (2 bytes, int16s[1]):
  | | | | |     2224: f8 00                                           [..]
  | | | | | AutoRotate = -1
  | | | | | - Tag 0x001b (2 bytes, int16s[1]):
  | | | | |     2226: ff ff                                           [..]
  | | | | | NDFilter = -1
  | | | | | - Tag 0x001c (2 bytes, int16s[1]):
  | | | | |     2228: ff ff                                           [..]
  | | | | | SelfTimer2 = -1
  | | | | | - Tag 0x001d (2 bytes, int16s[1]):
  | | | | |     222a: ff ff                                           [..]
  | | | | | FlashOutput = 0
  | | | | | - Tag 0x0021 (2 bytes, int16s[1]):
  | | | | |     2232: 00 00                                           [..]
  | | | | 4)  CanonImageType = Canon EOS 60D
  | | | |     - Tag 0x0006 (14 bytes, string[14]):
  | | | |         2234: 43 61 6e 6f 6e 20 45 4f 53 20 36 30 44 00       [Canon EOS 60D.]
  | | | | 5)  CanonFirmwareVersion = Firmware Version 1.1.1
  | | | |     - Tag 0x0007 (24 bytes, string[24]):
  | | | |         2254: 46 69 72 6d 77 61 72 65 20 56 65 72 73 69 6f 6e [Firmware Version]
  | | | |         2264: 20 31 2e 31 2e 31 00 00                         [ 1.1.1..]
  | | | | 6)  OwnerName = Stefan Oltmann
  | | | |     - Tag 0x0009 (32 bytes, string[32]):
  | | | |         226c: 53 74 65 66 61 6e 20 4f 6c 74 6d 61 6e 6e 00 00 [Stefan Oltmann..]
  | | | |         227c: 00 00 00 00 00 00 00 00 00 00 00 00 00 00 00 00 [................]
  | | | | 7)  SerialNumber = 1581036387
  | | | |     - Tag 0x000c (4 bytes, int32u[1]):
  | | | |         1fea: 63 b3 3c 5e                                     [c.<^]
  | | | | 8)  CanonCameraInfo60D (SubDirectory) -->
  | | | |     - Tag 0x000d (1536 bytes, undef[1536]):
  | | | |         228c: aa aa 69 2e 68 2d 58 00 75 77 00 03 00 00 00 00 [..i.h-X.uw......]
  | | | |         229c: 00 00 00 00 00 06 00 00 00 95 ba 6d 7a 7c 00 18 [...........mz|..]
  | | | |         22ac: 7e 01 00 00 00 00 00 00 00 00 00 01 bb bb 01 01 [~...............]
  | | | |         22bc: 00 00 00 00 01 01 00 00 00 00 00 00 00 00 00 00 [................]
  | | | |         22cc: 00 00 00 00 00 40 d0 00 00 00 00 00 19 47 00 00 [.....@.......G..]
  | | | |         22dc: 00 00 00 7f 00 00 30 00 2d 00 0c cc cc 02 00 00 [......0.-.......]
  | | | |         22ec: 00 03 00 00 00 04 00 00 00 58 00 00 00 00 00 00 [.........X......]
  | | | |         22fc: 00 00 01 00 00 00 00 00 00 00 00 00 00 88 13 00 [................]
  | | | |         230c: 00 00 00 00 00 00 00 00 00 07 00 00 00 07 00 00 [................]
  | | | |         231c: 00 07 00 00 00 03 00 00 00 03 00 00 00 03 00 00 [................]
  | | | |         232c: 00 00 00 00 00 01 00 00 00 00 00 00 00 01 00 00 [................]
  | | | |         233c: 00 81 00 00 00 01 00 00 00 01 00 00 00 01 00 00 [................]
  | | | |         234c: 00 00 00 00 00 00 00 00 00 04 00 00 00 06 00 00 [................]
  | | | |         235c: 00 00 00 df ff 06 00 05 00 00 00 ff 7e 00 00 00 [............~...]
  | | | |         236c: 00 00 00 00 00 01 29 54 01 e8 00 0f 00 55 91 77 [......)T.....U.w]
  | | | |         237c: ba ef 08 ff ff ff ff ff ff 02 00 00 00 00 00 00 [................]
  | | | |         238c: 00 00 00 00 00 00 00 00 00 00 00 00 00 00 00 00 [................]
  | | | |         239c: 00 00 00 00 00 01 00 00 00 40 14 00 00 80 0d 00 [.........@......]
  | | | |         23ac: 00 34 10 00 00 74 09 00 00 06 02 00 00 b3 02 00 [.4...t..........]
  | | | |         23bc: 00 d0 02 00 00 e0 01 00 00 00 00 00 00 00 00 00 [................]
  | | | |         23cc: 00 d0 02 00 00 e0 01 00 00 d0 02 00 00 e0 01 00 [................]
  | | | |         23dc: 00 00 00 00 00 00 00 00 00 d0 02 00 00 e0 01 00 [................]
  | | | |         23ec: 00 00 00 00 00 00 00 00 00 01 00 00 00 00 00 00 [................]
  | | | |         23fc: 00 01 00 00 00 00 00 00 00 00 00 00 00 00 00 00 [................]
  | | | |         240c: 00 00 00 00 00 00 02 00 00 00 01 00 00 01 00 02 [................]
  | | | |         241c: 01 00 00 00 00 00 00 00 00 31 2e 31 2e 31 00 36 [.........1.1.1.6]
  | | | |         242c: 43 28 32 66 29 00 00 00 00 53 74 65 66 61 6e 20 [C(2f)....Stefan ]
  | | | |         243c: 4f 6c 74 6d 61 6e 6e 00 61 00 00 00 00 00 00 00 [Oltmann.a.......]
  | | | |         244c: 00 00 00 00 00 00 00 00 00 8e 00 00 00 65 00 00 [.............e..]
  | | | |         245c: 00 64 00 00 00 00 00 00 00 17 21 00 00 00 00 00 [.d........!.....]
  | | | |         246c: 00 64 00 00 00 66 00 00 00 64 00 00 00 08 00 00 [.d...f...d......]
  | | | |         247c: 00 08 00 00 00 08 00 00 00 08 00 00 00 01 00 00 [................]
  | | | |         248c: 00 00 00 00 00 00 00 00 00 00 00 00 00 00 00 00 [................]
  | | | |         249c: 00 00 00 00 00 00 00 00 00 00 00 00 00 00 00 00 [................]
  | | | |         24ac: 00 e9 01 00 04 00 04 9f 02 00 00 00 00 00 00 00 [................]
  | | | |         24bc: 00 00 00 00 00 00 00 00 00 00 00 00 00 00 00 00 [................]
  | | | |         24cc: 00 00 00 00 00 00 00 00 00 00 00 00 00 00 00 00 [................]
  | | | |         24dc: 00 00 00 00 00 e9 01 00 04 00 04 9f 02 00 00 00 [................]
  | | | |         24ec: 00 00 00 00 00 00 00 00 00 00 00 00 00 00 00 00 [................]
  | | | |         24fc: 00 00 00 00 00 00 00 00 00 00 00 00 00 00 00 00 [................]
  | | | |         250c: 00 00 00 00 00 00 00 00 00 e9 01 00 04 00 04 9f [................]
  | | | |         251c: 02 00 00 00 00 00 00 00 00 00 00 00 00 00 00 00 [................]
  | | | |         252c: 00 00 00 00 00 00 00 00 00 00 00 00 00 00 00 00 [................]
  | | | |         253c: 00 00 00 00 00 00 00 00 00 00 00 00 00 e9 01 00 [................]
  | | | |         254c: 04 00 04 9f 02 00 00 00 00 00 00 00 00 00 00 00 [................]
  | | | |         255c: 00 00 00 00 00 00 00 00 00 00 00 00 00 00 00 00 [................]
  | | | |         256c: 00 00 00 00 00 00 00 00 00 00 00 00 00 00 00 00 [................]
  | | | |         257c: 00 e9 01 00 04 00 04 9f 02 00 00 00 00 00 00 00 [................]
  | | | |         258c: 00 00 00 00 00 00 00 00 00 01 00 00 00 00 00 00 [................]
  | | | |         259c: 00 00 00 00 00 00 00 00 00 00 00 00 00 01 00 00 [................]
  | | | |         25ac: 00 00 00 00 00 03 00 00 00 00 00 00 00 00 00 00 [................]
  | | | |         25bc: 00 ef be ad de ef be ad de 00 00 00 00 02 00 00 [................]
  | | | |         25cc: 00 00 00 00 00 00 00 00 00 ef be ad de ef be ad [................]
  | | | |         25dc: de 00 00 00 00 04 00 00 00 00 00 00 00 00 00 00 [................]
  | | | |         25ec: 00 ef be ad de ef be ad de 00 00 00 00 00 00 00 [................]
  | | | |         25fc: 00 00 00 00 00 00 00 00 00 ef be ad de ef be ad [................]
  | | | |         260c: de 00 00 00 00 00 00 00 00 00 00 00 00 00 00 00 [................]
  | | | |         261c: 00 ef be ad de ef be ad de 00 00 00 00 03 00 00 [................]
  | | | |         262c: 00 ef be ad de ef be ad de 00 00 00 00 00 00 00 [................]
  | | | |         263c: 00 00 00 00 00 00 00 00 00 00 00 00 00 00 00 00 [................]
  | | | |         264c: 00 00 00 00 00 00 00 00 00 00 00 00 00 03 00 00 [................]
  | | | |         265c: 00 00 00 00 00 00 00 00 00 00 00 00 00 00 00 00 [................]
  | | | |         266c: 00 00 00 00 00 03 00 00 00 00 00 00 00 00 00 00 [................]
  | | | |         267c: 00 00 00 00 00 00 00 00 00 00 00 00 00 03 00 00 [................]
  | | | |         268c: 00 00 00 00 00 00 00 00 00 00 00 00 00 00 00 00 [................]
  | | | |         269c: 00 81 00 81 00 81 00 00 00 ff ff ff ff ff ff ff [................]
  | | | |         26ac: ff 00 00 00 00 00 00 00 00 00 00 00 00 00 00 00 [................]
  | | | |         26bc: 00 00 00 00 00 00 00 00 00 00 00 00 00 00 00 00 [................]
  | | | |         26cc: 00 00 04 00 04 00 04 00 04 00 00 00 00 00 00 00 [................]
  | | | |         26dc: 00 00 00 00 00 00 00 00 00 00 00 00 00 00 00 00 [................]
  | | | |         26ec: 00 00 00 00 00 00 00 00 00 00 04 00 04 00 04 00 [................]
  | | | |         26fc: 04 00 00 00 00 00 00 00 00 00 00 00 00 00 00 00 [................]
  | | | |         270c: 00 00 00 00 00 00 00 00 00 00 00 00 00 00 00 00 [................]
  | | | |         271c: 00 00 04 00 04 00 04 00 04 00 00 00 00 00 00 00 [................]
  | | | |         272c: 00 00 00 00 00 00 00 00 00 00 00 00 00 00 00 00 [................]
  | | | |         273c: 00 00 00 00 00 00 00 00 00 00 04 00 04 00 04 00 [................]
  | | | |         274c: 04 00 00 00 00 00 00 00 00 00 00 00 00 00 00 00 [................]
  | | | |         275c: 00 00 00 00 00 00 00 00 00 00 00 00 00 00 00 00 [................]
  | | | |         276c: 00 00 04 00 04 00 04 00 04 00 00 00 00 00 00 00 [................]
  | | | |         277c: 00 45 9f ad 61 3c 03 00 00 04 00 01 00 00 00 00 [.E..a<..........]
  | | | |         278c: 00 04 00 01 00 00 00 00 00 04 00 01 00 00 00 00 [................]
  | | | |         279c: 00 00 00 00 33 00 00 00 00 00 00 00 00 00 00 00 [....3...........]
  | | | |         27ac: 00 d0 2d 00 00 74 d7 00 00 00 00 00 00 00 00 00 [..-..t..........]
  | | | |         27bc: 00 00 00 00 00 00 00 00 00 00 00 00 00 00 00 00 [................]
  | | | |         27cc: 00 00 00 00 00 00 00 00 00 00 00 00 00 00 00 00 [................]
  | | | |         27dc: 00 00 00 00 00 00 00 00 00 00 00 00 00 00 00 00 [................]
  | | | |         27ec: 00 00 00 00 00 00 00 00 00 00 00 00 00 00 00 00 [................]
  | | | |         27fc: 00 00 00 00 00 00 00 00 00 00 00 00 00 00 00 00 [................]
  | | | |         280c: 00 00 00 00 00 00 00 00 00 00 00 00 00 00 00 00 [................]
  | | | |         281c: 00 00 00 00 00 00 00 00 00 00 00 00 00 00 00 00 [................]
  | | | |         282c: 00 00 00 00 00 00 00 00 00 00 00 00 00 00 00 00 [................]
  | | | |         283c: 00 00 00 00 00 00 00 00 00 00 00 00 00 00 00 00 [................]
  | | | |         284c: 00 00 00 00 00 00 00 00 00 00 00 00 00 00 00 00 [................]
  | | | |         285c: 00 00 00 00 00 00 00 00 00 00 00 00 00 00 00 00 [................]
  | | | |         286c: 00 00 00 00 00 00 00 00 00 00 00 00 00 00 00 00 [................]
  | | | |         287c: 00 00 00 00 00 00 00 00 00 00 00 00 00 00 00 00 [................]
  | | | | + [BinaryData directory, 1536 bytes, Little-endian]
  | | | | | FNumber = 46
  | | | | | - Tag 0x0003 (1 bytes, int8u[1]):
  | | | | |     228f: 2e                                              [.]
  | | | | | ExposureTime = 104
  | | | | | - Tag 0x0004 (1 bytes, int8u[1]):
  | | | | |     2290: 68                                              [h]
  | | | | | ISO = 88
  | | | | | - Tag 0x0006 (1 bytes, int8u[1]):
  | | | | |     2292: 58                                              [X]
  | | | | | CameraTemperature = 149
  | | | | | - Tag 0x0019 (1 bytes, int8u[1]):
  | | | | |     22a5: 95                                              [.]
  | | | | | FocalLength = 24
  | | | | | - Tag 0x001e (2 bytes, int16uRev[1]):
  | | | | |     22aa: 00 18                                           [..]
  | | | | | CameraOrientation = 0
  | | | | | - Tag 0x0036 (1 bytes, int8u[1]):
  | | | | |     22c2: 00                                              [.]
  | | | | | FocusDistanceUpper = 48
  | | | | | - Tag 0x0055 (2 bytes, int16uRev[1]):
  | | | | |     22e1: 00 30                                           [.0]
  | | | | | FocusDistanceLower = 45
  | | | | | - Tag 0x0057 (2 bytes, int16uRev[1]):
  | | | | |     22e3: 00 2d                                           [.-]
  | | | | | ColorTemperature = 5000
  | | | | | - Tag 0x007d (2 bytes, int16u[1]):
  | | | | |     2309: 88 13                                           [..]
  | | | | | LensType = 488
  | | | | | - Tag 0x00e8 (2 bytes, int16uRev[1]):
  | | | | |     2374: 01 e8                                           [..]
  | | | | | MinFocalLength = 15
  | | | | | - Tag 0x00ea (2 bytes, int16uRev[1]):
  | | | | |     2376: 00 0f                                           [..]
  | | | | | MaxFocalLength = 85
  | | | | | - Tag 0x00ec (2 bytes, int16uRev[1]):
  | | | | |     2378: 00 55                                           [.U]
  | | | | | FirmwareVersion = 1.1.1
  | | | | | - Tag 0x0199 (6 bytes, string[6]):
  | | | | |     2425: 31 2e 31 2e 31 00                               [1.1.1.]
  | | | | | FileIndex = 8471
  | | | | | - Tag 0x01d9 (4 bytes, int32u[1]):
  | | | | |     2465: 17 21 00 00                                     [.!..]
  | | | | | DirectoryIndex = 102
  | | | | | - Tag 0x01e5 (4 bytes, int32u[1]):
  | | | | |     2471: 66 00 00 00                                     [f...]
  | | | | | PictureStyleInfo (SubDirectory) -->
  | | | | | - Tag 0x0321 (735 bytes, int8u[1]):
  | | | | |     25ad: 00 00 00 00 03 00 00 00 00 00 00 00 00 00 00 00 [................]
  | | | | |     25bd: ef be ad de ef be ad de 00 00 00 00 02 00 00 00 [................]
  | | | | |     25cd: 00 00 00 00 00 00 00 00 ef be ad de ef be ad de [................]
  | | | | |     25dd: 00 00 00 00 04 00 00 00 00 00 00 00 00 00 00 00 [................]
  | | | | |     25ed: ef be ad de ef be ad de 00 00 00 00 00 00 00 00 [................]
  | | | | |     25fd: 00 00 00 00 00 00 00 00 ef be ad de ef be ad de [................]
  | | | | |     260d: 00 00 00 00 00 00 00 00 00 00 00 00 00 00 00 00 [................]
  | | | | |     261d: ef be ad de ef be ad de 00 00 00 00 03 00 00 00 [................]
  | | | | |     262d: ef be ad de ef be ad de 00 00 00 00 00 00 00 00 [................]
  | | | | |     263d: 00 00 00 00 00 00 00 00 00 00 00 00 00 00 00 00 [................]
  | | | | |     264d: 00 00 00 00 00 00 00 00 00 00 00 00 03 00 00 00 [................]
  | | | | |     265d: 00 00 00 00 00 00 00 00 00 00 00 00 00 00 00 00 [................]
  | | | | |     266d: 00 00 00 00 03 00 00 00 00 00 00 00 00 00 00 00 [................]
  | | | | |     267d: 00 00 00 00 00 00 00 00 00 00 00 00 03 00 00 00 [................]
  | | | | |     268d: 00 00 00 00 00 00 00 00 00 00 00 00 00 00 00 00 [................]
  | | | | |     269d: 81 00 81 00 81 00 00 00 ff ff ff ff ff ff ff ff [................]
  | | | | |     26ad: 00 00 00 00 00 00 00 00 00 00 00 00 00 00 00 00 [................]
  | | | | |     26bd: 00 00 00 00 00 00 00 00 00 00 00 00 00 00 00 00 [................]
  | | | | |     26cd: 00 04 00 04 00 04 00 04 00 00 00 00 00 00 00 00 [................]
  | | | | |     26dd: 00 00 00 00 00 00 00 00 00 00 00 00 00 00 00 00 [................]
  | | | | |     26ed: 00 00 00 00 00 00 00 00 00 04 00 04 00 04 00 04 [................]
  | | | | |     26fd: 00 00 00 00 00 00 00 00 00 00 00 00 00 00 00 00 [................]
  | | | | |     270d: 00 00 00 00 00 00 00 00 00 00 00 00 00 00 00 00 [................]
  | | | | |     271d: 00 04 00 04 00 04 00 04 00 00 00 00 00 00 00 00 [................]
  | | | | |     272d: 00 00 00 00 00 00 00 00 00 00 00 00 00 00 00 00 [................]
  | | | | |     273d: 00 00 00 00 00 00 00 00 00 04 00 04 00 04 00 04 [................]
  | | | | |     274d: 00 00 00 00 00 00 00 00 00 00 00 00 00 00 00 00 [................]
  | | | | |     275d: 00 00 00 00 00 00 00 00 00 00 00 00 00 00 00 00 [................]
  | | | | |     276d: 00 04 00 04 00 04 00 04 00 00 00 00 00 00 00 00 [................]
  | | | | |     277d: 45 9f ad 61 3c 03 00 00 04 00 01 00 00 00 00 00 [E..a<...........]
  | | | | |     278d: 04 00 01 00 00 00 00 00 04 00 01 00 00 00 00 00 [................]
  | | | | |     279d: 00 00 00 33 00 00 00 00 00 00 00 00 00 00 00 00 [...3............]
  | | | | |     27ad: d0 2d 00 00 74 d7 00 00 00 00 00 00 00 00 00 00 [.-..t...........]
  | | | | |     27bd: 00 00 00 00 00 00 00 00 00 00 00 00 00 00 00 00 [................]
  | | | | |     27cd: 00 00 00 00 00 00 00 00 00 00 00 00 00 00 00 00 [................]
  | | | | |     27dd: 00 00 00 00 00 00 00 00 00 00 00 00 00 00 00 00 [................]
  | | | | |     27ed: 00 00 00 00 00 00 00 00 00 00 00 00 00 00 00 00 [................]
  | | | | |     27fd: 00 00 00 00 00 00 00 00 00 00 00 00 00 00 00 00 [................]
  | | | | |     280d: 00 00 00 00 00 00 00 00 00 00 00 00 00 00 00 00 [................]
  | | | | |     281d: 00 00 00 00 00 00 00 00 00 00 00 00 00 00 00 00 [................]
  | | | | |     282d: 00 00 00 00 00 00 00 00 00 00 00 00 00 00 00 00 [................]
  | | | | |     283d: 00 00 00 00 00 00 00 00 00 00 00 00 00 00 00 00 [................]
  | | | | |     284d: 00 00 00 00 00 00 00 00 00 00 00 00 00 00 00 00 [................]
  | | | | |     285d: 00 00 00 00 00 00 00 00 00 00 00 00 00 00 00 00 [................]
  | | | | |     286d: 00 00 00 00 00 00 00 00 00 00 00 00 00 00 00 00 [................]
  | | | | |     287d: 00 00 00 00 00 00 00 00 00 00 00 00 00 00 00    [...............]
  | | | | | + [BinaryData directory, 735 bytes, Little-endian]
  | | | | | | ContrastStandard = 0
  | | | | | | - Tag 0x0000 (4 bytes, int32s[1]):
  | | | | | |     25ad: 00 00 00 00                                     [....]
  | | | | | | SharpnessStandard = 3
  | | | | | | - Tag 0x0004 (4 bytes, int32s[1]):
  | | | | | |     25b1: 03 00 00 00                                     [....]
  | | | | | | SaturationStandard = 0
  | | | | | | - Tag 0x0008 (4 bytes, int32s[1]):
  | | | | | |     25b5: 00 00 00 00                                     [....]
  | | | | | | ColorToneStandard = 0
  | | | | | | - Tag 0x000c (4 bytes, int32s[1]):
  | | | | | |     25b9: 00 00 00 00                                     [....]
  | | | | | | FilterEffectStandard = -559038737
  | | | | | | - Tag 0x0010 (4 bytes, int32s[1]):
  | | | | | |     25bd: ef be ad de                                     [....]
  | | | | | | ToningEffectStandard = -559038737
  | | | | | | - Tag 0x0014 (4 bytes, int32s[1]):
  | | | | | |     25c1: ef be ad de                                     [....]
  | | | | | | ContrastPortrait = 0
  | | | | | | - Tag 0x0018 (4 bytes, int32s[1]):
  | | | | | |     25c5: 00 00 00 00                                     [....]
  | | | | | | SharpnessPortrait = 2
  | | | | | | - Tag 0x001c (4 bytes, int32s[1]):
  | | | | | |     25c9: 02 00 00 00                                     [....]
  | | | | | | SaturationPortrait = 0
  | | | | | | - Tag 0x0020 (4 bytes, int32s[1]):
  | | | | | |     25cd: 00 00 00 00                                     [....]
  | | | | | | ColorTonePortrait = 0
  | | | | | | - Tag 0x0024 (4 bytes, int32s[1]):
  | | | | | |     25d1: 00 00 00 00                                     [....]
  | | | | | | FilterEffectPortrait = -559038737
  | | | | | | - Tag 0x0028 (4 bytes, int32s[1]):
  | | | | | |     25d5: ef be ad de                                     [....]
  | | | | | | ToningEffectPortrait = -559038737
  | | | | | | - Tag 0x002c (4 bytes, int32s[1]):
  | | | | | |     25d9: ef be ad de                                     [....]
  | | | | | | ContrastLandscape = 0
  | | | | | | - Tag 0x0030 (4 bytes, int32s[1]):
  | | | | | |     25dd: 00 00 00 00                                     [....]
  | | | | | | SharpnessLandscape = 4
  | | | | | | - Tag 0x0034 (4 bytes, int32s[1]):
  | | | | | |     25e1: 04 00 00 00                                     [....]
  | | | | | | SaturationLandscape = 0
  | | | | | | - Tag 0x0038 (4 bytes, int32s[1]):
  | | | | | |     25e5: 00 00 00 00                                     [....]
  | | | | | | ColorToneLandscape = 0
  | | | | | | - Tag 0x003c (4 bytes, int32s[1]):
  | | | | | |     25e9: 00 00 00 00                                     [....]
  | | | | | | FilterEffectLandscape = -559038737
  | | | | | | - Tag 0x0040 (4 bytes, int32s[1]):
  | | | | | |     25ed: ef be ad de                                     [....]
  | | | | | | ToningEffectLandscape = -559038737
  | | | | | | - Tag 0x0044 (4 bytes, int32s[1]):
  | | | | | |     25f1: ef be ad de                                     [....]
  | | | | | | ContrastNeutral = 0
  | | | | | | - Tag 0x0048 (4 bytes, int32s[1]):
  | | | | | |     25f5: 00 00 00 00                                     [....]
  | | | | | | SharpnessNeutral = 0
  | | | | | | - Tag 0x004c (4 bytes, int32s[1]):
  | | | | | |     25f9: 00 00 00 00                                     [....]
  | | | | | | SaturationNeutral = 0
  | | | | | | - Tag 0x0050 (4 bytes, int32s[1]):
  | | | | | |     25fd: 00 00 00 00                                     [....]
  | | | | | | ColorToneNeutral = 0
  | | | | | | - Tag 0x0054 (4 bytes, int32s[1]):
  | | | | | |     2601: 00 00 00 00                                     [....]
  | | | | | | FilterEffectNeutral = -559038737
  | | | | | | - Tag 0x0058 (4 bytes, int32s[1]):
  | | | | | |     2605: ef be ad de                                     [....]
  | | | | | | ToningEffectNeutral = -559038737
  | | | | | | - Tag 0x005c (4 bytes, int32s[1]):
  | | | | | |     2609: ef be ad de                                     [....]
  | | | | | | ContrastFaithful = 0
  | | | | | | - Tag 0x0060 (4 bytes, int32s[1]):
  | | | | | |     260d: 00 00 00 00                                     [....]
  | | | | | | SharpnessFaithful = 0
  | | | | | | - Tag 0x0064 (4 bytes, int32s[1]):
  | | | | | |     2611: 00 00 00 00                                     [....]
  | | | | | | SaturationFaithful = 0
  | | | | | | - Tag 0x0068 (4 bytes, int32s[1]):
  | | | | | |     2615: 00 00 00 00                                     [....]
  | | | | | | ColorToneFaithful = 0
  | | | | | | - Tag 0x006c (4 bytes, int32s[1]):
  | | | | | |     2619: 00 00 00 00                                     [....]
  | | | | | | FilterEffectFaithful = -559038737
  | | | | | | - Tag 0x0070 (4 bytes, int32s[1]):
  | | | | | |     261d: ef be ad de                                     [....]
  | | | | | | ToningEffectFaithful = -559038737
  | | | | | | - Tag 0x0074 (4 bytes, int32s[1]):
  | | | | | |     2621: ef be ad de                                     [....]
  | | | | | | ContrastMonochrome = 0
  | | | | | | - Tag 0x0078 (4 bytes, int32s[1]):
  | | | | | |     2625: 00 00 00 00                                     [....]
  | | | | | | SharpnessMonochrome = 3
  | | | | | | - Tag 0x007c (4 bytes, int32s[1]):
  | | | | | |     2629: 03 00 00 00                                     [....]
  | | | | | | SaturationMonochrome = -559038737
  | | | | | | - Tag 0x0080 (4 bytes, int32s[1]):
  | | | | | |     262d: ef be ad de                                     [....]
  | | | | | | ColorToneMonochrome = -559038737
  | | | | | | - Tag 0x0084 (4 bytes, int32s[1]):
  | | | | | |     2631: ef be ad de                                     [....]
  | | | | | | FilterEffectMonochrome = 0
  | | | | | | - Tag 0x0088 (4 bytes, int32s[1]):
  | | | | | |     2635: 00 00 00 00                                     [....]
  | | | | | | ToningEffectMonochrome = 0
  | | | | | | - Tag 0x008c (4 bytes, int32s[1]):
  | | | | | |     2639: 00 00 00 00                                     [....]
  | | | | | | ContrastAuto = 0
  | | | | | | - Tag 0x0090 (4 bytes, int32s[1]):
  | | | | | |     263d: 00 00 00 00                                     [....]
  | | | | | | SharpnessAuto = 0
  | | | | | | - Tag 0x0094 (4 bytes, int32s[1]):
  | | | | | |     2641: 00 00 00 00                                     [....]
  | | | | | | SaturationAuto = 0
  | | | | | | - Tag 0x0098 (4 bytes, int32s[1]):
  | | | | | |     2645: 00 00 00 00                                     [....]
  | | | | | | ColorToneAuto = 0
  | | | | | | - Tag 0x009c (4 bytes, int32s[1]):
  | | | | | |     2649: 00 00 00 00                                     [....]
  | | | | | | FilterEffectAuto = 0
  | | | | | | - Tag 0x00a0 (4 bytes, int32s[1]):
  | | | | | |     264d: 00 00 00 00                                     [....]
  | | | | | | ToningEffectAuto = 0
  | | | | | | - Tag 0x00a4 (4 bytes, int32s[1]):
  | | | | | |     2651: 00 00 00 00                                     [....]
  | | | | | | ContrastUserDef1 = 0
  | | | | | | - Tag 0x00a8 (4 bytes, int32s[1]):
  | | | | | |     2655: 00 00 00 00                                     [....]
  | | | | | | SharpnessUserDef1 = 3
  | | | | | | - Tag 0x00ac (4 bytes, int32s[1]):
  | | | | | |     2659: 03 00 00 00                                     [....]
  | | | | | | SaturationUserDef1 = 0
  | | | | | | - Tag 0x00b0 (4 bytes, int32s[1]):
  | | | | | |     265d: 00 00 00 00                                     [....]
  | | | | | | ColorToneUserDef1 = 0
  | | | | | | - Tag 0x00b4 (4 bytes, int32s[1]):
  | | | | | |     2661: 00 00 00 00                                     [....]
  | | | | | | FilterEffectUserDef1 = 0
  | | | | | | - Tag 0x00b8 (4 bytes, int32s[1]):
  | | | | | |     2665: 00 00 00 00                                     [....]
  | | | | | | ToningEffectUserDef1 = 0
  | | | | | | - Tag 0x00bc (4 bytes, int32s[1]):
  | | | | | |     2669: 00 00 00 00                                     [....]
  | | | | | | ContrastUserDef2 = 0
  | | | | | | - Tag 0x00c0 (4 bytes, int32s[1]):
  | | | | | |     266d: 00 00 00 00                                     [....]
  | | | | | | SharpnessUserDef2 = 3
  | | | | | | - Tag 0x00c4 (4 bytes, int32s[1]):
  | | | | | |     2671: 03 00 00 00                                     [....]
  | | | | | | SaturationUserDef2 = 0
  | | | | | | - Tag 0x00c8 (4 bytes, int32s[1]):
  | | | | | |     2675: 00 00 00 00                                     [....]
  | | | | | | ColorToneUserDef2 = 0
  | | | | | | - Tag 0x00cc (4 bytes, int32s[1]):
  | | | | | |     2679: 00 00 00 00                                     [....]
  | | | | | | FilterEffectUserDef2 = 0
  | | | | | | - Tag 0x00d0 (4 bytes, int32s[1]):
  | | | | | |     267d: 00 00 00 00                                     [....]
  | | | | | | ToningEffectUserDef2 = 0
  | | | | | | - Tag 0x00d4 (4 bytes, int32s[1]):
  | | | | | |     2681: 00 00 00 00                                     [....]
  | | | | | | ContrastUserDef3 = 0
  | | | | | | - Tag 0x00d8 (4 bytes, int32s[1]):
  | | | | | |     2685: 00 00 00 00                                     [....]
  | | | | | | SharpnessUserDef3 = 3
  | | | | | | - Tag 0x00dc (4 bytes, int32s[1]):
  | | | | | |     2689: 03 00 00 00                                     [....]
  | | | | | | SaturationUserDef3 = 0
  | | | | | | - Tag 0x00e0 (4 bytes, int32s[1]):
  | | | | | |     268d: 00 00 00 00                                     [....]
  | | | | | | ColorToneUserDef3 = 0
  | | | | | | - Tag 0x00e4 (4 bytes, int32s[1]):
  | | | | | |     2691: 00 00 00 00                                     [....]
  | | | | | | FilterEffectUserDef3 = 0
  | | | | | | - Tag 0x00e8 (4 bytes, int32s[1]):
  | | | | | |     2695: 00 00 00 00                                     [....]
  | | | | | | ToningEffectUserDef3 = 0
  | | | | | | - Tag 0x00ec (4 bytes, int32s[1]):
  | | | | | |     2699: 00 00 00 00                                     [....]
  | | | | | | UserDef1PictureStyle = 129
  | | | | | | - Tag 0x00f0 (2 bytes, int16u[1]):
  | | | | | |     269d: 81 00                                           [..]
  | | | | | | UserDef2PictureStyle = 129
  | | | | | | - Tag 0x00f2 (2 bytes, int16u[1]):
  | | | | | |     269f: 81 00                                           [..]
  | | | | | | UserDef3PictureStyle = 129
  | | | | | | - Tag 0x00f4 (2 bytes, int16u[1]):
  | | | | | |     26a1: 81 00                                           [..]
  | | | | 9)  CanonModelID = 2147484295
  | | | |     - Tag 0x0010 (4 bytes, int32u[1]):
  | | | |         2002: 87 02 00 80                                     [....]
  | | | | 10) ThumbnailImageValidArea = 0 159 7 112
  | | | |     - Tag 0x0013 (8 bytes, int16u[4]):
  | | | |         288c: 00 00 9f 00 07 00 70 00                         [......p.]
  | | | | 11) SerialNumberFormat = 2684354560
  | | | |     - Tag 0x0015 (4 bytes, int32u[1]):
  | | | |         201a: 00 00 00 a0                                     [....]
  | | | | 12) Canon_0x0019 = 1
  | | | |     - Tag 0x0019 (2 bytes, int16u[1]):
  | | | |         2026: 01 00                                           [..]
  | | | | 13) CanonAFInfo2 (SubDirectory) -->
  | | | |     - Tag 0x0026 (96 bytes, int16u[48] read as undef[96]):
  | | | |         2894: 60 00 02 00 09 00 09 00 40 14 80 0d 40 14 80 0d [`.......@...@...]
  | | | |         28a4: 6c 00 58 00 58 00 58 00 81 00 58 00 58 00 58 00 [l.X.X.X...X.X.X.]
  | | | |         28b4: 6c 00 56 00 6b 00 6b 00 6b 00 83 00 6b 00 6b 00 [l.V.k.k.k...k.k.]
  | | | |         28c4: 6b 00 56 00 00 00 a4 fc 5c 03 a8 fa 00 00 58 05 [k.V.....\.....X.]
  | | | |         28d4: a4 fc 5c 03 00 00 e7 02 89 01 89 01 00 00 00 00 [..\.............]
  | | | |         28e4: 00 00 77 fe 77 fe 19 fd 10 00 10 00 00 00 ff ff [..w.w...........]
  | | | | + [SerialData directory, 96 bytes]
  | | | | | 0)  AFInfoSize = 96
  | | | | |     - Tag 0x0000 (2 bytes, int16u[1]):
  | | | | |         2894: 60 00                                           [`.]
  | | | | | 1)  AFAreaMode = 2
  | | | | |     - Tag 0x0001 (2 bytes, int16u[1]):
  | | | | |         2896: 02 00                                           [..]
  | | | | | 2)  NumAFPoints = 9
  | | | | |     - Tag 0x0002 (2 bytes, int16u[1]):
  | | | | |         2898: 09 00                                           [..]
  | | | | | 3)  ValidAFPoints = 9
  | | | | |     - Tag 0x0003 (2 bytes, int16u[1]):
  | | | | |         289a: 09 00                                           [..]
  | | | | | 4)  CanonImageWidth = 5184
  | | | | |     - Tag 0x0004 (2 bytes, int16u[1]):
  | | | | |         289c: 40 14                                           [@.]
  | | | | | 5)  CanonImageHeight = 3456
  | | | | |     - Tag 0x0005 (2 bytes, int16u[1]):
  | | | | |         289e: 80 0d                                           [..]
  | | | | | 6)  AFImageWidth = 5184
  | | | | |     - Tag 0x0006 (2 bytes, int16u[1]):
  | | | | |         28a0: 40 14                                           [@.]
  | | | | | 7)  AFImageHeight = 3456
  | | | | |     - Tag 0x0007 (2 bytes, int16u[1]):
  | | | | |         28a2: 80 0d                                           [..]
  | | | | | 8)  AFAreaWidths = 108 88 88 88 129 88 88 88 108
  | | | | |     - Tag 0x0008 (18 bytes, int16s[9]):
  | | | | |         28a4: 6c 00 58 00 58 00 58 00 81 00 58 00 58 00 58 00 [l.X.X.X...X.X.X.]
  | | | | |         28b4: 6c 00                                           [l.]
  | | | | | 9)  AFAreaHeights = 86 107 107 107 131 107 107 107 86
  | | | | |     - Tag 0x0009 (18 bytes, int16s[9]):
  | | | | |         28b6: 56 00 6b 00 6b 00 6b 00 83 00 6b 00 6b 00 6b 00 [V.k.k.k...k.k.k.]
  | | | | |         28c6: 56 00                                           [V.]
  | | | | | 10) AFAreaXPositions = 0 -860 860 -1368 0 1368 -860 860 0
  | | | | |     - Tag 0x000a (18 bytes, int16s[9]):
  | | | | |         28c8: 00 00 a4 fc 5c 03 a8 fa 00 00 58 05 a4 fc 5c 03 [....\.....X...\.]
  | | | | |         28d8: 00 00                                           [..]
  | | | | | 11) AFAreaYPositions = 743 393 393 0 0 0 -393 -393 -743
  | | | | |     - Tag 0x000b (18 bytes, int16s[9]):
  | | | | |         28da: e7 02 89 01 89 01 00 00 00 00 00 00 77 fe 77 fe [............w.w.]
  | | | | |         28ea: 19 fd                                           [..]
  | | | | | 12) AFPointsInFocus = 16
  | | | | |     - Tag 0x000c (2 bytes, int16s[1]):
  | | | | |         28ec: 10 00                                           [..]
  | | | | | 13) AFPointsSelected = 16
  | | | | |     - Tag 0x000d (2 bytes, int16s[1]):
  | | | | |         28ee: 10 00                                           [..]
  | | | | 14) OriginalDecisionDataOffset = 0
  | | | |     - Tag 0x0083 (4 bytes, int32u[1]):
  | | | |         203e: 00 00 00 00                                     [....]
  | | | | 15) CanonFileInfo (SubDirectory) -->
  | | | |     - Tag 0x0093 (54 bytes, int16u[27] read as undef[54]):
  | | | |         2b54: 36 00 00 00 00 00 00 00 00 00 00 00 00 00 00 00 [6...............]
  | | | |         2b64: 00 00 00 00 00 00 00 00 00 00 00 00 ff ff ff ff [................]
  | | | |         2b74: 6d 00 00 00 00 00 00 00 30 00 2d 00 00 00 00 00 [m.......0.-.....]
  | | | |         2b84: 00 00 00 00 ff ff                               [......]
  | | | | + [BinaryData directory, 54 bytes, Little-endian]
  | | | | | BracketMode = 0
  | | | | | - Tag 0x0003 (2 bytes, int16s[1]):
  | | | | |     2b5a: 00 00                                           [..]
  | | | | | BracketValue = 0
  | | | | | - Tag 0x0004 (2 bytes, int16s[1]):
  | | | | |     2b5c: 00 00                                           [..]
  | | | | | BracketShotNumber = 0
  | | | | | - Tag 0x0005 (2 bytes, int16s[1]):
  | | | | |     2b5e: 00 00                                           [..]
  | | | | | RawJpgQuality = 0
  | | | | | - Tag 0x0006 (2 bytes, int16s[1]):
  | | | | |     2b60: 00 00                                           [..]
  | | | | | RawJpgSize = 0
  | | | | | - Tag 0x0007 (2 bytes, int16s[1]):
  | | | | |     2b62: 00 00                                           [..]
  | | | | | LongExposureNoiseReduction2 = 0
  | | | | | - Tag 0x0008 (2 bytes, int16s[1]):
  | | | | |     2b64: 00 00                                           [..]
  | | | | | WBBracketMode = 0
  | | | | | - Tag 0x0009 (2 bytes, int16s[1]):
  | | | | |     2b66: 00 00                                           [..]
  | | | | | WBBracketValueAB = 0
  | | | | | - Tag 0x000c (2 bytes, int16s[1]):
  | | | | |     2b6c: 00 00                                           [..]
  | | | | | WBBracketValueGM = 0
  | | | | | - Tag 0x000d (2 bytes, int16s[1]):
  | | | | |     2b6e: 00 00                                           [..]
  | | | | | FilterEffect = -1
  | | | | | - Tag 0x000e (2 bytes, int16s[1]):
  | | | | |     2b70: ff ff                                           [..]
  | | | | | ToningEffect = -1
  | | | | | - Tag 0x000f (2 bytes, int16s[1]):
  | | | | |     2b72: ff ff                                           [..]
  | | | | | LiveViewShooting = 0
  | | | | | - Tag 0x0013 (2 bytes, int16s[1]):
  | | | | |     2b7a: 00 00                                           [..]
  | | | | | FocusDistanceUpper = 48
  | | | | | - Tag 0x0014 (2 bytes, int16u[1]):
  | | | | |     2b7c: 30 00                                           [0.]
  | | | | | FocusDistanceLower = 45
  | | | | | - Tag 0x0015 (2 bytes, int16u[1]):
  | | | | |     2b7e: 2d 00                                           [-.]
  | | | | | ShutterMode = 0
  | | | | | - Tag 0x0017 (2 bytes, int16s[1]):
  | | | | |     2b82: 00 00                                           [..]
  | | | | | FlashExposureLock = 0
  | | | | | - Tag 0x0019 (2 bytes, int16s[1]):
  | | | | |     2b86: 00 00                                           [..]
  | | | | 16) LensModel = EF-S15-85mm f/3.5-5.6 IS USM
  | | | |     - Tag 0x0095 (70 bytes, string[70]):
  | | | |         2b8a: 45 46 2d 53 31 35 2d 38 35 6d 6d 20 66 2f 33 2e [EF-S15-85mm f/3.]
  | | | |         2b9a: 35 2d 35 2e 36 20 49 53 20 55 53 4d 00 00 00 00 [5-5.6 IS USM....]
  | | | |         2baa: 00 00 00 00 00 00 00 00 00 00 00 00 00 00 00 00 [................]
  | | | |         2bba: 00 00 00 00 00 00 00 00 00 00 00 00 00 00 00 00 [................]
  | | | |         2bca: 00 00 00 00 00 00                               [......]
  | | | | 17) InternalSerialNumber = WB0607529
  | | | |     - Tag 0x0096 (16 bytes, string[16]):
  | | | |         2bd0: 57 42 30 36 30 37 35 32 39 00 00 00 00 00 00 00 [WB0607529.......]
  | | | | 18) DustRemovalData = 
  | | | |     - Tag 0x0097 (1024 bytes, undef[1024]):
  | | | |         2be0: 00 00 00 00 00 00 00 00 00 00 00 00 00 00 00 00 [................]
  | | | |         2bf0: 00 00 00 00 00 00 00 00 00 00 00 00 00 00 00 00 [................]
  | | | |         2c00: 00 00 00 00 00 00 00 00 00 00 00 00 00 00 00 00 [................]
  | | | |         2c10: 00 00 00 00 00 00 00 00 00 00 00 00 00 00 00 00 [................]
  | | | |         2c20: 00 00 00 00 00 00 00 00 00 00 00 00 00 00 00 00 [................]
  | | | |         2c30: 00 00 00 00 00 00 00 00 00 00 00 00 00 00 00 00 [................]
  | | | |         2c40: 00 00 00 00 00 00 00 00 00 00 00 00 00 00 00 00 [................]
  | | | |         2c50: 00 00 00 00 00 00 00 00 00 00 00 00 00 00 00 00 [................]
  | | | |         2c60: 00 00 00 00 00 00 00 00 00 00 00 00 00 00 00 00 [................]
  | | | |         2c70: 00 00 00 00 00 00 00 00 00 00 00 00 00 00 00 00 [................]
  | | | |         2c80: 00 00 00 00 00 00 00 00 00 00 00 00 00 00 00 00 [................]
  | | | |         2c90: 00 00 00 00 00 00 00 00 00 00 00 00 00 00 00 00 [................]
  | | | |         2ca0: 00 00 00 00 00 00 00 00 00 00 00 00 00 00 00 00 [................]
  | | | |         2cb0: 00 00 00 00 00 00 00 00 00 00 00 00 00 00 00 00 [................]
  | | | |         2cc0: 00 00 00 00 00 00 00 00 00 00 00 00 00 00 00 00 [................]
  | | | |         2cd0: 00 00 00 00 00 00 00 00 00 00 00 00 00 00 00 00 [................]
  | | | |         2ce0: 00 00 00 00 00 00 00 00 00 00 00 00 00 00 00 00 [................]
  | | | |         2cf0: 00 00 00 00 00 00 00 00 00 00 00 00 00 00 00 00 [................]
  | | | |         2d00: 00 00 00 00 00 00 00 00 00 00 00 00 00 00 00 00 [................]
  | | | |         2d10: 00 00 00 00 00 00 00 00 00 00 00 00 00 00 00 00 [................]
  | | | |         2d20: 00 00 00 00 00 00 00 00 00 00 00 00 00 00 00 00 [................]
  | | | |         2d30: 00 00 00 00 00 00 00 00 00 00 00 00 00 00 00 00 [................]
  | | | |         2d40: 00 00 00 00 00 00 00 00 00 00 00 00 00 00 00 00 [................]
  | | | |         2d50: 00 00 00 00 00 00 00 00 00 00 00 00 00 00 00 00 [................]
  | | | |         2d60: 00 00 00 00 00 00 00 00 00 00 00 00 00 00 00 00 [................]
  | | | |         2d70: 00 00 00 00 00 00 00 00 00 00 00 00 00 00 00 00 [................]
  | | | |         2d80: 00 00 00 00 00 00 00 00 00 00 00 00 00 00 00 00 [................]
  | | | |         2d90: 00 00 00 00 00 00 00 00 00 00 00 00 00 00 00 00 [................]
  | | | |         2da0: 00 00 00 00 00 00 00 00 00 00 00 00 00 00 00 00 [................]
  | | | |         2db0: 00 00 00 00 00 00 00 00 00 00 00 00 00 00 00 00 [................]
  | | | |         2dc0: 00 00 00 00 00 00 00 00 00 00 00 00 00 00 00 00 [................]
  | | | |         2dd0: 00 00 00 00 00 00 00 00 00 00 00 00 00 00 00 00 [................]
  | | | |         2de0: 00 00 00 00 00 00 00 00 00 00 00 00 00 00 00 00 [................]
  | | | |         2df0: 00 00 00 00 00 00 00 00 00 00 00 00 00 00 00 00 [................]
  | | | |         2e00: 00 00 00 00 00 00 00 00 00 00 00 00 00 00 00 00 [................]
  | | | |         2e10: 00 00 00 00 00 00 00 00 00 00 00 00 00 00 00 00 [................]
  | | | |         2e20: 00 00 00 00 00 00 00 00 00 00 00 00 00 00 00 00 [................]
  | | | |         2e30: 00 00 00 00 00 00 00 00 00 00 00 00 00 00 00 00 [................]
  | | | |         2e40: 00 00 00 00 00 00 00 00 00 00 00 00 00 00 00 00 [................]
  | | | |         2e50: 00 00 00 00 00 00 00 00 00 00 00 00 00 00 00 00 [................]
  | | | |         2e60: 00 00 00 00 00 00 00 00 00 00 00 00 00 00 00 00 [................]
  | | | |         2e70: 00 00 00 00 00 00 00 00 00 00 00 00 00 00 00 00 [................]
  | | | |         2e80: 00 00 00 00 00 00 00 00 00 00 00 00 00 00 00 00 [................]
  | | | |         2e90: 00 00 00 00 00 00 00 00 00 00 00 00 00 00 00 00 [................]
  | | | |         2ea0: 00 00 00 00 00 00 00 00 00 00 00 00 00 00 00 00 [................]
  | | | |         2eb0: 00 00 00 00 00 00 00 00 00 00 00 00 00 00 00 00 [................]
  | | | |         2ec0: 00 00 00 00 00 00 00 00 00 00 00 00 00 00 00 00 [................]
  | | | |         2ed0: 00 00 00 00 00 00 00 00 00 00 00 00 00 00 00 00 [................]
  | | | |         2ee0: 00 00 00 00 00 00 00 00 00 00 00 00 00 00 00 00 [................]
  | | | |         2ef0: 00 00 00 00 00 00 00 00 00 00 00 00 00 00 00 00 [................]
  | | | |         2f00: 00 00 00 00 00 00 00 00 00 00 00 00 00 00 00 00 [................]
  | | | |         2f10: 00 00 00 00 00 00 00 00 00 00 00 00 00 00 00 00 [................]
  | | | |         2f20: 00 00 00 00 00 00 00 00 00 00 00 00 00 00 00 00 [................]
  | | | |         2f30: 00 00 00 00 00 00 00 00 00 00 00 00 00 00 00 00 [................]
  | | | |         2f40: 00 00 00 00 00 00 00 00 00 00 00 00 00 00 00 00 [................]
  | | | |         2f50: 00 00 00 00 00 00 00 00 00 00 00 00 00 00 00 00 [................]
  | | | |         2f60: 00 00 00 00 00 00 00 00 00 00 00 00 00 00 00 00 [................]
  | | | |         2f70: 00 00 00 00 00 00 00 00 00 00 00 00 00 00 00 00 [................]
  | | | |         2f80: 00 00 00 00 00 00 00 00 00 00 00 00 00 00 00 00 [................]
  | | | |         2f90: 00 00 00 00 00 00 00 00 00 00 00 00 00 00 00 00 [................]
  | | | |         2fa0: 00 00 00 00 00 00 00 00 00 00 00 00 00 00 00 00 [................]
  | | | |         2fb0: 00 00 00 00 00 00 00 00 00 00 00 00 00 00 00 00 [................]
  | | | |         2fc0: 00 00 00 00 00 00 00 00 00 00 00 00 00 00 00 00 [................]
  | | | |         2fd0: 00 00 00 00 00 00 00 00 00 00 00 00 00 00 00 00 [................]
  | | | | 19) CropInfo (SubDirectory) -->
  | | | |     - Tag 0x0098 (8 bytes, int16u[4] read as undef[8]):
  | | | |         2fe0: 00 00 00 00 00 00 00 00                         [........]
  | | | | + [BinaryData directory, 8 bytes, Little-endian]
  | | | | | CropLeftMargin = 0
  | | | | | - Tag 0x0000 (2 bytes, int16u[1]):
  | | | | |     2fe0: 00 00                                           [..]
  | | | | | CropRightMargin = 0
  | | | | | - Tag 0x0001 (2 bytes, int16u[1]):
  | | | | |     2fe2: 00 00                                           [..]
  | | | | | CropTopMargin = 0
  | | | | | - Tag 0x0002 (2 bytes, int16u[1]):
  | | | | |     2fe4: 00 00                                           [..]
  | | | | | CropBottomMargin = 0
  | | | | | - Tag 0x0003 (2 bytes, int16u[1]):
  | | | | |     2fe6: 00 00                                           [..]
  | | | | 20) CustomFunctions2 (SubDirectory) -->
  | | | |     - Tag 0x0099 (296 bytes, int32u[74] read as undef[296]):
  | | | |         2fe8: 28 01 00 00 04 00 00 00 01 00 00 00 5c 00 00 00 [(...........\...]
  | | | |         2ff8: 07 00 00 00 01 01 00 00 01 00 00 00 00 00 00 00 [................]
  | | | |         3008: 02 01 00 00 01 00 00 00 00 00 00 00 03 01 00 00 [................]
  | | | |         3018: 01 00 00 00 00 00 00 00 04 01 00 00 01 00 00 00 [................]
  | | | |         3028: 00 00 00 00 05 01 00 00 01 00 00 00 00 00 00 00 [................]
  | | | |         3038: 08 01 00 00 01 00 00 00 00 00 00 00 0f 01 00 00 [................]
  | | | |         3048: 01 00 00 00 00 00 00 00 02 00 00 00 2c 00 00 00 [............,...]
  | | | |         3058: 03 00 00 00 01 02 00 00 01 00 00 00 00 00 00 00 [................]
  | | | |         3068: 02 02 00 00 01 00 00 00 00 00 00 00 03 02 00 00 [................]
  | | | |         3078: 01 00 00 00 00 00 00 00 03 00 00 00 44 00 00 00 [............D...]
  | | | |         3088: 05 00 00 00 05 05 00 00 01 00 00 00 00 00 00 00 [................]
  | | | |         3098: 0f 05 00 00 01 00 00 00 00 00 00 00 10 05 00 00 [................]
  | | | |         30a8: 01 00 00 00 00 00 00 00 0e 05 00 00 01 00 00 00 [................]
  | | | |         30b8: 00 00 00 00 0f 06 00 00 01 00 00 00 00 00 00 00 [................]
  | | | |         30c8: 04 00 00 00 44 00 00 00 05 00 00 00 01 07 00 00 [....D...........]
  | | | |         30d8: 01 00 00 00 00 00 00 00 04 07 00 00 01 00 00 00 [................]
  | | | |         30e8: 05 00 00 00 06 07 00 00 01 00 00 00 00 00 00 00 [................]
  | | | |         30f8: 0b 08 00 00 01 00 00 00 00 00 00 00 0f 08 00 00 [................]
  | | | |         3108: 01 00 00 00 00 00 00 00                         [........]
  | | | | + [CanonCustom2 directory with 4 entries, 296 bytes]
  | | | | + [CanonCustom2 group 1 directory with 7 entries, 92 bytes]
  | | | | | 0)  ExposureLevelIncrements = 0
  | | | | |     - Tag 0x0101 (4 bytes, int32u[1])
  | | | | | 1)  ISOSpeedIncrements = 0
  | | | | |     - Tag 0x0102 (4 bytes, int32u[1])
  | | | | | 2)  ISOExpansion = 0
  | | | | |     - Tag 0x0103 (4 bytes, int32u[1])
  | | | | | 3)  AEBAutoCancel = 0
  | | | | |     - Tag 0x0104 (4 bytes, int32u[1])
  | | | | | 4)  AEBSequence = 0
  | | | | |     - Tag 0x0105 (4 bytes, int32u[1])
  | | | | | 5)  SafetyShift = 0
  | | | | |     - Tag 0x0108 (4 bytes, int32u[1])
  | | | | | 6)  FlashSyncSpeedAv = 0
  | | | | |     - Tag 0x010f (4 bytes, int32u[1])
  | | | | + [CanonCustom2 group 2 directory with 3 entries, 44 bytes]
  | | | | | 0)  LongExposureNoiseReduction = 0
  | | | | |     - Tag 0x0201 (4 bytes, int32u[1])
  | | | | | 1)  HighISONoiseReduction = 0
  | | | | |     - Tag 0x0202 (4 bytes, int32u[1])
  | | | | | 2)  HighlightTonePriority = 0
  | | | | |     - Tag 0x0203 (4 bytes, int32u[1])
  | | | | + [CanonCustom2 group 3 directory with 5 entries, 68 bytes]
  | | | | | 0)  LensDriveNoAF = 0
  | | | | |     - Tag 0x0505 (4 bytes, int32u[1])
  | | | | | 1)  AFPointSelectionMethod = 0
  | | | | |     - Tag 0x050f (4 bytes, int32u[1])
  | | | | | 2)  SuperimposedDisplay = 0
  | | | | |     - Tag 0x0510 (4 bytes, int32u[1])
  | | | | | 3)  AFAssistBeam = 0
  | | | | |     - Tag 0x050e (4 bytes, int32u[1])
  | | | | | 4)  MirrorLockup = 0
  | | | | |     - Tag 0x060f (4 bytes, int32u[1])
  | | | | + [CanonCustom2 group 4 directory with 5 entries, 68 bytes]
  | | | | | 0)  AFAndMeteringButtons = 0
  | | | | |     - Tag 0x0701 (4 bytes, int32u[1])
  | | | | | 1)  SetButtonWhenShooting = 5
  | | | | |     - Tag 0x0704 (4 bytes, int32u[1])
  | | | | | 2)  DialDirectionTvAv = 0
  | | | | |     - Tag 0x0706 (4 bytes, int32u[1])
  | | | | | 3)  FocusingScreen = 0
  | | | | |     - Tag 0x080b (4 bytes, int32u[1])
  | | | | | 4)  AddOriginalDecisionData = 0
  | | | | |     - Tag 0x080f (4 bytes, int32u[1])
  | | | | 21) AspectInfo (SubDirectory) -->
  | | | |     - Tag 0x009a (20 bytes, int32u[5] read as undef[20]):
  | | | |         3110: 00 00 00 00 40 14 00 00 80 0d 00 00 00 00 00 00 [....@...........]
  | | | |         3120: 00 00 00 00                                     [....]
  | | | | + [BinaryData directory, 20 bytes, Little-endian]
  | | | | | AspectRatio = 0
  | | | | | - Tag 0x0000 (4 bytes, int32u[1]):
  | | | | |     3110: 00 00 00 00                                     [....]
  | | | | | CroppedImageWidth = 5184
  | | | | | - Tag 0x0001 (4 bytes, int32u[1]):
  | | | | |     3114: 40 14 00 00                                     [@...]
  | | | | | CroppedImageHeight = 3456
  | | | | | - Tag 0x0002 (4 bytes, int32u[1]):
  | | | | |     3118: 80 0d 00 00                                     [....]
  | | | | | CroppedImageLeft = 0
  | | | | | - Tag 0x0003 (4 bytes, int32u[1]):
  | | | | |     311c: 00 00 00 00                                     [....]
  | | | | | CroppedImageTop = 0
  | | | | | - Tag 0x0004 (4 bytes, int32u[1]):
  | | | | |     3120: 00 00 00 00                                     [....]
  | | | | 22) ProcessingInfo (SubDirectory) -->
  | | | |     - Tag 0x00a0 (28 bytes, int16u[14] read as undef[28]):
  | | | |         3124: 1c 00 00 00 03 00 00 00 00 00 00 00 00 00 00 00 [................]
  | | | |         3134: ff ff 88 13 81 00 00 00 00 00 00 00             [............]
  | | | | + [BinaryData directory, 28 bytes, Little-endian]
  | | | | | ToneCurve = 0
  | | | | | - Tag 0x0001 (2 bytes, int16s[1]):
  | | | | |     3126: 00 00                                           [..]
  | | | | | Sharpness = 3
  | | | | | - Tag 0x0002 (2 bytes, int16s[1]):
  | | | | |     3128: 03 00                                           [..]
  | | | | | SharpnessFrequency = 0
  | | | | | - Tag 0x0003 (2 bytes, int16s[1]):
  | | | | |     312a: 00 00                                           [..]
  | | | | | SensorRedLevel = 0
  | | | | | - Tag 0x0004 (2 bytes, int16s[1]):
  | | | | |     312c: 00 00                                           [..]
  | | | | | SensorBlueLevel = 0
  | | | | | - Tag 0x0005 (2 bytes, int16s[1]):
  | | | | |     312e: 00 00                                           [..]
  | | | | | WhiteBalanceRed = 0
  | | | | | - Tag 0x0006 (2 bytes, int16s[1]):
  | | | | |     3130: 00 00                                           [..]
  | | | | | WhiteBalanceBlue = 0
  | | | | | - Tag 0x0007 (2 bytes, int16s[1]):
  | | | | |     3132: 00 00                                           [..]
  | | | | | WhiteBalance = -1
  | | | | | - Tag 0x0008 (2 bytes, int16s[1]):
  | | | | |     3134: ff ff                                           [..]
  | | | | | ColorTemperature = 5000
  | | | | | - Tag 0x0009 (2 bytes, int16s[1]):
  | | | | |     3136: 88 13                                           [..]
  | | | | | PictureStyle = 129
  | | | | | - Tag 0x000a (2 bytes, int16s[1]):
  | | | | |     3138: 81 00                                           [..]
  | | | | | DigitalGain = 0
  | | | | | - Tag 0x000b (2 bytes, int16s[1]):
  | | | | |     313a: 00 00                                           [..]
  | | | | | WBShiftAB = 0
  | | | | | - Tag 0x000c (2 bytes, int16s[1]):
  | | | | |     313c: 00 00                                           [..]
  | | | | | WBShiftGM = 0
  | | | | | - Tag 0x000d (2 bytes, int16s[1]):
  | | | | |     313e: 00 00                                           [..]
  | | | | 23) MeasuredColor (SubDirectory) -->
  | | | |     - Tag 0x00aa (12 bytes, int16u[6] read as undef[12]):
  | | | |         3140: 0c 00 91 01 00 04 00 04 18 03 00 00             [............]
  | | | | + [BinaryData directory, 12 bytes, Little-endian]
  | | | | | MeasuredRGGB = 401 1024 1024 792
  | | | | | - Tag 0x0001 (8 bytes, int16u[4]):
  | | | | |     3142: 91 01 00 04 00 04 18 03                         [........]
  | | | | 24) ColorSpace = 1
  | | | |     - Tag 0x00b4 (2 bytes, int16u[1]):
  | | | |         20b6: 01 00                                           [..]
  | | | | 25) VRDOffset = 0
  | | | |     - Tag 0x00d0 (4 bytes, int32u[1]):
  | | | |         20c2: 00 00 00 00                                     [....]
  | | | | 26) SensorInfo (SubDirectory) -->
  | | | |     - Tag 0x00e0 (34 bytes, int16u[17] read as undef[34]):
  | | | |         314c: 22 00 e0 14 bc 0d 01 00 01 00 98 00 38 00 d7 14 ["...........8...]
  | | | |         315c: b7 0d 00 00 00 00 00 00 00 00 00 00 00 00 00 00 [................]
  | | | |         316c: 00 00                                           [..]
  | | | | + [BinaryData directory, 34 bytes, Little-endian]
  | | | | | SensorWidth = 5344
  | | | | | - Tag 0x0001 (2 bytes, int16s[1]):
  | | | | |     314e: e0 14                                           [..]
  | | | | | SensorHeight = 3516
  | | | | | - Tag 0x0002 (2 bytes, int16s[1]):
  | | | | |     3150: bc 0d                                           [..]
  | | | | | SensorLeftBorder = 152
  | | | | | - Tag 0x0005 (2 bytes, int16s[1]):
  | | | | |     3156: 98 00                                           [..]
  | | | | | SensorTopBorder = 56
  | | | | | - Tag 0x0006 (2 bytes, int16s[1]):
  | | | | |     3158: 38 00                                           [8.]
  | | | | | SensorRightBorder = 5335
  | | | | | - Tag 0x0007 (2 bytes, int16s[1]):
  | | | | |     315a: d7 14                                           [..]
  | | | | | SensorBottomBorder = 3511
  | | | | | - Tag 0x0008 (2 bytes, int16s[1]):
  | | | | |     315c: b7 0d                                           [..]
  | | | | | BlackMaskLeftBorder = 0
  | | | | | - Tag 0x0009 (2 bytes, int16s[1]):
  | | | | |     315e: 00 00                                           [..]
  | | | | | BlackMaskTopBorder = 0
  | | | | | - Tag 0x000a (2 bytes, int16s[1]):
  | | | | |     3160: 00 00                                           [..]
  | | | | | BlackMaskRightBorder = 0
  | | | | | - Tag 0x000b (2 bytes, int16s[1]):
  | | | | |     3162: 00 00                                           [..]
  | | | | | BlackMaskBottomBorder = 0
  | | | | | - Tag 0x000c (2 bytes, int16s[1]):
  | | | | |     3164: 00 00                                           [..]
  | | | | 27) ColorData4 (SubDirectory) -->
  | | | |     - Tag 0x4001 (2692 bytes, int16u[1346] read as undef[2692]):
  | | | |         316e: 09 00 1b 03 00 04 00 04 7e 01 32 02 00 04 00 04 [........~.2.....]
  | | | |         317e: f8 01 83 01 00 04 00 04 cc 02 d9 04 3b 06 3a 06 [............;.:.]
  | | | |         318e: 26 02 00 06 01 0b 01 0b 0d 05 68 02 76 06 76 06 [&.........h.v.v.]
  | | | |         319e: 44 04 fe ff 01 00 f3 00 f9 00 ee 00 00 00 9d 04 [D...............]
  | | | |         31ae: 73 09 70 09 74 05 0d 02 a3 00 a1 00 19 00 4c 00 [s.p.t.........L.]
  | | | |         31be: ce 01 cf 01 0e 03 94 04 cd 07 d1 07 92 01 52 04 [..............R.]
  | | | |         31ce: 11 09 0f 09 f8 04 0f 02 a6 00 a4 00 16 00 45 00 [..............E.]
  | | | |         31de: bd 01 bc 01 e9 02 83 04 da 07 dc 07 69 01 4f 09 [............i.O.]
  | | | |         31ee: 00 04 00 04 ae 05 40 19 4f 09 00 04 00 04 ae 05 [......@.O.......]
  | | | |         31fe: 40 19 4d 09 ec 03 13 04 ad 05 40 19 f4 01 92 04 [@.M.......@.....]
  | | | |         320e: 92 04 39 03 64 19 6e 08 00 04 00 04 79 06 50 14 [..9.d.n.....y.P.]
  | | | |         321e: c7 09 00 04 00 04 7c 05 58 1b 15 09 00 04 00 04 [......|.X.......]
  | | | |         322e: f0 05 70 17 f4 05 00 04 00 04 d9 09 80 0c 96 07 [..p.............]
  | | | |         323e: 00 04 00 04 2f 09 df 0e 42 08 00 04 00 04 af 06 [..../...B.......]
  | | | |         324e: 81 13 5f 09 00 04 00 04 e5 05 57 18 6e 08 00 04 [.._.......W.n...]
  | | | |         325e: 00 04 79 06 50 14 6e 08 00 04 00 04 79 06 50 14 [..y.P.n.....y.P.]
  | | | |         326e: 6e 08 00 04 00 04 79 06 50 14 6e 08 00 04 00 04 [n.....y.P.n.....]
  | | | |         327e: 79 06 50 14 6e 08 00 04 00 04 79 06 50 14 e9 03 [y.P.n.....y.P...]
  | | | |         328e: 00 04 00 04 27 04 cf 0f e9 03 00 04 00 04 27 04 [....'.........'.]
  | | | |         329e: cf 0f e9 03 00 04 00 04 27 04 cf 0f e9 03 00 04 [........'.......]
  | | | |         32ae: 00 04 27 04 cf 0f e9 03 00 04 00 04 27 04 cf 0f [..'.........'...]
  | | | |         32be: c0 fe 6f 01 6f 03 94 2a d8 fe 7a 01 51 03 10 27 [..o.o..*..z.Q..']
  | | | |         32ce: 04 ff 8c 01 1b 03 6c 20 2f ff a3 01 eb 02 58 1b [......l /.....X.]
  | | | |         32de: 67 ff c3 01 b2 02 70 17 82 ff d3 01 96 02 e0 15 [g.....p.........]
  | | | |         32ee: a1 ff e6 01 79 02 50 14 cf ff 00 02 49 02 5c 12 [....y.P.....I.\.]
  | | | |         32fe: 0a 00 27 02 18 02 68 10 41 00 51 02 ed 01 d8 0e [..'...h.A.Q.....]
  | | | |         330e: 73 00 7a 02 c8 01 ac 0d b1 00 b0 02 a0 01 80 0c [s.z.............]
  | | | |         331e: e2 00 db 02 7d 01 b8 0b 0d 01 0e 03 6a 01 f0 0a [....}.......j...]
  | | | |         332e: 7a 01 97 03 38 01 60 09 f4 01 11 08 21 08 ff 07 [z...8.`.....!...]
  | | | |         333e: ff 07 ff 07 ff 07 1a 00 19 00 18 00 1e 00 22 00 [..............".]
  | | | |         334e: 27 00 29 00 2b 00 2e 00 2d 00 30 00 30 00 38 00 ['.).+...-.0.0.8.]
  | | | |         335e: 31 00 31 00 1d 00 16 00 17 00 1a 00 1f 00 24 00 [1.1...........$.]
  | | | |         336e: 24 00 26 00 24 00 29 00 2a 00 2b 00 30 00 35 00 [$.&.$.).*.+.0.5.]
  | | | |         337e: 3a 00 3d 00 2b 00 19 00 19 00 19 00 1c 00 22 00 [:.=.+.........".]
  | | | |         338e: 21 00 25 00 20 00 25 00 25 00 2b 00 29 00 38 00 [!.%. .%.%.+.).8.]
  | | | |         339e: 31 00 40 00 2c 00 1b 00 18 00 18 00 1b 00 1f 00 [1.@.,...........]
  | | | |         33ae: 22 00 22 00 27 00 26 00 29 00 2c 00 36 00 2b 00 [".".'.&.).,.6.+.]
  | | | |         33be: 2f 00 3b 00 44 00 39 00 3a 00 38 00 46 00 51 00 [/.;.D.9.:.8.F.Q.]
  | | | |         33ce: 5b 00 61 00 66 00 6a 00 65 00 68 00 67 00 78 00 [[.a.f.j.e.h.g.x.]
  | | | |         33de: 62 00 5e 00 29 00 34 00 38 00 3e 00 4b 00 56 00 [b.^.).4.8.>.K.V.]
  | | | |         33ee: 54 00 58 00 53 00 5b 00 5a 00 5c 00 68 00 72 00 [T.X.S.[.Z.\.h.r.]
  | | | |         33fe: 80 00 7f 00 48 00 3d 00 3c 00 3c 00 43 00 4d 00 [....H.=.<.<.C.M.]
  | | | |         340e: 4a 00 52 00 45 00 4e 00 51 00 5e 00 5c 00 7a 00 [J.R.E.N.Q.^.\.z.]
  | | | |         341e: 63 00 8c 00 51 00 42 00 3c 00 3b 00 40 00 45 00 [c...Q.B.<.;.@.E.]
  | | | |         342e: 4c 00 4e 00 57 00 5a 00 60 00 64 00 7c 00 65 00 [L.N.W.Z.`.d.|.e.]
  | | | |         343e: 6b 00 84 00 93 00 3a 00 38 00 34 00 3d 00 44 00 [k.....:.8.4.=.D.]
  | | | |         344e: 4b 00 4e 00 51 00 52 00 4e 00 4f 00 4b 00 55 00 [K.N.Q.R.N.O.K.U.]
  | | | |         345e: 46 00 42 00 1f 00 34 00 38 00 3d 00 45 00 4b 00 [F.B...4.8.=.E.K.]
  | | | |         346e: 49 00 4b 00 46 00 4d 00 4a 00 49 00 4e 00 53 00 [I.K.F.M.J.I.N.S.]
  | | | |         347e: 5a 00 56 00 32 00 3f 00 3d 00 3b 00 40 00 48 00 [Z.V.2.?.=.;.@.H.]
  | | | |         348e: 45 00 4b 00 40 00 46 00 44 00 4d 00 47 00 5c 00 [E.K.@.F.D.M.G.\.]
  | | | |         349e: 4e 00 5b 00 36 00 47 00 3f 00 3c 00 40 00 44 00 [N.[.6.G.?.<.@.D.]
  | | | |         34ae: 4a 00 4a 00 52 00 50 00 52 00 53 00 62 00 4d 00 [J.J.R.P.R.S.b.M.]
  | | | |         34be: 51 00 57 00 59 00 32 00 32 00 2e 00 34 00 39 00 [Q.W.Y.2.2...4.9.]
  | | | |         34ce: 3f 00 42 00 43 00 44 00 3e 00 3f 00 3c 00 44 00 [?.B.C.D.>.?.<.D.]
  | | | |         34de: 36 00 32 00 12 00 2b 00 2d 00 30 00 35 00 39 00 [6.2...+.-.0.5.9.]
  | | | |         34ee: 37 00 38 00 34 00 37 00 34 00 34 00 39 00 3d 00 [7.8.4.7.4.4.9.=.]
  | | | |         34fe: 44 00 40 00 21 00 30 00 2f 00 2d 00 2f 00 30 00 [D.@.!.0./.-./.0.]
  | | | |         350e: 2d 00 31 00 28 00 2b 00 2c 00 32 00 30 00 3e 00 [-.1.(.+.,.2.0.>.]
  | | | |         351e: 30 00 43 00 23 00 31 00 2c 00 2b 00 2c 00 28 00 [0.C.#.1.,.+.,.(.]
  | | | |         352e: 2b 00 2b 00 2f 00 30 00 31 00 32 00 3d 00 31 00 [+.+./.0.1.2.=.1.]
  | | | |         353e: 33 00 3c 00 41 00 00 00 00 00 00 00 00 00 00 00 [3.<.A...........]
  | | | |         354e: 00 00 00 00 00 00 00 00 00 00 00 00 00 00 00 00 [................]
  | | | |         355e: 00 00 00 00 00 00 00 00 00 00 00 00 00 00 00 00 [................]
  | | | |         356e: 00 00 00 00 00 00 00 00 00 00 00 00 00 00 00 00 [................]
  | | | |         357e: 00 00 00 00 00 00 00 00 00 00 00 00 00 00 00 00 [................]
  | | | |         358e: 00 00 00 00 00 00 00 00 00 00 00 00 00 00 00 00 [................]
  | | | |         359e: 00 00 00 00 00 00 00 00 00 00 00 00 00 00 00 00 [................]
  | | | |         35ae: 00 00 00 00 00 00 00 00 00 00 00 00 00 00 00 00 [................]
  | | | |         35be: 00 00 00 00 00 00 26 00 32 00 3e 00 cc 02 e6 00 [......&.2.>.....]
  | | | |         35ce: e2 00 ea 00 98 00 b9 01 e2 00 3b 01 d8 00 47 00 [..........;...G.]
  | | | |         35de: 46 00 bc 00 06 00 be 00 8e 01 ea 05 47 19 de 02 [F...........G...]
  | | | |         35ee: 1f 02 65 02 bf 01 6b 03 fb 01 7a 02 89 01 e5 00 [..e...k...z.....]
  | | | |         35fe: c6 00 3b 03 32 00 87 00 ac 01 19 07 ed 0a 57 00 [..;.2.........W.]
  | | | |         360e: 50 00 47 00 45 00 99 00 2b 00 3c 00 2b 00 1d 00 [P.G.E...+.<.+...]
  | | | |         361e: 1b 00 d3 00 17 00 22 0b 93 16 1e 2a 8f 24 8b 01 [......"....*.$..]
  | | | |         362e: 34 01 45 01 c2 00 82 01 a3 00 da 00 8d 00 66 00 [4.E...........f.]
  | | | |         363e: 58 00 40 02 ac 00 00 00 00 00 00 00 00 80 00 00 [X.@.............]
  | | | |         364e: 00 04 00 04 00 04 b5 0a 03 0f 4b 1a 96 10 55 00 [..........K...U.]
  | | | |         365e: 30 00 b4 0f 70 0f ac ff d1 ff 4f 10 00 00 ff 00 [0...p.....O.....]
  | | | |         366e: 03 00 9f e7 09 00 bc d9 0a 00 c3 4d 07 00 a3 62 [...........M...b]
  | | | |         367e: 00 04 00 04 00 00 00 04 00 00 00 00 00 00 00 00 [................]
  | | | |         368e: 00 00 ff 1f 00 01 ff 1f 00 01 00 00 00 00 00 02 [................]
  | | | |         369e: b0 02 bf 01 e9 01 9f 02 94 01 39 03 00 00 00 00 [..........9.....]
  | | | |         36ae: 00 00 00 00 00 00 0f 00 f0 00 00 01 00 01 00 01 [................]
  | | | |         36be: 00 01 00 01 00 01 00 00 0f 00 f0 00 00 01 00 01 [................]
  | | | |         36ce: 00 01 00 01 00 01 00 01 00 00 00 00 50 00 00 00 [............P...]
  | | | |         36de: 00 00 10 00 20 00 40 00 60 00 80 00 c0 00 89 ff [.... .@.`.......]
  | | | |         36ee: a2 ff 9f ff 9f ff 9f ff 9f ff 9f ff 88 04 84 04 [................]
  | | | |         36fe: 85 04 85 04 85 04 85 04 85 04 88 04 00 00 fe 07 [................]
  | | | |         370e: fe 07 00 08 00 08 f6 38 f6 3a 10 27 00 10 00 00 [.......8.:.'....]
  | | | |         371e: 00 00 00 00 00 00 00 00 00 00 00 00 00 00 00 00 [................]
  | | | |         372e: 00 00 00 00 00 00 00 00 00 00 00 00 00 00 00 00 [................]
  | | | |         373e: 00 00 00 00 00 00 00 00 00 00 00 00 00 00 00 00 [................]
  | | | |         374e: 00 00 00 00 00 00 00 00 00 00 00 00 00 00 00 00 [................]
  | | | |         375e: 00 00 00 00 00 00 00 00 00 00 00 00 00 00 00 00 [................]
  | | | |         376e: 00 00 00 00 00 00 00 00 00 00 00 00 00 00 00 00 [................]
  | | | |         377e: 00 00 00 00 00 00 00 00 00 00 00 00 00 00 00 00 [................]
  | | | |         378e: 00 00 00 00 00 00 00 00 00 00 00 00 00 00 00 00 [................]
  | | | |         379e: 00 00 00 00 00 00 00 00 00 00 00 00 00 00 00 00 [................]
  | | | |         37ae: 00 00 00 00 00 00 00 00 00 00 00 00 00 00 00 00 [................]
  | | | |         37be: 00 00 00 00 00 00 00 00 00 00 00 00 00 00 00 00 [................]
  | | | |         37ce: 00 00 00 00 00 00 00 00 00 00 00 00 00 00 00 00 [................]
  | | | |         37de: 00 00 00 00 00 00 00 00 00 00 00 00 00 00 00 00 [................]
  | | | |         37ee: 00 00 00 00 00 00 00 00 00 00 00 00 00 00 00 00 [................]
  | | | |         37fe: 00 00 00 00 00 00 00 00 00 00 00 00 00 00 00 00 [................]
  | | | |         380e: 00 00 00 00 00 00 00 00 00 00 00 00 00 00 00 00 [................]
  | | | |         381e: 00 00 00 00 00 00 00 00 00 00 00 00 00 00 00 00 [................]
  | | | |         382e: 00 00 00 00 00 00 00 00 00 00 00 00 00 00 00 00 [................]
  | | | |         383e: 00 00 00 00 00 00 00 00 00 00 00 00 00 00 00 00 [................]
  | | | |         384e: 00 00 00 00 00 00 00 00 00 00 00 00 00 00 00 00 [................]
  | | | |         385e: 00 00 00 00 00 00 00 00 00 00 00 00 00 00 00 00 [................]
  | | | |         386e: 00 00 00 00 00 00 00 00 00 00 00 00 00 00 00 00 [................]
  | | | |         387e: 00 00 00 00 00 00 00 00 00 00 00 00 00 00 00 00 [................]
  | | | |         388e: 00 00 00 00 00 00 00 00 00 00 00 00 00 00 00 00 [................]
  | | | |         389e: 00 00 00 00 00 00 00 00 00 00 00 00 00 00 00 00 [................]
  | | | |         38ae: 00 00 00 00 00 00 00 00 00 00 00 00 00 00 00 00 [................]
  | | | |         38be: 00 00 00 00 00 00 00 00 00 00 00 00 00 00 00 00 [................]
  | | | |         38ce: 00 00 00 00 00 00 00 00 00 00 00 00 00 00 00 00 [................]
  | | | |         38de: 00 00 00 00 00 00 00 00 00 00 00 00 00 00 00 00 [................]
  | | | |         38ee: 00 00 00 00 00 00 00 00 00 00 00 00 00 00 00 00 [................]
  | | | |         38fe: 00 00 00 00 00 00 00 00 00 00 00 00 00 00 00 00 [................]
  | | | |         390e: 00 00 00 00 00 00 00 00 00 00 00 00 00 00 00 00 [................]
  | | | |         391e: 00 00 00 00 00 00 00 00 00 00 00 00 00 00 00 00 [................]
  | | | |         392e: 00 00 00 00 00 00 00 00 00 00 00 00 00 00 00 00 [................]
  | | | |         393e: 00 00 00 00 00 00 00 00 00 00 00 00 00 00 00 00 [................]
  | | | |         394e: 00 00 00 00 00 00 00 00 00 00 00 00 00 00 00 00 [................]
  | | | |         [snip 660 bytes]
  | | | | + [BinaryData directory, 2692 bytes, Little-endian]
  | | | | | ColorDataVersion = 9
  | | | | | - Tag 0x0000 (2 bytes, int16s[1]):
  | | | | |     316e: 09 00                                           [..]
  | | | | | ColorCoefs (SubDirectory) -->
  | | | | | - Tag 0x003f (210 bytes, undef[210]):
  | | | | |     31ec: 4f 09 00 04 00 04 ae 05 40 19 4f 09 00 04 00 04 [O.......@.O.....]
  | | | | |     31fc: ae 05 40 19 4d 09 ec 03 13 04 ad 05 40 19 f4 01 [..@.M.......@...]
  | | | | |     320c: 92 04 92 04 39 03 64 19 6e 08 00 04 00 04 79 06 [....9.d.n.....y.]
  | | | | |     321c: 50 14 c7 09 00 04 00 04 7c 05 58 1b 15 09 00 04 [P.......|.X.....]
  | | | | |     322c: 00 04 f0 05 70 17 f4 05 00 04 00 04 d9 09 80 0c [....p...........]
  | | | | |     323c: 96 07 00 04 00 04 2f 09 df 0e 42 08 00 04 00 04 [....../...B.....]
  | | | | |     324c: af 06 81 13 5f 09 00 04 00 04 e5 05 57 18 6e 08 [...._.......W.n.]
  | | | | |     325c: 00 04 00 04 79 06 50 14 6e 08 00 04 00 04 79 06 [....y.P.n.....y.]
  | | | | |     326c: 50 14 6e 08 00 04 00 04 79 06 50 14 6e 08 00 04 [P.n.....y.P.n...]
  | | | | |     327c: 00 04 79 06 50 14 6e 08 00 04 00 04 79 06 50 14 [..y.P.n.....y.P.]
  | | | | |     328c: e9 03 00 04 00 04 27 04 cf 0f e9 03 00 04 00 04 [......'.........]
  | | | | |     329c: 27 04 cf 0f e9 03 00 04 00 04 27 04 cf 0f e9 03 ['.........'.....]
  | | | | |     32ac: 00 04 00 04 27 04 cf 0f e9 03 00 04 00 04 27 04 [....'.........'.]
  | | | | |     32bc: cf 0f                                           [..]
  | | | | | + [BinaryData directory, 210 bytes, Little-endian]
  | | | | | | WB_RGGBLevelsAsShot = 2383 1024 1024 1454
  | | | | | | - Tag 0x0000 (8 bytes, int16s[4]):
  | | | | | |     31ec: 4f 09 00 04 00 04 ae 05                         [O.......]
  | | | | | | ColorTempAsShot = 6464
  | | | | | | - Tag 0x0004 (2 bytes, int16s[1]):
  | | | | | |     31f4: 40 19                                           [@.]
  | | | | | | WB_RGGBLevelsAuto = 2383 1024 1024 1454
  | | | | | | - Tag 0x0005 (8 bytes, int16s[4]):
  | | | | | |     31f6: 4f 09 00 04 00 04 ae 05                         [O.......]
  | | | | | | ColorTempAuto = 6464
  | | | | | | - Tag 0x0009 (2 bytes, int16s[1]):
  | | | | | |     31fe: 40 19                                           [@.]
  | | | | | | WB_RGGBLevelsMeasured = 2381 1004 1043 1453
  | | | | | | - Tag 0x000a (8 bytes, int16s[4]):
  | | | | | |     3200: 4d 09 ec 03 13 04 ad 05                         [M.......]
  | | | | | | ColorTempMeasured = 6464
  | | | | | | - Tag 0x000e (2 bytes, int16s[1]):
  | | | | | |     3208: 40 19                                           [@.]
  | | | | | | WB_RGGBLevelsUnknown = 500 1170 1170 825
  | | | | | | - Tag 0x000f (8 bytes, int16s[4]):
  | | | | | |     320a: f4 01 92 04 92 04 39 03                         [......9.]
  | | | | | | ColorTempUnknown = 6500
  | | | | | | - Tag 0x0013 (2 bytes, int16s[1]):
  | | | | | |     3212: 64 19                                           [d.]
  | | | | | | WB_RGGBLevelsDaylight = 2158 1024 1024 1657
  | | | | | | - Tag 0x0014 (8 bytes, int16s[4]):
  | | | | | |     3214: 6e 08 00 04 00 04 79 06                         [n.....y.]
  | | | | | | ColorTempDaylight = 5200
  | | | | | | - Tag 0x0018 (2 bytes, int16s[1]):
  | | | | | |     321c: 50 14                                           [P.]
  | | | | | | WB_RGGBLevelsShade = 2503 1024 1024 1404
  | | | | | | - Tag 0x0019 (8 bytes, int16s[4]):
  | | | | | |     321e: c7 09 00 04 00 04 7c 05                         [......|.]
  | | | | | | ColorTempShade = 7000
  | | | | | | - Tag 0x001d (2 bytes, int16s[1]):
  | | | | | |     3226: 58 1b                                           [X.]
  | | | | | | WB_RGGBLevelsCloudy = 2325 1024 1024 1520
  | | | | | | - Tag 0x001e (8 bytes, int16s[4]):
  | | | | | |     3228: 15 09 00 04 00 04 f0 05                         [........]
  | | | | | | ColorTempCloudy = 6000
  | | | | | | - Tag 0x0022 (2 bytes, int16s[1]):
  | | | | | |     3230: 70 17                                           [p.]
  | | | | | | WB_RGGBLevelsTungsten = 1524 1024 1024 2521
  | | | | | | - Tag 0x0023 (8 bytes, int16s[4]):
  | | | | | |     3232: f4 05 00 04 00 04 d9 09                         [........]
  | | | | | | ColorTempTungsten = 3200
  | | | | | | - Tag 0x0027 (2 bytes, int16s[1]):
  | | | | | |     323a: 80 0c                                           [..]
  | | | | | | WB_RGGBLevelsFluorescent = 1942 1024 1024 2351
  | | | | | | - Tag 0x0028 (8 bytes, int16s[4]):
  | | | | | |     323c: 96 07 00 04 00 04 2f 09                         [....../.]
  | | | | | | ColorTempFluorescent = 3807
  | | | | | | - Tag 0x002c (2 bytes, int16s[1]):
  | | | | | |     3244: df 0e                                           [..]
  | | | | | | WB_RGGBLevelsKelvin = 2114 1024 1024 1711
  | | | | | | - Tag 0x002d (8 bytes, int16s[4]):
  | | | | | |     3246: 42 08 00 04 00 04 af 06                         [B.......]
  | | | | | | ColorTempKelvin = 4993
  | | | | | | - Tag 0x0031 (2 bytes, int16s[1]):
  | | | | | |     324e: 81 13                                           [..]
  | | | | | | WB_RGGBLevelsFlash = 2399 1024 1024 1509
  | | | | | | - Tag 0x0032 (8 bytes, int16s[4]):
  | | | | | |     3250: 5f 09 00 04 00 04 e5 05                         [_.......]
  | | | | | | ColorTempFlash = 6231
  | | | | | | - Tag 0x0036 (2 bytes, int16s[1]):
  | | | | | |     3258: 57 18                                           [W.]
  | | | | | | WB_RGGBLevelsUnknown2 = 2158 1024 1024 1657
  | | | | | | - Tag 0x0037 (8 bytes, int16s[4]):
  | | | | | |     325a: 6e 08 00 04 00 04 79 06                         [n.....y.]
  | | | | | | ColorTempUnknown2 = 5200
  | | | | | | - Tag 0x003b (2 bytes, int16s[1]):
  | | | | | |     3262: 50 14                                           [P.]
  | | | | | | WB_RGGBLevelsUnknown3 = 2158 1024 1024 1657
  | | | | | | - Tag 0x003c (8 bytes, int16s[4]):
  | | | | | |     3264: 6e 08 00 04 00 04 79 06                         [n.....y.]
  | | | | | | ColorTempUnknown3 = 5200
  | | | | | | - Tag 0x0040 (2 bytes, int16s[1]):
  | | | | | |     326c: 50 14                                           [P.]
  | | | | | | WB_RGGBLevelsUnknown4 = 2158 1024 1024 1657
  | | | | | | - Tag 0x0041 (8 bytes, int16s[4]):
  | | | | | |     326e: 6e 08 00 04 00 04 79 06                         [n.....y.]
  | | | | | | ColorTempUnknown4 = 5200
  | | | | | | - Tag 0x0045 (2 bytes, int16s[1]):
  | | | | | |     3276: 50 14                                           [P.]
  | | | | | | WB_RGGBLevelsUnknown5 = 2158 1024 1024 1657
  | | | | | | - Tag 0x0046 (8 bytes, int16s[4]):
  | | | | | |     3278: 6e 08 00 04 00 04 79 06                         [n.....y.]
  | | | | | | ColorTempUnknown5 = 5200
  | | | | | | - Tag 0x004a (2 bytes, int16s[1]):
  | | | | | |     3280: 50 14                                           [P.]
  | | | | | | WB_RGGBLevelsUnknown6 = 2158 1024 1024 1657
  | | | | | | - Tag 0x004b (8 bytes, int16s[4]):
  | | | | | |     3282: 6e 08 00 04 00 04 79 06                         [n.....y.]
  | | | | | | ColorTempUnknown6 = 5200
  | | | | | | - Tag 0x004f (2 bytes, int16s[1]):
  | | | | | |     328a: 50 14                                           [P.]
  | | | | | | WB_RGGBLevelsUnknown7 = 1001 1024 1024 1063
  | | | | | | - Tag 0x0050 (8 bytes, int16s[4]):
  | | | | | |     328c: e9 03 00 04 00 04 27 04                         [......'.]
  | | | | | | ColorTempUnknown7 = 4047
  | | | | | | - Tag 0x0054 (2 bytes, int16s[1]):
  | | | | | |     3294: cf 0f                                           [..]
  | | | | | | WB_RGGBLevelsUnknown8 = 1001 1024 1024 1063
  | | | | | | - Tag 0x0055 (8 bytes, int16s[4]):
  | | | | | |     3296: e9 03 00 04 00 04 27 04                         [......'.]
  | | | | | | ColorTempUnknown8 = 4047
  | | | | | | - Tag 0x0059 (2 bytes, int16s[1]):
  | | | | | |     329e: cf 0f                                           [..]
  | | | | | | WB_RGGBLevelsUnknown9 = 1001 1024 1024 1063
  | | | | | | - Tag 0x005a (8 bytes, int16s[4]):
  | | | | | |     32a0: e9 03 00 04 00 04 27 04                         [......'.]
  | | | | | | ColorTempUnknown9 = 4047
  | | | | | | - Tag 0x005e (2 bytes, int16s[1]):
  | | | | | |     32a8: cf 0f                                           [..]
  | | | | | | WB_RGGBLevelsUnknown10 = 1001 1024 1024 1063
  | | | | | | - Tag 0x005f (8 bytes, int16s[4]):
  | | | | | |     32aa: e9 03 00 04 00 04 27 04                         [......'.]
  | | | | | | ColorTempUnknown10 = 4047
  | | | | | | - Tag 0x0063 (2 bytes, int16s[1]):
  | | | | | |     32b2: cf 0f                                           [..]
  | | | | | | WB_RGGBLevelsUnknown11 = 1001 1024 1024 1063
  | | | | | | - Tag 0x0064 (8 bytes, int16s[4]):
  | | | | | |     32b4: e9 03 00 04 00 04 27 04                         [......'.]
  | | | | | | ColorTempUnknown11 = 4047
  | | | | | | - Tag 0x0068 (2 bytes, int16s[1]):
  | | | | | |     32bc: cf 0f                                           [..]
  | | | | | ColorCalib (SubDirectory) -->
  | | | | | - Tag 0x00a8 (120 bytes, undef[120]):
  | | | | |     32be: c0 fe 6f 01 6f 03 94 2a d8 fe 7a 01 51 03 10 27 [..o.o..*..z.Q..']
  | | | | |     32ce: 04 ff 8c 01 1b 03 6c 20 2f ff a3 01 eb 02 58 1b [......l /.....X.]
  | | | | |     32de: 67 ff c3 01 b2 02 70 17 82 ff d3 01 96 02 e0 15 [g.....p.........]
  | | | | |     32ee: a1 ff e6 01 79 02 50 14 cf ff 00 02 49 02 5c 12 [....y.P.....I.\.]
  | | | | |     32fe: 0a 00 27 02 18 02 68 10 41 00 51 02 ed 01 d8 0e [..'...h.A.Q.....]
  | | | | |     330e: 73 00 7a 02 c8 01 ac 0d b1 00 b0 02 a0 01 80 0c [s.z.............]
  | | | | |     331e: e2 00 db 02 7d 01 b8 0b 0d 01 0e 03 6a 01 f0 0a [....}.......j...]
  | | | | |     332e: 7a 01 97 03 38 01 60 09                         [z...8.`.]
  | | | | | + [BinaryData directory, 120 bytes, Little-endian]
  | | | | | | CameraColorCalibration01 = -320 367 879 10900
  | | | | | | - Tag 0x0000 (8 bytes, int16s[4]):
  | | | | | |     32be: c0 fe 6f 01 6f 03 94 2a                         [..o.o..*]
  | | | | | | CameraColorCalibration02 = -296 378 849 10000
  | | | | | | - Tag 0x0004 (8 bytes, int16s[4]):
  | | | | | |     32c6: d8 fe 7a 01 51 03 10 27                         [..z.Q..']
  | | | | | | CameraColorCalibration03 = -252 396 795 8300
  | | | | | | - Tag 0x0008 (8 bytes, int16s[4]):
  | | | | | |     32ce: 04 ff 8c 01 1b 03 6c 20                         [......l ]
  | | | | | | CameraColorCalibration04 = -209 419 747 7000
  | | | | | | - Tag 0x000c (8 bytes, int16s[4]):
  | | | | | |     32d6: 2f ff a3 01 eb 02 58 1b                         [/.....X.]
  | | | | | | CameraColorCalibration05 = -153 451 690 6000
  | | | | | | - Tag 0x0010 (8 bytes, int16s[4]):
  | | | | | |     32de: 67 ff c3 01 b2 02 70 17                         [g.....p.]
  | | | | | | CameraColorCalibration06 = -126 467 662 5600
  | | | | | | - Tag 0x0014 (8 bytes, int16s[4]):
  | | | | | |     32e6: 82 ff d3 01 96 02 e0 15                         [........]
  | | | | | | CameraColorCalibration07 = -95 486 633 5200
  | | | | | | - Tag 0x0018 (8 bytes, int16s[4]):
  | | | | | |     32ee: a1 ff e6 01 79 02 50 14                         [....y.P.]
  | | | | | | CameraColorCalibration08 = -49 512 585 4700
  | | | | | | - Tag 0x001c (8 bytes, int16s[4]):
  | | | | | |     32f6: cf ff 00 02 49 02 5c 12                         [....I.\.]
  | | | | | | CameraColorCalibration09 = 10 551 536 4200
  | | | | | | - Tag 0x0020 (8 bytes, int16s[4]):
  | | | | | |     32fe: 0a 00 27 02 18 02 68 10                         [..'...h.]
  | | | | | | CameraColorCalibration10 = 65 593 493 3800
  | | | | | | - Tag 0x0024 (8 bytes, int16s[4]):
  | | | | | |     3306: 41 00 51 02 ed 01 d8 0e                         [A.Q.....]
  | | | | | | CameraColorCalibration11 = 115 634 456 3500
  | | | | | | - Tag 0x0028 (8 bytes, int16s[4]):
  | | | | | |     330e: 73 00 7a 02 c8 01 ac 0d                         [s.z.....]
  | | | | | | CameraColorCalibration12 = 177 688 416 3200
  | | | | | | - Tag 0x002c (8 bytes, int16s[4]):
  | | | | | |     3316: b1 00 b0 02 a0 01 80 0c                         [........]
  | | | | | | CameraColorCalibration13 = 226 731 381 3000
  | | | | | | - Tag 0x0030 (8 bytes, int16s[4]):
  | | | | | |     331e: e2 00 db 02 7d 01 b8 0b                         [....}...]
  | | | | | | CameraColorCalibration14 = 269 782 362 2800
  | | | | | | - Tag 0x0034 (8 bytes, int16s[4]):
  | | | | | |     3326: 0d 01 0e 03 6a 01 f0 0a                         [....j...]
  | | | | | | CameraColorCalibration15 = 378 919 312 2400
  | | | | | | - Tag 0x0038 (8 bytes, int16s[4]):
  | | | | | |     332e: 7a 01 97 03 38 01 60 09                         [z...8.`.]
  | | | | | AverageBlackLevel = 2047 2047 2047 2047
  | | | | | - Tag 0x00e7 (8 bytes, int16u[4]):
  | | | | |     333c: ff 07 ff 07 ff 07 ff 07                         [........]
  | | | | | FlashOutput = 0
  | | | | | - Tag 0x026b (2 bytes, int16s[1]):
  | | | | |     3644: 00 00                                           [..]
  | | | | | FlashBatteryLevel = 0
  | | | | | - Tag 0x026c (2 bytes, int16s[1]):
  | | | | |     3646: 00 00                                           [..]
  | | | | | RawMeasuredRGGB = 3885957123 3652976649 1304625162 1654849543
  | | | | | - Tag 0x0280 (16 bytes, int32u[4]):
  | | | | |     366e: 03 00 9f e7 09 00 bc d9 0a 00 c3 4d 07 00 a3 62 [...........M...b]
  | | | | | PerChannelBlackLevel = 2046 2046 2048 2048
  | | | | | - Tag 0x02cf (8 bytes, int16u[4]):
  | | | | |     370c: fe 07 fe 07 00 08 00 08                         [........]
  | | | | | NormalWhiteLevel = 14582
  | | | | | - Tag 0x02d3 (2 bytes, int16u[1]):
  | | | | |     3714: f6 38                                           [.8]
  | | | | | SpecularWhiteLevel = 15094
  | | | | | - Tag 0x02d4 (2 bytes, int16u[1]):
  | | | | |     3716: f6 3a                                           [.:]
  | | | | | LinearityUpperMargin = 10000
  | | | | | - Tag 0x02d5 (2 bytes, int16u[1]):
  | | | | |     3718: 10 27                                           [.']
  | | | | 28) CRWParam = .Q. ...............p....r..f..........@@@.}.x......M..xN.g.1...iv"....2....1.......0..&...t0..,.E._0..0.vI.p.8...h(.....1....0.....n0.....E0...........3.::.1...   ..Pgd4!""".H....Ff....B..P.p......w..(..D.....w..(..B.....wh...*.....p@..(.....Z......Z...... ........:.........u......... ..................P. ...   ........ ........`s/&&......d......`s/&&......d.....@.@...p.qXrd.........h...*.....p@..(.....Z... ...........d8.X.H.)`1...d8.X.H.)`1.@.@..d8.X.H.)`1..d8.X.H.)`1....................P.33...............??8w;.3......h`h....H.HMPUX]`ehmpux..`em.HhHILNQUY\^^^H\^dltv|.H\^dlqv|.H\^dlqv|.H\^dlqv|.H\^dlqv|.hpdyH\^dlqv|.X`pHKX`ehmu...PX`hkmpu...hpx..............................................................................................................................................................................................................................................................................................................................................................................................................................................................................................................................................................................................................................................................................................................................................................................................................................................................................................................................................................................................................................................................................................................................................................................................................................................................................................................................................................................................................................................[snip]
  | | | |     - Tag 0x4002 (20916 bytes, int16u[10458] read as undef[20916]):
  | | | |         3bf2: b4 51 06 20 00 00 00 00 00 00 19 06 ff ff 00 ff [.Q. ............]
  | | | |         3c02: 00 a4 11 05 ff ff 90 01 10 01 01 70 ed 03 9c 0f [...........p....]
  | | | |         3c12: 72 01 8e 00 66 00 9a 01 c5 0e e1 0b 00 00 94 94 [r...f...........]
  | | | |         3c22: 93 98 40 00 40 00 40 00 00 00 a9 7d 98 78 0f a0 [..@.@.@....}.x..]
  | | | |         3c32: 00 00 00 00 80 0f b3 01 4d 00 80 03 78 00 4e 02 [........M...x.N.]
  | | | |         3c42: 67 01 00 00 31 01 b9 01 69 00 76 22 ad 01 a5 00 [g...1...i.v"....]
  | | | |         3c52: a4 32 ca 01 db 00 85 31 df 01 08 01 fb 04 a5 30 [.2.....1.......0]
  | | | |         3c62: ef 01 26 01 aa 05 74 30 f8 01 2c 01 45 06 5f 30 [..&...t0..,.E._0]
  | | | |         3c72: f6 01 30 01 00 00 76 00 49 02 70 07 00 00 38 01 [..0...v.I.p...8.]
  | | | |         3c82: b4 07 68 00 28 11 cd 07 a5 00 d6 31 cc 07 d3 00 [..h.(......1....]
  | | | |         3c92: af 30 f0 07 ef 00 1a 04 6e 30 f6 07 f7 00 eb 04 [.0......n0......]
  | | | |         3ca2: 45 30 fd 07 fc 00 10 04 10 04 10 07 00 00 11 00 [E0..............]
  | | | |         3cb2: 13 00 33 05 3a 00 3a 00 80 00 31 03 08 00 12 00 [..3.:.:...1.....]
  | | | |         3cc2: 00 00 20 00 20 00 20 00 00 00 01 00 00 00 02 00 [.. . . .........]
  | | | |         3cd2: 50 00 67 64 34 21 00 22 00 22 00 22 00 00 01 00 [P.gd4!."."."....]
  | | | |         3ce2: 48 00 a1 00 18 00 00 00 00 00 00 00 00 00 00 00 [H...............]
  | | | |         3cf2: 00 00 00 00 04 1c 46 66 ec 88 1e 00 00 00 ff 42 [......Ff.......B]
  | | | |         3d02: 00 00 00 0b 00 08 50 07 70 04 0c 00 0a 00 1e 00 [......P.p.......]
  | | | |         3d12: 09 00 1b 00 77 00 0c 00 0a 00 28 00 05 00 14 00 [....w.....(.....]
  | | | |         3d22: 44 00 0c 00 0a 00 1e 00 09 00 1b 00 77 00 0c 00 [D...........w...]
  | | | |         3d32: 10 00 28 00 04 00 10 00 42 00 0c 00 0a 00 1e 00 [..(.....B.......]
  | | | |         3d42: 09 00 1b 00 77 00 68 00 b8 01 a1 00 2a 00 0f 01 [....w.h.....*...]
  | | | |         3d52: 1f 07 01 00 70 00 40 01 83 00 28 00 0d 0e 1b 07 [....p.@...(.....]
  | | | |         3d62: 01 00 5a 00 00 00 00 00 00 00 00 00 00 00 00 00 [..Z.............]
  | | | |         3d72: 00 00 00 00 00 00 00 00 00 00 00 00 00 00 00 00 [................]
  | | | |         3d82: 00 00 00 00 00 00 00 00 00 00 00 00 00 00 00 00 [................]
  | | | |         3d92: 00 00 00 00 00 00 00 00 00 00 00 00 00 00 00 00 [................]
  | | | |         3da2: 00 00 00 00 00 00 00 00 00 00 00 00 00 00 00 00 [................]
  | | | |         3db2: 00 00 00 00 00 00 00 00 00 00 00 00 00 00 00 00 [................]
  | | | |         3dc2: 00 00 00 00 01 00 00 00 00 00 90 01 a0 00 0a 19 [................]
  | | | |         3dd2: 5a 04 00 00 00 00 00 00 00 00 00 00 00 00 00 00 [Z...............]
  | | | |         3de2: 00 00 00 00 00 00 00 00 00 00 00 01 00 00 01 00 [................]
  | | | |         3df2: 00 00 00 00 00 00 00 00 00 00 01 01 00 01 20 00 [.............. .]
  | | | |         3e02: 01 11 00 01 00 01 00 00 01 00 00 00 aa 0e aa 3a [...............:]
  | | | |         3e12: 16 16 07 00 a8 02 90 01 04 02 75 06 01 00 10 01 [..........u.....]
  | | | |         3e22: ff 01 ff 01 0a 20 00 00 00 00 00 00 00 00 00 00 [..... ..........]
  | | | |         3e32: 00 00 00 00 00 01 00 00 04 01 04 04 c4 05 c4 07 [................]
  | | | |         3e42: c4 09 0c 0e 08 04 04 04 04 50 03 00 20 00 00 00 [.........P.. ...]
  | | | |         3e52: 00 00 00 00 00 00 00 00 00 00 00 00 00 00 00 00 [................]
  | | | |         3e62: 00 00 00 00 00 00 00 00 00 00 00 00 00 00 00 00 [................]
  | | | |         3e72: 00 00 00 00 00 00 00 00 03 00 00 00 00 10 15 00 [................]
  | | | |         3e82: 20 00 20 00 20 00 00 08 00 08 00 00 00 08 00 08 [ . . ...........]
  | | | |         3e92: 00 08 00 08 08 18 20 08 10 06 08 04 04 02 80 00 [...... .........]
  | | | |         3ea2: 60 73 2f 26 26 14 00 01 c3 01 a8 02 64 03 b1 03 [`s/&&.......d...]
  | | | |         3eb2: d8 03 80 00 60 73 2f 26 26 14 00 01 c3 01 a8 02 [....`s/&&.......]
  | | | |         3ec2: 64 03 b1 03 d8 03 40 0c 40 0c 03 00 1e 70 90 71 [d.....@.@....p.q]
  | | | |         3ed2: 58 72 64 80 02 00 04 12 0a 00 10 00 13 00 1f 00 [Xrd.............]
  | | | |         3ee2: ff 00 68 00 b8 01 a1 00 2a 00 0f 01 1f 07 01 00 [..h.....*.......]
  | | | |         3ef2: 70 00 40 01 83 00 28 00 0d 0e 1b 07 01 00 5a 00 [p.@...(.......Z.]
  | | | |         3f02: 00 08 08 18 20 08 10 06 08 04 04 02 10 01 11 01 [.... ...........]
  | | | |         3f12: 64 38 9c 58 c8 48 10 29 60 31 00 00 00 00 ff ff [d8.X.H.)`1......]
  | | | |         3f22: 00 00 00 00 03 00 64 38 9c 58 c8 48 10 29 60 31 [......d8.X.H.)`1]
  | | | |         3f32: c8 00 40 00 c8 00 40 00 03 03 64 38 9c 58 c8 48 [..@...@...d8.X.H]
  | | | |         3f42: 10 29 60 31 00 00 03 03 64 38 9c 58 c8 48 10 29 [.)`1....d8.X.H.)]
  | | | |         3f52: 60 31 00 00 03 00 ff 0f 04 01 04 04 c4 05 c4 07 [`1..............]
  | | | |         3f62: c4 09 0c 0e 08 04 04 04 04 50 00 00 00 01 33 33 [.........P....33]
  | | | |         3f72: 01 00 06 06 01 04 02 01 7f 01 00 02 00 02 00 02 [................]
  | | | |         3f82: 11 01 80 00 00 3f 3f 38 77 3b b2 33 e5 13 f8 07 [.....??8w;.3....]
  | | | |         3f92: ff 00 00 00 00 00 00 00 00 00 00 00 00 00 00 00 [................]
  | | | |         3fa2: 00 00 00 00 00 00 00 00 00 00 00 00 00 00 00 00 [................]
  | | | |         3fb2: 00 00 00 00 00 00 00 00 00 00 00 00 00 00 00 00 [................]
  | | | |         3fc2: 00 00 00 00 00 00 00 00 00 00 00 00 00 00 00 00 [................]
  | | | |         3fd2: 00 00 00 00 00 00 00 00 00 00 00 00 00 00 00 00 [................]
  | | | |         3fe2: 00 00 0d 00 68 00 60 00 68 00 80 0c c0 12 48 00 [....h.`.h.....H.]
  | | | |         3ff2: 00 00 96 00 48 00 4d 00 50 00 55 00 58 00 5d 00 [....H.M.P.U.X.].]
  | | | |         4002: 60 00 65 00 68 00 6d 00 70 00 75 00 78 00 88 00 [`.e.h.m.p.u.x...]
  | | | |         4012: 88 00 60 00 65 00 6d 00 80 00 48 00 68 00 48 00 [..`.e.m...H.h.H.]
  | | | |         4022: 49 00 4c 00 4e 00 51 00 55 00 59 00 5c 00 5e 00 [I.L.N.Q.U.Y.\.^.]
  | | | |         4032: 5e 00 5e 00 48 00 5c 00 5e 00 64 00 6c 00 74 00 [^.^.H.\.^.d.l.t.]
  | | | |         4042: 76 00 7c 00 81 00 48 00 5c 00 5e 00 64 00 6c 00 [v.|...H.\.^.d.l.]
  | | | |         4052: 71 00 76 00 7c 00 81 00 48 00 5c 00 5e 00 64 00 [q.v.|...H.\.^.d.]
  | | | |         4062: 6c 00 71 00 76 00 7c 00 81 00 48 00 5c 00 5e 00 [l.q.v.|...H.\.^.]
  | | | |         4072: 64 00 6c 00 71 00 76 00 7c 00 81 00 48 00 5c 00 [d.l.q.v.|...H.\.]
  | | | |         4082: 5e 00 64 00 6c 00 71 00 76 00 7c 00 81 00 68 00 [^.d.l.q.v.|...h.]
  | | | |         4092: 70 00 64 00 79 00 48 00 5c 00 5e 00 64 00 6c 00 [p.d.y.H.\.^.d.l.]
  | | | |         40a2: 71 00 76 00 7c 00 81 00 58 00 60 00 70 00 48 00 [q.v.|...X.`.p.H.]
  | | | |         40b2: 4b 00 58 00 60 00 65 00 68 00 6d 00 75 00 80 00 [K.X.`.e.h.m.u...]
  | | | |         40c2: 80 00 80 00 50 00 58 00 60 00 68 00 6b 00 6d 00 [....P.X.`.h.k.m.]
  | | | |         40d2: 70 00 75 00 80 00 80 00 80 00 68 00 70 00 78 00 [p.u.......h.p.x.]
  | | | |         40e2: 80 00 00 00 00 00 00 00 01 00 01 00 00 00 00 00 [................]
  | | | |         40f2: 01 00 02 00 03 00 04 00 00 00 00 00 00 00 00 00 [................]
  | | | |         4102: 00 00 02 00 02 00 01 00 01 00 02 00 02 00 01 00 [................]
  | | | |         4112: 01 00 02 00 02 00 01 00 01 00 02 00 02 00 01 00 [................]
  | | | |         4122: 01 00 02 00 02 00 01 00 01 00 01 00 01 00 01 00 [................]
  | | | |         4132: 01 00 01 00 01 00 01 00 01 00 00 00 01 00 02 00 [................]
  | | | |         4142: 03 00 04 00 05 00 06 00 07 00 00 00 01 00 02 00 [................]
  | | | |         4152: 03 00 04 00 05 00 06 00 07 00 00 00 01 00 02 00 [................]
  | | | |         4162: 03 00 04 00 05 00 06 00 07 00 00 00 01 00 02 00 [................]
  | | | |         4172: 03 00 04 00 05 00 06 00 07 00 00 00 01 00 02 00 [................]
  | | | |         4182: 03 00 04 00 05 00 06 00 07 00 00 00 01 00 02 00 [................]
  | | | |         4192: 03 00 04 00 05 00 06 00 07 00 00 00 01 00 02 00 [................]
  | | | |         41a2: 03 00 04 00 05 00 06 00 07 00 00 00 01 00 02 00 [................]
  | | | |         41b2: 03 00 04 00 05 00 06 00 07 00 00 00 01 00 02 00 [................]
  | | | |         41c2: 03 00 04 00 05 00 06 00 07 00 08 00 09 00 0a 00 [................]
  | | | |         41d2: 0b 00 0c 00 0d 00 0e 00 0f 00 08 00 09 00 0a 00 [................]
  | | | |         41e2: 0b 00 0c 00 0d 00 0e 00 0f 00 08 00 09 00 0a 00 [................]
  | | | |         41f2: 0b 00 0c 00 0d 00 0e 00 0f 00 08 00 09 00 0a 00 [................]
  | | | |         4202: 0b 00 0c 00 0d 00 0e 00 0f 00 08 00 09 00 0a 00 [................]
  | | | |         4212: 0b 00 0c 00 0d 00 0e 00 0f 00 08 00 09 00 0a 00 [................]
  | | | |         4222: 0b 00 0c 00 0d 00 0e 00 0f 00 00 00 01 00 02 00 [................]
  | | | |         4232: 00 00 01 00 02 00 00 00 01 00 02 00 00 00 01 00 [................]
  | | | |         4242: 02 00 00 00 01 00 02 00 00 00 0a 00 01 00 01 00 [................]
  | | | |         4252: 00 00 0a 00 01 00 01 00 00 00 0b 00 02 00 02 00 [................]
  | | | |         4262: 13 00 0c 00 03 00 03 00 14 00 0d 00 04 00 04 00 [................]
  | | | |         4272: 15 00 0e 00 05 00 05 00 16 00 0f 00 06 00 06 00 [................]
  | | | |         4282: 17 00 10 00 07 00 07 00 18 00 11 00 08 00 08 00 [................]
  | | | |         4292: 19 00 12 00 09 00 09 00 19 00 12 00 09 00 09 00 [................]
  | | | |         42a2: 19 00 12 00 09 00 09 00 00 00 0a 00 01 00 01 00 [................]
  | | | |         42b2: 00 00 0a 00 01 00 01 00 00 00 0b 00 02 00 02 00 [................]
  | | | |         42c2: 13 00 0c 00 03 00 03 00 14 00 0d 00 04 00 04 00 [................]
  | | | |         42d2: 15 00 0e 00 05 00 05 00 16 00 0f 00 06 00 06 00 [................]
  | | | |         42e2: 17 00 10 00 07 00 07 00 18 00 11 00 08 00 08 00 [................]
  | | | |         42f2: 19 00 12 00 09 00 09 00 19 00 12 00 09 00 09 00 [................]
  | | | |         4302: 19 00 12 00 09 00 09 00 00 00 0a 00 01 00 01 00 [................]
  | | | |         4312: 00 00 0a 00 01 00 01 00 00 00 0b 00 02 00 02 00 [................]
  | | | |         4322: 13 00 0c 00 03 00 03 00 14 00 0d 00 04 00 04 00 [................]
  | | | |         4332: 15 00 0e 00 05 00 05 00 16 00 0f 00 06 00 06 00 [................]
  | | | |         4342: 17 00 10 00 07 00 07 00 18 00 11 00 08 00 08 00 [................]
  | | | |         4352: 19 00 12 00 09 00 09 00 19 00 12 00 09 00 09 00 [................]
  | | | |         4362: 19 00 12 00 09 00 09 00 00 00 0a 00 01 00 01 00 [................]
  | | | |         4372: 00 00 0a 00 01 00 01 00 00 00 0b 00 02 00 02 00 [................]
  | | | |         4382: 13 00 0c 00 03 00 03 00 14 00 0d 00 04 00 04 00 [................]
  | | | |         4392: 15 00 0e 00 05 00 05 00 16 00 0f 00 06 00 06 00 [................]
  | | | |         43a2: 17 00 10 00 07 00 07 00 18 00 11 00 08 00 08 00 [................]
  | | | |         43b2: 19 00 12 00 09 00 09 00 19 00 12 00 09 00 09 00 [................]
  | | | |         43c2: 19 00 12 00 09 00 09 00 00 00 0a 00 01 00 01 00 [................]
  | | | |         43d2: 00 00 0a 00 01 00 01 00 00 00 0b 00 02 00 02 00 [................]
  | | | |         [snip 18884 bytes]
  | | | | 29) Flavor = X@. .?_.....#Ee......?_......Uv......?_.....4^~.................................................. .......y.d.....<Icz.u>.#.^....(..#-u....&.  QQ99..X..zK...&.. H.F.4.Nh|ig.f.....h!.y....d...T........io-N.@...0.,......hk.....!TJ.L...l.....1.d................c.iY.4i.}.K4..0u..V&2..4t...*.*..x.X4.F......{......C.!.3..........z..+r4..@..S........n3X....L..B;....Cg>.M....1........_..' ......1......].Y^...F...v.&[.kZ..%*S......L...\..,.p..W'....4.....rb.lB.....p.N.].O.k.}[....G.....pA'....L.XX...6.....1..M..E...%u-J.?-.g.f.^6..+C..!.W.....{._)).p..b..P.../....t.w.,$...A=-.m&H..w....y.d.....<Icz.u>.#.^....(..#-u....&.  QQ99..X..zK...&.. H.F.4.Nh|ig.f.....h!.y....d...T........io-N.@...0.,......hk.....!TJ.L...l.....1.d................c.iY.4i.}.K4..0u..V&2..4t...*.*..x.X4.F......{......C.!.3..........z..+r4..@..S........n...Hl.L..L;....C.......g..].q...u.5...-U.....o.utz..i.....F...v"../.e..%*S...Cf.....[...b.3i}'....4.......v..< ....;p.]..}..t[.j..G;...:.....00..XX...6.........SS....%'*J..*.gy.t.eh...,;..n..u!l.LL))....h1.P>../2+S}<u..........7.....w..S...+.g47..........;.(<.......a.dZ.,..d..........cy...<dmj..#.B...#.t..............&.  QQ99..X..zK...&.. H.F.4.Nh|ig.f.....h!.y{f..qx..;.1r..........@...0....&...hk.....!TJ.L...l.....1.d................c.iY.....}SK4..0uQ.V&...4M.K....[<...R.F......{......C.!.3..........z..+r4..@..S.....m..n:g..&`..W8.....Cx......hh..7e...u.5...-U.....o.utz..i.....F...v"../.e..%*S.q|...(..6....&.3bi'....4..C^.'b...< ....;p.]..}..t[.j..G;...:.....00..XX...6....1m..:.S....%RhJ..i.g...^k..+"..!....u!l.LL))....h1.P>../2+S}<u..........7.....w.....y.d.....<Icz.u>.#.^....(..#-u....&.  QQ99..X..zK...&.. H.F.4.Nh|ig.f.....h!.y....d...T........io-N.@...0.,......hk.....!TJ.L...l.....1.d................c.iY.4i.}.K4..0u..V&2..4t...*.*..x.X4.F......{......C.!.3..........z..+r4..@..S........n...Hl.L..L;....C.......g..].q...u.5...-U.....o.utz..i.....F...v"../.e..%*S...Cf.....[...b.3i}'....4.......v..< ....;p.]..}..t[.j..G;...:.....00..XX...6.........SS....%'*J..*.gy.t.eh...,;..n..u!l.LL))....h1.P>../2+[snip]
  | | | |     - Tag 0x4005 (16472 bytes, undef[16472]):
  | | | |         8da6: 58 40 00 00 04 00 00 20 00 00 00 00 00 00 00 00 [X@..... ........]
  | | | |         8db6: 00 00 00 00 00 00 00 00 00 00 00 00 00 00 00 00 [................]
  | | | |         8dc6: 00 00 00 00 00 00 00 00 00 00 00 00 00 00 00 00 [................]
  | | | |         8dd6: 00 00 00 00 00 00 00 00 00 00 00 00 00 00 00 00 [................]
  | | | |         8de6: 00 00 00 00 00 00 00 00 00 00 00 00 00 00 00 00 [................]
  | | | |         8df6: 00 00 00 00 00 00 00 00 00 00 00 00 00 00 00 00 [................]
  | | | |         8e06: 00 00 00 00 00 00 00 00 00 00 00 00 00 00 00 00 [................]
  | | | |         8e16: 00 00 00 00 00 00 00 00 00 00 00 00 00 00 00 00 [................]
  | | | |         8e26: 00 00 00 00 00 00 00 00 00 00 00 00 00 00 00 00 [................]
  | | | |         8e36: 00 00 00 00 00 00 00 00 00 00 00 00 00 00 00 00 [................]
  | | | |         8e46: 00 00 00 00 00 00 00 00 00 00 00 00 00 00 00 00 [................]
  | | | |         8e56: 00 00 00 00 00 00 00 00 00 00 00 00 00 00 00 00 [................]
  | | | |         8e66: 00 00 00 00 00 00 00 00 00 00 00 00 00 00 00 00 [................]
  | | | |         8e76: 00 00 00 00 00 00 00 00 00 00 00 00 00 00 00 00 [................]
  | | | |         8e86: 00 00 00 00 00 00 00 00 00 00 00 00 00 00 00 00 [................]
  | | | |         8e96: 00 00 00 00 00 00 00 00 00 00 00 00 00 00 00 00 [................]
  | | | |         8ea6: 00 00 00 00 00 00 00 00 00 00 00 00 00 00 00 00 [................]
  | | | |         8eb6: 00 00 00 00 00 00 00 00 00 00 00 00 00 00 00 00 [................]
  | | | |         8ec6: 00 00 00 00 00 00 00 00 00 00 00 00 00 00 00 00 [................]
  | | | |         8ed6: 00 00 00 00 00 00 00 00 00 00 00 00 00 00 00 00 [................]
  | | | |         8ee6: 00 00 00 00 00 00 00 00 00 00 00 00 00 00 00 00 [................]
  | | | |         8ef6: 00 00 00 00 00 00 00 00 00 00 00 00 00 00 00 00 [................]
  | | | |         8f06: 00 00 00 00 00 00 00 00 00 00 00 00 00 00 00 00 [................]
  | | | |         8f16: 00 00 00 00 00 00 00 00 00 00 00 00 00 00 00 00 [................]
  | | | |         8f26: 00 00 00 00 00 00 00 00 00 00 00 00 00 00 00 00 [................]
  | | | |         8f36: 00 00 00 00 00 00 00 00 00 00 00 00 00 00 00 00 [................]
  | | | |         8f46: 00 00 00 00 00 00 00 00 00 00 00 00 00 00 00 00 [................]
  | | | |         8f56: 00 00 00 00 00 00 00 00 00 00 00 00 00 00 00 00 [................]
  | | | |         8f66: 00 00 00 00 00 00 00 00 00 00 00 00 00 00 00 00 [................]
  | | | |         8f76: 00 00 00 00 00 00 00 00 00 00 00 00 00 00 00 00 [................]
  | | | |         8f86: 00 00 00 00 00 00 00 00 00 00 00 00 00 00 00 00 [................]
  | | | |         8f96: 00 00 00 00 00 00 00 00 00 00 00 00 00 00 00 00 [................]
  | | | |         8fa6: 00 00 00 00 00 00 00 00 00 00 00 00 00 00 00 00 [................]
  | | | |         8fb6: 00 00 00 00 00 00 00 00 00 00 00 00 00 00 00 00 [................]
  | | | |         8fc6: 00 00 00 00 00 00 00 00 00 00 00 00 00 00 00 00 [................]
  | | | |         8fd6: 00 00 00 00 00 00 00 00 00 00 00 00 00 00 00 00 [................]
  | | | |         8fe6: 00 00 00 00 00 00 00 00 00 00 00 00 00 00 00 00 [................]
  | | | |         8ff6: 00 00 00 00 00 00 00 00 00 00 00 00 00 00 00 00 [................]
  | | | |         9006: 00 00 00 00 00 00 00 00 00 00 00 00 00 00 00 00 [................]
  | | | |         9016: 00 00 00 00 00 00 00 00 00 00 00 00 00 00 00 00 [................]
  | | | |         9026: 00 00 00 00 00 00 00 00 00 00 00 00 00 00 00 00 [................]
  | | | |         9036: 00 00 00 00 00 00 00 00 00 00 00 00 00 00 00 00 [................]
  | | | |         9046: 00 00 00 00 00 00 00 00 00 00 00 00 00 00 00 00 [................]
  | | | |         9056: 00 00 00 00 00 00 00 00 00 00 00 00 00 00 00 00 [................]
  | | | |         9066: 00 00 00 00 00 00 00 00 00 00 00 00 00 00 00 00 [................]
  | | | |         9076: 00 00 00 00 00 00 00 00 00 00 00 00 00 00 00 00 [................]
  | | | |         9086: 00 00 00 00 00 00 00 00 00 00 00 00 00 00 00 00 [................]
  | | | |         9096: 00 00 00 00 00 00 00 00 00 00 00 00 00 00 00 00 [................]
  | | | |         90a6: 00 00 00 00 00 00 00 00 00 00 00 00 00 00 00 00 [................]
  | | | |         90b6: 00 00 00 00 00 00 00 00 00 00 00 00 00 00 00 00 [................]
  | | | |         90c6: 00 00 00 00 00 00 00 00 00 00 00 00 00 00 00 00 [................]
  | | | |         90d6: 00 00 00 00 00 00 00 00 00 00 00 00 00 00 00 00 [................]
  | | | |         90e6: 00 00 00 00 00 00 00 00 00 00 00 00 00 00 00 00 [................]
  | | | |         90f6: 00 00 00 00 00 00 00 00 00 00 00 00 00 00 00 00 [................]
  | | | |         9106: 00 00 00 00 00 00 00 00 00 00 00 00 00 00 00 00 [................]
  | | | |         9116: 00 00 00 00 00 00 00 00 00 00 00 00 00 00 00 00 [................]
  | | | |         9126: 00 00 00 00 00 00 00 00 00 00 00 00 00 00 00 00 [................]
  | | | |         9136: 00 00 00 00 00 00 00 00 00 00 00 00 00 00 00 00 [................]
  | | | |         9146: 00 00 00 00 00 00 00 00 00 00 00 00 00 00 00 00 [................]
  | | | |         9156: 00 00 00 00 00 00 00 00 00 00 00 00 00 00 00 00 [................]
  | | | |         9166: 00 00 00 00 00 00 00 00 00 00 00 00 00 00 00 00 [................]
  | | | |         9176: 00 00 00 00 00 00 00 00 00 00 00 00 00 00 00 00 [................]
  | | | |         9186: 00 00 00 00 00 00 00 00 00 00 00 00 00 00 00 00 [................]
  | | | |         9196: 00 00 00 00 00 00 00 00 00 00 00 00 00 00 00 00 [................]
  | | | |         91a6: 00 00 00 00 00 00 00 00 00 00 00 00 00 00 00 00 [................]
  | | | |         91b6: 00 00 00 00 00 00 00 00 00 00 00 00 00 00 00 00 [................]
  | | | |         91c6: 00 00 00 00 00 00 00 00 00 00 00 00 00 00 00 00 [................]
  | | | |         91d6: 00 00 00 00 00 00 00 00 00 00 00 00 00 00 00 00 [................]
  | | | |         91e6: 00 00 00 00 00 00 00 00 00 00 00 00 00 00 00 00 [................]
  | | | |         91f6: 00 00 00 00 00 00 00 00 00 00 00 00 00 00 00 00 [................]
  | | | |         9206: 00 00 00 00 00 00 00 00 00 00 00 00 00 00 00 00 [................]
  | | | |         9216: 00 00 00 00 00 00 00 00 00 00 00 00 00 00 00 00 [................]
  | | | |         9226: 00 00 00 00 00 00 00 00 00 00 00 00 00 00 00 00 [................]
  | | | |         9236: 00 00 00 00 00 00 00 00 00 00 00 00 00 00 00 00 [................]
  | | | |         9246: 00 00 00 00 00 00 00 00 00 00 00 00 00 00 00 00 [................]
  | | | |         9256: 00 00 00 00 00 00 00 00 00 00 00 00 00 00 00 00 [................]
  | | | |         9266: 00 00 00 00 00 00 00 00 00 00 00 00 00 00 00 00 [................]
  | | | |         9276: 00 00 00 00 00 00 00 00 00 00 00 00 00 00 00 00 [................]
  | | | |         9286: 00 00 00 00 00 00 00 00 00 00 00 00 00 00 00 00 [................]
  | | | |         9296: 00 00 00 00 00 00 00 00 00 00 00 00 00 00 00 00 [................]
  | | | |         92a6: 00 00 00 00 00 00 00 00 00 00 00 00 00 00 00 00 [................]
  | | | |         92b6: 00 00 00 00 00 00 00 00 00 00 00 00 00 00 00 00 [................]
  | | | |         92c6: 00 00 00 00 00 00 00 00 00 00 00 00 00 00 00 00 [................]
  | | | |         92d6: 00 00 00 00 00 00 00 00 00 00 00 00 00 00 00 00 [................]
  | | | |         92e6: 00 00 00 00 00 00 00 00 00 00 00 00 00 00 00 00 [................]
  | | | |         92f6: 00 00 00 00 00 00 00 00 00 00 00 00 00 00 00 00 [................]
  | | | |         9306: 00 00 00 00 00 00 00 00 00 00 00 00 00 00 00 00 [................]
  | | | |         9316: 00 00 00 00 00 00 00 00 00 00 00 00 00 00 00 00 [................]
  | | | |         9326: 00 00 00 00 00 00 00 00 00 00 00 00 00 00 00 00 [................]
  | | | |         9336: 00 00 00 00 00 00 00 00 00 00 00 00 00 00 00 00 [................]
  | | | |         9346: 00 00 00 00 00 00 00 00 00 00 00 00 00 00 00 00 [................]
  | | | |         9356: 00 00 00 00 00 00 00 00 00 00 00 00 00 00 00 00 [................]
  | | | |         9366: 00 00 00 00 00 00 00 00 00 00 00 00 00 00 00 00 [................]
  | | | |         9376: 00 00 00 00 00 00 00 00 00 00 00 00 00 00 00 00 [................]
  | | | |         9386: 00 00 00 00 00 00 00 00 00 00 00 00 00 00 00 00 [................]
  | | | |         9396: 00 00 00 00 00 00 00 00 00 00 00 00 00 00 00 00 [................]
  | | | |         93a6: 00 00 00 00 00 00 00 00 00 00 00 00 00 00 00 00 [................]
  | | | |         93b6: 00 00 00 00 00 00 00 00 00 00 00 00 00 00 00 00 [................]
  | | | |         93c6: 00 00 00 00 00 00 00 00 00 00 00 00 00 00 00 00 [................]
  | | | |         93d6: 00 00 00 00 00 00 00 00 00 00 00 00 00 00 00 00 [................]
  | | | |         93e6: 00 00 00 00 00 00 00 00 00 00 00 00 00 00 00 00 [................]
  | | | |         93f6: 00 00 00 00 00 00 00 00 00 00 00 00 00 00 00 00 [................]
  | | | |         9406: 00 00 00 00 00 00 00 00 00 00 00 00 00 00 00 00 [................]
  | | | |         9416: 00 00 00 00 00 00 00 00 00 00 00 00 00 00 00 00 [................]
  | | | |         9426: 00 00 00 00 00 00 00 00 00 00 00 00 00 00 00 00 [................]
  | | | |         9436: 00 00 00 00 00 00 00 00 00 00 00 00 00 00 00 00 [................]
  | | | |         9446: 00 00 00 00 00 00 00 00 00 00 00 00 00 00 00 00 [................]
  | | | |         9456: 00 00 00 00 00 00 00 00 00 00 00 00 00 00 00 00 [................]
  | | | |         9466: 00 00 00 00 00 00 00 00 00 00 00 00 00 00 00 00 [................]
  | | | |         9476: 00 00 00 00 00 00 00 00 00 00 00 00 00 00 00 00 [................]
  | | | |         9486: 00 00 00 00 00 00 00 00 00 00 00 00 00 00 00 00 [................]
  | | | |         9496: 00 00 00 00 00 00 00 00 00 00 00 00 00 00 00 00 [................]
  | | | |         94a6: 00 00 00 00 00 00 00 00 00 00 00 00 00 00 00 00 [................]
  | | | |         94b6: 00 00 00 00 00 00 00 00 00 00 00 00 00 00 00 00 [................]
  | | | |         94c6: 00 00 00 00 00 00 00 00 00 00 00 00 00 00 00 00 [................]
  | | | |         94d6: 00 00 00 00 00 00 00 00 00 00 00 00 00 00 00 00 [................]
  | | | |         94e6: 00 00 00 00 00 00 00 00 00 00 00 00 00 00 00 00 [................]
  | | | |         94f6: 00 00 00 00 00 00 00 00 00 00 00 00 00 00 00 00 [................]
  | | | |         9506: 00 00 00 00 00 00 00 00 00 00 00 00 00 00 00 00 [................]
  | | | |         9516: 00 00 00 00 00 00 00 00 00 00 00 00 00 00 00 00 [................]
  | | | |         9526: 00 00 00 00 00 00 00 00 00 00 00 00 00 00 00 00 [................]
  | | | |         9536: 00 00 00 00 00 00 00 00 00 00 00 00 00 00 00 00 [................]
  | | | |         9546: 00 00 00 00 00 00 00 00 00 00 00 00 00 00 00 00 [................]
  | | | |         9556: 00 00 00 00 00 00 00 00 00 00 00 00 00 00 00 00 [................]
  | | | |         9566: 00 00 00 00 00 00 00 00 00 00 00 00 00 00 00 00 [................]
  | | | |         9576: 00 00 00 00 00 00 00 00 00 00 00 00 00 00 00 00 [................]
  | | | |         9586: 00 00 00 00 00 00 00 00 00 00 00 00 00 00 00 00 [................]
  | | | |         [snip 14440 bytes]
  | | | | 30) PictureStyleUserDef = 129 129 129
  | | | |     - Tag 0x4008 (6 bytes, int16u[3]):
  | | | |         cdfe: 81 00 81 00 81 00                               [......]
  | | | | 31) PictureStylePC = 0 0 0
  | | | |     - Tag 0x4009 (6 bytes, int16u[3]):
  | | | |         ce04: 00 00 00 00 00 00                               [......]
  | | | | 32) CustomPictureStyleFileName = 
  | | | |     - Tag 0x4010 (32 bytes, string[32]):
  | | | |         ce0a: 00 00 00 00 00 00 00 00 00 00 00 00 00 00 00 00 [................]
  | | | |         ce1a: 00 00 00 00 00 00 00 00 00 00 00 00 00 00 00 00 [................]
  | | | | 33) Canon_0x4011 = 
  | | | |     - Tag 0x4011 (252 bytes, undef[252]):
  | | | |         ce2a: 00 00 00 00 00 00 00 00 00 00 00 00 00 00 00 00 [................]
  | | | |         ce3a: 00 00 00 00 00 00 00 00 00 00 00 00 00 00 00 00 [................]
  | | | |         ce4a: 00 00 00 00 00 00 00 00 00 00 00 00 00 00 00 00 [................]
  | | | |         ce5a: 00 00 00 00 00 00 00 00 00 00 00 00 00 00 00 00 [................]
  | | | |         ce6a: 00 00 00 00 00 00 00 00 00 00 00 00 00 00 00 00 [................]
  | | | |         ce7a: 00 00 00 00 00 00 00 00 00 00 00 00 00 00 00 00 [................]
  | | | |         ce8a: 00 00 00 00 00 00 00 00 00 00 00 00 00 00 00 00 [................]
  | | | |         ce9a: 00 00 00 00 00 00 00 00 00 00 00 00 00 00 00 00 [................]
  | | | |         ceaa: 00 00 00 00 00 00 00 00 00 00 00 00 00 00 00 00 [................]
  | | | |         ceba: 00 00 00 00 00 00 00 00 00 00 00 00 00 00 00 00 [................]
  | | | |         ceca: 00 00 00 00 00 00 00 00 00 00 00 00 00 00 00 00 [................]
  | | | |         ceda: 00 00 00 00 00 00 00 00 00 00 00 00 00 00 00 00 [................]
  | | | |         ceea: 00 00 00 00 00 00 00 00 00 00 00 00 00 00 00 00 [................]
  | | | |         cefa: 00 00 00 00 00 00 00 00 00 00 00 00 00 00 00 00 [................]
  | | | |         cf0a: 00 00 00 00 00 00 00 00 00 00 00 00 00 00 00 00 [................]
  | | | |         cf1a: 00 00 00 00 00 00 00 00 00 00 00 00             [............]
  | | | | 34) Canon_0x4012 = 
  | | | |     - Tag 0x4012 (32 bytes, string[32]):
  | | | |         cf26: 00 00 00 00 00 00 00 00 00 00 00 00 00 00 00 00 [................]
  | | | |         cf36: 00 00 00 00 00 00 00 00 00 00 00 00 00 00 00 00 [................]
  | | | | 35) VignettingCorr (SubDirectory) -->
  | | | |     - Tag 0x4015 (116 bytes, undef[116]):
  | | | |         cf46: 00 10 74 00 01 00 00 00 00 00 00 00 3f 00 00 00 [..t.........?...]
  | | | |         cf56: 00 00 00 00 cc 10 40 14 80 0d fe 1f ff 1e 7d 1d [......@.......}.]
  | | | |         cf66: 18 1c 48 1b bb 18 00 00 b2 03 ea 05 65 07 22 08 [..H.........e.".]
  | | | |         cf76: 1a 0a 00 40 06 40 f3 3f be 3f 81 3f 67 3f 00 40 [...@.@.?.?.?g?.@]
  | | | |         cf86: ae 40 59 41 38 42 ec 42 2c 43 00 00 b2 03 ea 05 [.@YA8B.B,C......]
  | | | |         cf96: 22 08 9d 09 1a 0a f3 3f ac 3f 72 3f 4d 3f 4d 3f ["......?.?r?M?M?]
  | | | |         cfa6: 53 3f 00 00 b2 03 ea 05 22 08 9d 09 1a 0a 00 00 [S?......".......]
  | | | |         cfb6: 00 00 00 00                                     [....]
  | | | | + [BinaryData directory, 116 bytes, Little-endian]
  | | | | | PeripheralLighting = 1
  | | | | | - Tag 0x0002 (2 bytes, int16s[1]):
  | | | | |     cf4a: 01 00                                           [..]
  | | | | | DistortionCorrection = 0
  | | | | | - Tag 0x0003 (2 bytes, int16s[1]):
  | | | | |     cf4c: 00 00                                           [..]
  | | | | | ChromaticAberrationCorr = 0
  | | | | | - Tag 0x0004 (2 bytes, int16s[1]):
  | | | | |     cf4e: 00 00                                           [..]
  | | | | | ChromaticAberrationCorr = 0
  | | | | | - Tag 0x0005 (2 bytes, int16s[1]):
  | | | | |     cf50: 00 00                                           [..]
  | | | | | PeripheralLightingValue = 63
  | | | | | - Tag 0x0006 (2 bytes, int16s[1]):
  | | | | |     cf52: 3f 00                                           [?.]
  | | | | | DistortionCorrectionValue = 0
  | | | | | - Tag 0x0009 (2 bytes, int16s[1]):
  | | | | |     cf58: 00 00                                           [..]
  | | | | | OriginalImageWidth = 5184
  | | | | | - Tag 0x000b (2 bytes, int16s[1]):
  | | | | |     cf5c: 40 14                                           [@.]
  | | | | | OriginalImageHeight = 3456
  | | | | | - Tag 0x000c (2 bytes, int16s[1]):
  | | | | |     cf5e: 80 0d                                           [..]
  | | | | 36) VignettingCorr2 (SubDirectory) -->
  | | | |     - Tag 0x4016 (24 bytes, int32u[6] read as undef[24]):
  | | | |         cfba: 18 00 00 00 00 00 00 00 01 00 00 00 00 00 00 00 [................]
  | | | |         cfca: 00 00 00 00 01 00 00 00                         [........]
  | | | | + [BinaryData directory, 24 bytes, Little-endian]
  | | | | | PeripheralLightingSetting = 1
  | | | | | - Tag 0x0005 (4 bytes, int32s[1]):
  | | | | |     cfce: 01 00 00 00                                     [....]
  | | | | 37) Canon_0x4017 = 197383 1811939375
  | | | |     - Tag 0x4017 (8 bytes, int32u[2]):
  | | | |         cfd2: 07 03 03 00 2f 00 00 6c                         [..../..l]
  | | | | 38) LightingOpt (SubDirectory) -->
  | | | |     - Tag 0x4018 (12 bytes, int32u[3] read as undef[12]):
  | | | |         cfda: 0c 00 00 00 00 00 00 00 03 00 00 00             [............]
  | | | | + [BinaryData directory, 12 bytes, Little-endian]
  | | | | | PeripheralIlluminationCorr = 0
  | | | | | - Tag 0x0001 (4 bytes, int32s[1]):
  | | | | |     cfde: 00 00 00 00                                     [....]
  | | | | | AutoLightingOptimizer = 3
  | | | | | - Tag 0x0002 (4 bytes, int32s[1]):
  | | | | |     cfe2: 03 00 00 00                                     [....]
  | | | | 39) LensInfo (SubDirectory) -->
  | | | |     - Tag 0x4019 (30 bytes, undef[30]):
  | | | |         cfe6: 00 00 11 84 84 00 00 00 00 00 00 00 00 00 00 00 [................]
  | | | |         cff6: 00 00 00 00 00 00 00 00 00 00 00 00 00 00       [..............]
  | | | | + [BinaryData directory, 30 bytes, Little-endian]
  | | | | | LensSerialNumber = ...
  | | | | | - Tag 0x0000 (5 bytes, undef[5]):
  | | | | |     cfe6: 00 00 11 84 84                                  [.....]
  | | | | 40) Canon_0x4020 = 0 0 0 0 0
  | | | |     - Tag 0x4020 (20 bytes, int32u[5]):
  | | | |         d004: 00 00 00 00 00 00 00 00 00 00 00 00 00 00 00 00 [................]
  | | | |         d014: 00 00 00 00                                     [....]
  | 39) CalibrationIlluminant1 = 17
  |     - Tag 0xc65a (2 bytes, int16u[1]):
  |         01e6: 11 00                                           [..]
  | 40) CalibrationIlluminant2 = 21
  |     - Tag 0xc65b (2 bytes, int16u[1]):
  |         01f2: 15 00                                           [..]
  | 41) RawDataUniqueID = ..%)p.*..[...../
  |     - Tag 0xc65d (16 bytes, int8u[16] read as undef[16]):
  |         d020: 2e c3 25 29 70 f6 2a f0 9e 5b e2 e2 aa e6 e3 2f [..%)p.*..[...../]
  | 42) OriginalRawFileName = photo_57.cr2
  |     - Tag 0xc68b (13 bytes, string[13]):
  |         d030: 70 68 6f 74 6f 5f 35 37 2e 63 72 32 00          [photo_57.cr2.]
  | 43) CameraCalibrationSig = com.adobe
  |     - Tag 0xc6f3 (10 bytes, string[10]):
  |         d03e: 63 6f 6d 2e 61 64 6f 62 65 00                   [com.adobe.]
  | 44) ProfileCalibrationSig = com.adobe
  |     - Tag 0xc6f4 (10 bytes, string[10]):
  |         d048: 63 6f 6d 2e 61 64 6f 62 65 00                   [com.adobe.]
  | 45) ProfileName = Adobe Standard
  |     - Tag 0xc6f8 (15 bytes, string[15]):
  |         d052: 41 64 6f 62 65 20 53 74 61 6e 64 61 72 64 00    [Adobe Standard.]
  | 46) ProfileEmbedPolicy = 0
  |     - Tag 0xc6fd (4 bytes, int32u[1]):
  |         023a: 00 00 00 00                                     [....]
  | 47) ProfileCopyright = Copyright 2010 Adobe Systems, Inc.
  |     - Tag 0xc6fe (35 bytes, string[35]):
  |         d062: 43 6f 70 79 72 69 67 68 74 20 32 30 31 30 20 41 [Copyright 2010 A]
  |         d072: 64 6f 62 65 20 53 79 73 74 65 6d 73 2c 20 49 6e [dobe Systems, In]
  |         d082: 63 2e 00                                        [c..]
  | 48) ForwardMatrix1 = 0.755 0.0645 0.1448 0.2138 0.8936 -0.1075 -0.0005 -0.4306 1.2562 (7550/10000 645/10000 1448/10000 2138/10000 8936/10000 -1075/10000 -5/10000 -4306/10000 12562/10000)
  |     - Tag 0xc714 (72 bytes, rational64s[9]):
  |         d086: 7e 1d 00 00 10 27 00 00 85 02 00 00 10 27 00 00 [~....'.......'..]
  |         d096: a8 05 00 00 10 27 00 00 5a 08 00 00 10 27 00 00 [.....'..Z....'..]
  |         d0a6: e8 22 00 00 10 27 00 00 cd fb ff ff 10 27 00 00 [."...'.......'..]
  |         d0b6: fb ff ff ff 10 27 00 00 2e ef ff ff 10 27 00 00 [.....'.......'..]
  |         d0c6: 12 31 00 00 10 27 00 00                         [.1...'..]
  | 49) ForwardMatrix2 = 0.7286 0.1385 0.0972 0.26 0.9468 -0.2068 0.0093 -0.2268 1.0426 (7286/10000 1385/10000 972/10000 2600/10000 9468/10000 -2068/10000 93/10000 -2268/10000 10426/10000)
  |     - Tag 0xc715 (72 bytes, rational64s[9]):
  |         d0ce: 76 1c 00 00 10 27 00 00 69 05 00 00 10 27 00 00 [v....'..i....'..]
  |         d0de: cc 03 00 00 10 27 00 00 28 0a 00 00 10 27 00 00 [.....'..(....'..]
  |         d0ee: fc 24 00 00 10 27 00 00 ec f7 ff ff 10 27 00 00 [.$...'.......'..]
  |         d0fe: 5d 00 00 00 10 27 00 00 24 f7 ff ff 10 27 00 00 []....'..$....'..]
  |         d10e: ba 28 00 00 10 27 00 00                         [.(...'..]
  | 50) PreviewApplicationName = Adobe DNG Converter
  |     - Tag 0xc716 (20 bytes, string[20]):
  |         d116: 41 64 6f 62 65 20 44 4e 47 20 43 6f 6e 76 65 72 [Adobe DNG Conver]
  |         d126: 74 65 72 00                                     [ter.]
  | 51) PreviewApplicationVersion = 15.4
  |     - Tag 0xc717 (5 bytes, string[5]):
  |         d12a: 31 35 2e 34 00                                  [15.4.]
  | 52) PreviewSettingsDigest = ..ql...........i
  |     - Tag 0xc719 (16 bytes, int8u[16] read as undef[16]):
  |         d130: af da 71 6c 9c 81 bc 81 a5 9a a6 da df fe bb 69 [..ql...........i]
  | 53) PreviewColorSpace = 2
  |     - Tag 0xc71a (4 bytes, int32u[1]):
  |         028e: 02 00 00 00                                     [....]
  | 54) PreviewDateTime = 2023-07-26T06:11:34+02:00
  |     - Tag 0xc71b (26 bytes, string[26]):
  |         d140: 32 30 32 33 2d 30 37 2d 32 36 54 30 36 3a 31 31 [2023-07-26T06:11]
  |         d150: 3a 33 34 2b 30 32 3a 30 30 00                   [:34+02:00.]
  | 55) ProfileLookTableDims = 36 8 16
  |     - Tag 0xc725 (12 bytes, int32u[3]):
  |         d15a: 24 00 00 00 08 00 00 00 10 00 00 00             [$...........]
  | Warning = [Minor] Not decoding some large array(s). Ignore minor errors to decode
  | 56) ProfileLookTableData = (large array of 13824 float values)
  |     - Tag 0xc726 (55296 bytes, float[13824]):
  |         d166: 00 00 00 00 00 00 80 3f 00 00 80 3f 00 00 00 00 [.......?...?....]
  |         d176: ad ea 60 3f 00 00 80 3f 00 00 00 00 59 92 62 3f [..`?...?....Y.b?]
  |         d186: 00 00 80 3f 00 00 00 00 14 82 64 3f 00 00 80 3f [...?......d?...?]
  |         d196: 00 00 00 00 bd d8 66 3f 00 00 80 3f 00 00 00 00 [......f?...?....]
  |         d1a6: c0 9d 69 3f 00 00 80 3f 00 00 00 00 83 b3 6e 3f [..i?...?......n?]
  |         d1b6: 00 00 80 3f 00 00 00 00 00 00 80 3f 00 00 80 3f [...?.......?...?]
  |         d1c6: 00 00 00 00 00 00 80 3f 00 00 80 3f f0 54 0f bc [.......?...?.T..]
  |         d1d6: ad ea 60 3f 00 00 80 3f b9 7d 1f bd 59 92 62 3f [..`?...?.}..Y.b?]
  |         d1e6: 00 00 80 3f 31 a3 cb bd 14 82 64 3f 00 00 80 3f [...?1.....d?...?]
  |         d1f6: 71 c9 53 be bd d8 66 3f 00 00 80 3f 41 68 df be [q.S...f?...?Ah..]
  |         d206: c0 9d 69 3f 00 00 80 3f 82 78 70 bf 83 b3 6e 3f [..i?...?.xp...n?]
  |         d216: 00 00 80 3f ff d6 d3 bf 00 00 80 3f 00 00 80 3f [...?.......?...?]
  |         d226: 00 00 00 00 00 00 80 3f 00 00 80 3f b3 c1 63 bc [.......?...?..c.]
  |         d236: ad ea 60 3f 00 00 80 3f dd 2f 7b bd 59 92 62 3f [..`?...?./{.Y.b?]
  |         d246: 00 00 80 3f bd 6d 1e be 14 82 64 3f 00 00 80 3f [...?.m....d?...?]
  |         d256: fd cf a1 be bd d8 66 3f 00 00 80 3f cd a4 1f bf [......f?...?....]
  |         d266: c0 9d 69 3f 00 00 80 3f 26 fe a2 bf 83 b3 6e 3f [..i?...?&.....n?]
  |         d276: 00 00 80 3f 6d d1 15 c0 00 00 80 3f 00 00 80 3f [...?m......?...?]
  |         d286: 00 00 00 00 00 00 80 3f 00 00 80 3f 70 83 7e bc [.......?...?p.~.]
  |         d296: ad ea 60 3f 00 00 80 3f 65 2d 8b bd 59 92 62 3f [..`?...?e-..Y.b?]
  |         d2a6: 00 00 80 3f 17 af 2d be 14 82 64 3f 00 00 80 3f [...?..-...d?...?]
  |         d2b6: b4 d1 ae be bd d8 66 3f 00 00 80 3f 77 64 26 bf [......f?...?wd&.]
  |         d2c6: c0 9d 69 3f 00 00 80 3f cb 11 a1 bf 83 b3 6e 3f [..i?...?......n?]
  |         d2d6: 00 00 80 3f 91 02 11 c0 00 00 80 3f 00 00 80 3f [...?.......?...?]
  |         d2e6: 00 00 00 00 00 00 80 3f 00 00 80 3f 25 bd 60 bc [.......?...?%.`.]
  |         d2f6: ad ea 60 3f 00 00 80 3f 2c df 73 bd 59 92 62 3f [..`?...?,.s.Y.b?]
  |         d306: 00 00 80 3f 91 b4 16 be 14 82 64 3f 00 00 80 3f [...?......d?...?]
  |         d316: e1 d6 95 be bd d8 66 3f 00 00 80 3f c7 38 0b bf [......f?...?.8..]
  |         d326: c0 9d 69 3f 00 00 80 3f b5 1e 82 bf 83 b3 6e 3f [..i?...?......n?]
  |         d336: 00 00 80 3f d7 b5 e4 bf 00 00 80 3f 00 00 80 3f [...?.......?...?]
  |         d346: 00 00 00 00 00 00 80 3f 00 00 80 3f 72 8b 0b bc [.......?...?r...]
  |         d356: ad ea 60 3f 00 00 80 3f 98 50 16 bd 59 92 62 3f [..`?...?.P..Y.b?]
  |         d366: 00 00 80 3f 7c 2c b8 bd 14 82 64 3f 00 00 80 3f [...?|,....d?...?]
  |         d376: ec 31 35 be bd d8 66 3f 00 00 80 3f ce 57 a5 be [.15...f?...?.W..]
  |         d386: c0 9d 69 3f 00 00 80 3f 86 a4 16 bf 83 b3 6e 3f [..i?...?......n?]
  |         d396: 00 00 80 3f cc e6 81 bf 00 00 80 3f 00 00 80 3f [...?.......?...?]
  |         d3a6: 00 00 00 00 00 00 80 3f 00 00 80 3f 00 00 00 00 [.......?...?....]
  |         d3b6: ad ea 60 3f 00 00 80 3f 00 00 00 00 59 92 62 3f [..`?...?....Y.b?]
  |         d3c6: 00 00 80 3f 00 00 00 00 14 82 64 3f 00 00 80 3f [...?......d?...?]
  |         d3d6: 00 00 00 00 bd d8 66 3f 00 00 80 3f 00 00 00 00 [......f?...?....]
  |         d3e6: c0 9d 69 3f 00 00 80 3f 00 00 00 00 83 b3 6e 3f [..i?...?......n?]
  |         d3f6: 00 00 80 3f 00 00 00 00 00 00 80 3f 00 00 80 3f [...?.......?...?]
  |         d406: 00 00 00 00 00 00 80 3f 00 00 80 3f c0 fe 38 3e [.......?...?..8>]
  |         d416: ad ea 60 3f 00 00 80 3f 00 47 c7 3e 59 92 62 3f [..`?...?.G.>Y.b?]
  |         d426: 00 00 80 3f f0 c6 22 3f 14 82 64 3f 00 00 80 3f [...?.."?..d?...?]
  |         d436: 40 38 70 3f bd d8 66 3f 00 00 80 3f 98 5d af 3f [@8p?..f?...?.].?]
  |         d446: c0 9d 69 3f 00 00 80 3f ec 24 05 40 83 b3 6e 3f [..i?...?.$.@..n?]
  |         d456: 00 00 80 3f 2c d2 44 40 00 00 80 3f 00 00 80 3f [...?,.D@...?...?]
  |         d466: 00 00 00 00 00 00 80 3f 00 00 80 3f 90 f8 94 3e [.......?...?...>]
  |         d476: ad ea 60 3f 00 00 80 3f 10 a8 21 3f 59 92 62 3f [..`?...?..!?Y.b?]
  |         d486: 00 00 80 3f fc 32 85 3f 14 82 64 3f 00 00 80 3f [...?.2.?..d?...?]
  |         d496: ec a6 c6 3f bd d8 66 3f 00 00 80 3f 0e a9 13 40 [...?..f?...?...@]
  |         d4a6: c0 9d 69 3f 00 00 80 3f 9e 02 66 40 83 b3 6e 3f [..i?...?..f@..n?]
  |         d4b6: 00 00 80 3f f0 43 ad 40 00 00 80 3f 00 00 80 3f [...?.C.@...?...?]
  |         d4c6: 00 00 00 00 00 00 80 3f 00 00 80 3f a0 b6 a8 3e [.......?...?...>]
  |         d4d6: ad ea 60 3f 00 00 80 3f f0 83 38 3f 59 92 62 3f [..`?...?..8?Y.b?]
  |         d4e6: 00 00 80 3f 20 82 99 3f 14 82 64 3f 00 00 80 3f [...? ..?..d?...?]
  |         d4f6: 80 c4 e7 3f bd d8 66 3f 00 00 80 3f 20 7a 30 40 [...?..f?...? z0@]
  |         d506: c0 9d 69 3f 00 00 80 3f 06 5c 8e 40 83 b3 6e 3f [..i?...?.\.@..n?]
  |         d516: 00 00 80 3f 4f b6 db 40 00 00 80 3f 00 00 80 3f [...?O..@...?...?]
  |         d526: 00 00 00 00 00 00 80 3f 00 00 80 3f 60 f9 96 3e [.......?...?`..>]
  |         d536: ad ea 60 3f 00 00 80 3f 30 83 26 3f 59 92 62 3f [..`?...?0.&?Y.b?]
  |         d546: 00 00 80 3f 7c 06 8c 3f 14 82 64 3f 00 00 80 3f [...?|..?..d?...?]
  |         d556: 48 86 d6 3f bd d8 66 3f 00 00 80 3f c8 51 29 40 [H..?..f?...?.Q)@]
  |         d566: c0 9d 69 3f 00 00 80 3f 33 0f 90 40 83 b3 6e 3f [..i?...?3..@..n?]
  |         d576: 00 00 80 3f 4a ff e2 40 00 00 80 3f 00 00 80 3f [...?J..@...?...?]
  |         d586: 00 00 00 00 00 00 80 3f 00 00 80 3f e0 06 3e 3e [.......?...?..>>]
  |         d596: ad ea 60 3f 00 00 80 3f 40 73 d3 3e 59 92 62 3f [..`?...?@s.>Y.b?]
  |         d5a6: 00 00 80 3f c8 fb 33 3f 14 82 64 3f 00 00 80 3f [...?..3?..d?...?]
  |         d5b6: c4 63 8c 3f bd d8 66 3f 00 00 80 3f 5c f2 ec 3f [.c.?..f?...?\..?]
  |         d5c6: c0 9d 69 3f 00 00 80 3f 92 89 54 40 83 b3 6e 3f [..i?...?..T@..n?]
  |         d5d6: 00 00 80 3f 1f 7c a0 40 00 00 80 3f 00 00 80 3f [...?.|.@...?...?]
  |         d5e6: 00 00 00 00 00 00 80 3f 00 00 80 3f 00 00 00 00 [.......?...?....]
  |         d5f6: ad ea 60 3f 00 00 80 3f 00 00 00 00 59 92 62 3f [..`?...?....Y.b?]
  |         d606: 00 00 80 3f 00 00 00 00 14 82 64 3f 00 00 80 3f [...?......d?...?]
  |         d616: 00 00 00 00 bd d8 66 3f 00 00 80 3f 00 00 00 00 [......f?...?....]
  |         d626: c0 9d 69 3f 00 00 80 3f 00 00 00 00 83 b3 6e 3f [..i?...?......n?]
  |         d636: 00 00 80 3f 00 00 00 00 00 00 80 3f 00 00 80 3f [...?.......?...?]
  |         d646: 00 00 00 00 00 00 80 3f 00 00 80 3f 00 05 3e be [.......?...?..>.]
  |         d656: ad ea 60 3f 00 00 80 3f 40 73 d3 be 59 92 62 3f [..`?...?@s..Y.b?]
  |         d666: 00 00 80 3f 40 fc 33 bf 14 82 64 3f 00 00 80 3f [...?@.3...d?...?]
  |         d676: 00 64 8c bf bd d8 66 3f 00 00 80 3f 20 f2 ec bf [.d....f?...? ...]
  |         d686: c0 9d 69 3f 00 00 80 3f 74 89 54 c0 83 b3 6e 3f [..i?...?t.T...n?]
  |         d696: 00 00 80 3f 10 7c a0 c0 00 00 80 3f 00 00 80 3f [...?.|.....?...?]
  |         d6a6: 00 00 00 00 00 00 80 3f 00 00 80 3f 80 f7 96 be [.......?...?....]
  |         d6b6: ad ea 60 3f 00 00 80 3f 40 82 26 bf 59 92 62 3f [..`?...?@.&.Y.b?]
  |         d6c6: 00 00 80 3f b8 06 8c bf 14 82 64 3f 00 00 80 3f [...?......d?...?]
  |         d6d6: 48 86 d6 bf bd d8 66 3f 00 00 80 3f c8 51 29 c0 [H.....f?...?.Q).]
  |         d6e6: c0 9d 69 3f 00 00 80 3f 24 0f 90 c0 83 b3 6e 3f [..i?...?$.....n?]
  |         d6f6: 00 00 80 3f 4a ff e2 c0 00 00 80 3f 00 00 80 3f [...?J......?...?]
  |         d706: 00 00 00 00 00 00 80 3f 00 00 80 3f a0 b6 a8 be [.......?...?....]
  |         d716: ad ea 60 3f 00 00 80 3f f0 83 38 bf 59 92 62 3f [..`?...?..8.Y.b?]
  |         d726: 00 00 80 3f 20 82 99 bf 14 82 64 3f 00 00 80 3f [...? .....d?...?]
  |         d736: 80 c4 e7 bf bd d8 66 3f 00 00 80 3f 20 7a 30 c0 [......f?...? z0.]
  |         d746: c0 9d 69 3f 00 00 80 3f 06 5c 8e c0 83 b3 6e 3f [..i?...?.\....n?]
  |         d756: 00 00 80 3f 40 b6 db c0 00 00 80 3f 00 00 80 3f [...?@......?...?]
  |         d766: 00 00 00 00 00 00 80 3f 00 00 80 3f 80 f9 94 be [.......?...?....]
  |         d776: ad ea 60 3f 00 00 80 3f 10 a8 21 bf 59 92 62 3f [..`?...?..!.Y.b?]
  |         d786: 00 00 80 3f 38 33 85 bf 14 82 64 3f 00 00 80 3f [...?83....d?...?]
  |         d796: b0 a6 c6 bf bd d8 66 3f 00 00 80 3f f0 a8 13 c0 [......f?...?....]
  |         d7a6: c0 9d 69 3f 00 00 80 3f 80 02 66 c0 83 b3 6e 3f [..i?...?..f...n?]
  |         d7b6: 00 00 80 3f f0 43 ad c0 00 00 80 3f 00 00 80 3f [...?.C.....?...?]
  |         d7c6: 00 00 00 00 00 00 80 3f 00 00 80 3f c0 fe 38 be [.......?...?..8.]
  |         d7d6: ad ea 60 3f 00 00 80 3f c0 4a c7 be 59 92 62 3f [..`?...?.J..Y.b?]
  |         d7e6: 00 00 80 3f f0 c6 22 bf 14 82 64 3f 00 00 80 3f [...?.."...d?...?]
  |         d7f6: 40 38 70 bf bd d8 66 3f 00 00 80 3f 98 5d af bf [@8p...f?...?.]..]
  |         d806: c0 9d 69 3f 00 00 80 3f ec 24 05 c0 83 b3 6e 3f [..i?...?.$....n?]
  |         d816: 00 00 80 3f 2c d2 44 c0 00 00 80 3f 00 00 80 3f [...?,.D....?...?]
  |         d826: 00 00 00 00 00 00 80 3f 00 00 80 3f 00 00 00 00 [.......?...?....]
  |         d836: ad ea 60 3f 00 00 80 3f 00 00 00 00 59 92 62 3f [..`?...?....Y.b?]
  |         d846: 00 00 80 3f 00 00 00 00 14 82 64 3f 00 00 80 3f [...?......d?...?]
  |         d856: 00 00 00 00 bd d8 66 3f 00 00 80 3f 00 00 00 00 [......f?...?....]
  |         d866: c0 9d 69 3f 00 00 80 3f 00 00 00 00 83 b3 6e 3f [..i?...?......n?]
  |         d876: 00 00 80 3f 00 00 00 00 00 00 80 3f 00 00 80 3f [...?.......?...?]
  |         d886: 00 00 00 00 00 00 80 3f 00 00 80 3f c0 fe 38 3e [.......?...?..8>]
  |         d896: ad ea 60 3f 00 00 80 3f c0 4a c7 3e 59 92 62 3f [..`?...?.J.>Y.b?]
  |         d8a6: 00 00 80 3f f0 c6 22 3f 14 82 64 3f 00 00 80 3f [...?.."?..d?...?]
  |         d8b6: 40 38 70 3f bd d8 66 3f 00 00 80 3f 98 5d af 3f [@8p?..f?...?.].?]
  |         d8c6: c0 9d 69 3f 00 00 80 3f ec 24 05 40 83 b3 6e 3f [..i?...?.$.@..n?]
  |         d8d6: 00 00 80 3f 2c d2 44 40 00 00 80 3f 00 00 80 3f [...?,.D@...?...?]
  |         d8e6: 00 00 00 00 00 00 80 3f 00 00 80 3f a0 f7 94 3e [.......?...?...>]
  |         d8f6: ad ea 60 3f 00 00 80 3f 20 a7 21 3f 59 92 62 3f [..`?...? .!?Y.b?]
  |         d906: 00 00 80 3f c0 32 85 3f 14 82 64 3f 00 00 80 3f [...?.2.?..d?...?]
  |         d916: b0 a6 c6 3f bd d8 66 3f 00 00 80 3f f0 a8 13 40 [...?..f?...?...@]
  |         d926: c0 9d 69 3f 00 00 80 3f 80 02 66 40 83 b3 6e 3f [..i?...?..f@..n?]
  |         d936: 00 00 80 3f f0 43 ad 40 00 00 80 3f 00 00 80 3f [...?.C.@...?...?]
  |         d946: 00 00 00 00 00 00 80 3f 00 00 80 3f a0 b6 a8 3e [.......?...?...>]
  |         [snip 53264 bytes]
  | 57) NoiseProfile = 0.00013662623025864 3.88289544149032e-07
  |     - Tag 0xc761 (16 bytes, double[2]):
  |        1a966: 27 3b a8 61 6a e8 21 3f 2c da 95 79 c3 0e 9a 3e [';.aj.!?,..y...>]
  | 58) NewRawImageDigest = gv........q..=w.
  |     - Tag 0xc7a7 (16 bytes, int8u[16] read as undef[16]):
  |        1a976: 67 76 02 f9 81 09 13 a4 f5 cb 71 c8 83 3d 77 f1 [gv........q..=w.]
