  ExifToolVersion = 13.59
  FileName = media_20.jpg
  Directory = C:/Users/micro/IdeaProjects/kim/src/commonTest/resources/de/stefan_oltmann/kim/testdata/full
  FileSize = 12898
  FileModifyDate = 1776264330.05633
  FileAccessDate = 1786601296.41343
  FileCreateDate = 1776264330.05633
  FilePermissions = 33206
  FileType = JPEG
  FileTypeExtension = JPG
  MIMEType = image/jpeg
JPEG APP0 (14 bytes):
      0006: 4a 46 49 46 00 01 01 01 00 48 00 48 00 00       [JFIF.....H.H..]
  + [BinaryData directory, 9 bytes, Big-endian]
  | JFIFVersion = 1 1
  | - Tag 0x0000 (2 bytes, int8u[2]):
  |     000b: 01 01                                           [..]
  | ResolutionUnit = 1
  | - Tag 0x0002 (1 bytes, int8u[1]):
  |     000d: 01                                              [.]
  | XResolution = 72
  | - Tag 0x0003 (2 bytes, int16u[1]):
  |     000e: 00 48                                           [.H]
  | YResolution = 72
  | - Tag 0x0005 (2 bytes, int16u[1]):
  |     0010: 00 48                                           [.H]
  | ThumbnailWidth = 0
  | - Tag 0x0007 (1 bytes, int8u[1]):
  |     0012: 00                                              [.]
  | ThumbnailHeight = 0
  | - Tag 0x0008 (1 bytes, int8u[1]):
  |     0013: 00                                              [.]
JPEG APP1 (6992 bytes):
      0018: 45 78 69 66 00 00 49 49 2a 00 08 00 00 00 0c 00 [Exif..II*.......]
      0028: 0e 01 02 00 76 00 00 00 9e 00 00 00 0f 01 02 00 [....v...........]
      0038: 18 00 00 00 14 01 00 00 10 01 02 00 07 00 00 00 [................]
      0048: 2c 01 00 00 12 01 03 00 01 00 00 00 06 00 00 00 [,...............]
      0058: 1a 01 05 00 01 00 00 00 34 01 00 00 1b 01 05 00 [........4.......]
      0068: 01 00 00 00 3c 01 00 00 28 01 03 00 01 00 00 00 [....<...(.......]
      0078: 02 00 00 00 31 01 02 00 0d 00 00 00 44 01 00 00 [....1.......D...]
      [snip 6880 bytes]
  ExifByteOrder = II
  + [IFD0 directory with 12 entries, Little-endian]
  | 0)  ImageDescription =                                                                                                                      
  |     - Tag 0x010e (118 bytes, string[118]):
  |         00bc: 20 20 20 20 20 20 20 20 20 20 20 20 20 20 20 20 [                ]
  |         00cc: 20 20 20 20 20 20 20 20 20 20 20 20 20 20 20 20 [                ]
  |         00dc: 20 20 20 20 20 20 20 20 20 20 20 20 20 20 20 20 [                ]
  |         00ec: 20 20 20 20 20 20 20 20 20 20 20 20 20 20 20 20 [                ]
  |         00fc: 20 20 20 20 20 20 20 20 20 20 20 20 20 20 20 20 [                ]
  |         010c: 20 20 20 20 20 20 20 20 20 20 20 20 20 20 20 20 [                ]
  |         011c: 20 20 20 20 20 20 20 20 20 20 20 20 20 20 20 20 [                ]
  |         012c: 20 20 20 20 20 00                               [     .]
  | 1)  Make = OLYMPUS OPTICAL CO.,LTD
  |     - Tag 0x010f (24 bytes, string[24]):
  |         0132: 4f 4c 59 4d 50 55 53 20 4f 50 54 49 43 41 4c 20 [OLYMPUS OPTICAL ]
  |         0142: 43 4f 2e 2c 4c 54 44 00                         [CO.,LTD.]
  | 2)  Model = C750UZ
  |     - Tag 0x0110 (7 bytes, string[7]):
  |         014a: 43 37 35 30 55 5a 00                            [C750UZ.]
  | 3)  Orientation = 6
  |     - Tag 0x0112 (2 bytes, int16u[1]):
  |         0054: 06 00                                           [..]
  | 4)  XResolution = 72 (72/1)
  |     - Tag 0x011a (8 bytes, rational64u[1]):
  |         0152: 48 00 00 00 01 00 00 00                         [H.......]
  | 5)  YResolution = 72 (72/1)
  |     - Tag 0x011b (8 bytes, rational64u[1]):
  |         015a: 48 00 00 00 01 00 00 00                         [H.......]
  | 6)  ResolutionUnit = 2
  |     - Tag 0x0128 (2 bytes, int16u[1]):
  |         0078: 02 00                                           [..]
  | 7)  Software = GIMP 2.10.30
  |     - Tag 0x0131 (13 bytes, string[13]):
  |         0162: 47 49 4d 50 20 32 2e 31 30 2e 33 30 00          [GIMP 2.10.30.]
  | 8)  ModifyDate = 2023:04:05 09:06:56
  |     - Tag 0x0132 (20 bytes, string[20]):
  |         0170: 32 30 32 33 3a 30 34 3a 30 35 20 30 39 3a 30 36 [2023:04:05 09:06]
  |         0180: 3a 35 36 00                                     [:56.]
  | 9)  YCbCrPositioning = 2
  |     - Tag 0x0213 (2 bytes, int16u[1]):
  |         009c: 02 00                                           [..]
  | 10) ExifOffset (SubDirectory) -->
  |     - Tag 0x8769 (4 bytes, int32u[1]):
  |         00a8: 6a 02 00 00                                     [j...]
  | + [ExifIFD directory with 31 entries, Little-endian]
  | | 0)  ExposureTime = 0.03333333333 (10/300)
  | |     - Tag 0x829a (8 bytes, rational64u[1]):
  | |         0402: 0a 00 00 00 2c 01 00 00                         [....,...]
  | | 1)  FNumber = 4 (40/10)
  | |     - Tag 0x829d (8 bytes, rational64u[1]):
  | |         040a: 28 00 00 00 0a 00 00 00                         [(.......]
  | | 2)  ExposureProgram = 5
  | |     - Tag 0x8822 (2 bytes, int16u[1]):
  | |         02aa: 05 00                                           [..]
  | | 3)  ISO = 200
  | |     - Tag 0x8827 (2 bytes, int16u[1]):
  | |         02b6: c8 00                                           [..]
  | | 4)  ExifVersion = 0220
  | |     - Tag 0x9000 (4 bytes, undef[4]):
  | |         02c2: 30 32 32 30                                     [0220]
  | | 5)  DateTimeOriginal = 0000:00:00 00:00:00
  | |     - Tag 0x9003 (20 bytes, string[20]):
  | |         0412: 30 30 30 30 3a 30 30 3a 30 30 20 30 30 3a 30 30 [0000:00:00 00:00]
  | |         0422: 3a 30 30 00                                     [:00.]
  | | 6)  CreateDate = 0000:00:00 00:00:00
  | |     - Tag 0x9004 (20 bytes, string[20]):
  | |         0426: 30 30 30 30 3a 30 30 3a 30 30 20 30 30 3a 30 30 [0000:00:00 00:00]
  | |         0436: 3a 30 30 00                                     [:00.]
  | | 7)  ComponentsConfiguration = 1 2 3 0
  | |     - Tag 0x9101 (4 bytes, undef[4] read as int8u[4]):
  | |         02e6: 01 02 03 00                                     [....]
  | | 8)  CompressedBitsPerPixel = 2 (2/1)
  | |     - Tag 0x9102 (8 bytes, rational64u[1]):
  | |         043a: 02 00 00 00 01 00 00 00                         [........]
  | | 9)  ExposureCompensation = 0 (0/10)
  | |     - Tag 0x9204 (8 bytes, rational64s[1]):
  | |         0442: 00 00 00 00 0a 00 00 00                         [........]
  | | 10) MaxApertureValue = 3 (30/10)
  | |     - Tag 0x9205 (8 bytes, rational64u[1]):
  | |         044a: 1e 00 00 00 0a 00 00 00                         [........]
  | | 11) MeteringMode = 5
  | |     - Tag 0x9207 (2 bytes, int16u[1]):
  | |         0316: 05 00                                           [..]
  | | 12) LightSource = 0
  | |     - Tag 0x9208 (2 bytes, int16u[1]):
  | |         0322: 00 00                                           [..]
  | | 13) Flash = 25
  | |     - Tag 0x9209 (2 bytes, int16u[1]):
  | |         032e: 19 00                                           [..]
  | | 14) FocalLength = 6.3 (63/10)
  | |     - Tag 0x920a (8 bytes, rational64u[1]):
  | |         0452: 3f 00 00 00 0a 00 00 00                         [?.......]
  | | 15) UserComment =                                                                                                                      
  | |     - Tag 0x9286 (125 bytes, undef[125]):
  | |         045a: 00 00 00 00 00 00 00 00 20 20 20 20 20 20 20 20 [........        ]
  | |         046a: 20 20 20 20 20 20 20 20 20 20 20 20 20 20 20 20 [                ]
  | |         047a: 20 20 20 20 20 20 20 20 20 20 20 20 20 20 20 20 [                ]
  | |         048a: 20 20 20 20 20 20 20 20 20 20 20 20 20 20 20 20 [                ]
  | |         049a: 20 20 20 20 20 20 20 20 20 20 20 20 20 20 20 20 [                ]
  | |         04aa: 20 20 20 20 20 20 20 20 20 20 20 20 20 20 20 20 [                ]
  | |         04ba: 20 20 20 20 20 20 20 20 20 20 20 20 20 20 20 20 [                ]
  | |         04ca: 20 20 20 20 20 20 20 20 20 20 20 20 20          [             ]
  | | 16) FlashpixVersion = 0100
  | |     - Tag 0xa000 (4 bytes, undef[4]):
  | |         0352: 30 31 30 30                                     [0100]
  | | 17) ColorSpace = 1
  | |     - Tag 0xa001 (2 bytes, int16u[1]):
  | |         035e: 01 00                                           [..]
  | | 18) ExifImageWidth = 2288
  | |     - Tag 0xa002 (4 bytes, int32u[1]):
  | |         036a: f0 08 00 00                                     [....]
  | | 19) ExifImageHeight = 1712
  | |     - Tag 0xa003 (4 bytes, int32u[1]):
  | |         0376: b0 06 00 00                                     [....]
  | | 20) FileSource = 3
  | |     - Tag 0xa300 (1 bytes, undef[1]):
  | |         0382: 03                                              [.]
  | | 21) SceneType = 1
  | |     - Tag 0xa301 (1 bytes, undef[1]):
  | |         038e: 01                                              [.]
  | | 22) CustomRendered = 0
  | |     - Tag 0xa401 (2 bytes, int16u[1]):
  | |         039a: 00 00                                           [..]
  | | 23) ExposureMode = 0
  | |     - Tag 0xa402 (2 bytes, int16u[1]):
  | |         03a6: 00 00                                           [..]
  | | 24) WhiteBalance = 0
  | |     - Tag 0xa403 (2 bytes, int16u[1]):
  | |         03b2: 00 00                                           [..]
  | | 25) DigitalZoomRatio = 0 (0/100)
  | |     - Tag 0xa404 (8 bytes, rational64u[1]):
  | |         04d8: 00 00 00 00 64 00 00 00                         [....d...]
  | | 26) SceneCaptureType = 0
  | |     - Tag 0xa406 (2 bytes, int16u[1]):
  | |         03ca: 00 00                                           [..]
  | | 27) GainControl = 1
  | |     - Tag 0xa407 (2 bytes, int16u[1]):
  | |         03d6: 01 00                                           [..]
  | | 28) Contrast = 0
  | |     - Tag 0xa408 (2 bytes, int16u[1]):
  | |         03e2: 00 00                                           [..]
  | | 29) Saturation = 0
  | |     - Tag 0xa409 (2 bytes, int16u[1]):
  | |         03ee: 00 00                                           [..]
  | | 30) Sharpness = 0
  | |     - Tag 0xa40a (2 bytes, int16u[1]):
  | |         03fa: 00 00                                           [..]
  | 11) PrintIM (SubDirectory) -->
  |     - Tag 0xc4a5 (260 bytes, undef[260]):
  |         0184: 50 72 69 6e 74 49 4d 00 30 32 35 30 00 00 14 00 [PrintIM.0250....]
  |         0194: 01 00 14 00 14 00 02 00 01 00 00 00 03 00 88 00 [................]
  |         01a4: 00 00 07 00 00 00 00 00 08 00 00 00 00 00 09 00 [................]
  |         01b4: 00 00 00 00 0a 00 00 00 00 00 0b 00 d0 00 00 00 [................]
  |         01c4: 0c 00 00 00 00 00 0d 00 00 00 00 00 0e 00 e8 00 [................]
  |         01d4: 00 00 00 01 01 00 00 00 01 01 ff 00 00 00 02 01 [................]
  |         01e4: 83 00 00 00 03 01 83 00 00 00 04 01 83 00 00 00 [................]
  |         01f4: 05 01 83 00 00 00 06 01 83 00 00 00 07 01 80 80 [................]
  |         0204: 80 00 10 01 80 00 00 00 09 11 00 00 10 27 00 00 [.............'..]
  |         0214: 0b 0f 00 00 10 27 00 00 97 05 00 00 10 27 00 00 [.....'.......'..]
  |         0224: b0 08 00 00 10 27 00 00 01 1c 00 00 10 27 00 00 [.....'.......'..]
  |         0234: 5e 02 00 00 10 27 00 00 8b 00 00 00 10 27 00 00 [^....'.......'..]
  |         0244: cb 03 00 00 10 27 00 00 e5 1b 00 00 10 27 00 00 [.....'.......'..]
  |         0254: 00 00 00 00 00 00 00 00 00 00 00 00 00 00 00 00 [................]
  |         0264: 00 00 00 00 00 00 00 00 00 00 00 00 00 00 00 00 [................]
  |         0274: 00 00 00 00 21 00 9a 82 05 00 01 00 00 00 b8 03 [....!...........]
  |         0284: 00 00 9d 82                                     [....]
  | + [PrintIM directory with 20 entries]
  | | PrintIMVersion = 0250
  | | - Tag 'PrintIMVersion' (4 bytes):
  | |     016e: 30 32 35 30                                     [0250]
  | | 0)  PrintIM_0x0001 = 1310740
  | |     - Tag 0x0001 (4 bytes):
  | |         0178: 14 00 14 00                                     [....]
  | | 1)  PrintIM_0x0002 = 1
  | |     - Tag 0x0002 (4 bytes):
  | |         017e: 01 00 00 00                                     [....]
  | | 2)  PrintIM_0x0003 = 136
  | |     - Tag 0x0003 (4 bytes):
  | |         0184: 88 00 00 00                                     [....]
  | | 3)  PrintIM_0x0007 = 0
  | |     - Tag 0x0007 (4 bytes):
  | |         018a: 00 00 00 00                                     [....]
  | | 4)  PrintIM_0x0008 = 0
  | |     - Tag 0x0008 (4 bytes):
  | |         0190: 00 00 00 00                                     [....]
  | | 5)  PrintIM_0x0009 = 0
  | |     - Tag 0x0009 (4 bytes):
  | |         0196: 00 00 00 00                                     [....]
  | | 6)  PrintIM_0x000a = 0
  | |     - Tag 0x000a (4 bytes):
  | |         019c: 00 00 00 00                                     [....]
  | | 7)  PrintIM_0x000b = 208
  | |     - Tag 0x000b (4 bytes):
  | |         01a2: d0 00 00 00                                     [....]
  | | 8)  PrintIM_0x000c = 0
  | |     - Tag 0x000c (4 bytes):
  | |         01a8: 00 00 00 00                                     [....]
  | | 9)  PrintIM_0x000d = 0
  | |     - Tag 0x000d (4 bytes):
  | |         01ae: 00 00 00 00                                     [....]
  | | 10) PrintIM_0x000e = 232
  | |     - Tag 0x000e (4 bytes):
  | |         01b4: e8 00 00 00                                     [....]
  | | 11) PrintIM_0x0100 = 1
  | |     - Tag 0x0100 (4 bytes):
  | |         01ba: 01 00 00 00                                     [....]
  | | 12) PrintIM_0x0101 = 255
  | |     - Tag 0x0101 (4 bytes):
  | |         01c0: ff 00 00 00                                     [....]
  | | 13) PrintIM_0x0102 = 131
  | |     - Tag 0x0102 (4 bytes):
  | |         01c6: 83 00 00 00                                     [....]
  | | 14) PrintIM_0x0103 = 131
  | |     - Tag 0x0103 (4 bytes):
  | |         01cc: 83 00 00 00                                     [....]
  | | 15) PrintIM_0x0104 = 131
  | |     - Tag 0x0104 (4 bytes):
  | |         01d2: 83 00 00 00                                     [....]
  | | 16) PrintIM_0x0105 = 131
  | |     - Tag 0x0105 (4 bytes):
  | |         01d8: 83 00 00 00                                     [....]
  | | 17) PrintIM_0x0106 = 131
  | |     - Tag 0x0106 (4 bytes):
  | |         01de: 83 00 00 00                                     [....]
  | | 18) PrintIM_0x0107 = 8421504
  | |     - Tag 0x0107 (4 bytes):
  | |         01e4: 80 80 80 00                                     [....]
  | | 19) PrintIM_0x0110 = 128
  | |     - Tag 0x0110 (4 bytes):
  | |         01ea: 80 00 00 00                                     [....]
  + [IFD1 directory with 9 entries, Little-endian]
  | 0)  SubfileType = 1
  |     - Tag 0x00fe (4 bytes, int32u[1]):
  |         04ea: 01 00 00 00                                     [....]
  | 1)  ImageWidth = 256
  |     - Tag 0x0100 (4 bytes, int32u[1]):
  |         04f6: 00 01 00 00                                     [....]
  | 2)  ImageHeight = 256
  |     - Tag 0x0101 (4 bytes, int32u[1]):
  |         0502: 00 01 00 00                                     [....]
  | 3)  BitsPerSample = 8 8 8
  |     - Tag 0x0102 (6 bytes, int16u[3]):
  |         0552: 08 00 08 00 08 00                               [......]
  | 4)  Compression = 6
  |     - Tag 0x0103 (2 bytes, int16u[1]):
  |         051a: 06 00                                           [..]
  | 5)  PhotometricInterpretation = 6
  |     - Tag 0x0106 (2 bytes, int16u[1]):
  |         0526: 06 00                                           [..]
  | 6)  SamplesPerPixel = 3
  |     - Tag 0x0115 (2 bytes, int16u[1]):
  |         0532: 03 00                                           [..]
  | 7)  ThumbnailOffset = 1338
  |     - Tag 0x0201 (4 bytes, int32u[1]):
  |         053e: 3a 05 00 00                                     [:...]
  | 8)  ThumbnailLength = 5648
  |     - Tag 0x0202 (4 bytes, int32u[1]):
  |         054a: 10 16 00 00                                     [....]
JPEG DQT (65 bytes):
      1b6c: 00 03 02 02 03 02 02 03 03 03 03 04 03 03 04 05 [................]
      1b7c: 08 05 05 04 04 05 0a 07 07 06 08 0c 0a 0c 0c 0b [................]
      1b8c: 0a 0b 0b 0d 0e 12 10 0d 0e 11 0e 0b 0b 10 16 10 [................]
      1b9c: 11 13 14 15 15 15 0c 0f 17 18 16 14 18 12 14 15 [................]
      1bac: 14                                              [.]
JPEG DQT (65 bytes):
      1bb1: 01 03 04 04 05 04 05 09 05 05 09 14 0d 0b 0d 14 [................]
      1bc1: 14 14 14 14 14 14 14 14 14 14 14 14 14 14 14 14 [................]
      1bd1: 14 14 14 14 14 14 14 14 14 14 14 14 14 14 14 14 [................]
      1be1: 14 14 14 14 14 14 14 14 14 14 14 14 14 14 14 14 [................]
      1bf1: 14                                              [.]
JPEG COM (118 bytes):
      1bf6: 20 20 20 20 20 20 20 20 20 20 20 20 20 20 20 20 [                ]
      1c06: 20 20 20 20 20 20 20 20 20 20 20 20 20 20 20 20 [                ]
      1c16: 20 20 20 20 20 20 20 20 20 20 20 20 20 20 20 20 [                ]
      1c26: 20 20 20 20 20 20 20 20 20 20 20 20 20 20 20 20 [                ]
      1c36: 20 20 20 20 20 20 20 20 20 20 20 20 20 20 20 20 [                ]
      1c46: 20 20 20 20 20 20 20 20 20 20 20 20 20 20 20 20 [                ]
      1c56: 20 20 20 20 20 20 20 20 20 20 20 20 20 20 20 20 [                ]
      1c66: 20 20 20 20 20 00                               [     .]
  Comment =                                                                                                                      
JPEG SOF2 (15 bytes):
      1c70: 08 00 fa 00 fa 03 01 11 00 02 11 01 03 11 01    [...............]
  ImageWidth = 250
  ImageHeight = 250
  EncodingProcess = 2
  BitsPerSample = 8
  ColorComponents = 3
  YCbCrSubSampling = 1 1
JPEG DHT (26 bytes):
      1c83: 00 01 00 03 01 00 03 01 00 00 00 00 00 00 00 00 [................]
      1c93: 00 00 06 05 07 04 08 02 03 01                   [..........]
JPEG DHT (18 bytes):
      1ca1: 01 01 00 00 00 00 00 00 00 00 00 00 00 00 00 00 [................]
      1cb1: 00 00                                           [..]
JPEG SOS
JPEG DHT (36 bytes):
      1eb9: 10 00 03 01 00 02 01 02 05 05 00 00 00 00 00 00 [................]
      1ec9: 00 05 06 04 03 02 01 07 16 15 00 12 13 80 10 14 [................]
      1ed9: 20 30 35 40                                     [ 05@]
JPEG SOS
JPEG DHT (18 bytes):
      20cb: 11 01 00 00 00 00 00 00 00 00 00 00 00 00 00 00 [................]
      20db: 00 a0                                           [..]
JPEG SOS
JPEG DHT (18 bytes):
      20ed: 11 01 00 00 00 00 00 00 00 00 00 00 00 00 00 00 [................]
      20fd: 00 a0                                           [..]
JPEG SOS
JPEG DHT (57 bytes):
      210f: 10 00 01 03 03 02 04 04 04 03 04 0b 01 00 00 00 [................]
      211f: 00 03 01 02 04 05 11 00 12 21 13 31 14 22 41 06 [.........!.1."A.]
      212f: 61 51 32 81 15 71 a1 91 23 30 62 80 b1 d1 10 20 [aQ2..q..#0b.... ]
      213f: 24 34 40 42 52 53 73 b2 c1                      [$4@BRSs..]
JPEG SOS
JPEG DHT (40 bytes):
      2872: 10 00 02 02 02 02 01 03 02 06 03 00 00 00 00 00 [................]
      2882: 00 01 11 21 00 31 41 81 51 61 71 91 a1 d1 f0 30 [...!.1A.Qaq....0]
      2892: 80 c1 e1 10 20 40 b1 f1                         [.... @..]
JPEG SOS
JPEG SOS
JPEG DHT (18 bytes):
      2dc0: 11 01 00 00 00 00 00 00 00 00 00 00 00 00 00 00 [................]
      2dd0: 00 a0                                           [..]
JPEG SOS
JPEG DHT (18 bytes):
      2de2: 11 01 00 00 00 00 00 00 00 00 00 00 00 00 00 00 [................]
      2df2: 00 a0                                           [..]
JPEG SOS
JPEG DHT (32 bytes):
      2e04: 10 01 01 01 00 03 00 02 02 02 03 00 00 00 00 00 [................]
      2e14: 00 01 11 21 00 31 41 51 61 71 81 30 80 10 20 40 [...!.1AQaq.0.. @]
JPEG SOS
JPEG EOI
