  ExifToolVersion = 13.59
  FileName = media_62.nef
  Directory = C:/Users/micro/IdeaProjects/kim/src/commonTest/resources/de/stefan_oltmann/kim/testdata/full
  FileSize = 17180885
  FileModifyDate = 1776264330.11884
  FileAccessDate = 1786601583.82023
  FileCreateDate = 1776264330.07933
  FilePermissions = 33206
  FileType = NEF
  FileTypeExtension = NEF
  MIMEType = image/x-nikon-nef
  ExifByteOrder = MM
  + [IFD0 directory with 25 entries, Big-endian]
  | 0)  SubfileType = 1
  |     - Tag 0x00fe (4 bytes, int32u[1]):
  |         0012: 00 00 00 01                                     [....]
  | 1)  ImageWidth = 160
  |     - Tag 0x0100 (4 bytes, int32u[1]):
  |         001e: 00 00 00 a0                                     [....]
  | 2)  ImageHeight = 120
  |     - Tag 0x0101 (4 bytes, int32u[1]):
  |         002a: 00 00 00 78                                     [...x]
  | 3)  BitsPerSample = 8 8 8
  |     - Tag 0x0102 (6 bytes, int16u[3]):
  |         013c: 00 08 00 08 00 08                               [......]
  | 4)  Compression = 1
  |     - Tag 0x0103 (2 bytes, int16u[1]):
  |         0042: 00 01                                           [..]
  | 5)  PhotometricInterpretation = 2
  |     - Tag 0x0106 (2 bytes, int16u[1]):
  |         004e: 00 02                                           [..]
  | 6)  Make = NIKON CORPORATION
  |     - Tag 0x010f (18 bytes, string[18]):
  |         0144: 4e 49 4b 4f 4e 20 43 4f 52 50 4f 52 41 54 49 4f [NIKON CORPORATIO]
  |         0154: 4e 00                                           [N.]
  | 7)  Model = NIKON D5100
  |     - Tag 0x0110 (12 bytes, string[12]):
  |         0158: 4e 49 4b 4f 4e 20 44 35 31 30 30 00             [NIKON D5100.]
  | 8)  StripOffsets = 124144
  |     - Tag 0x0111 (4 bytes, int32u[1]):
  |         0072: 00 01 e4 f0                                     [....]
  | 9)  Orientation = 1
  |     - Tag 0x0112 (2 bytes, int16u[1]):
  |         007e: 00 01                                           [..]
  | 10) SamplesPerPixel = 3
  |     - Tag 0x0115 (2 bytes, int16u[1]):
  |         008a: 00 03                                           [..]
  | 11) RowsPerStrip = 120
  |     - Tag 0x0116 (4 bytes, int32u[1]):
  |         0096: 00 00 00 78                                     [...x]
  | 12) StripByteCounts = 57600
  |     - Tag 0x0117 (4 bytes, int32u[1]):
  |         00a2: 00 00 e1 00                                     [....]
  | 13) XResolution = 300 (300/1)
  |     - Tag 0x011a (8 bytes, rational64u[1]):
  |         0164: 00 00 01 2c 00 00 00 01                         [...,....]
  | 14) YResolution = 300 (300/1)
  |     - Tag 0x011b (8 bytes, rational64u[1]):
  |         016c: 00 00 01 2c 00 00 00 01                         [...,....]
  | 15) PlanarConfiguration = 1
  |     - Tag 0x011c (2 bytes, int16u[1]):
  |         00c6: 00 01                                           [..]
  | 16) ResolutionUnit = 2
  |     - Tag 0x0128 (2 bytes, int16u[1]):
  |         00d2: 00 02                                           [..]
  | 17) Software = Ver.1.01 
  |     - Tag 0x0131 (10 bytes, string[10]):
  |         0174: 56 65 72 2e 31 2e 30 31 20 00                   [Ver.1.01 .]
  | 18) ModifyDate = 2014:08:12 09:30:58
  |     - Tag 0x0132 (20 bytes, string[20]):
  |         0180: 32 30 31 34 3a 30 38 3a 31 32 20 30 39 3a 33 30 [2014:08:12 09:30]
  |         0190: 3a 35 38 00                                     [:58.]
  | 19) SubIFD (SubDirectory) -->
  |     - Tag 0x014a (8 bytes, int32u[2]):
  |         0194: 00 02 c5 f0 00 02 c6 68                         [.......h]
  | + [SubIFD directory with 8 entries, Big-endian]
  | | 0)  SubfileType = 1
  | |     - Tag 0x00fe (4 bytes, int32u[1]):
  | |        2c5fa: 00 00 00 01                                     [....]
  | | 1)  Compression = 6
  | |     - Tag 0x0103 (2 bytes, int16u[1]):
  | |        2c606: 00 06                                           [..]
  | | 2)  XResolution = 300 (300/1)
  | |     - Tag 0x011a (8 bytes, rational64u[1]):
  | |        2c658: 00 00 01 2c 00 00 00 01                         [...,....]
  | | 3)  YResolution = 300 (300/1)
  | |     - Tag 0x011b (8 bytes, rational64u[1]):
  | |        2c660: 00 00 01 2c 00 00 00 01                         [...,....]
  | | 4)  ResolutionUnit = 2
  | |     - Tag 0x0128 (2 bytes, int16u[1]):
  | |        2c62a: 00 02                                           [..]
  | | 5)  JpgFromRawStart = 182144
  | |     - Tag 0x0201 (4 bytes, int32u[1]):
  | |        2c636: 00 02 c7 80                                     [....]
  | | 6)  JpgFromRawLength = 1470727
  | |     - Tag 0x0202 (4 bytes, int32u[1]):
  | |        2c642: 00 16 71 07                                     [..q.]
  | | 7)  YCbCrPositioning = 2
  | |     - Tag 0x0213 (2 bytes, int16u[1]):
  | |        2c64e: 00 02                                           [..]
  | + [SubIFD1 directory with 17 entries, Big-endian]
  | | 0)  SubfileType = 0
  | |     - Tag 0x00fe (4 bytes, int32u[1]):
  | |        2c672: 00 00 00 00                                     [....]
  | | 1)  ImageWidth = 4992
  | |     - Tag 0x0100 (4 bytes, int32u[1]):
  | |        2c67e: 00 00 13 80                                     [....]
  | | 2)  ImageHeight = 3280
  | |     - Tag 0x0101 (4 bytes, int32u[1]):
  | |        2c68a: 00 00 0c d0                                     [....]
  | | 3)  BitsPerSample = 14
  | |     - Tag 0x0102 (2 bytes, int16u[1]):
  | |        2c696: 00 0e                                           [..]
  | | 4)  Compression = 34713
  | |     - Tag 0x0103 (2 bytes, int16u[1]):
  | |        2c6a2: 87 99                                           [..]
  | | 5)  PhotometricInterpretation = 32803
  | |     - Tag 0x0106 (2 bytes, int16u[1]):
  | |        2c6ae: 80 23                                           [.#]
  | | 6)  StripOffsets = 1652896
  | |     - Tag 0x0111 (4 bytes, int32u[1]):
  | |        2c6ba: 00 19 38 a0                                     [..8.]
  | | 7)  SamplesPerPixel = 1
  | |     - Tag 0x0115 (2 bytes, int16u[1]):
  | |        2c6c6: 00 01                                           [..]
  | | 8)  RowsPerStrip = 3280
  | |     - Tag 0x0116 (4 bytes, int32u[1]):
  | |        2c6d2: 00 00 0c d0                                     [....]
  | | 9)  StripByteCounts = 15527989
  | |     - Tag 0x0117 (4 bytes, int32u[1]):
  | |        2c6de: 00 ec f0 35                                     [...5]
  | | 10) XResolution = 300 (300/1)
  | |     - Tag 0x011a (8 bytes, rational64u[1]):
  | |        2c73c: 00 00 01 2c 00 00 00 01                         [...,....]
  | | 11) YResolution = 300 (300/1)
  | |     - Tag 0x011b (8 bytes, rational64u[1]):
  | |        2c744: 00 00 01 2c 00 00 00 01                         [...,....]
  | | 12) PlanarConfiguration = 1
  | |     - Tag 0x011c (2 bytes, int16u[1]):
  | |        2c702: 00 01                                           [..]
  | | 13) ResolutionUnit = 2
  | |     - Tag 0x0128 (2 bytes, int16u[1]):
  | |        2c70e: 00 02                                           [..]
  | | 14) CFARepeatPatternDim = 2 2
  | |     - Tag 0x828d (4 bytes, int16u[2]):
  | |        2c71a: 00 02 00 02                                     [....]
  | | 15) CFAPattern2 = 0 1 1 2
  | |     - Tag 0x828e (4 bytes, int8u[4]):
  | |        2c726: 00 01 01 02                                     [....]
  | | 16) SensingMethod = 2
  | |     - Tag 0x9217 (2 bytes, int16u[1]):
  | |        2c732: 00 02                                           [..]
  | 20) ReferenceBlackWhite = 0 255 0 255 0 255 (0/1 255/1 0/1 255/1 0/1 255/1)
  |     - Tag 0x0214 (48 bytes, rational64u[6]):
  |         019c: 00 00 00 00 00 00 00 01 00 00 00 ff 00 00 00 01 [................]
  |         01ac: 00 00 00 00 00 00 00 01 00 00 00 ff 00 00 00 01 [................]
  |         01bc: 00 00 00 00 00 00 00 01 00 00 00 ff 00 00 00 01 [................]
  | 21) ExifOffset (SubDirectory) -->
  |     - Tag 0x8769 (4 bytes, int32u[1]):
  |         010e: 00 00 01 e0                                     [....]
  | + [ExifIFD directory with 33 entries, Big-endian]
  | | 0)  ExposureTime = 0.00625 (10/1600)
  | |     - Tag 0x829a (8 bytes, rational64u[1]):
  | |         0374: 00 00 00 0a 00 00 06 40                         [.......@]
  | | 1)  FNumber = 6.3 (63/10)
  | |     - Tag 0x829d (8 bytes, rational64u[1]):
  | |         037c: 00 00 00 3f 00 00 00 0a                         [...?....]
  | | 2)  ExposureProgram = 0
  | |     - Tag 0x8822 (2 bytes, int16u[1]):
  | |         0202: 00 00                                           [..]
  | | 3)  ISO = 200
  | |     - Tag 0x8827 (2 bytes, int16u[1]):
  | |         020e: 00 c8                                           [..]
  | | 4)  SensitivityType = 2
  | |     - Tag 0x8830 (2 bytes, int16u[1]):
  | |         021a: 00 02                                           [..]
  | | 5)  DateTimeOriginal = 2014:08:12 09:30:58
  | |     - Tag 0x9003 (20 bytes, string[20]):
  | |         0384: 32 30 31 34 3a 30 38 3a 31 32 20 30 39 3a 33 30 [2014:08:12 09:30]
  | |         0394: 3a 35 38 00                                     [:58.]
  | | 6)  CreateDate = 2014:08:12 09:30:58
  | |     - Tag 0x9004 (20 bytes, string[20]):
  | |         0398: 32 30 31 34 3a 30 38 3a 31 32 20 30 39 3a 33 30 [2014:08:12 09:30]
  | |         03a8: 3a 35 38 00                                     [:58.]
  | | 7)  ExposureCompensation = 0 (0/6)
  | |     - Tag 0x9204 (8 bytes, rational64s[1]):
  | |         03ac: 00 00 00 00 00 00 00 06                         [........]
  | | 8)  MaxApertureValue = 4.4 (44/10)
  | |     - Tag 0x9205 (8 bytes, rational64u[1]):
  | |         03b4: 00 00 00 2c 00 00 00 0a                         [...,....]
  | | 9)  MeteringMode = 5
  | |     - Tag 0x9207 (2 bytes, int16u[1]):
  | |         0256: 00 05                                           [..]
  | | 10) LightSource = 0
  | |     - Tag 0x9208 (2 bytes, int16u[1]):
  | |         0262: 00 00                                           [..]
  | | 11) Flash = 16
  | |     - Tag 0x9209 (2 bytes, int16u[1]):
  | |         026e: 00 10                                           [..]
  | | 12) FocalLength = 30 (300/10)
  | |     - Tag 0x920a (8 bytes, rational64u[1]):
  | |         03bc: 00 00 01 2c 00 00 00 0a                         [...,....]
  | | 13) MakerNoteNikon (SubDirectory) -->
  | |     - Tag 0x927c (123100 bytes, undef[123100]):
  | |         0400: 4e 69 6b 6f 6e 00 02 10 00 00 4d 4d 00 2a 00 00 [Nikon.....MM.*..]
  | |         0410: 00 08 00 3a 00 01 00 07 00 00 00 04 30 32 31 30 [...:........0210]
  | |         0420: 00 02 00 03 00 00 00 02 00 00 00 c8 00 04 00 02 [................]
  | |         0430: 00 00 00 08 00 00 02 c6 00 05 00 02 00 00 00 0d [................]
  | |         0440: 00 00 02 ce 00 07 00 02 00 00 00 07 00 00 02 de [................]
  | |         0450: 00 08 00 02 00 00 00 0d 00 00 02 e6 00 09 00 02 [................]
  | |         0460: 00 00 00 14 00 00 02 f6 00 0b 00 08 00 00 00 02 [................]
  | |         0470: 00 00 00 00 00 0c 00 05 00 00 00 04 00 00 03 0a [................]
  | |         0480: 00 0d 00 07 00 00 00 04 00 01 06 00 00 0e 00 07 [................]
  | |         0490: 00 00 00 04 00 01 0c 00 00 11 00 04 00 00 00 01 [................]
  | |         04a0: 00 00 3e fe 00 12 00 07 00 00 00 04 00 01 06 00 [..>.............]
  | |         04b0: 00 13 00 03 00 00 00 02 00 00 00 c8 00 17 00 07 [................]
  | |         04c0: 00 00 00 04 00 01 06 00 00 18 00 07 00 00 00 04 [................]
  | |         04d0: 00 01 06 00 00 19 00 0a 00 00 00 01 00 00 03 2a [...............*]
  | |         04e0: 00 1b 00 03 00 00 00 07 00 00 03 32 00 1c 00 07 [...........2....]
  | |         04f0: 00 00 00 03 00 01 06 00 00 1d 00 02 00 00 00 08 [................]
  | |         0500: 00 00 03 42 00 1e 00 03 00 00 00 01 00 01 00 00 [...B............]
  | |         0510: 00 1f 00 07 00 00 00 08 00 00 03 4a 00 22 00 03 [...........J."..]
  | |         0520: 00 00 00 01 ff ff 00 00 00 23 00 07 00 00 00 3a [.........#.....:]
  | |         0530: 00 00 03 52 00 24 00 07 00 00 00 04 00 78 01 02 [...R.$.......x..]
  | |         0540: 00 25 00 07 00 00 00 0e 00 00 03 8e 00 2b 00 07 [.%...........+..]
  | |         0550: 00 00 00 10 00 00 03 9e 00 2c 00 07 00 00 02 3e [.........,.....>]
  | |         0560: 00 00 03 ae 00 2d 00 03 00 00 00 03 00 00 05 ee [.....-..........]
  | |         0570: 00 32 00 07 00 00 00 08 00 00 05 f6 00 83 00 01 [.2..............]
  | |         0580: 00 00 00 01 0e 00 00 00 00 84 00 05 00 00 00 04 [................]
  | |         0590: 00 00 05 fe 00 87 00 01 00 00 00 01 00 00 00 00 [................]
  | |         05a0: 00 89 00 03 00 00 00 01 00 00 00 00 00 8a 00 03 [................]
  | |         05b0: 00 00 00 01 00 01 00 00 00 8b 00 07 00 00 00 04 [................]
  | |         05c0: 40 01 0c 00 00 8c 00 07 00 00 02 42 00 00 06 1e [@..........B....]
  | |         05d0: 00 91 00 07 00 00 22 c6 00 00 08 62 00 93 00 03 [......"....b....]
  | |         05e0: 00 00 00 01 00 04 00 00 00 95 00 02 00 00 00 05 [................]
  | |         05f0: 00 00 2b 2a 00 96 00 07 00 00 02 70 00 00 2b 32 [..+*.......p..+2]
  | |         0600: 00 97 00 07 00 00 02 60 00 00 2d a2 00 98 00 07 [.......`..-.....]
  | |         0610: 00 00 00 21 00 00 30 02 00 99 00 03 00 00 00 02 [...!..0.........]
  | |         0620: 09 c0 06 68 00 9d 00 03 00 00 00 01 00 00 00 00 [...h............]
  | |         0630: 00 9e 00 03 00 00 00 0a 00 00 30 26 00 a3 00 01 [..........0&....]
  | |         0640: 00 00 00 01 00 00 00 00 00 a4 00 07 00 00 00 04 [................]
  | |         0650: 30 32 30 30 00 a7 00 04 00 00 00 01 00 00 00 fa [0200............]
  | |         0660: 00 a8 00 07 00 00 00 2e 00 00 30 3a 00 ab 00 02 [..........0:....]
  | |         0670: 00 00 00 10 00 00 30 6a 00 b0 00 07 00 00 00 10 [......0j........]
  | |         0680: 00 00 30 7a 00 b1 00 03 00 00 00 01 00 04 00 00 [..0z............]
  | |         0690: 00 b6 00 07 00 00 00 08 00 00 30 8a 00 b7 00 07 [..........0.....]
  | |         06a0: 00 00 00 1e 00 00 30 92 00 b8 00 07 00 00 00 ac [......0.........]
  | |         06b0: 00 00 30 b2 00 bb 00 07 00 00 00 08 00 00 31 5e [..0...........1^]
  | |         06c0: 00 bc 00 07 00 00 0d 98 00 00 31 66 00 00 00 00 [..........1f....]
  | |         06d0: 52 41 57 20 20 20 20 00 41 55 54 4f 20 20 20 20 [RAW    .AUTO    ]
  | |         06e0: 20 20 20 20 00 00 00 00 41 46 2d 41 20 20 00 00 [    ....AF-A  ..]
  | |         06f0: 20 20 20 20 20 20 20 20 20 20 20 20 00 00 00 00 [            ....]
  | |         0700: 20 20 20 20 20 20 20 20 20 20 20 20 20 20 20 20 [                ]
  | |         0710: 20 20 20 00 00 00 02 1d 00 00 01 00 00 00 01 54 [   ............T]
  | |         0720: 00 00 01 00 00 00 01 00 00 00 01 00 00 00 01 00 [................]
  | |         0730: 00 00 01 00 00 00 00 00 00 00 00 06 00 00 13 80 [................]
  | |         0740: 0c d0 13 80 0c d0 00 00 00 00 00 00 37 32 35 38 [............7258]
  | |         0750: 32 32 38 00 30 31 30 30 02 02 00 00 30 31 30 30 [228.0100....0100]
  | |         0760: 53 54 41 4e 44 41 52 44 00 00 00 00 00 00 00 00 [STANDARD........]
  | |         0770: 00 00 00 00 53 54 41 4e 44 41 52 44 00 00 00 00 [....STANDARD....]
  | |         0780: 00 00 00 00 00 00 00 00 00 01 00 00 00 ff 00 80 [................]
  | |         0790: 80 00 80 ff ff ff 00 00 48 01 0c 00 00 00 48 01 [........H.....H.]
  | |         07a0: 0c 00 00 00 00 02 00 00 30 31 30 30 01 04 01 09 [........0100....]
  | |         07b0: 00 00 00 00 00 00 00 00 30 31 30 31 23 00 01 81 [........0101#...]
  | |         07c0: 00 ff 00 00 00 00 00 00 00 00 00 00 00 00 00 00 [................]
  | |         07d0: 00 00 00 00 00 00 00 00 00 00 00 00 00 00 00 00 [................]
  | |         07e0: 00 00 00 00 00 00 00 00 00 00 00 00 00 00 00 00 [................]
  | |         07f0: 00 00 00 00 00 00 00 00 00 00 00 00 00 00 00 00 [................]
  | |         0800: 00 00 00 00 00 00 00 00 00 00 00 00 00 00 00 00 [................]
  | |         0810: 00 00 00 00 00 00 00 00 00 00 00 00 00 00 00 00 [................]
  | |         0820: 00 00 00 00 00 00 00 00 00 00 00 00 00 00 00 00 [................]
  | |         0830: 00 00 00 00 00 00 00 00 00 00 00 00 00 00 00 00 [................]
  | |         0840: 00 00 00 00 00 00 00 00 00 00 00 00 00 00 00 00 [................]
  | |         0850: 00 00 00 00 00 00 00 00 00 00 00 00 00 00 00 00 [................]
  | |         0860: 00 00 00 00 00 00 00 00 00 00 00 00 00 00 00 00 [................]
  | |         0870: 00 00 00 00 00 00 00 00 00 00 00 00 00 00 00 00 [................]
  | |         0880: 00 00 00 00 00 00 00 00 00 00 00 00 00 00 00 00 [................]
  | |         0890: 00 00 00 00 00 00 00 00 00 00 00 00 00 00 00 00 [................]
  | |         08a0: 00 00 00 00 00 00 00 00 00 00 00 00 00 00 00 00 [................]
  | |         08b0: 00 00 00 00 00 00 00 00 00 00 00 00 00 00 00 00 [................]
  | |         08c0: 00 00 00 00 00 00 00 00 00 00 00 00 00 00 00 00 [................]
  | |         08d0: 00 00 00 00 00 00 00 00 00 00 00 00 00 00 00 00 [................]
  | |         08e0: 00 00 00 00 00 00 00 00 00 00 00 00 00 00 00 00 [................]
  | |         08f0: 00 00 00 00 00 00 00 00 00 00 00 00 00 00 00 00 [................]
  | |         0900: 00 00 00 00 00 00 00 00 00 00 00 00 00 00 00 00 [................]
  | |         0910: 00 00 00 00 00 00 00 00 00 00 00 00 00 00 00 00 [................]
  | |         0920: 00 00 00 00 00 00 00 00 00 00 00 00 00 00 00 00 [................]
  | |         0930: 00 00 00 00 00 00 00 00 00 00 00 00 00 00 00 00 [................]
  | |         0940: 00 00 00 00 00 00 00 00 00 00 00 00 00 00 00 00 [................]
  | |         0950: 00 00 00 00 00 00 00 00 00 00 00 00 00 00 00 00 [................]
  | |         0960: 00 00 00 00 00 00 00 00 00 00 00 00 00 00 00 00 [................]
  | |         0970: 00 00 00 00 00 00 00 00 00 00 00 00 00 00 00 00 [................]
  | |         0980: 00 00 00 00 00 00 00 00 00 00 00 00 00 00 00 00 [................]
  | |         0990: 00 00 00 00 00 00 00 00 00 00 00 00 00 00 00 00 [................]
  | |         09a0: 00 00 00 00 00 00 00 00 00 00 00 00 00 00 00 00 [................]
  | |         09b0: 00 00 00 00 00 00 00 00 00 00 00 00 00 00 00 00 [................]
  | |         09c0: 00 00 00 00 00 00 00 00 00 00 00 00 00 00 00 00 [................]
  | |         09d0: 00 00 00 00 00 00 00 00 00 00 00 00 00 00 00 00 [................]
  | |         09e0: 00 00 00 00 00 00 00 00 00 00 00 00 00 00 00 00 [................]
  | |         09f0: 00 00 00 00 00 00 00 00 02 00 00 00 00 00 00 00 [................]
  | |         0a00: 30 31 30 30 00 00 00 01 00 00 00 b4 00 00 00 0a [0100............]
  | |         0a10: 00 00 02 26 00 00 00 0a 00 00 00 23 00 00 00 0a [...&.......#....]
  | |         0a20: 00 00 00 38 00 00 00 0a 49 30 00 00 00 00 00 00 [...8....I0......]
  | |         0a30: 00 00 00 00 00 00 00 00 00 00 00 00 00 00 00 00 [................]
  | |         0a40: 00 00 00 00 00 00 00 00 00 00 00 00 00 00 00 00 [................]
  | |         0a50: 00 00 00 00 00 00 00 00 00 00 00 00 00 00 00 00 [................]
  | |         0a60: 00 00 00 00 00 00 00 00 00 00 00 00 00 00 00 00 [................]
  | |         0a70: 00 00 00 00 00 00 00 00 00 00 00 00 00 00 00 00 [................]
  | |         0a80: 00 00 00 00 00 00 00 00 00 00 00 00 00 00 00 00 [................]
  | |         0a90: 00 00 00 00 00 00 00 00 00 00 00 00 00 00 00 00 [................]
  | |         0aa0: 00 00 00 00 00 00 00 00 00 00 00 00 00 00 00 00 [................]
  | |         0ab0: 00 00 00 00 00 00 00 00 00 00 00 00 00 00 00 00 [................]
  | |         0ac0: 00 00 00 00 00 00 00 00 00 00 00 00 00 00 00 00 [................]
  | |         0ad0: 00 00 00 00 00 00 00 00 00 00 00 00 00 00 00 00 [................]
  | |         0ae0: 00 00 00 00 00 00 00 00 00 00 00 00 00 00 00 00 [................]
  | |         0af0: 00 00 00 00 00 00 00 00 00 00 00 00 00 00 00 00 [................]
  | |         0b00: 00 00 00 00 00 00 00 00 00 00 00 00 00 00 00 00 [................]
  | |         0b10: 00 00 00 00 00 00 00 00 00 00 00 00 00 00 00 00 [................]
  | |         0b20: 00 00 00 00 00 00 00 00 00 00 00 00 00 00 00 00 [................]
  | |         0b30: 00 00 00 00 00 00 00 00 00 00 00 00 00 00 00 00 [................]
  | |         0b40: 00 00 00 00 00 00 00 00 00 00 00 00 00 00 00 00 [................]
  | |         0b50: 00 00 00 00 00 00 00 00 00 00 00 00 00 00 00 00 [................]
  | |         0b60: 00 00 00 00 00 00 00 00 00 00 00 00 00 00 00 00 [................]
  | |         0b70: 00 00 00 00 00 00 00 00 00 00 00 00 00 00 00 00 [................]
  | |         0b80: 00 00 00 00 00 00 00 00 00 00 00 00 00 00 00 00 [................]
  | |         0b90: 00 00 00 00 00 00 00 00 00 00 00 00 00 00 00 00 [................]
  | |         0ba0: 00 00 00 00 00 00 00 00 00 00 00 00 00 00 00 00 [................]
  | |         0bb0: 00 00 00 00 00 00 00 00 00 00 00 00 00 00 00 00 [................]
  | |         0bc0: 00 00 00 00 00 00 00 00 00 00 00 00 00 00 00 00 [................]
  | |         0bd0: 00 00 00 00 00 00 00 00 00 00 00 00 00 00 00 00 [................]
  | |         0be0: 00 00 00 00 00 00 00 00 00 00 00 00 00 00 00 00 [................]
  | |         [snip 121068 bytes]
  | | + [MakerNotes directory with 58 entries, Big-endian]
  | | | 0)  MakerNoteVersion = 0210
  | | |     - Tag 0x0001 (4 bytes, undef[4]):
  | | |         041c: 30 32 31 30                                     [0210]
  | | | 1)  ISO = 0 200
  | | |     - Tag 0x0002 (4 bytes, int16u[2]):
  | | |         0428: 00 00 00 c8                                     [....]
  | | | 2)  Quality = RAW    
  | | |     - Tag 0x0004 (8 bytes, string[8]):
  | | |         06d0: 52 41 57 20 20 20 20 00                         [RAW    .]
  | | | 3)  WhiteBalance = AUTO        
  | | |     - Tag 0x0005 (13 bytes, string[13]):
  | | |         06d8: 41 55 54 4f 20 20 20 20 20 20 20 20 00          [AUTO        .]
  | | | 4)  FocusMode = AF-A  
  | | |     - Tag 0x0007 (7 bytes, string[7]):
  | | |         06e8: 41 46 2d 41 20 20 00                            [AF-A  .]
  | | | 5)  FlashSetting =             
  | | |     - Tag 0x0008 (13 bytes, string[13]):
  | | |         06f0: 20 20 20 20 20 20 20 20 20 20 20 20 00          [            .]
  | | | 6)  FlashType =                    
  | | |     - Tag 0x0009 (20 bytes, string[20]):
  | | |         0700: 20 20 20 20 20 20 20 20 20 20 20 20 20 20 20 20 [                ]
  | | |         0710: 20 20 20 00                                     [   .]
  | | | 7)  WhiteBalanceFineTune = 0 0
  | | |     - Tag 0x000b (4 bytes, int16s[2]):
  | | |         0470: 00 00 00 00                                     [....]
  | | | 8)  WB_RBLevels = 2.11328125 1.328125 1 1 (541/256 340/256 256/256 256/256)
  | | |     - Tag 0x000c (32 bytes, rational64u[4]):
  | | |         0714: 00 00 02 1d 00 00 01 00 00 00 01 54 00 00 01 00 [...........T....]
  | | |         0724: 00 00 01 00 00 00 01 00 00 00 01 00 00 00 01 00 [................]
  | | | 9)  ProgramShift = ..
  | | |     - Tag 0x000d (4 bytes, undef[4]):
  | | |         0488: 00 01 06 00                                     [....]
  | | | 10) ExposureDifference = ..
  | | |     - Tag 0x000e (4 bytes, undef[4]):
  | | |         0494: 00 01 0c 00                                     [....]
  | | | 11) PreviewIFD (SubDirectory) -->
  | | |     - Tag 0x0011 (4 bytes, int32u[1]):
  | | |         04a0: 00 00 3e fe                                     [..>.]
  | | | + [PreviewIFD directory with 7 entries, Big-endian]
  | | | | 0)  Compression = 6
  | | | |     - Tag 0x0103 (2 bytes, int16u[1]):
  | | | |         4312: 00 06                                           [..]
  | | | | 1)  XResolution = 300 (300/1)
  | | | |     - Tag 0x011a (8 bytes, rational64u[1]):
  | | | |         4364: 00 00 01 2c 00 00 00 01                         [...,....]
  | | | | 2)  YResolution = 300 (300/1)
  | | | |     - Tag 0x011b (8 bytes, rational64u[1]):
  | | | |         436c: 00 00 01 2c 00 00 00 01                         [...,....]
  | | | | 3)  ResolutionUnit = 2
  | | | |     - Tag 0x0128 (2 bytes, int16u[1]):
  | | | |         4336: 00 02                                           [..]
  | | | | 4)  PreviewImageStart = 16234
  | | | |     - Tag 0x0201 (4 bytes, int32u[1]):
  | | | |         4342: 00 00 3f 6a                                     [..?j]
  | | | | 5)  PreviewImageLength = 106855
  | | | |     - Tag 0x0202 (4 bytes, int32u[1]):
  | | | |         434e: 00 01 a1 67                                     [...g]
  | | | | 6)  YCbCrPositioning = 2
  | | | |     - Tag 0x0213 (2 bytes, int16u[1]):
  | | | |         435a: 00 02                                           [..]
  | | | 12) FlashExposureComp = ..
  | | |     - Tag 0x0012 (4 bytes, undef[4]):
  | | |         04ac: 00 01 06 00                                     [....]
  | | | 13) ISOSetting = 0 200
  | | |     - Tag 0x0013 (4 bytes, int16u[2]):
  | | |         04b8: 00 00 00 c8                                     [....]
  | | | 14) ExternalFlashExposureComp = ..
  | | |     - Tag 0x0017 (4 bytes, undef[4]):
  | | |         04c4: 00 01 06 00                                     [....]
  | | | 15) FlashExposureBracketValue = ..
  | | |     - Tag 0x0018 (4 bytes, undef[4]):
  | | |         04d0: 00 01 06 00                                     [....]
  | | | 16) ExposureBracketValue = 0 (0/6)
  | | |     - Tag 0x0019 (8 bytes, rational64s[1]):
  | | |         0734: 00 00 00 00 00 00 00 06                         [........]
  | | | 17) CropHiSpeed = 0 4992 3280 4992 3280 0 0
  | | |     - Tag 0x001b (14 bytes, int16u[7]):
  | | |         073c: 00 00 13 80 0c d0 13 80 0c d0 00 00 00 00       [..............]
  | | | 18) ExposureTuning = ..
  | | |     - Tag 0x001c (3 bytes, undef[3]):
  | | |         04f4: 00 01 06                                        [...]
  | | | 19) SerialNumber = 7258228
  | | |     - Tag 0x001d (8 bytes, string[8]):
  | | |         074c: 37 32 35 38 32 32 38 00                         [7258228.]
  | | | 20) ColorSpace = 1
  | | |     - Tag 0x001e (2 bytes, int16u[1]):
  | | |         050c: 00 01                                           [..]
  | | | 21) VRInfo (SubDirectory) -->
  | | |     - Tag 0x001f (8 bytes, undef[8]):
  | | |         0754: 30 31 30 30 02 02 00 00                         [0100....]
  | | | + [BinaryData directory, 8 bytes, Big-endian]
  | | | | VRInfoVersion = 0100
  | | | | - Tag 0x0000 (4 bytes, undef[4]):
  | | | |     0754: 30 31 30 30                                     [0100]
  | | | | VibrationReduction = 2
  | | | | - Tag 0x0004 (1 bytes, int8u[1]):
  | | | |     0758: 02                                              [.]
  | | | | VRMode = 0
  | | | | - Tag 0x0006 (1 bytes, int8u[1]):
  | | | |     075a: 00                                              [.]
  | | | 22) ActiveD-Lighting = 65535
  | | |     - Tag 0x0022 (2 bytes, int16u[1]):
  | | |         0524: ff ff                                           [..]
  | | | 23) PictureControlData (SubDirectory) -->
  | | |     - Tag 0x0023 (58 bytes, undef[58]):
  | | |         075c: 30 31 30 30 53 54 41 4e 44 41 52 44 00 00 00 00 [0100STANDARD....]
  | | |         076c: 00 00 00 00 00 00 00 00 53 54 41 4e 44 41 52 44 [........STANDARD]
  | | |         077c: 00 00 00 00 00 00 00 00 00 00 00 00 00 01 00 00 [................]
  | | |         078c: 00 ff 00 80 80 00 80 ff ff ff                   [..........]
  | | | + [BinaryData directory, 58 bytes, Big-endian]
  | | | | PictureControlVersion = 0100
  | | | | - Tag 0x0000 (4 bytes, undef[4]):
  | | | |     075c: 30 31 30 30                                     [0100]
  | | | | PictureControlName = STANDARD
  | | | | - Tag 0x0004 (20 bytes, string[20]):
  | | | |     0760: 53 54 41 4e 44 41 52 44 00 00 00 00 00 00 00 00 [STANDARD........]
  | | | |     0770: 00 00 00 00                                     [....]
  | | | | PictureControlBase = STANDARD
  | | | | - Tag 0x0018 (20 bytes, string[20]):
  | | | |     0774: 53 54 41 4e 44 41 52 44 00 00 00 00 00 00 00 00 [STANDARD........]
  | | | |     0784: 00 00 00 00                                     [....]
  | | | | PictureControlAdjust = 0
  | | | | - Tag 0x0030 (1 bytes, int8u[1]):
  | | | |     078c: 00                                              [.]
  | | | | PictureControlQuickAdjust = 255
  | | | | - Tag 0x0031 (1 bytes, int8u[1]):
  | | | |     078d: ff                                              [.]
  | | | | Sharpness = 0
  | | | | - Tag 0x0032 (1 bytes, int8u[1]):
  | | | |     078e: 00                                              [.]
  | | | | Contrast = 128
  | | | | - Tag 0x0033 (1 bytes, int8u[1]):
  | | | |     078f: 80                                              [.]
  | | | | Brightness = 128
  | | | | - Tag 0x0034 (1 bytes, int8u[1]):
  | | | |     0790: 80                                              [.]
  | | | | Saturation = 0
  | | | | - Tag 0x0035 (1 bytes, int8u[1]):
  | | | |     0791: 00                                              [.]
  | | | | HueAdjustment = 128
  | | | | - Tag 0x0036 (1 bytes, int8u[1]):
  | | | |     0792: 80                                              [.]
  | | | | FilterEffect = 255
  | | | | - Tag 0x0037 (1 bytes, int8u[1]):
  | | | |     0793: ff                                              [.]
  | | | | ToningEffect = 255
  | | | | - Tag 0x0038 (1 bytes, int8u[1]):
  | | | |     0794: ff                                              [.]
  | | | | ToningSaturation = 255
  | | | | - Tag 0x0039 (1 bytes, int8u[1]):
  | | | |     0795: ff                                              [.]
  | | | 24) WorldTime (SubDirectory) -->
  | | |     - Tag 0x0024 (4 bytes, undef[4]):
  | | |         053c: 00 78 01 02                                     [.x..]
  | | | + [BinaryData directory, 4 bytes, Big-endian]
  | | | | TimeZone = 120
  | | | | - Tag 0x0000 (2 bytes, int16s[1]):
  | | | |     053c: 00 78                                           [.x]
  | | | | DaylightSavings = 1
  | | | | - Tag 0x0002 (1 bytes, int8u[1]):
  | | | |     053e: 01                                              [.]
  | | | | DateDisplayFormat = 2
  | | | | - Tag 0x0003 (1 bytes, int8u[1]):
  | | | |     053f: 02                                              [.]
  | | | 25) ISOInfo (SubDirectory) -->
  | | |     - Tag 0x0025 (14 bytes, undef[14]):
  | | |         0798: 48 01 0c 00 00 00 48 01 0c 00 00 00 00 02       [H.....H.......]
  | | | + [BinaryData directory, 14 bytes, Big-endian]
  | | | | ISO = 72
  | | | | - Tag 0x0000 (1 bytes, int8u[1]):
  | | | |     0798: 48                                              [H]
  | | | | ISOExpansion = 0
  | | | | - Tag 0x0004 (2 bytes, int16u[1]):
  | | | |     079c: 00 00                                           [..]
  | | | | ISO2 = 72
  | | | | - Tag 0x0006 (1 bytes, int8u[1]):
  | | | |     079e: 48                                              [H]
  | | | | ISOExpansion2 = 0
  | | | | - Tag 0x000a (2 bytes, int16u[1]):
  | | | |     07a2: 00 00                                           [..]
  | | | 26) DistortInfo (SubDirectory) -->
  | | |     - Tag 0x002b (16 bytes, undef[16]):
  | | |         07a8: 30 31 30 30 01 04 01 09 00 00 00 00 00 00 00 00 [0100............]
  | | | + [BinaryData directory, 16 bytes, Big-endian]
  | | | | DistortionVersion = 0100
  | | | | - Tag 0x0000 (4 bytes, undef[4]):
  | | | |     07a8: 30 31 30 30                                     [0100]
  | | | | AutoDistortionControl = 1
  | | | | - Tag 0x0004 (1 bytes, int8u[1]):
  | | | |     07ac: 01                                              [.]
  | | | 27) UnknownInfo (SubDirectory) -->
  | | |     - Tag 0x002c (574 bytes, undef[574]):
  | | |         07b8: 30 31 30 31 23 00 01 81 00 ff 00 00 00 00 00 00 [0101#...........]
  | | |         07c8: 00 00 00 00 00 00 00 00 00 00 00 00 00 00 00 00 [................]
  | | |         07d8: 00 00 00 00 00 00 00 00 00 00 00 00 00 00 00 00 [................]
  | | |         07e8: 00 00 00 00 00 00 00 00 00 00 00 00 00 00 00 00 [................]
  | | |         07f8: 00 00 00 00 00 00 00 00 00 00 00 00 00 00 00 00 [................]
  | | |         0808: 00 00 00 00 00 00 00 00 00 00 00 00 00 00 00 00 [................]
  | | |         0818: 00 00 00 00 00 00 00 00 00 00 00 00 00 00 00 00 [................]
  | | |         0828: 00 00 00 00 00 00 00 00 00 00 00 00 00 00 00 00 [................]
  | | |         0838: 00 00 00 00 00 00 00 00 00 00 00 00 00 00 00 00 [................]
  | | |         0848: 00 00 00 00 00 00 00 00 00 00 00 00 00 00 00 00 [................]
  | | |         0858: 00 00 00 00 00 00 00 00 00 00 00 00 00 00 00 00 [................]
  | | |         0868: 00 00 00 00 00 00 00 00 00 00 00 00 00 00 00 00 [................]
  | | |         0878: 00 00 00 00 00 00 00 00 00 00 00 00 00 00 00 00 [................]
  | | |         0888: 00 00 00 00 00 00 00 00 00 00 00 00 00 00 00 00 [................]
  | | |         0898: 00 00 00 00 00 00 00 00 00 00 00 00 00 00 00 00 [................]
  | | |         08a8: 00 00 00 00 00 00 00 00 00 00 00 00 00 00 00 00 [................]
  | | |         08b8: 00 00 00 00 00 00 00 00 00 00 00 00 00 00 00 00 [................]
  | | |         08c8: 00 00 00 00 00 00 00 00 00 00 00 00 00 00 00 00 [................]
  | | |         08d8: 00 00 00 00 00 00 00 00 00 00 00 00 00 00 00 00 [................]
  | | |         08e8: 00 00 00 00 00 00 00 00 00 00 00 00 00 00 00 00 [................]
  | | |         08f8: 00 00 00 00 00 00 00 00 00 00 00 00 00 00 00 00 [................]
  | | |         0908: 00 00 00 00 00 00 00 00 00 00 00 00 00 00 00 00 [................]
  | | |         0918: 00 00 00 00 00 00 00 00 00 00 00 00 00 00 00 00 [................]
  | | |         0928: 00 00 00 00 00 00 00 00 00 00 00 00 00 00 00 00 [................]
  | | |         0938: 00 00 00 00 00 00 00 00 00 00 00 00 00 00 00 00 [................]
  | | |         0948: 00 00 00 00 00 00 00 00 00 00 00 00 00 00 00 00 [................]
  | | |         0958: 00 00 00 00 00 00 00 00 00 00 00 00 00 00 00 00 [................]
  | | |         0968: 00 00 00 00 00 00 00 00 00 00 00 00 00 00 00 00 [................]
  | | |         0978: 00 00 00 00 00 00 00 00 00 00 00 00 00 00 00 00 [................]
  | | |         0988: 00 00 00 00 00 00 00 00 00 00 00 00 00 00 00 00 [................]
  | | |         0998: 00 00 00 00 00 00 00 00 00 00 00 00 00 00 00 00 [................]
  | | |         09a8: 00 00 00 00 00 00 00 00 00 00 00 00 00 00 00 00 [................]
  | | |         09b8: 00 00 00 00 00 00 00 00 00 00 00 00 00 00 00 00 [................]
  | | |         09c8: 00 00 00 00 00 00 00 00 00 00 00 00 00 00 00 00 [................]
  | | |         09d8: 00 00 00 00 00 00 00 00 00 00 00 00 00 00 00 00 [................]
  | | |         09e8: 00 00 00 00 00 00 00 00 00 00 00 00 00 00       [..............]
  | | | + [BinaryData directory, 574 bytes, Big-endian]
  | | | | UnknownInfoVersion = 0101
  | | | | - Tag 0x0000 (4 bytes, undef[4]):
  | | | |     07b8: 30 31 30 31                                     [0101]
  | | | 28) Nikon_0x002d = 512 0 0
  | | |     - Tag 0x002d (6 bytes, int16u[3]):
  | | |         09f8: 02 00 00 00 00 00                               [......]
  | | | 29) UnknownInfo2 (SubDirectory) -->
  | | |     - Tag 0x0032 (8 bytes, undef[8]):
  | | |         0a00: 30 31 30 30 00 00 00 01                         [0100....]
  | | | + [BinaryData directory, 8 bytes, Big-endian]
  | | | | UnknownInfo2Version = 0100
  | | | | - Tag 0x0000 (4 bytes, undef[4]):
  | | | |     0a00: 30 31 30 30                                     [0100]
  | | | 30) LensType = 14
  | | |     - Tag 0x0083 (1 bytes, int8u[1]):
  | | |         0584: 0e                                              [.]
  | | | 31) Lens = 18 55 3.5 5.6 (180/10 550/10 35/10 56/10)
  | | |     - Tag 0x0084 (32 bytes, rational64u[4]):
  | | |         0a08: 00 00 00 b4 00 00 00 0a 00 00 02 26 00 00 00 0a [...........&....]
  | | |         0a18: 00 00 00 23 00 00 00 0a 00 00 00 38 00 00 00 0a [...#.......8....]
  | | | 32) FlashMode = 0
  | | |     - Tag 0x0087 (1 bytes, int8u[1]):
  | | |         059c: 00                                              [.]
  | | | 33) ShootingMode = 0
  | | |     - Tag 0x0089 (2 bytes, int16u[1]):
  | | |         05a8: 00 00                                           [..]
  | | | 34) Nikon_0x008a = 1
  | | |     - Tag 0x008a (2 bytes, int16u[1]):
  | | |         05b4: 00 01                                           [..]
  | | | 35) LensFStops = @..
  | | |     - Tag 0x008b (4 bytes, undef[4]):
  | | |         05c0: 40 01 0c 00                                     [@...]
  | | | 36) ContrastCurve = I0
  | | |     - Tag 0x008c (578 bytes, undef[578]):
  | | |         0a28: 49 30 00 00 00 00 00 00 00 00 00 00 00 00 00 00 [I0..............]
  | | |         0a38: 00 00 00 00 00 00 00 00 00 00 00 00 00 00 00 00 [................]
  | | |         0a48: 00 00 00 00 00 00 00 00 00 00 00 00 00 00 00 00 [................]
  | | |         0a58: 00 00 00 00 00 00 00 00 00 00 00 00 00 00 00 00 [................]
  | | |         0a68: 00 00 00 00 00 00 00 00 00 00 00 00 00 00 00 00 [................]
  | | |         0a78: 00 00 00 00 00 00 00 00 00 00 00 00 00 00 00 00 [................]
  | | |         0a88: 00 00 00 00 00 00 00 00 00 00 00 00 00 00 00 00 [................]
  | | |         0a98: 00 00 00 00 00 00 00 00 00 00 00 00 00 00 00 00 [................]
  | | |         0aa8: 00 00 00 00 00 00 00 00 00 00 00 00 00 00 00 00 [................]
  | | |         0ab8: 00 00 00 00 00 00 00 00 00 00 00 00 00 00 00 00 [................]
  | | |         0ac8: 00 00 00 00 00 00 00 00 00 00 00 00 00 00 00 00 [................]
  | | |         0ad8: 00 00 00 00 00 00 00 00 00 00 00 00 00 00 00 00 [................]
  | | |         0ae8: 00 00 00 00 00 00 00 00 00 00 00 00 00 00 00 00 [................]
  | | |         0af8: 00 00 00 00 00 00 00 00 00 00 00 00 00 00 00 00 [................]
  | | |         0b08: 00 00 00 00 00 00 00 00 00 00 00 00 00 00 00 00 [................]
  | | |         0b18: 00 00 00 00 00 00 00 00 00 00 00 00 00 00 00 00 [................]
  | | |         0b28: 00 00 00 00 00 00 00 00 00 00 00 00 00 00 00 00 [................]
  | | |         0b38: 00 00 00 00 00 00 00 00 00 00 00 00 00 00 00 00 [................]
  | | |         0b48: 00 00 00 00 00 00 00 00 00 00 00 00 00 00 00 00 [................]
  | | |         0b58: 00 00 00 00 00 00 00 00 00 00 00 00 00 00 00 00 [................]
  | | |         0b68: 00 00 00 00 00 00 00 00 00 00 00 00 00 00 00 00 [................]
  | | |         0b78: 00 00 00 00 00 00 00 00 00 00 00 00 00 00 00 00 [................]
  | | |         0b88: 00 00 00 00 00 00 00 00 00 00 00 00 00 00 00 00 [................]
  | | |         0b98: 00 00 00 00 00 00 00 00 00 00 00 00 00 00 00 00 [................]
  | | |         0ba8: 00 00 00 00 00 00 00 00 00 00 00 00 00 00 00 00 [................]
  | | |         0bb8: 00 00 00 00 00 00 00 00 00 00 00 00 00 00 00 00 [................]
  | | |         0bc8: 00 00 00 00 00 00 00 00 00 00 00 00 00 00 00 00 [................]
  | | |         0bd8: 00 00 00 00 00 00 00 00 00 00 00 00 00 00 00 00 [................]
  | | |         0be8: 00 00 00 00 00 00 00 00 00 00 00 00 00 00 00 00 [................]
  | | |         0bf8: 00 00 00 00 00 00 00 00 00 00 00 00 00 00 00 00 [................]
  | | |         0c08: 00 00 00 00 00 00 00 00 00 00 00 00 00 00 00 00 [................]
  | | |         0c18: 00 00 00 00 00 00 00 00 00 00 00 00 00 00 00 00 [................]
  | | |         0c28: 00 00 00 00 00 00 00 00 00 00 00 00 00 00 00 00 [................]
  | | |         0c38: 00 00 00 00 00 00 00 00 00 00 00 00 00 00 00 00 [................]
  | | |         0c48: 00 00 00 00 00 00 00 00 00 00 00 00 00 00 00 00 [................]
  | | |         0c58: 00 00 00 00 00 00 00 00 00 00 00 00 00 00 00 00 [................]
  | | |         0c68: 00 00                                           [..]
  | | | 37) ShotInfoD5100 (SubDirectory) -->
  | | |     - Tag 0x0091 (8902 bytes, undef[8902]):
  | | |         0c6c: 30 32 32 31 3e b6 7a 14 4b 56 90 0d 6e fc 99 1b [0221>.z.KV..n...]
  | | |         0c7c: 0d 84 20 ed d7 f1 29 e1 40 cc d4 e3 1a 7d 1d c5 [.. ...).@....}..]
  | | |         0c8c: e4 b8 c8 1f 9f 48 1a 15 21 96 fe 9c 62 30 6f 17 [.....H..!...b0o.]
  | | |         0c9c: f5 e4 73 e7 26 98 01 3c 2f 0b 26 b0 1b f4 d4 05 [..s.&..</.&.....]
  | | |         0cac: e9 16 18 8f 08 20 ea 05 6e 6e 59 8f e4 b2 27 71 [..... ..nnY...'q]
  | | |         0cbc: 3c 33 e8 b8 f2 e1 24 2c b4 48 50 6a 1a ad 44 9e [<3....$,.HPj..D.]
  | | |         0ccc: 49 72 7f b6 9e 21 a4 48 59 e6 85 1c 84 a5 0f 3b [Ir...!.HY......;]
  | | |         0cdc: 35 1d 33 65 9b 09 85 58 7c 0b c1 bb eb 38 69 02 [5.3e...X|....8i.]
  | | |         0cec: c4 7f b9 63 4e 45 ab 2f 77 87 f8 b9 93 e4 de 81 [...cNE./w.......]
  | | |         0cfc: 4a 42 60 a7 17 b0 72 5d 71 ae 14 a3 5b 3c 46 79 [JB`...r]q...[<Fy]
  | | |         0d0c: d5 5a 08 df df 08 5a d5 79 46 3c 5b a3 14 ae 71 [.Z....Z.yF<[...q]
  | | |         0d1c: 5d 72 b0 17 a5 67 43 4d 80 ba 65 46 ca c7 3c bb []r...gCM..eF..<.]
  | | |         0d2c: e5 90 58 15 6f ba 2a c5 89 76 8c cb 33 c4 7e 61 [..X.o.*..v..3.~a]
  | | |         0d3c: 6d a2 00 87 37 10 12 3d 91 0e b4 82 7b 9c e7 07 [m...7..=....{...]
  | | |         0d4c: f5 75 a4 94 ff 76 fa b5 99 a6 dc 3b c3 74 4e 51 [.u...v.....;.tNQ]
  | | |         0d5c: 7d d2 50 f7 c7 c0 e2 2d a1 3e 04 f6 0b 4c 9b ad [}.P....-.>...L..]
  | | |         0d6c: 45 aa b8 6f 8e 19 ce a1 a8 d2 2d aa 52 25 1f 01 [E..o......-.R%..]
  | | |         0d7c: ad f8 bf 25 77 cf ad 9c b3 47 55 63 bb 06 99 7b [...%w....GUc...{]
  | | |         0d8c: 4e 25 07 72 c1 3b 9a 95 99 fc 63 59 e3 77 e9 2f [N%.r.;....cY.w./]
  | | |         0d9c: ba b8 f7 e6 c7 19 a2 db de ce 84 05 34 fc 76 ff [............4.v.]
  | | |         0dac: 3a 1a 18 0f ef 78 94 e7 9e da 8c 8b 81 fc 67 dc [:....x........g.]
  | | |         0dbc: ed 62 25 1f 8c 91 52 fd d1 ce f6 03 ba 6c d9 e6 [.b%...R......l..]
  | | |         0dcc: c9 94 17 80 c3 cc 3a 75 d9 66 1c fb 03 31 8e 11 [......:u.f...1..]
  | | |         0ddc: bf 8f 91 e3 05 9d 23 b9 e3 e3 45 e7 4a 0c f6 6d [......#...E.J..m]
  | | |         0dec: 45 c6 38 ef cf d8 0a 65 e9 96 6c 6b 93 e4 41 ec [E.8....e..lk..A.]
  | | |         0dfc: 80 3d 17 9a d5 c8 0f fa 0e cf 94 4e 9b c3 39 ed [.=.........N..9.]
  | | |         0e0c: aa 24 88 fc 60 d7 39 b7 86 5f ab d8 23 82 2f 20 [.$..`.9.._..#./ ]
  | | |         0e1c: dd f2 30 96 21 e1 cb ca 08 5d e0 83 68 12 16 f8 [..0.!....]..h...]
  | | |         0e2c: 19 8a a6 ce 11 f0 57 1e 0d c2 0f 91 b2 8c fa 3c [......W........<]
  | | |         0e3c: bb dd 76 f8 48 cf f5 a1 6e f7 83 e6 86 f1 b1 26 [..v.H...n......&]
  | | |         0e4c: 20 4d 77 60 9e 15 95 4a 0c fb 01 c2 bf 8b bd a4 [ Mw`...J........]
  | | |         0e5c: a2 a6 2f 2a b2 95 97 d0 3c 9b fb 8e 64 93 36 c9 [../*....<...d.6.]
  | | |         0e6c: 85 6a 78 af 0f 98 4a 25 29 56 ac 2b d3 a4 9e c1 [.jx...J%)V.+....]
  | | |         0e7c: 0d 82 20 e7 d7 f0 32 9d 31 ee d4 e3 1b 7c 06 b9 [.. ...2.1....|..]
  | | |         0e8c: 95 9a c8 1f 9f 48 1a 15 39 86 fc 9b 63 54 6e b1 [.....H..9...cTn.]
  | | |         0e9c: 1d b2 70 57 67 a0 02 8d 41 1e 24 53 ab 2c d6 a9 [..pWg...A.$S.,..]
  | | |         0eac: a5 ca 18 8f 2f f8 ea 05 49 b6 4c 0b f3 04 3e a1 [..../...I.L...>.]
  | | |         0ebc: 2d e2 c0 c7 f7 50 c9 04 be fe 6f ba d4 6c bd e0 [-....P....o..l..]
  | | |         0ecc: 5a 4a 73 86 50 18 bb 0e 58 2e 9d b3 82 7c 0f fc [ZJs.P...X....|..]
  | | |         0edc: 3c 9b 11 be 86 89 5c e8 9f fb 3a b6 35 09 76 89 [<.....\...:.5.v.]
  | | |         0eec: c5 2a b8 6f 4f 58 8a e5 69 16 ec eb 13 64 de 81 [.*.oOX..i....d..]
  | | |         0efc: 4d 42 60 a7 17 b0 72 5d 71 ae 14 a3 5b 3c 46 79 [MB`...r]q...[<Fy]
  | | |         0f0c: d5 5a 08 df df 08 5a d5 79 46 3c 5b a3 14 ae 71 [.Z....Z.yF<[...q]
  | | |         0f1c: 5d 72 b0 17 a7 60 42 4d 81 df 64 13 eb ec 16 69 []r...`BM..d....i]
  | | |         0f2c: e5 8a 58 4f 6f b8 2a c5 89 76 8c cb 33 c4 7e 61 [..XOo.*..v..3.~a]
  | | |         0f3c: 6d a2 00 87 37 10 12 3d 91 0e b4 83 7b 9c e6 59 [m...7..=....{..Y]
  | | |         0f4c: f5 ba a8 bf ff 68 fa b5 99 a6 dc 32 c5 58 06 95 [.....h.....2.X..]
  | | |         0f5c: 5d e8 50 f7 8f c0 e2 57 a1 3e 04 f3 0b 4c b4 70 [].P....W.>...L.p]
  | | |         0f6c: 06 13 a8 2f 8f 1b 82 89 89 cd 50 da 71 25 1f 4f [.../......P.q%.O]
  | | |         0f7c: 8d e2 a0 65 6e 73 4b 31 b1 6e 54 63 bb fc 86 39 [...ensK1.nTc...9]
  | | |         0f8c: 15 1a 48 9f e5 c8 9a 95 bb 3f 7f e2 86 ea 6b 31 [..H......?....k1]
  | | |         0f9c: 91 32 f0 cb 9c 60 be 13 8b 8e 60 d2 eb a2 58 28 [.2...`....`...X(]
  | | |         0fac: d7 4b 63 08 ad 78 6a e5 b4 41 cc 8b f3 2d be 21 [.Kc..xj..A...-.!]
  | | |         0fbc: cd 60 4a 47 77 50 6b fd d1 31 8b bc c4 5c 26 78 [.`JGwPk..1...\&x]
  | | |         0fcc: 35 7a 88 00 c0 d7 45 8a 26 99 63 04 7c cb f1 ee [5z....E.&.c.|...]
  | | |         0fdc: c2 ed 52 ca 3d 80 22 ed e1 f6 40 4c b4 f3 09 0b [..R.=."...@L....]
  | | |         0fec: 34 55 c7 10 d6 d8 03 e5 29 99 ec 94 6c 81 58 01 [4U......)...l.X.]
  | | |         0ffc: cd c2 e0 27 97 30 f2 dd f1 2e 94 23 db bc c6 f9 [...'.0.....#....]
  | | |         100c: 55 da 88 5f 5f 88 da 55 f9 c6 bc db 23 94 2e f1 [U..__..U....#...]
  | | |         101c: dd f2 30 97 27 e0 c2 cd 01 5e e4 93 6b 6c 96 e9 [..0.'....^..kl..]
  | | |         102c: 65 0a d8 cf ef 38 aa 45 09 f6 0c 4b b3 d4 dd cc [e....8.E...K....]
  | | |         103c: d1 77 c2 47 37 93 92 bd 11 8e 34 03 fb 1c 66 d9 [.w.G7.....4...f.]
  | | |         104c: 61 29 a0 1f f7 a1 da 35 65 30 69 3e 43 f2 ab ef [a).....5e0i>C...]
  | | |         105c: 67 12 fd 24 6b 7c fe 98 2e de 99 10 0f cc 36 c8 [g..$k|........6.]
  | | |         106c: 87 6e 78 ae 4f d8 4a a6 49 96 22 27 d3 a4 be c1 [.nx.O.J.I."'....]
  | | |         107c: 0d 81 44 c7 d7 b8 3a 9d 39 fe 55 e3 5f 5c 06 80 [..D...:.9.U._\..]
  | | |         108c: 05 9a c8 1f 9f 41 13 1c 18 95 f4 db 63 54 6c b1 [.....A......cTl.]
  | | |         109c: d2 b2 70 57 67 a9 02 8d 41 9e 24 53 ab 2c d7 ab [..pWg...A.$S.,..]
  | | |         10ac: a4 ca 18 8f 2f f9 ea 05 49 b6 4c 08 f3 04 3e 21 [..../...I.L...>!]
  | | |         10bc: 2d 22 c0 c7 77 50 d2 7d 53 4e 74 03 3b dc a7 9b [-"..wP.}SNt.;...]
  | | |         10cc: b4 fa ed 52 b9 cd 84 f5 58 26 07 e7 1f 2f 92 3a [...R....X&.../.:]
  | | |         10dc: 9a 8c 8a 96 1d 97 35 f8 f4 e9 52 a4 5c 1b 74 ff [......5...R.\.t.]
  | | |         10ec: a6 4e db 08 4e 13 8a 6d e1 9e 64 63 9b ec 56 1b [.N..N..m..dc..V.]
  | | |         10fc: 4d 4a 61 a7 22 b1 86 32 eb c6 70 c7 3f 58 22 1d [MJa."..2..p.?X".]
  | | |         110c: b1 3e 6c bb b3 64 3f d5 59 45 3c 5b a3 14 9e 73 [.>l..d?.YE<[...s]
  | | |         111c: 62 b3 93 17 a1 8f 44 4d 81 de 21 13 eb ec 66 51 [b.....DM..!...fQ]
  | | |         112c: ec 8f 5a 4a 6d b8 d1 c2 89 48 ea 95 32 ea 7d 61 [..ZJm....H..2.}a]
  | | |         113c: 6d a2 00 87 37 10 12 3d 91 0e b4 83 7b 9c e6 59 [m...7..=....{..Y]
  | | |         114c: f5 ba a8 bf ff 68 fa b5 99 a6 47 5f c3 36 59 a7 [.....h....G_.6Y.]
  | | |         115c: 7d d2 50 f7 c7 c0 e2 2d a1 3e 04 f3 0b 7b f1 6a [}.P....-.>...{.j]
  | | |         116c: c7 ea fe 18 c8 3b 0e a5 af e1 6b 88 93 24 18 76 [.....;....k..$.v]
  | | |         117c: ca 21 62 67 51 47 f5 3e 73 6e 52 54 dc df 39 39 [.!bgQG.>snRT..99]
  | | |         118c: 13 2d 0f bb db c8 9c a2 fe 25 bd 1b e5 e3 a9 15 [.-.......%......]
  | | |         119c: 5c 32 f6 e0 a0 03 43 0d c7 a9 e3 f0 e9 ac 50 11 [\2....C.......P.]
  | | |         11ac: 62 69 5b 0f a9 40 2d a6 0b 36 ca b3 34 a7 7f 21 [bi[..@-..6..4..!]
  | | |         11bc: ab 55 07 65 b6 d0 54 fd d1 c3 f6 08 ba 13 27 b8 [.U.e..T.......'.]
  | | |         11cc: 35 55 17 a3 c0 e9 c5 bb d9 64 1c ff fc ce 8e 11 [5U.......d......]
  | | |         11dc: bd 97 6f 7f 07 80 d4 33 cc a4 42 86 4d 5a f0 5f [..o....3..B.MZ._]
  | | |         11ec: 43 f2 3e a9 c9 50 0f 83 ef b6 6a 77 95 f9 58 09 [C.>..P....jw..X.]
  | | |         11fc: cb dd e6 18 91 7a f4 a0 f7 8b 92 a7 dc b4 c1 f9 [.....z..........]
  | | |         120c: 53 1e 8f 5b 58 99 d2 1c f0 e3 43 c2 dd 7f d1 e1 [S..[X.....C.....]
  | | |         121c: 23 06 cf 93 d8 e4 3d ff fe 43 1b 8c 94 4d 69 f8 [#.....=..C...Mi.]
  | | |         122c: 9a 1e 27 9f 10 7d 55 75 f6 c7 f3 6e 4c 4c 01 a7 [..'..}Uu...nLL..]
  | | |         123c: 12 63 7f 55 48 d5 6d ac ee 82 34 0a 04 f5 99 2a [.c.UH.m...4....*]
  | | |         124c: 8a c5 28 33 7f f7 85 ef e6 c1 a3 5c bc 1d 31 24 [..(3.......\..1$]
  | | |         125c: 02 aa 2f 82 b8 a1 9d 78 de 5b 7b 81 8b c0 36 dd [../....x.[{...6.]
  | | |         126c: 7a 82 87 4c f0 70 b5 d7 d6 a2 c9 2b d3 a4 9e c1 [z..L.p.....+....]
  | | |         127c: 0d 82 20 e7 d7 f0 32 9d 31 ee d6 a9 1a 31 07 18 [.. ...2.1....1..]
  | | |         128c: 95 b5 37 c3 60 89 e5 db 39 84 fc 9f 9c ae 6e b1 [..7.`...9.....n.]
  | | |         129c: 1d b7 8f 9f 67 a0 f4 37 6c 44 22 79 ad 7e d0 f0 [....g..7lD"y.~..]
  | | |         12ac: a3 9c 1e c5 29 8f ef ef 4f 90 4a 12 f5 1b 38 b1 [....)...O.J...8.]
  | | |         12bc: 2b fe c6 84 f1 10 d4 fc 57 e0 72 4f 3c c2 a1 9d [+.......W.rO<...]
  | | |         12cc: b3 34 6f f2 b8 8a b2 9d 50 cb 63 58 7c b5 f1 99 [.4o.....P.cX|...]
  | | |         12dc: c3 e0 ee c6 79 ed 5d 2c 9e 55 3b 18 34 af 89 9b [....y.],.U;.4...]
  | | |         12ec: 3a 2d 47 38 b0 15 75 d3 96 37 13 c8 ec 66 21 cd [:-G8..u..7...f!.]
  | | |         12fc: b2 04 9f f7 e8 f7 8d 4c 8e a3 14 a6 a4 cf b9 88 [.......L........]
  | | |         130c: d5 52 08 ca df 06 a5 3e 86 a3 c3 b5 5c e3 51 85 [.R.....>....\.Q.]
  | | |         131c: 5d 73 4f ec 58 85 bd 95 7e 06 9b fc eb ec 16 70 []sO.X...~......p]
  | | |         132c: 1a 63 a7 ab 90 55 d5 2a 76 82 e9 cb 33 c4 7e 61 [.c...U.*v...3.~a]
  | | |         133c: 6d a2 00 87 37 10 12 3d 91 0e b6 d0 7a ec e7 fe [m...7..=....z...]
  | | |         134c: f5 8b 57 67 00 d2 05 79 99 ae dc 2b 3c 81 b1 ac [..Wg...y...+<...]
  | | |         135c: 7d d7 af 33 38 3d 14 f3 8c 64 02 c6 0d 1a b0 1f [}..38=...d......]
  | | |         136c: 03 b2 fe 69 89 90 cf 43 af f6 2a b7 55 39 18 49 [...i...C..*.U9.I]
  | | |         137c: 8b 1d a6 58 51 3a b4 60 b7 cb 52 e7 9c f4 81 39 [...XQ:.`..R....9]
  | | |         138c: 13 de 4f 9b 18 d9 92 dc b0 23 83 02 1d 3f 11 21 [..O......#...?.!]
  | | |         139c: 63 c6 0f d3 18 24 7d 3f 3e 83 5b cc d4 8d a9 38 [c....$}?>.[....8]
  | | |         13ac: da 5e 67 5f 50 3d 95 b5 36 07 33 ae 8c 8c 41 67 [.^g_P=..6.3...Ag]
  | | |         13bc: 52 23 bf 15 88 95 ad ec 2e c2 f4 4a 44 b5 d9 ea [R#.........JD...]
  | | |         13cc: ca 85 e8 73 3f 37 c5 af 26 81 e3 1c fc dd 71 e4 [...s?7..&.....q.]
  | | |         13dc: 42 6a 6f 42 f8 61 dd 38 1e 1b bb 41 4b 00 f6 1d [BjoB.a.8...AK...]
  | | |         13ec: ba 42 c7 0c 30 30 f5 97 16 62 09 6b 93 e4 5e 01 [.B..00...b.k..^.]
  | | |         13fc: cd c2 e0 27 97 30 f2 dd f1 2e 8b de 21 61 3b 20 [...'.0......!a; ]
  | | |         140c: 02 c5 df 23 90 56 a7 f1 ae 33 d3 06 94 79 b9 0f [...#.V...3...y..]
  | | |         141c: b2 b5 8e 44 d0 35 15 32 77 4d 22 74 12 f9 7b bc [...D.5.2wM"t..{.]
  | | |         142c: 1a 5d 2d 50 18 77 ec b8 b4 ca 6f 3e ca 83 6d 16 [.]-P.w....o>..m.]
  | | |         143c: 0a cb 2a fa 48 e5 4d fa eb 53 eb 54 b8 67 99 65 [..*.H.M..S.T.g.e]
  | | |         144c: aa e3 77 7a 12 35 8d d0 4c c1 ab 0e 14 19 1b 2c [..wz.5..L......,]
  | | |         [snip 6870 bytes]
  | | | + [Decrypted ShotInfoD5100 directory]
  | | | |       0000: 30 32 32 31 31 2e 30 31 62 00 3c 26 bd 58 07 da [02211.01b.<&.X..]
  | | | |       0010: 00 06 00 0a 00 01 1b 7c 71 22 00 00 01 01 1b 7c [.......|q".....|]
  | | | |       0020: 71 22 00 00 00 00 00 00 18 10 02 07 01 64 01 a6 [q"...........d..]
  | | | |       0030: e8 56 03 b0 41 38 03 b1 6e 15 02 e3 b0 d8 02 ac [.V..A8..n.......]
  | | | |       0040: 4c dc 00 00 27 d8 00 00 27 d8 15 84 17 b6 19 d0 [L...'...'.......]
  | | | |       0050: 11 d1 28 7f 05 b1 f6 51 e5 06 24 a9 21 71 e2 07 [..(....Q..$.!q..]
  | | | |       0060: fc 88 17 49 21 89 1e bd 00 00 19 67 07 11 01 aa [...I!......g....]
  | | | |       0070: 08 0f 23 52 1c 09 27 35 1d 75 05 88 20 b4 1f 8b [..#R..'5.u.. ...]
  | | | |       0080: 01 55 01 0c 01 1d 21 ca 1e 91 14 52 80 80 00 00 [.U....!....R....]
  | | | |       0090: 07 00 00 00 00 00 00 00 00 00 00 00 00 00 00 00 [................]
  | | | |       00a0: 00 00 00 00 00 00 00 00 00 00 00 00 00 00 00 00 [................]
  | | | |       00b0: 00 00 00 00 02 07 01 00 01 64 01 55 21 2b 2a d2 [.........d.U!+*.]
  | | | |       00c0: 00 1a 00 5a 00 02 00 00 00 00 00 00 00 00 00 00 [...Z............]
  | | | |       00d0: 00 00 00 00 00 00 00 00 00 00 00 01 00 00 01 5e [...............^]
  | | | |       00e0: 00 cf 0c 2b 00 1e 00 00 00 00 00 00 00 00 00 00 [...+............]
  | | | |       00f0: 00 00 00 00 00 00 00 00 00 00 00 05 00 00 2d e4 [..............-.]
  | | | |       0100: 40 40 40 40 01 01 04 04 01 04 01 01 01 01 01 40 [@@@@...........@]
  | | | |       0110: 20 fa 1f 42 20 bf 1f 81 02 29 01 00 20 fa 1f 42 [ ..B ....).. ..B]
  | | | |       0120: 5b 3f 4f ed de f3 00 00 20 fa 1f 42 00 a3 07 1e [[?O..... ..B....]
  | | | |       0130: 27 8a 07 31 20 39 20 d6 1f 50 20 d6 1f 50 20 d6 ['..1 9 ..P ..P .]
  | | | |       0140: 1f 50 80 00 40 00 fe 62 57 ec 40 00 f2 78 d9 fd [.P..@..bW.@..x..]
  | | | |       0150: 40 00 65 58 fb 41 00 00 00 00 02 40 01 30 ff ff [@.eX.A.....@.0..]
  | | | |       0160: fc ee ff ff fc e4 00 00 00 00 00 00 00 05 00 00 [................]
  | | | |       0170: 02 1d 01 54 02 1d 01 54 02 1d 01 54 01 00 00 64 [...T...T...T...d]
  | | | |       0180: 00 6c 00 00 00 00 00 00 00 00 00 00 00 00 1f ed [.l..............]
  | | | |       0190: 4d ff f7 bd 42 f8 fd 27 ff e1 00 6d 40 7f ff 14 [M...B..'...m@...]
  | | | |       01a0: ff fe 00 a3 3f 5f e3 e2 7f 99 17 03 00 16 01 d1 [....?_..........]
  | | | |       01b0: 00 00 00 01 06 01 09 07 09 03 04 10 03 7e 80 11 [.............~..]
  | | | |       01c0: 7c 80 7e 01 fe c8 fd 5b 04 34 03 da 01 c8 04 dd [|.~....[.4......]
  | | | |       01d0: 56 ff f6 ff ff 5f 67 1c 7f 79 b7 e5 7d ed d7 ff [V...._g..y..}...]
  | | | |       01e0: 55 77 5f 5f e1 fd ef 7f 15 dd 5d 79 fc 7f 73 75 [Uw__......]y..su]
  | | | |       01f0: 5f f4 ff 5d f5 d5 f5 7d 1d 25 7f fd ef 5f 00 00 [_..]...}.%..._..]
  | | | |       0200: 00 00 00 00 00 00 00 00 00 00 00 00 00 00 00 00 [................]
  | | | |       0210: 00 00 00 00 00 00 00 00 00 00 00 00 00 00 00 00 [................]
  | | | |       0220: 00 00 00 00 00 00 00 00 00 00 00 00 00 00 00 00 [................]
  | | | |       0230: 00 00 00 00 00 00 00 00 00 00 00 00 00 00 00 00 [................]
  | | | |       0240: 00 00 00 00 00 00 00 00 00 00 00 00 00 00 00 00 [................]
  | | | |       0250: 00 00 00 00 00 00 1b 79 ef b0 1b 79 ef b0 1b 79 [.......y...y...y]
  | | | |       0260: ef b0 1b 79 ef b0 01 fb 01 c8 01 c8 01 c8 01 6d [...y...........m]
  | | | |       0270: 01 89 01 89 01 89 fe 85 fe 85 fe 85 fe 85 00 00 [................]
  | | | |       0280: 00 00 00 00 00 00 00 00 00 00 00 00 00 00 00 00 [................]
  | | | |       0290: 00 00 00 00 00 00 00 00 00 00 00 00 00 00 00 00 [................]
  | | | |       02a0: 00 00 00 00 00 00 00 00 00 00 00 00 00 00 00 00 [................]
  | | | |       02b0: 00 00 00 00 00 00 00 00 00 01 00 00 00 00 00 00 [................]
  | | | |       02c0: 00 00 00 00 00 00 00 00 00 00 00 00 00 00 00 00 [................]
  | | | |       02d0: 00 00 00 00 00 00 00 00 00 00 00 00 00 00 00 00 [................]
  | | | |       02e0: 00 00 00 00 00 00 00 00 00 00 00 09 06 2c 48 c4 [.............,H.]
  | | | |       02f0: 20 3a 00 00 48 00 00 7a 00 00 00 00 00 00 02 39 [ :..H..z.......9]
  | | | |       0300: 03 f9 50 00 00 03 48 2c 20 1b 7c 71 22 01 01 0e [..P...H, .|q"...]
  | | | |       0310: 00 e0 00 02 39 03 f9 2c 00 00 00 00 20 00 00 00 [....9..,.... ...]
  | | | |       0320: 00 00 00 00 fa 00 00 00 02 39 03 f9 65 3e 85 00 [.........9..e>..]
  | | | |       0330: 0c 00 00 1c 7b 40 3c 1e 4a 10 c4 01 c0 0e 0e 01 [....{@<.J.......]
  | | | |       0340: f2 01 fb 07 02 00 00 60 7d 77 00 00 80 a9 00 00 [.......`}w......]
  | | | |       0350: 60 02 0a 00 00 80 39 00 00 ff 7f ff 7f 00 00 61 [`.....9........a]
  | | | |       0360: 00 00 60 7f ff ff 7f ff ff ff 7f ff 7f ff 7f ff [..`.............]
  | | | |       0370: 7f 7f c2 7d 3a 00 00 00 00 08 04 ff ff ff ff 02 [...}:...........]
  | | | |       0380: 71 ff ff ff 19 00 09 80 c0 0f 80 ff ff 65 06 00 [q............e..]
  | | | |       0390: 00 00 00 00 00 00 00 00 00 00 00 00 00 00 00 00 [................]
  | | | |       03a0: 00 00 00 00 00 00 00 00 00 00 00 00 00 00 00 00 [................]
  | | | |       03b0: 00 00 00 00 00 00 00 00 00 00 00 00 00 00 00 00 [................]
  | | | |       03c0: 00 00 00 00 00 00 00 00 00 00 00 00 00 90 23 2d [..............#-]
  | | | |       03d0: 3c 55 42 40 80 03 00 00 00 00 00 00 00 00 00 00 [<UB@............]
  | | | |       03e0: 14 13 88 20 88 49 a0 00 7c 16 35 85 00 06 65 3e [... .I..|.5...e>]
  | | | |       03f0: 9a 40 2d 53 2c 3c 9c 35 0f 60 1d 63 84 00 00 01 [.@-S,<.5.`.c....]
  | | | |       0400: 02 04 00 01 40 40 00 83 60 c0 8e 0c 00 00 20 00 [....@@..`..... .]
  | | | |       0410: 00 03 64 20 00 48 08 00 08 10 81 00 44 20 00 39 [..d .H......D .9]
  | | | |       0420: 90 00 00 00 00 09 09 09 21 13 08 40 00 00 02 00 [........!..@....]
  | | | |       0430: cf 00 00 00 00 09 00 00 00 80 00 00 00 00 01 02 [................]
  | | | |       0440: 01 00 00 00 00 01 00 00 00 00 00 03 00 00 00 80 [................]
  | | | |       0450: 00 c0 00 00 80 00 00 00 02 00 00 c0 00 00 01 02 [................]
  | | | |       0460: 01 00 85 ad 06 65 3e 00 01 c0 9b 9c 9c 9b 9c ab [.....e>.........]
  | | | |       0470: a7 9e 9a a1 9a 97 97 95 95 97 96 97 97 97 02 76 [...............v]
  | | | |       0480: 63 64 63 67 01 4b 00 88 88 88 88 88 88 88 88 9a [cdcg.K..........]
  | | | |       0490: 00 08 01 00 35 01 f4 6f 9a 68 64 64 64 64 64 64 [....5..o.hdddddd]
  | | | |       04a0: 64 64 64 64 6c 6c 65 00 20 03 00 00 00 00 30 02 [ddddlle. .....0.]
  | | | |       04b0: 3f c1 23 00 06 ef 06 00 00 00 45 00 00 00 70 38 [?.#.......E...p8]
  | | | |       04c0: 09 05 02 05 02 00 fb 07 00 3e 66 5e 01 2e 03 00 [.........>f^....]
  | | | |       04d0: 00 00 00 00 00 00 00 00 00 00 00 00 00 00 00 00 [................]
  | | | |       04e0: 00 00 00 00 00 00 00 00 00 00 9b 64 00 42 17 f6 [...........d.B..]
  | | | |       04f0: 00 00 00 00 00 00 00 00 00 00 00 00 00 37 47 23 [.............7G#]
  | | | |       0500: c2 00 06 37 47 23 c4 00 06 37 47 23 c0 00 06 37 [...7G#...7G#...7]
  | | | |       0510: 47 23 c2 00 06 37 47 23 c2 00 06 37 47 23 bf 00 [G#...7G#...7G#..]
  | | | |       0520: 06 37 47 24 c4 00 06 37 47 23 c1 00 06 37 47 24 [.7G$...7G#...7G$]
  | | | |       0530: c1 00 06 37 47 23 c1 00 06 37 47 23 c2 00 06 38 [...7G#...7G#...8]
  | | | |       0540: 47 23 c3 00 06 38 47 23 c2 00 06 38 47 23 c1 00 [G#...8G#...8G#..]
  | | | |       0550: 06 37 47 22 c1 00 06 00 00 0d 02 4b 01 4f 01 a1 [.7G".......K.O..]
  | | | |       0560: 00 2f ff dc ff c1 ff ce 00 02 00 04 ff fa 00 00 [./..............]
  | | | |       0570: 00 05 ff c8 00 00 f6 de 2d 5a 06 35 06 56 06 56 [........-Z.5.V.V]
  | | | |       0580: 06 58 06 46 06 88 05 e6 06 20 06 1c 06 1d 06 08 [.X.F..... ......]
  | | | |       0590: 06 1f 06 3f 06 4a 06 7d 06 a5 06 84 07 08 07 00 [...?.J.}........]
  | | | |       05a0: 06 c4 07 04 07 11 08 49 09 25 ff 19 fe eb ff 10 [.......I.%......]
  | | | |       05b0: fe f4 ff 04 ff 04 ff 32 ff 1d ff 1f ff 21 ff 11 [.......2.....!..]
  | | | |       05c0: ff 14 ff 50 ff 45 ff 30 ff 31 ff 25 ff 08 ff 46 [...P.E.0.1.%...F]
  | | | |       05d0: ff 41 ff 52 ff 45 ff 11 ff 0c 00 09 ff e9 ff f3 [.A.R.E..........]
  | | | |       05e0: ff ff 00 0c 00 1f ff da ff e7 ff e7 ff e9 ff f5 [................]
  | | | |       05f0: ff f8 ff f5 ff e1 ff d5 ff e5 ff f2 00 0c 00 14 [................]
  | | | |       0600: ff e8 ff e3 ff e8 ff f2 ff f4 65 00 00 00 00 00 [..........e.....]
  | | | |       0610: 00 00 00 00 00 00 00 00 00 00 02 4a 01 4d 01 a1 [...........J.M..]
  | | | |       0620: 00 2f ff dc ff c1 ff ce 00 02 00 04 ff fa 00 00 [./..............]
  | | | |       0630: 00 05 ff c8 00 00 f6 ba 2d 5a 06 2a 06 52 06 59 [........-Z.*.R.Y]
  | | | |       0640: 06 56 06 4a 06 77 05 ea 06 26 06 19 06 1f 06 10 [.V.J.w...&......]
  | | | |       0650: 06 1c 06 43 06 40 06 81 06 ae 06 8c 07 1e 07 04 [...C.@..........]
  | | | |       0660: 06 ce 07 0d 07 22 08 68 09 2d ff 23 ff 01 ff 08 [.....".h.-.#....]
  | | | |       0670: fe f2 fe f1 fe ed ff 41 ff 2b ff 2b ff 23 ff 12 [.......A.+.+.#..]
  | | | |       0680: ff 07 ff 57 ff 4d ff 36 ff 21 ff 23 ff 02 ff 4c [...W.M.6.!.#...L]
  | | | |       0690: ff 46 ff 50 ff 47 ff 11 ff 0d 00 05 ff f3 ff f1 [.F.P.G..........]
  | | | |       06a0: 00 08 00 15 00 0e ff eb ff e5 ff ee ff f7 ff f4 [................]
  | | | |       06b0: 00 01 ff fb ff e5 ff d8 ff d8 ff ef 00 00 00 19 [................]
  | | | |       06c0: ff e9 ff e4 ff ed ff ef ff f4 65 00 00 00 00 00 [..........e.....]
  | | | |       06d0: 00 00 00 00 00 00 00 00 00 00 02 53 01 70 01 a7 [...........S.p..]
  | | | |       06e0: 00 31 ff d8 ff ba ff cc 00 08 00 10 ff f5 ff fd [.1..............]
  | | | |       06f0: 00 05 ff c4 ff fd f6 de 2d 5a 06 35 06 56 06 56 [........-Z.5.V.V]
  | | | |       0700: 06 58 06 46 06 88 05 e6 06 20 06 1c 06 1d 06 08 [.X.F..... ......]
  | | | |       0710: 06 1f 06 3f 06 4a 06 7d 06 a5 06 84 07 08 07 00 [...?.J.}........]
  | | | |       0720: 06 c4 07 04 07 11 08 49 09 25 ff 19 fe eb ff 10 [.......I.%......]
  | | | |       0730: fe f4 ff 04 ff 04 ff 32 ff 1d ff 1f ff 21 ff 11 [.......2.....!..]
  | | | |       0740: ff 14 ff 50 ff 45 ff 30 ff 31 ff 25 ff 08 ff 46 [...P.E.0.1.%...F]
  | | | |       0750: ff 41 ff 52 ff 45 ff 11 ff 0c 00 09 ff e9 ff f3 [.A.R.E..........]
  | | | |       0760: ff ff 00 0c 00 1f ff da ff e7 ff e7 ff e9 ff f5 [................]
  | | | |       0770: ff f8 ff f5 ff e1 ff d5 ff e5 ff f2 00 0c 00 14 [................]
  | | | |       0780: ff e8 ff e3 ff e8 ff f2 ff f4 65 00 00 00 00 00 [..........e.....]
  | | | |       0790: 00 00 00 00 00 00 00 00 00 00 1f fd fa dd fd d9 [................]
  | | | |       07a0: 57 1f 57 7c cf de 7d a4 57 f5 6f dd b7 ed 97 fe [W.W|..}.W.o.....]
  | | | |       07b0: 6f 47 be d3 f7 d5 d7 ff 76 13 c6 e7 79 95 ed 55 [oG......v...y..U]
  | | | |       07c0: 7f 57 f5 9f f7 4f 46 fd bd 3c 63 75 79 c7 93 f7 [.W...OF..<cuy...]
  | | | |       07d0: e7 e9 aa fd ff 75 df 47 fa dd df 57 43 7b ff bc [.....u.G...WC{..]
  | | | |       07e0: df d9 5f 45 6d dd f7 e5 55 e7 f7 b5 57 ed d5 fd [.._Em...U...W...]
  | | | |       [snip 6870 bytes]
  | | | + [BinaryData directory, 8902 bytes, Big-endian]
  | | | | ShotInfoVersion = 0221
  | | | | - Tag 0x0000 (4 bytes, string[4]):
  | | | |     0c6c: 30 32 32 31                                     [0221]
  | | | | FirmwareVersion = 1.01b
  | | | | - Tag 0x0004 (5 bytes, string[5]):
  | | | |     0c70: 31 2e 30 31 62                                  [1.01b]
  | | | | ShutterCount = 250
  | | | | - Tag 0x0321 (4 bytes, int32u[1]):
  | | | |     0f8d: 00 00 00 fa                                     [....]
  | | | | CustomSettingsD5100 (SubDirectory) -->
  | | | | - Tag 0x0407 (34 bytes, undef[34]):
  | | | |     1073: 83 60 c0 8e 0c 00 00 20 00 00 03 64 20 00 48 08 [.`..... ...d .H.]
  | | | |     1083: 00 08 10 81 00 44 20 00 39 90 00 00 00 00 09 09 [.....D .9.......]
  | | | |     1093: 09 21                                           [.!]
  | | | | + [BinaryData directory, 34 bytes, Big-endian]
  | | | | | AF-CPrioritySelection = 1
  | | | | | - Tag '0.1', mask 0x80 (1 bytes, int8u[1]):
  | | | | |     1073: 83                                              [.]
  | | | | | AFAssist = 0
  | | | | | - Tag '1.1', mask 0x01 (1 bytes, int8u[1]):
  | | | | |     1074: 60                                              [`]
  | | | | | Beep = 2
  | | | | | - Tag '3.1', mask 0xc0 (1 bytes, int8u[1]):
  | | | | |     1076: 8e                                              [.]
  | | | | | NoMemoryCard = 0
  | | | | | - Tag '3.2', mask 0x20 (1 bytes, int8u[1]):
  | | | | |     1076: 8e                                              [.]
  | | | | | ISODisplay = 1
  | | | | | - Tag '3.3', mask 0x08 (1 bytes, int8u[1]):
  | | | | |     1076: 8e                                              [.]
  | | | | | FileNumberSequence = 1
  | | | | | - Tag '4.1', mask 0x08 (1 bytes, int8u[1]):
  | | | | |     1077: 0c                                              [.]
  | | | | | RangeFinder = 0
  | | | | | - Tag '5.1', mask 0x10 (1 bytes, int8u[1]):
  | | | | |     1078: 00                                              [.]
  | | | | | ReverseIndicators = 0
  | | | | | - Tag '5.2', mask 0x80 (1 bytes, int8u[1]):
  | | | | |     1078: 00                                              [.]
  | | | | | EVStepSize = 0
  | | | | | - Tag '6.1', mask 0x40 (1 bytes, int8u[1]):
  | | | | |     1079: 00                                              [.]
  | | | | | ExposureDelayMode = 0
  | | | | | - Tag '10.1', mask 0x40 (1 bytes, int8u[1]):
  | | | | |     107d: 03                                              [.]
  | | | | | AutoBracketSet = 0
  | | | | | - Tag '12.1', mask 0xc0 (1 bytes, int8u[1]):
  | | | | |     107f: 20                                              [ ]
  | | | | | TimerFunctionButton = 0
  | | | | | - Tag '13.1', mask 0x38 (1 bytes, int8u[1]):
  | | | | |     1080: 00                                              [.]
  | | | | | AELockButton = 0
  | | | | | - Tag '16.1', mask 0x38 (1 bytes, int8u[1]):
  | | | | |     1083: 00                                              [.]
  | | | | | ShutterReleaseButtonAE-L = 0
  | | | | | - Tag '17.1', mask 0x02 (1 bytes, int8u[1]):
  | | | | |     1084: 08                                              [.]
  | | | | | CommandDialsReverseRotation = 0
  | | | | | - Tag '17.2', mask 0x80 (1 bytes, int8u[1]):
  | | | | |     1084: 08                                              [.]
  | | | | | MeteringTime = 1
  | | | | | - Tag '18.1', mask 0x70 (1 bytes, int8u[1]):
  | | | | |     1085: 10                                              [.]
  | | | | | RemoteOnDuration = 0
  | | | | | - Tag '18.2', mask 0x03 (1 bytes, int8u[1]):
  | | | | |     1085: 10                                              [.]
  | | | | | SelfTimerTime = 2
  | | | | | - Tag '19.1', mask 0xc0 (1 bytes, int8u[1]):
  | | | | |     1086: 81                                              [.]
  | | | | | SelfTimerShotCount = 1
  | | | | | - Tag '19.2', mask 0x0f (1 bytes, int8u[1]):
  | | | | |     1086: 81                                              [.]
  | | | | | ImageReviewTime = 0
  | | | | | - Tag '20.1', mask 0xe0 (1 bytes, int8u[1]):
  | | | | |     1087: 00                                              [.]
  | | | | | LiveViewMonitorOffTime = 0
  | | | | | - Tag '20.2', mask 0x1c (1 bytes, int8u[1]):
  | | | | |     1087: 00                                              [.]
  | | | | | PlaybackMenusTime = 2
  | | | | | - Tag '21.1', mask 0xe0 (1 bytes, int8u[1]):
  | | | | |     1088: 44                                              [D]
  | | | | | ManualFlashOutput = 0
  | | | | | - Tag '23.1', mask 0x1f (1 bytes, int8u[1]):
  | | | | |     108a: 00                                              [.]
  | | | 38) NEFCompression = 4
  | | |     - Tag 0x0093 (2 bytes, int16u[1]):
  | | |         05e4: 00 04                                           [..]
  | | | 39) NoiseReduction = OFF 
  | | |     - Tag 0x0095 (5 bytes, string[5]):
  | | |         2f34: 4f 46 46 20 00                                  [OFF .]
  | | | 40) NEFLinearizationTable = D . . . . ..@....@.....<...<...D.......D.0.0.0.0.H.......T...T...Y.......Y U"U$U&U(.*.-./R1.4J6.9J<.>.?.?.?.?.?.?.?.?.?.?.?.?.?.?.?.?.?.?.?.?.?.?.?.?.?.?.?.?.?.?.?.?.?.?.?.?.?.?.?.?.?.?.?.?.?.?.?.?.?.?.?.?.?.?.?.?.?.?.?.?.?.?.?.?.?.?.?.?.?.?.?.?.?.?.?.?.?.?.?.?.?.?.?.?.?.?.?.?.?.?.?.?.?.?.?.?.?.?.?.?.?.?.?.?.?.?.?.?.?.?.?.?.?.?.?.?.?.?.?.?.?.?.?.?.?.?.?.?.?.?.?.?.?.?.?.?.?.?.?.?.?.?.?.?.?.?.?.?.?.?.?.?.?.?.?.?.?.?.?.?.?.?.?.?.?.?.?.?.?.?.?.?.?.?.?.?.?.?.?.?.?.?.?.?.?.?.?.?.?.?.?.?.?.?.?.?.?.?.?.?.?.?.?.?.?.?.?.?.?.".*...r_.....g.... ../......P-P...6...".*...s].....d.... ..%......U.X...6.....
  | | |     - Tag 0x0096 (624 bytes, undef[624]):
  | | |         2f3c: 44 20 05 20 05 20 05 20 05 20 01 01 00 00 00 40 [D . . . . .....@]
  | | |         2f4c: 00 80 00 c0 01 00 01 40 01 80 01 c0 02 3c 02 bc [.......@.....<..]
  | | |         2f5c: 03 3c 03 bc 04 44 05 04 05 c4 06 84 07 44 08 30 [.<...D.......D.0]
  | | |         2f6c: 09 30 0a 30 0b 30 0c 48 0d 88 0e c8 10 08 11 54 [.0.0.0.H.......T]
  | | |         2f7c: 12 d4 14 54 15 d5 17 59 19 19 1a d9 1c 99 1e 59 [...T...Y.......Y]
  | | |         2f8c: 20 55 22 55 24 55 26 55 28 91 2a d2 2d 12 2f 52 [ U"U$U&U(.*.-./R]
  | | |         2f9c: 31 ca 34 4a 36 ca 39 4a 3c 02 3e c2 3f ff 3f ff [1.4J6.9J<.>.?.?.]
  | | |         2fac: 3f ff 3f ff 3f ff 3f ff 3f ff 3f ff 3f ff 3f ff [?.?.?.?.?.?.?.?.]
  | | |         2fbc: 3f ff 3f ff 3f ff 3f ff 3f ff 3f ff 3f ff 3f ff [?.?.?.?.?.?.?.?.]
  | | |         2fcc: 3f ff 3f ff 3f ff 3f ff 3f ff 3f ff 3f ff 3f ff [?.?.?.?.?.?.?.?.]
  | | |         2fdc: 3f ff 3f ff 3f ff 3f ff 3f ff 3f ff 3f ff 3f ff [?.?.?.?.?.?.?.?.]
  | | |         2fec: 3f ff 3f ff 3f ff 3f ff 3f ff 3f ff 3f ff 3f ff [?.?.?.?.?.?.?.?.]
  | | |         2ffc: 3f ff 3f ff 3f ff 3f ff 3f ff 3f ff 3f ff 3f ff [?.?.?.?.?.?.?.?.]
  | | |         300c: 3f ff 3f ff 3f ff 3f ff 3f ff 3f ff 3f ff 3f ff [?.?.?.?.?.?.?.?.]
  | | |         301c: 3f ff 3f ff 3f ff 3f ff 3f ff 3f ff 3f ff 3f ff [?.?.?.?.?.?.?.?.]
  | | |         302c: 3f ff 3f ff 3f ff 3f ff 3f ff 3f ff 3f ff 3f ff [?.?.?.?.?.?.?.?.]
  | | |         303c: 3f ff 3f ff 3f ff 3f ff 3f ff 3f ff 3f ff 3f ff [?.?.?.?.?.?.?.?.]
  | | |         304c: 3f ff 3f ff 3f ff 3f ff 3f ff 3f ff 3f ff 3f ff [?.?.?.?.?.?.?.?.]
  | | |         305c: 3f ff 3f ff 3f ff 3f ff 3f ff 3f ff 3f ff 3f ff [?.?.?.?.?.?.?.?.]
  | | |         306c: 3f ff 3f ff 3f ff 3f ff 3f ff 3f ff 3f ff 3f ff [?.?.?.?.?.?.?.?.]
  | | |         307c: 3f ff 3f ff 3f ff 3f ff 3f ff 3f ff 3f ff 3f ff [?.?.?.?.?.?.?.?.]
  | | |         308c: 3f ff 3f ff 3f ff 3f ff 3f ff 3f ff 3f ff 3f ff [?.?.?.?.?.?.?.?.]
  | | |         309c: 3f ff 3f ff 3f ff 3f ff 3f ff 3f ff 3f ff 3f ff [?.?.?.?.?.?.?.?.]
  | | |         30ac: 3f ff 3f ff 3f ff 3f ff 3f ff 3f ff 3f ff 3f ff [?.?.?.?.?.?.?.?.]
  | | |         30bc: 3f ff 3f ff 3f ff 3f ff 3f ff 3f ff 3f ff 3f ff [?.?.?.?.?.?.?.?.]
  | | |         30cc: 3f ff 3f ff 3f ff 3f ff 3f ff 3f ff 3f ff 3f ff [?.?.?.?.?.?.?.?.]
  | | |         30dc: 3f ff 3f ff 3f ff 3f ff 3f ff 3f ff 3f ff 3f ff [?.?.?.?.?.?.?.?.]
  | | |         30ec: 3f ff 3f ff 3f ff 3f ff 3f ff 3f ff 3f ff 3f ff [?.?.?.?.?.?.?.?.]
  | | |         30fc: 3f ff 3f ff 3f ff 3f ff 3f ff 3f ff 3f ff 3f ff [?.?.?.?.?.?.?.?.]
  | | |         310c: 3f ff 3f ff 3f ff 3f ff 3f ff 3f ff 3f ff 3f ff [?.?.?.?.?.?.?.?.]
  | | |         311c: 3f ff 3f ff 3f ff 3f ff 3f ff 3f ff 3f ff 3f ff [?.?.?.?.?.?.?.?.]
  | | |         312c: 3f ff 3f ff 3f ff 3f ff 3f ff 3f ff 3f ff 3f ff [?.?.?.?.?.?.?.?.]
  | | |         313c: 3f ff 3f ff 3f ff 3f ff 3f ff 3f ff 3f ff 00 22 [?.?.?.?.?.?.?.."]
  | | |         314c: b7 2a aa 9d e0 72 5f 92 1a f5 1f 98 67 82 f0 af [.*...r_.....g...]
  | | |         315c: bf 20 d2 d0 2f ca c3 03 a0 85 c4 50 2d 50 d3 ab [. ../......P-P..]
  | | |         316c: ca 36 00 00 00 0a 00 b7 01 00 00 22 b7 2a aa 9d [.6.........".*..]
  | | |         317c: e0 73 5d 92 1a f5 1f 98 64 80 f0 af bf 20 d2 dd [.s].....d.... ..]
  | | |         318c: 25 c5 ce 02 a4 8a c3 55 2e 58 d9 a7 ca 36 00 0f [%......U.X...6..]
  | | |         319c: 00 00 00 00 00 00 00 00 00 02 03 04 05 00 00 00 [................]
  | | | 41) ColorBalance0215 (SubDirectory) -->
  | | |     - Tag 0x0097 (608 bytes, undef[608]):
  | | |         31ac: 30 32 31 36 00 00 00 00 00 00 00 00 00 00 00 00 [0216............]
  | | |         31bc: 00 00 00 00 00 00 00 00 00 00 00 00 00 00 00 00 [................]
  | | |         31cc: 00 00 00 00 00 00 00 00 00 00 00 00 00 00 00 00 [................]
  | | |         31dc: 00 00 00 00 00 00 00 00 00 00 00 00 00 00 00 00 [................]
  | | |         31ec: 00 00 00 00 00 00 00 00 00 00 00 00 00 00 00 00 [................]
  | | |         31fc: 00 00 00 00 00 00 00 00 00 00 00 00 00 00 00 00 [................]
  | | |         320c: 00 00 00 00 00 00 00 00 00 00 00 00 00 00 00 00 [................]
  | | |         321c: 00 00 00 00 00 00 00 00 00 00 00 00 00 00 00 00 [................]
  | | |         322c: 00 00 00 00 00 00 00 00 00 00 00 00 00 00 00 00 [................]
  | | |         323c: 00 00 00 00 00 00 00 00 00 00 00 00 00 00 00 00 [................]
  | | |         324c: 00 00 00 00 00 00 00 00 00 00 00 00 00 00 00 00 [................]
  | | |         325c: 00 00 00 00 00 00 00 00 00 00 00 00 00 00 00 00 [................]
  | | |         326c: 00 00 00 00 00 00 00 00 00 00 00 00 00 00 00 00 [................]
  | | |         327c: 00 00 00 00 00 00 00 00 00 00 00 00 00 00 00 00 [................]
  | | |         328c: 00 00 00 00 00 00 00 00 00 00 00 00 00 00 00 00 [................]
  | | |         329c: 00 00 00 00 00 00 00 00 00 00 00 00 00 00 00 00 [................]
  | | |         32ac: 00 00 00 00 00 00 00 00 00 00 00 00 00 00 00 00 [................]
  | | |         32bc: 00 00 00 00 00 00 00 00 00 00 00 00 0f d7 4b 25 [..............K%]
  | | |         32cc: 28 56 ae 36 d2 f0 9f c1 0d 4a 20 e6 d1 30 33 0d [(V.6.....J ..03.]
  | | |         32dc: 31 8f c4 f3 19 7f 15 aa 97 98 ca 1d 9f 48 1a 16 [1............H..]
  | | |         32ec: 39 a2 fc 71 63 49 6e b5 1b b4 70 43 73 b4 02 89 [9..qcIn...pCs...]
  | | |         32fc: 41 1a 24 5d ab 22 d6 a7 a5 c4 1e 8b 29 fc ef 00 [A.$]."......)...]
  | | |         330c: 4a b5 4c 0d fc 0b 38 a7 2d e6 c0 c1 fd 5a da 75 [J.L...8.-....Z.u]
  | | |         331c: 51 4a 72 c5 37 d0 a6 9d b1 fe 68 37 bf a9 9a c4 [QJr.7.....h7....]
  | | |         332c: 79 d7 93 47 97 8f 01 ad 3d 12 05 c3 87 08 e2 c9 [y..G....=.......]
  | | |         333c: 62 81 c0 2c db dc 76 b8 d5 1e bc 33 5f 70 8a e2 [b..,..v....3_p..]
  | | |         334c: 79 7d e8 8e 2c 9b de 95 4d 71 60 b9 17 32 44 75 [y}..,...Mq`..2Du]
  | | |         335c: 75 ae 14 5e 4b 1d 46 79 d0 76 08 ed df 08 4a a6 [u..^K.Fy.v....J.]
  | | |         336c: 7d 52 3e 5b a3 14 ae 71 5d 72 b4 17 a7 60 42 4d [}R>[...q]r...`BM]
  | | |         337c: 81 de 60 13 eb ec 17 68 a4 c9 1e 0d 6f ba 2a ed [..`....h....o.*.]
  | | |         338c: 89 74 8c e8 33 a1 7f 63 6d a1 00 99 32 13 1a 29 [.t..3..cm...2..)]
  | | |         339c: 91 0d 8c 9f 7b 9e da 79 ca 45 97 40 c0 97 fb b5 [....{..y.E.@....]
  | | |         33ac: 99 a6 dd 3b c3 74 4f 51 7e df 51 f7 c7 c0 e6 2b [...;.tOQ~.Q....+]
  | | |         33bc: a1 3e 04 f2 0a 4d 8b 6c 07 59 f8 07 70 81 f5 de [.>...M.l.Y..p...]
  | | |         33cc: a9 3a 2c a8 ac 79 5e e1 8d 03 a0 77 55 71 4c e2 [.:,..y^....wUqL.]
  | | |         33dc: 6a d9 56 7e 9a a8 86 39 1a 1a 49 38 1f bd 99 f0 [j.V~...9..I8....]
  | | |         33ec: b8 59 7e 06 e2 80 ef 31 b1 1e f0 d7 e7 20 83 cd [.Y~....1..... ..]
  | | |         33fc: 2e 83 d3 ac 7c 53 07 de d8 b5 98 93 ad 0e 6b 85 [....|S........k.]
  | | | + [Decrypted ColorBalance0215 directory]
  | | | |       0000: 30 32 31 36 00 00 00 00 00 00 00 00 00 00 00 00 [0216............]
  | | | |       0010: 00 00 00 00 00 00 00 00 00 00 00 00 00 00 00 00 [................]
  | | | |       0020: 00 00 00 00 00 00 00 00 00 00 00 00 00 00 00 00 [................]
  | | | |       0030: 00 00 00 00 00 00 00 00 00 00 00 00 00 00 00 00 [................]
  | | | |       0040: 00 00 00 00 00 00 00 00 00 00 00 00 00 00 00 00 [................]
  | | | |       0050: 00 00 00 00 00 00 00 00 00 00 00 00 00 00 00 00 [................]
  | | | |       0060: 00 00 00 00 00 00 00 00 00 00 00 00 00 00 00 00 [................]
  | | | |       0070: 00 00 00 00 00 00 00 00 00 00 00 00 00 00 00 00 [................]
  | | | |       0080: 00 00 00 00 00 00 00 00 00 00 00 00 00 00 00 00 [................]
  | | | |       0090: 00 00 00 00 00 00 00 00 00 00 00 00 00 00 00 00 [................]
  | | | |       00a0: 00 00 00 00 00 00 00 00 00 00 00 00 00 00 00 00 [................]
  | | | |       00b0: 00 00 00 00 00 00 00 00 00 00 00 00 00 00 00 00 [................]
  | | | |       00c0: 00 00 00 00 00 00 00 00 00 00 00 00 00 00 00 00 [................]
  | | | |       00d0: 00 00 00 00 00 00 00 00 00 00 00 00 00 00 00 00 [................]
  | | | |       00e0: 00 00 00 00 00 00 00 00 00 00 00 00 00 00 00 00 [................]
  | | | |       00f0: 00 00 00 00 00 00 00 00 00 00 00 00 00 00 00 00 [................]
  | | | |       0100: 00 00 00 00 00 00 00 00 00 00 00 00 00 00 00 00 [................]
  | | | |       0110: 00 00 00 00 00 00 00 00 00 00 00 00 00 4f 01 00 [.............O..]
  | | | |       0120: 01 00 02 1d 01 54 01 00 00 c8 00 01 06 c0 01 90 [.....T..........]
  | | | |       0130: 00 61 10 10 02 03 13 13 02 02 02 02 00 00 00 03 [.a..............]
  | | | |       0140: 00 24 00 ea 00 1d 00 04 06 06 00 14 14 14 00 04 [.$..............]
  | | | |       0150: 00 04 00 0e 00 0e 00 0e 00 0e 06 04 06 04 05 05 [................]
  | | | |       0160: 03 03 00 06 0f 0f 06 06 00 04 00 06 0a 0a 08 08 [................]
  | | | |       0170: 00 04 06 06 0c 0c 00 04 04 04 00 c8 00 01 20 31 [.............. 1]
  | | | |       0180: 20 31 0f 3c 14 3b 0f 3c 00 00 15 f4 00 08 40 a4 [ 1.<.;.<......@.]
  | | | |       0190: 03 ff 04 1f 10 50 00 31 10 34 04 5c 10 28 00 07 [.....P.1.4.\.(..]
  | | | |       01a0: 10 6b 04 65 3f ff 00 14 00 33 00 1e 00 82 36 28 [.k.e?....3....6(]
  | | | |       01b0: 04 00 00 fd 10 21 00 00 05 2c 00 32 00 00 10 73 [.....!...,.2...s]
  | | | |       01c0: 04 14 02 00 00 00 00 00 00 00 04 00 00 00 00 00 [................]
  | | | |       01d0: 00 00 04 00 00 00 01 01 41 43 46 42 00 02 00 28 [........ACFB...(]
  | | | |       01e0: 00 02 00 23 00 65 01 02 00 03 00 1e 05 03 08 14 [...#.e..........]
  | | | |       01f0: 00 03 38 1c 00 02 3c 20 3f ff 3f ff 3f ff 01 00 [..8...< ?.?.?...]
  | | | |       0200: 00 00 01 00 00 00 01 00 03 0d 01 00 00 00 04 06 [................]
  | | | |       0210: 00 00 00 01 01 01 3d 25 02 b3 00 28 ff 99 3f 7b [......=%...(..?{]
  | | | |       0220: 00 ec 00 03 ff 5d 40 a0 00 01 00 10 02 01 fe ff [.....]@.........]
  | | | |       0230: db b7 02 1d 01 54 00 00 0f 00 01 a7 00 75 03 65 [.....T.......u.e]
  | | | |       0240: 01 5f 02 1d 01 54 01 00 2c 2c 00 00 00 00 01 c0 [._...T..,,......]
  | | | |       0250: ef 1d 77 7f 57 ff 51 f7 fd ff 00 9c 02 76 01 00 [..w.W.Q......v..]
  | | | + [BinaryData directory, 320 bytes, Big-endian]
  | | | | WB_GRBGLevels = 256 541 340 256
  | | | | - Tag 0x0000 (8 bytes, int16u[4]):
  | | | |     32cc: 01 00 02 1d 01 54 01 00                         [.....T..]
  | | | 42) LensData0204 (SubDirectory) -->
  | | |     - Tag 0x0098 (33 bytes, undef[33]):
  | | |         340c: 30 32 30 34 19 ad cf 25 2f 16 c9 15 49 e4 b3 92 [0204...%/...I...]
  | | |         341c: 21 be bc d2 d8 90 2f fe b5 ee d4 e2 19 78 06 b8 [!...../......x..]
  | | |         342c: d5                                              [.]
  | | | + [Decrypted LensData0204 directory]
  | | | |       0000: 30 32 30 34 16 35 85 00 06 40 65 3e 9a 40 2d 53 [0204.5...@e>.@-S]
  | | | |       0010: 2c 3c 9c 35 0f 60 1d 63 84 00 00 01 02 04 00 01 [,<.5.`.c........]
  | | | |       0020: 40                                              [@]
  | | | + [BinaryData directory, 33 bytes, Big-endian]
  | | | | LensDataVersion = 0204
  | | | | - Tag 0x0000 (4 bytes, string[4]):
  | | | |     340c: 30 32 30 34                                     [0204]
  | | | | ExitPupilPosition = 22
  | | | | - Tag 0x0004 (1 bytes, int8u[1]):
  | | | |     3410: 16                                              [.]
  | | | | AFAperture = 53
  | | | | - Tag 0x0005 (1 bytes, int8u[1]):
  | | | |     3411: 35                                              [5]
  | | | | FocusPosition = 6
  | | | | - Tag 0x0008 (1 bytes, int8u[1]):
  | | | |     3414: 06                                              [.]
  | | | | FocusDistance = 101
  | | | | - Tag 0x000a (1 bytes, int8u[1]):
  | | | |     3416: 65                                              [e]
  | | | | FocalLength = 62
  | | | | - Tag 0x000b (1 bytes, int8u[1]):
  | | | |     3417: 3e                                              [>]
  | | | | LensIDNumber = 154
  | | | | - Tag 0x000c (1 bytes, int8u[1]):
  | | | |     3418: 9a                                              [.]
  | | | | LensFStops = 64
  | | | | - Tag 0x000d (1 bytes, int8u[1]):
  | | | |     3419: 40                                              [@]
  | | | | MinFocalLength = 45
  | | | | - Tag 0x000e (1 bytes, int8u[1]):
  | | | |     341a: 2d                                              [-]
  | | | | MaxFocalLength = 83
  | | | | - Tag 0x000f (1 bytes, int8u[1]):
  | | | |     341b: 53                                              [S]
  | | | | MaxApertureAtMinFocal = 44
  | | | | - Tag 0x0010 (1 bytes, int8u[1]):
  | | | |     341c: 2c                                              [,]
  | | | | MaxApertureAtMaxFocal = 60
  | | | | - Tag 0x0011 (1 bytes, int8u[1]):
  | | | |     341d: 3c                                              [<]
  | | | | MCUVersion = 156
  | | | | - Tag 0x0012 (1 bytes, int8u[1]):
  | | | |     341e: 9c                                              [.]
  | | | | EffectiveMaxAperture = 53
  | | | | - Tag 0x0013 (1 bytes, int8u[1]):
  | | | |     341f: 35                                              [5]
  | | | 43) RawImageCenter = 2496 1640
  | | |     - Tag 0x0099 (4 bytes, int16u[2]):
  | | |         0620: 09 c0 06 68                                     [...h]
  | | | 44) DateStampMode = 0
  | | |     - Tag 0x009d (2 bytes, int16u[1]):
  | | |         062c: 00 00                                           [..]
  | | | 45) RetouchHistory = 0 0 0 0 0 0 0 0 0 0
  | | |     - Tag 0x009e (20 bytes, int16u[10]):
  | | |         3430: 00 00 00 00 00 00 00 00 00 00 00 00 00 00 00 00 [................]
  | | |         3440: 00 00 00 00                                     [....]
  | | | 46) Nikon_0x00a3 = 0
  | | |     - Tag 0x00a3 (1 bytes, int8u[1]):
  | | |         0644: 00                                              [.]
  | | | 47) Nikon_0x00a4 = 0200
  | | |     - Tag 0x00a4 (4 bytes, undef[4]):
  | | |         0650: 30 32 30 30                                     [0200]
  | | | 48) ShutterCount = 250
  | | |     - Tag 0x00a7 (4 bytes, int32u[1]):
  | | |         065c: 00 00 00 fa                                     [....]
  | | | 49) FlashInfo0103 (SubDirectory) -->
  | | |     - Tag 0x00a8 (46 bytes, undef[46]):
  | | |         3444: 30 31 30 34 00 00 00 00 00 00 00 ff 00 00 00 00 [0104............]
  | | |         3454: 00 00 00 00 00 00 00 00 00 00 00 00 00 00 00 00 [................]
  | | |         3464: 00 00 00 00 00 00 00 00 00 00 00 00 00 00       [..............]
  | | | + [BinaryData directory, 46 bytes, Big-endian]
  | | | | FlashInfoVersion = 0104
  | | | | - Tag 0x0000 (4 bytes, string[4]):
  | | | |     3444: 30 31 30 34                                     [0104]
  | | | | FlashSource = 0
  | | | | - Tag 0x0004 (1 bytes, int8u[1]):
  | | | |     3448: 00                                              [.]
  | | | | ExternalFlashFirmware = 0 0
  | | | | - Tag 0x0006 (2 bytes, int8u[2]):
  | | | |     344a: 00 00                                           [..]
  | | | | ExternalFlashFlags = 0
  | | | | - Tag 0x0008 (1 bytes, int8u[1]):
  | | | |     344c: 00                                              [.]
  | | | | FlashCommanderMode = 0
  | | | | - Tag '9.1', mask 0x80 (1 bytes, int8u[1]):
  | | | |     344d: 00                                              [.]
  | | | | FlashControlMode = 0
  | | | | - Tag '9.2', mask 0x7f (1 bytes, int8u[1]):
  | | | |     344d: 00                                              [.]
  | | | | FlashCompensation = 0
  | | | | - Tag 0x000a (1 bytes, int8s[1]):
  | | | |     344e: 00                                              [.]
  | | | | FlashFocalLength = 0
  | | | | - Tag 0x000c (1 bytes, int8u[1]):
  | | | |     3450: 00                                              [.]
  | | | | RepeatingFlashRate = 0
  | | | | - Tag 0x000d (1 bytes, int8u[1]):
  | | | |     3451: 00                                              [.]
  | | | | RepeatingFlashCount = 0
  | | | | - Tag 0x000e (1 bytes, int8u[1]):
  | | | |     3452: 00                                              [.]
  | | | | FlashGNDistance = 0
  | | | | - Tag 0x000f (1 bytes, int8u[1]):
  | | | |     3453: 00                                              [.]
  | | | | FlashColorFilter = 0
  | | | | - Tag 0x0010 (1 bytes, int8u[1]):
  | | | |     3454: 00                                              [.]
  | | | | FlashGroupAControlMode = 0
  | | | | - Tag '17.1', mask 0x0f (1 bytes, int8u[1]):
  | | | |     3455: 00                                              [.]
  | | | | FlashGroupBControlMode = 0
  | | | | - Tag '18.1', mask 0xf0 (1 bytes, int8u[1]):
  | | | |     3456: 00                                              [.]
  | | | | FlashGroupCControlMode = 0
  | | | | - Tag '18.2', mask 0x0f (1 bytes, int8u[1]):
  | | | |     3456: 00                                              [.]
  | | | | FlashGroupACompensation = 0
  | | | | - Tag 0x0013 (1 bytes, int8s[1]):
  | | | |     3457: 00                                              [.]
  | | | | FlashGroupBCompensation = 0
  | | | | - Tag 0x0014 (1 bytes, int8s[1]):
  | | | |     3458: 00                                              [.]
  | | | | FlashGroupCCompensation = 0
  | | | | - Tag 0x0015 (1 bytes, int8s[1]):
  | | | |     3459: 00                                              [.]
  | | | | ExternalFlashCompensation = 0
  | | | | - Tag 0x001b (1 bytes, int8s[1]):
  | | | |     345f: 00                                              [.]
  | | | | FlashExposureComp3 = 0
  | | | | - Tag 0x001d (1 bytes, int8s[1]):
  | | | |     3461: 00                                              [.]
  | | | | FlashExposureComp4 = 0
  | | | | - Tag 0x0027 (1 bytes, int8s[1]):
  | | | |     346b: 00                                              [.]
  | | | 50) VariProgram = AUTO(FLASH OFF)
  | | |     - Tag 0x00ab (16 bytes, string[16]):
  | | |         3474: 41 55 54 4f 28 46 4c 41 53 48 20 4f 46 46 29 00 [AUTO(FLASH OFF).]
  | | | 51) MultiExposure (SubDirectory) -->
  | | |     - Tag 0x00b0 (16 bytes, undef[16]):
  | | |         3484: 30 31 30 30 00 00 00 00 00 00 00 00 00 00 00 00 [0100............]
  | | | + [BinaryData directory, 16 bytes, Big-endian]
  | | | | MultiExposureVersion = 0100
  | | | | - Tag 0x0000 (4 bytes, string[4]):
  | | | |     3484: 30 31 30 30                                     [0100]
  | | | | MultiExposureMode = 0
  | | | | - Tag 0x0001 (4 bytes, int32u[1]):
  | | | |     3488: 00 00 00 00                                     [....]
  | | | | MultiExposureShots = 0
  | | | | - Tag 0x0002 (4 bytes, int32u[1]):
  | | | |     348c: 00 00 00 00                                     [....]
  | | | | MultiExposureAutoGain = 0
  | | | | - Tag 0x0003 (4 bytes, int32u[1]):
  | | | |     3490: 00 00 00 00                                     [....]
  | | | 52) HighISONoiseReduction = 4
  | | |     - Tag 0x00b1 (2 bytes, int16u[1]):
  | | |         068c: 00 04                                           [..]
  | | | 53) PowerUpTime = ......+
  | | |     - Tag 0x00b6 (8 bytes, undef[8]):
  | | |         3494: 07 de 08 0c 09 1e 2b 00                         [......+.]
  | | | 54) AFInfo2 (SubDirectory) -->
  | | |     - Tag 0x00b7 (30 bytes, undef[30]):
  | | |         349c: 30 31 30 30 00 08 02 01 fb 07 00 00 00 00 00 00 [0100............]
  | | |         34ac: 00 00 00 00 00 00 00 00 00 00 00 00 00 00       [..............]
  | | | + [BinaryData directory, 30 bytes, Big-endian]
  | | | | AFInfo2Version = 0100
  | | | | - Tag 0x0000 (4 bytes, undef[4]):
  | | | |     349c: 30 31 30 30                                     [0100]
  | | | | AFDetectionMethod = 0
  | | | | - Tag 0x0004 (1 bytes, int8u[1]):
  | | | |     34a0: 00                                              [.]
  | | | | AFAreaMode = 8
  | | | | - Tag 0x0005 (1 bytes, int8u[1]):
  | | | |     34a1: 08                                              [.]
  | | | | FocusPointSchema = 2
  | | | | - Tag 0x0006 (1 bytes, int8u[1]):
  | | | |     34a2: 02                                              [.]
  | | | | PrimaryAFPoint = 1
  | | | | - Tag 0x0007 (1 bytes, int8u[1]):
  | | | |     34a3: 01                                              [.]
  | | | | AFPointsUsed = ..
  | | | | - Tag 0x0008 (2 bytes, undef[2]):
  | | | |     34a4: fb 07                                           [..]
  | | | 55) FileInfo (SubDirectory) -->
  | | |     - Tag 0x00b8 (172 bytes, undef[172]):
  | | |         34bc: 30 31 30 30 00 00 00 64 00 03 00 00 00 00 00 00 [0100...d........]
  | | |         34cc: 00 00 00 00 00 00 00 00 00 00 00 00 00 00 00 00 [................]
  | | |         34dc: 00 00 00 00 00 00 00 00 00 00 00 00 00 00 00 00 [................]
  | | |         34ec: 00 00 00 00 00 00 00 00 00 00 00 00 00 00 00 00 [................]
  | | |         34fc: 00 00 00 00 00 00 00 00 00 00 00 00 00 00 00 00 [................]
  | | |         350c: 00 00 00 00 00 00 00 00 00 00 00 00 00 00 00 00 [................]
  | | |         351c: 00 00 00 00 00 00 00 00 00 00 00 00 00 00 00 00 [................]
  | | |         352c: 00 00 00 00 00 00 00 00 00 00 00 00 00 00 00 00 [................]
  | | |         353c: 00 00 00 00 00 00 00 00 00 00 00 00 00 00 00 00 [................]
  | | |         354c: 00 00 00 00 00 00 00 00 00 00 00 00 00 00 00 00 [................]
  | | |         355c: 00 00 00 00 00 00 00 00 00 00 00 00             [............]
  | | | + [BinaryData directory, 172 bytes, Big-endian]
  | | | | FileInfoVersion = 0100
  | | | | - Tag 0x0000 (4 bytes, undef[4]):
  | | | |     34bc: 30 31 30 30                                     [0100]
  | | | | MemoryCardNumber = 0
  | | | | - Tag 0x0002 (2 bytes, int16u[1]):
  | | | |     34c0: 00 00                                           [..]
  | | | | DirectoryNumber = 100
  | | | | - Tag 0x0003 (2 bytes, int16u[1]):
  | | | |     34c2: 00 64                                           [.d]
  | | | | FileNumber = 3
  | | | | - Tag 0x0004 (2 bytes, int16u[1]):
  | | | |     34c4: 00 03                                           [..]
  | | | 56) RetouchInfo (SubDirectory) -->
  | | |     - Tag 0x00bb (8 bytes, undef[8]):
  | | |         3568: 30 32 30 30 ff ff ff 00                         [0200....]
  | | | + [BinaryData directory, 8 bytes, Big-endian]
  | | | | RetouchInfoVersion = 0200
  | | | | - Tag 0x0000 (4 bytes, undef[4]):
  | | | |     3568: 30 32 30 30                                     [0200]
  | | | | RetouchNEFProcessing = -1
  | | | | - Tag 0x0005 (1 bytes, int8s[1]):
  | | | |     356d: ff                                              [.]
  | | | 57) Nikon_0x00bc = 0100D"....bf&bV"a..b&*c&5c&%a5.^..\..[U.YU.W.lV%XT.IT.RU.cU.BQd.K$.I4.K$.L..M..Ou.TeuY..]..`V.b6-cV9cf,a.._.._..bf&bV"a..b&*c&5c&%a5.^..\..[U.YU.W.lV%XT.IT.RU.cU.BQd.K$.I4.K$.L..M..Ou.TeuY..]..`V.b6-cV9cf,a.._.._..`..`..a..bF0c.>c.+av.^..\..Z..Y..WekV.XU5PT.HSu.M..C..;..8..:S.;3.;#.=t.G$.UE.^..bV.c67c.:cv.b&.`..`..[..[..]U.`.*c.Ec.0a..^..\u.Zu.Y..W.nVU_U.PS..M..A..2..)..(..)..)".(..*..7D.M5q^&!c.Bd.>c.8cV0b.%b.!b.!P..P..T5.\F.b.=c..a..^..\..ZU.YU.XE{W.gUU4O..C3.1..#.........q..1..q....)#CAt.X..b.:c.9cF/b.+b.0c63c63?..@..E..S.._."b.$a5.^..\U.Z..Z5.Y5.WEUR$.F..5..$1........A..a...v..p.....|3..M.v]f.a. a..av.a.&b.,b.,....c.6..Iu9[5.aV.`.._5.]..\u.[e.YewTd.I..8..&....|.ab..o..o..c..V.!P.1a...'#.?..T..].._e._U._..`..`.. ..!26(.(?..V5.`..`..`.._..^..[..V.'LTJ;.().!.1...O..[..s.1k..S..E.1B..D.A..b`1S.I..W..\E.\..]U.]..]...........5.EQ5.^..`.._.._..]..YeTOt~>.W,BC....1H..?..Z..w.Ae.!B..3.13.A4.qG.!.%..<4uO.YX..Z..[e.[e.[e...a..j...-..K.j\..^..[..Z..X.SP..B../2h.a...L..4.A9.!P..d..K.A#........%.a)..d..B/3.F..T%tX..Y..Y..Y....<..?...'3aEe.W..V.AQ.N..J4b@s.0..!!..AN..2..0..2.15.q4....P.....P..q..1..Q%.1.#r.:.WM.4V%xW..X..X....... ...!..>..O4.J.VA#.;..6C!-.s!Q...I..$.A'..,..(......0................p...E.R7/..FT.S.UVEkV.nV.n...q...c...7T.D.%;.B.B.(.\#2..1...D.1..a......$.1..A..`.....`..P.. ..0..`.....a..Q.%.#>..O.*TURU.ZU.Z. ....1`..}2..:s[-RM....1...Y.A/.............A........p.............. .....`......`...6t.ID.P.#S.0S.0.......aq.rj-..0..!.... .Q..1..p..p..P.......q.................p.....@..@..... ...!.r.,.t@.eJd.N$.N$...}.......2[*..'....3.`..... .....P.................!....... .....P..@.. .............!".3..@.LG.pG.p.Pu. ...~.R7%.J 1..........................p..... ..p..`..... .................p..........&..5..>c.>c...~.P..1X... Q...G....0.....P..p..@..P.....0..`..p........0.................`............Q..8*..5.P5.P.`.....A ..........P....................0.....................................`.. ..........!2m+..+............a9.q:.p..... ..... ...........`....P..p.....`..0........p...............0......M.Q. .. .....[snip]
  | | |     - Tag 0x00bc (3480 bytes, undef[3480]):
  | | |         3570: 30 31 30 30 00 44 00 22 0c 01 ff ff 62 66 26 62 [0100.D."....bf&b]
  | | |         3580: 56 22 61 f6 1f 62 26 2a 63 26 35 63 26 25 61 35 [V"a..b&*c&5c&%a5]
  | | |         3590: fe 5e c5 dc 5c f5 c2 5b 55 a6 59 55 86 57 85 6c [.^..\..[U.YU.W.l]
  | | |         35a0: 56 25 58 54 f5 49 54 a5 52 55 d5 63 55 c5 42 51 [V%XT.IT.RU.cU.BQ]
  | | |         35b0: 64 e1 4b 24 97 49 34 9f 4b 24 c3 4c f4 d6 4d a4 [d.K$.I4.K$.L..M.]
  | | |         35c0: e3 4f 75 1a 54 65 75 59 e5 bf 5d a5 f1 60 56 15 [.Ou.TeuY..]..`V.]
  | | |         35d0: 62 36 2d 63 56 39 63 66 2c 61 b6 08 5f 85 f8 5f [b6-cV9cf,a.._.._]
  | | |         35e0: 85 f8 62 66 26 62 56 22 61 f6 1f 62 26 2a 63 26 [..bf&bV"a..b&*c&]
  | | |         35f0: 35 63 26 25 61 35 fe 5e c5 dc 5c f5 c2 5b 55 a6 [5c&%a5.^..\..[U.]
  | | |         3600: 59 55 86 57 85 6c 56 25 58 54 f5 49 54 a5 52 55 [YU.W.lV%XT.IT.RU]
  | | |         3610: d5 63 55 c5 42 51 64 e1 4b 24 97 49 34 9f 4b 24 [.cU.BQd.K$.I4.K$]
  | | |         3620: c3 4c f4 d6 4d a4 e3 4f 75 1a 54 65 75 59 e5 bf [.L..M..Ou.TeuY..]
  | | |         3630: 5d a5 f1 60 56 15 62 36 2d 63 56 39 63 66 2c 61 []..`V.b6-cV9cf,a]
  | | |         3640: b6 08 5f 85 f8 5f 85 f8 60 b6 0b 60 c6 0d 61 16 [.._.._..`..`..a.]
  | | |         3650: 19 62 46 30 63 b6 3e 63 96 2b 61 76 01 5e d5 dc [.bF0c.>c.+av.^..]
  | | |         3660: 5c d5 be 5a f5 a0 59 15 83 57 65 6b 56 05 58 55 [\..Z..Y..WekV.XU]
  | | |         3670: 35 50 54 d5 48 53 75 14 4d a4 8d 43 83 e9 3b 03 [5PT.HSu.M..C..;.]
  | | |         3680: 93 38 e3 98 3a 53 af 3b 33 b3 3b 23 ba 3d 74 14 [.8..:S.;3.;#.=t.]
  | | |         3690: 47 24 e4 55 45 b0 5e f6 13 62 56 2e 63 36 37 63 [G$.UE.^..bV.c67c]
  | | |         36a0: a6 3a 63 76 2e 62 26 14 60 96 09 60 96 09 5b c5 [.:cv.b&.`..`..[.]
  | | |         36b0: bc 5b d5 c4 5d 55 ef 60 e6 2a 63 d6 45 63 f6 30 [.[..]U.`.*c.Ec.0]
  | | |         36c0: 61 a6 02 5e c5 d9 5c 75 b6 5a 75 9b 59 05 84 57 [a..^..\u.Zu.Y..W]
  | | |         36d0: 95 6e 56 55 5f 55 95 50 53 e5 19 4d b4 81 41 03 [.nVU_U.PS..M..A.]
  | | |         36e0: 97 32 82 d1 29 b2 84 28 12 88 29 02 93 29 22 8d [.2..)..(..)..)".]
  | | |         36f0: 28 92 8e 2a d2 f6 37 44 1d 4d 35 71 5e 26 21 63 [(..*..7D.M5q^&!c]
  | | |         3700: b6 42 64 16 3e 63 b6 38 63 56 30 62 a6 25 62 16 [.Bd.>c.8cV0b.%b.]
  | | |         3710: 21 62 16 21 50 c5 0c 50 d5 1c 54 35 7f 5c 46 01 [!b.!P..P..T5.\F.]
  | | |         3720: 62 a6 3d 63 c6 2e 61 96 01 5e a5 d4 5c 15 b1 5a [b.=c..a..^..\..Z]
  | | |         3730: 55 9c 59 55 8d 58 45 7b 57 15 67 55 55 34 4f b4 [U.YU.XE{W.gUU4O.]
  | | |         3740: a6 43 33 ab 31 e2 9f 23 b1 fa 1d 91 cf 1d 01 d4 [.C3.1..#........]
  | | |         3750: 1d 71 d7 1d 31 cd 1c 71 c9 1d f2 1b 29 23 43 41 [.q..1..q....)#CA]
  | | |         3760: 74 e6 58 a5 f3 62 86 3a 63 d6 39 63 46 2f 62 c6 [t.X..b.:c.9cF/b.]
  | | |         3770: 2b 62 d6 30 63 36 33 63 36 33 3f e3 fe 40 14 1b [+b.0c63c63?..@..]
  | | |         3780: 45 d4 c5 53 f5 ad 5f a6 22 62 c6 24 61 35 ff 5e [E..S.._."b.$a5.^]
  | | |         3790: a5 d6 5c 55 b8 5a f5 a8 5a 35 9c 59 35 87 57 45 [..\U.Z..Z5.Y5.WE]
  | | |         37a0: 55 52 24 d4 46 93 e4 35 12 c1 24 31 e4 1a 81 8a [UR$.F..5..$1....]
  | | |         37b0: 18 01 81 18 41 86 18 61 82 17 d1 76 17 11 70 17 [....A..a...v..p.]
  | | |         37c0: a1 9e 1e f2 7c 33 e4 16 4d e5 76 5d 66 07 61 b6 [....|3..M.v]f.a.]
  | | |         37d0: 20 61 e6 1a 61 76 19 61 f6 26 62 c6 2c 62 c6 2c [ a..av.a.&b.,b.,]
  | | |         37e0: 2e 02 e0 2e 63 0a 36 03 ec 49 75 39 5b 35 f9 61 [....c.6..Iu9[5.a]
  | | |         37f0: 56 18 60 f6 01 5f 35 e5 5d 95 cf 5c 75 bf 5b 65 [V.`.._5.]..\u.[e]
  | | |         3800: a9 59 65 77 54 64 fe 49 a4 1c 38 b2 f7 26 e1 fe [.YewTd.I..8..&..]
  | | |         3810: 1a d1 7c 16 61 62 16 81 6f 17 11 6f 16 a1 63 15 [..|.ab..o..o..c.]
  | | |         3820: c1 56 15 21 50 15 31 61 18 b1 e3 27 23 2e 3f c4 [.V.!P.1a...'#.?.]
  | | |         3830: b8 54 95 a7 5d 95 f0 5f 65 f6 5f 55 f7 5f d6 03 [.T..].._e._U._..]
  | | |         3840: 60 96 09 60 96 09 20 c2 0c 21 32 36 28 f3 28 3f [`..`.. ..!26(.(?]
  | | |         3850: 04 bc 56 35 cd 60 06 0f 60 e6 08 60 05 f8 5f 05 [..V5.`..`..`.._.]
  | | |         3860: e9 5e 05 d2 5b e5 9e 56 e5 27 4c 54 4a 3b d3 28 [.^..[..V.'LTJ;.(]
  | | |         3870: 29 b2 21 1c 31 83 15 e1 4f 15 01 5b 16 91 73 17 [).!.1...O..[..s.]
  | | |         3880: 31 6b 15 f1 53 14 b1 45 14 31 42 14 11 44 15 41 [1k..S..E.1B..D.A]
  | | |         3890: 7f 1d 62 60 31 53 db 49 15 1e 57 b5 ad 5c 45 cc [..b`1S.I..W..\E.]
  | | |         38a0: 5c f5 d2 5d 55 d9 5d c5 dc 5d c5 dc 19 91 99 19 [\..]U.]..]......]
  | | |         38b0: b1 b3 1f d2 8d 35 d4 45 51 35 a1 5e b6 06 60 86 [.....5.EQ5.^..`.]
  | | |         38c0: 03 5f c5 f6 5f 15 e9 5d b5 c1 59 65 54 4f 74 7e [._.._..]..YeTOt~]
  | | |         38d0: 3e f3 57 2c 42 43 1d c1 92 16 31 48 13 e1 3f 14 [>.W,BC....1H..?.]
  | | |         38e0: 91 5a 16 c1 77 17 41 65 15 21 42 13 81 33 13 31 [.Z..w.Ae.!B..3.1]
  | | |         38f0: 33 13 41 34 13 71 47 17 21 c7 25 03 01 3c 34 75 [3.A4.qG.!.%..<4u]
  | | |         3900: 4f e5 59 58 b5 a3 5a e5 b3 5b 65 b6 5b 65 b6 5b [O.YX..Z..[e.[e.[]
  | | |         3910: 65 b6 16 11 61 15 f1 6a 19 e2 18 2d f3 d4 4b d5 [e...a..j...-..K.]
  | | |         3920: 6a 5c 85 e6 5e 05 ce 5b e5 b2 5a 85 9a 58 05 53 [j\..^..[..Z..X.S]
  | | |         3930: 50 a4 a3 42 03 8b 2f 32 68 1f 61 a3 16 c1 4c 13 [P..B../2h.a...L.]
  | | |         3940: b1 34 13 41 39 14 21 50 15 e1 64 15 d1 4b 13 41 [.4.A9.!P..d..K.A]
  | | |         3950: 23 11 91 16 11 81 1d 12 11 25 12 61 29 13 91 64 [#........%.a)..d]
  | | |         3960: 1b a2 42 2f 33 b2 46 14 e8 54 25 74 58 d5 97 59 [..B/3.F..T%tX..Y]
  | | |         3970: b5 9a 59 85 98 59 85 98 13 c1 3c 13 b1 3f 16 11 [..Y..Y....<..?..]
  | | |         3980: c1 27 33 61 45 65 12 57 85 8c 56 e5 41 51 b5 00 [.'3aEe.W..V.AQ..]
  | | |         3990: 4e a4 ce 4a 34 62 40 73 93 30 f2 8a 21 21 b4 17 [N..J4b@s.0..!!..]
  | | |         39a0: 41 4e 13 a1 32 12 f1 30 13 11 32 13 31 35 13 71 [AN..2..0..2.15.q]
  | | |         39b0: 34 12 91 18 10 50 f7 0f 10 f1 0f 50 fd 10 71 0f [4....P.....P..q.]
  | | |         39c0: 11 31 13 11 51 25 15 31 ad 23 72 e9 3a 84 57 4d [.1..Q%.1.#r.:.WM]
  | | |         39d0: d5 34 56 25 78 57 f5 81 58 05 80 58 05 80 11 81 [.4V%xW..X..X....]
  | | |         39e0: 18 11 b1 20 13 81 84 21 c2 f6 3e 04 99 4f 34 ee [... ...!..>..O4.]
  | | |         39f0: 4a a4 56 41 23 e4 3b f3 97 36 43 21 2d 02 73 21 [J.VA#.;..6C!-.s!]
  | | |         3a00: 51 be 17 81 49 12 e1 24 12 41 27 12 a1 2c 12 b1 [Q...I..$.A'..,..]
  | | |         3a10: 28 12 01 17 10 c1 00 0f 30 e5 0d 90 d2 0d 00 d3 [(.......0.......]
  | | |         3a20: 0d a0 e3 0e f0 f8 0f c0 fa 0f 70 fa 11 01 45 1a [..........p...E.]
  | | |         3a30: 52 37 2f 13 b7 46 54 e4 53 05 55 56 45 6b 56 e5 [R7/..FT.S.UVEkV.]
  | | |         3a40: 6e 56 e5 6e 0f 00 f0 0f 71 02 11 e1 63 1e 82 a7 [nV.n....q...c...]
  | | |         3a50: 37 54 13 44 f4 25 3b 93 42 2e 42 a9 28 12 5c 23 [7T.D.%;.B.B.(.\#]
  | | |         3a60: 32 05 1d 31 9f 16 e1 44 12 31 0e 10 61 09 11 11 [2..1...D.1..a...]
  | | |         3a70: 1b 12 11 24 12 31 1d 11 41 06 0f 60 e7 0d 90 ce [...$.1..A..`....]
  | | |         3a80: 0c 60 c4 0c 50 cb 0d 20 db 0e 30 e7 0e 60 e0 0d [.`..P.. ..0..`..]
  | | |         3a90: a0 da 0e 61 05 14 51 b6 25 b3 23 3e 94 89 4f 15 [...a..Q.%.#>..O.]
  | | |         3aa0: 2a 54 55 52 55 a5 5a 55 a5 5a 0c 20 c2 0d 00 e8 [*TURU.ZU.Z. ....]
  | | |         3ab0: 11 31 60 1d b2 7d 32 13 93 3a 73 5b 2d 52 4d 1e [.1`..}2..:s[-RM.]
  | | |         3ac0: 91 b0 19 31 80 16 d1 59 14 41 2f 11 b1 09 0f 80 [...1...Y.A/.....]
  | | |         3ad0: ec 0e 90 f1 0f e1 0b 11 41 18 11 91 15 10 f1 04 [........A.......]
  | | |         3ae0: 0f 70 e9 0d c0 d2 0c b0 c9 0c b0 d1 0d 80 df 0e [.p..............]
  | | |         3af0: 20 e1 0d 90 ce 0c 60 c6 0c e0 e2 10 d1 60 1e 92 [ .....`......`..]
  | | |         3b00: a1 36 74 15 49 44 e2 50 c5 23 53 05 30 53 05 30 [.6t.ID.P.#S.0S.0]
  | | |         3b10: 09 90 99 0a e0 d6 11 61 71 1e 72 6a 2d f3 1d 30 [.......aq.rj-..0]
  | | |         3b20: 82 a7 21 e1 9f 14 91 20 11 51 14 11 31 0f 10 70 [..!.... .Q..1..p]
  | | |         3b30: ff 0f 70 ee 0e 50 dd 0d b0 e3 0f 00 fe 10 71 0b [..p..P........q.]
  | | |         3b40: 10 d1 0d 10 a1 05 0f e0 f4 0e 90 e0 0d 80 d5 0d [................]
  | | |         3b50: 70 db 0e 10 e5 0e 40 de 0d 40 c8 0b f0 be 0c 20 [p.....@..@..... ]
  | | |         3b60: ce 0e 91 21 18 72 1b 2c 93 74 40 04 65 4a 64 cd [...!.r.,.t@.eJd.]
  | | |         3b70: 4e 24 e2 4e 24 e2 07 d0 7d 09 90 cd 11 d1 83 1f [N$.N$...}.......]
  | | |         3b80: 32 5b 2a 12 b0 27 b2 12 19 81 33 0f 60 e0 0e 10 [2[*..'....3.`...]
  | | |         3b90: eb 0f 20 f2 0e e0 e9 0e 50 e2 0d d0 da 0d b0 e1 [.. .....P.......]
  | | |         3ba0: 0e b0 f4 0f a0 fd 0f f1 01 10 21 02 0f e0 f8 0f [..........!.....]
  | | |         3bb0: 00 e8 0e 20 df 0d f0 e1 0e 50 e6 0e 40 dc 0d 20 [... .....P..@.. ]
  | | |         3bc0: c7 0b f0 bc 0b c0 c1 0c d0 eb 12 91 8c 21 22 a8 [.............!".]
  | | |         3bd0: 33 93 b3 40 e4 4c 47 04 70 47 04 70 07 50 75 09 [3..@.LG.pG.p.Pu.]
  | | |         3be0: 20 c7 11 91 7e 1e 52 37 25 d2 4a 20 31 9e 13 a0 [ ...~.R7%.J 1...]
  | | |         3bf0: f0 0c b0 c3 0c c0 d9 0e 10 e3 0e 10 dd 0d b0 db [................]
  | | |         3c00: 0d a0 da 0d c0 e1 0e 70 ec 0e f0 f0 0f 20 f5 0f [.......p..... ..]
  | | |         3c10: 70 f8 0f 60 f1 0e c0 e6 0e 20 e0 0d f0 e0 0e 10 [p..`..... ......]
  | | |         3c20: e2 0d f0 d9 0c f0 c5 0b d0 b8 0b 70 b6 0b 80 c2 [...........p....]
  | | |         3c30: 0d c1 12 16 b1 e2 26 82 eb 35 a3 af 3e 63 e6 3e [......&..5..>c.>]
  | | |         3c40: 63 e6 07 e0 7e 09 50 c0 10 31 58 1a f1 ef 20 51 [c...~.P..1X... Q]
  | | |         3c50: e7 1a 01 47 0f a0 c8 0b 30 b4 0b f0 cc 0d 50 d8 [...G....0.....P.]
  | | |         3c60: 0d 70 d5 0d 40 d4 0d 50 d6 0d a0 df 0e 30 e6 0e [.p..@..P.....0..]
  | | |         3c70: 60 e6 0e 70 e9 0e b0 ec 0e a0 e7 0e 30 e0 0d e0 [`..p........0...]
  | | |         3c80: dc 0d b0 db 0d c0 dc 0d 90 d2 0c 90 bf 0b 60 b1 [..............`.]
  | | |         3c90: 0a f0 ad 0a b0 a9 0a e0 c6 0f b1 51 1c 02 38 2a [...........Q..8*]
  | | |         3ca0: b3 0b 35 03 50 35 03 50 09 60 96 0a 10 b9 0e 41 [..5.P5.P.`.....A]
  | | |         3cb0: 20 16 01 91 1a 11 88 14 f1 0d 0d 50 b5 0a a0 ae [ ..........P....]
  | | |         3cc0: 0b 90 c4 0c b0 cd 0c d0 cb 0c a0 ca 0c b0 ce 0d [................]
  | | |         3cd0: 30 d8 0d d0 df 0d f0 df 0d f0 e0 0e 10 e2 0e 00 [0...............]
  | | |         3ce0: dd 0d c0 db 0d b0 da 0d a0 d9 0d 90 d7 0d 10 c9 [................]
  | | |         3cf0: 0b e0 b4 0a d0 a8 0a 60 a5 0a 20 9d 09 a0 a2 0c [.......`.. .....]
  | | |         3d00: 10 fc 14 f1 b0 21 32 6d 2b 02 b0 2b 02 b0 0b c0 [.....!2m+..+....]
  | | |         3d10: bc 0b 80 ba 0c c0 ed 11 61 39 14 71 3a 11 70 ed [........a9.q:.p.]
  | | |         3d20: 0c b0 b8 0b 20 b6 0b c0 c0 0c 20 c1 0b f0 be 0b [.... ..... .....]
  | | |         3d30: d0 bd 0b e0 c1 0c 60 cb 0d 00 d3 0d 50 d5 0d 70 [......`.....P..p]
  | | |         3d40: d9 0d a0 d9 0d 60 d3 0d 30 d6 0d 80 da 0d a0 d9 [.....`..0.......]
  | | |         3d50: 0d 70 d2 0c 90 bd 0b 00 a7 0a 00 9e 09 d0 9d 09 [.p..............]
  | | |         [snip 1448 bytes]
  | | 14) UserComment = ASCII                                    
  | |     - Tag 0x9286 (44 bytes, undef[44]):
  | |         03c4: 41 53 43 49 49 00 00 00 20 20 20 20 20 20 20 20 [ASCII...        ]
  | |         03d4: 20 20 20 20 20 20 20 20 20 20 20 20 20 20 20 20 [                ]
  | |         03e4: 20 20 20 20 20 20 20 20 20 20 20 20             [            ]
  | | 15) SubSecTime = 10
  | |     - Tag 0x9290 (3 bytes, string[3]):
  | |         029e: 31 30 00                                        [10.]
  | | 16) SubSecTimeOriginal = 10
  | |     - Tag 0x9291 (3 bytes, string[3]):
  | |         02aa: 31 30 00                                        [10.]
  | | 17) SubSecTimeDigitized = 10
  | |     - Tag 0x9292 (3 bytes, string[3]):
  | |         02b6: 31 30 00                                        [10.]
  | | 18) SensingMethod = 2
  | |     - Tag 0xa217 (2 bytes, int16u[1]):
  | |         02c2: 00 02                                           [..]
  | | 19) FileSource = 3
  | |     - Tag 0xa300 (1 bytes, undef[1]):
  | |         02ce: 03                                              [.]
  | | 20) SceneType = 1
  | |     - Tag 0xa301 (1 bytes, undef[1]):
  | |         02da: 01                                              [.]
  | | 21) CFAPattern = .....
  | |     - Tag 0xa302 (8 bytes, undef[8]):
  | |         03f0: 00 02 00 02 00 01 01 02                         [........]
  | | 22) CustomRendered = 0
  | |     - Tag 0xa401 (2 bytes, int16u[1]):
  | |         02f2: 00 00                                           [..]
  | | 23) ExposureMode = 0
  | |     - Tag 0xa402 (2 bytes, int16u[1]):
  | |         02fe: 00 00                                           [..]
  | | 24) WhiteBalance = 0
  | |     - Tag 0xa403 (2 bytes, int16u[1]):
  | |         030a: 00 00                                           [..]
  | | 25) DigitalZoomRatio = 1 (1/1)
  | |     - Tag 0xa404 (8 bytes, rational64u[1]):
  | |         03f8: 00 00 00 01 00 00 00 01                         [........]
  | | 26) FocalLengthIn35mmFormat = 45
  | |     - Tag 0xa405 (2 bytes, int16u[1]):
  | |         0322: 00 2d                                           [.-]
  | | 27) SceneCaptureType = 0
  | |     - Tag 0xa406 (2 bytes, int16u[1]):
  | |         032e: 00 00                                           [..]
  | | 28) GainControl = 0
  | |     - Tag 0xa407 (2 bytes, int16u[1]):
  | |         033a: 00 00                                           [..]
  | | 29) Contrast = 0
  | |     - Tag 0xa408 (2 bytes, int16u[1]):
  | |         0346: 00 00                                           [..]
  | | 30) Saturation = 0
  | |     - Tag 0xa409 (2 bytes, int16u[1]):
  | |         0352: 00 00                                           [..]
  | | 31) Sharpness = 0
  | |     - Tag 0xa40a (2 bytes, int16u[1]):
  | |         035e: 00 00                                           [..]
  | | 32) SubjectDistanceRange = 0
  | |     - Tag 0xa40c (2 bytes, int16u[1]):
  | |         036a: 00 00                                           [..]
  | 22) GPSInfo (SubDirectory) -->
  |     - Tag 0x8825 (4 bytes, int32u[1]):
  |         011a: 00 01 e4 dc                                     [....]
  | + [GPS directory with 1 entries, Big-endian]
  | | 0)  GPSVersionID = 2 3 0 0
  | |     - Tag 0x0000 (4 bytes, int8u[4]):
  | |        1e4e6: 02 03 00 00                                     [....]
  | 23) DateTimeOriginal = 2014:08:12 09:30:58
  |     - Tag 0x9003 (20 bytes, string[20]):
  |         01cc: 32 30 31 34 3a 30 38 3a 31 32 20 30 39 3a 33 30 [2014:08:12 09:30]
  |         01dc: 3a 35 38 00                                     [:58.]
  | 24) TIFF-EPStandardID = 1 0 0 0
  |     - Tag 0x9216 (4 bytes, int8u[4]):
  |         0132: 01 00 00 00                                     [....]
