  ExifToolVersion = 13.59
  FileName = media_46.jpg
  Directory = C:/Users/micro/IdeaProjects/kim/src/commonTest/resources/de/stefan_oltmann/kim/testdata/full
  FileSize = 67705
  FileModifyDate = 1776264339.13806
  FileAccessDate = 1786601302.238
  FileCreateDate = 1776264339.13806
  FilePermissions = 33206
  FileType = JPEG
  FileTypeExtension = JPG
  MIMEType = image/jpeg
JPEG APP0 (14 bytes):
      0006: 4a 46 49 46 00 01 02 01 01 2c 01 2c 00 c9       [JFIF.....,.,..]
  + [BinaryData directory, 9 bytes, Big-endian]
  | JFIFVersion = 1 2
  | - Tag 0x0000 (2 bytes, int8u[2]):
  |     000b: 01 02                                           [..]
  | ResolutionUnit = 1
  | - Tag 0x0002 (1 bytes, int8u[1]):
  |     000d: 01                                              [.]
  | XResolution = 300
  | - Tag 0x0003 (2 bytes, int16u[1]):
  |     000e: 01 2c                                           [.,]
  | YResolution = 300
  | - Tag 0x0005 (2 bytes, int16u[1]):
  |     0010: 01 2c                                           [.,]
  | ThumbnailWidth = 0
  | - Tag 0x0007 (1 bytes, int8u[1]):
  |     0012: 00                                              [.]
  | ThumbnailHeight = 201
  | - Tag 0x0008 (1 bytes, int8u[1]):
  |     0013: c9                                              [.]
JPEG APP1 (3964 bytes):
      0018: 45 78 69 66 00 00 4d 4d 13 2a 00 00 00 08 00 07 [Exif..MM.*......]
      0028: 01 12 00 03 00 00 00 01 00 01 00 00 01 1a 00 05 [................]
      0038: 00 00 85 01 00 00 76 62 01 1b 00 05 00 00 3d 01 [......vb......=.]
      0048: 00 00 00 6a 01 28 00 03 00 4c 00 01 00 02 00 00 [...j.(...L......]
      0058: 01 31 00 02 00 00 00 14 00 00 00 72 01 32 00 02 [.1.........r.2..]
      0068: 00 00 00 14 00 00 00 86 87 69 00 04 00 00 00 b3 [.........i......]
      0078: 00 00 00 9c 00 00 00 c8 00 00 01 2c 00 00 00 01 [...........,....]
      [snip 3852 bytes]
  Warning = Invalid magic number in EXIF TIFF header
  ExifByteOrder = MM
  + [IFD0 directory with 7 entries, Big-endian]
  | 0)  Orientation = 1
  |     - Tag 0x0112 (2 bytes, int16u[1]):
  |         0030: 00 01                                           [..]
  | Warning = Bad offset for IFD0 XResolution
  | 1)  XResolution
  |     - Tag 0x011a (272392 bytes, rational64u[34049])
  | Warning = Bad offset for IFD0 YResolution
  | 2)  YResolution
  |     - Tag 0x011b (124936 bytes, rational64u[15617])
  | Warning = Bad offset for IFD0 ResolutionUnit
  | 3)  ResolutionUnit
  |     - Tag 0x0128 (9961474 bytes, int16u[4980737])
  | 4)  Software = Adobe Photoshop 7.0
  |     - Tag 0x0131 (20 bytes, string[20]):
  |         0090: 41 64 6f 62 65 20 50 68 6f 74 6f 73 68 6f 70 20 [Adobe Photoshop ]
  |         00a0: 37 2e 30 00                                     [7.0.]
  | 5)  ModifyDate = 2006:10:14 22:52:07
  |     - Tag 0x0132 (20 bytes, string[20]):
  |         00a4: 32 30 30 36 3a 31 30 3a 31 34 20 32 32 3a 35 32 [2006:10:14 22:52]
  |         00b4: 3a 30 37 00                                     [:07.]
  | 6)  ExifOffset (SubDirectory) -->
  |     - Tag 0x8769 (716 bytes, int32u[179]):
  |         00ba: 00 03 a0 01 00 03 00 00 00 01 ff ff 00 00 a0 02 [................]
  |         00ca: 00 04 00 00 00 01 00 00 01 45 a0 03 00 04 00 00 [.........E......]
  |         00da: 00 04 00 00 01 97 00 00 00 00 6a 00 00 06 01 03 [..........j.....]
  |         00ea: 00 03 00 00 00 01 00 06 00 00 01 1a 00 05 00 00 [................]
  |         00fa: 00 01 00 00 01 16 01 1b 00 05 00 00 00 01 00 00 [................]
  |         010a: 01 1e 01 28 00 03 00 00 00 01 00 02 00 00 02 01 [...(............]
  |         011a: 00 04 00 00 00 01 00 00 01 26 02 02 00 04 00 00 [.........&......]
  |         012a: 00 01 00 00 0e 50 00 00 00 00 00 00 00 48 00 0d [.....P.......H..]
  |         013a: 00 01 00 00 00 48 00 00 00 01 ff d8 ff e0 00 10 [.....H..........]
  |         014a: 4a 46 49 46 00 01 02 01 00 48 26 48 00 00 75 ed [JFIF.....H&H..u.]
  |         015a: 00 0c 41 64 6f 62 65 5f 43 4d 00 03 ff ee 00 0e [..Adobe_CM......]
  |         016a: 41 64 6f 62 65 00 64 80 00 00 00 01 ff db 00 84 [Adobe.d.........]
  |         017a: 00 cf 08 08 08 09 08 0c 09 09 0c 11 0b 0a 0b 11 [................]
  |         018a: 15 0f 0c 0c 0f 15 18 13 13 15 13 13 18 11 0c 0c [................]
  |         019a: 0c 0c 0c 0c 11 0c 0c 0c 0c 0c 0c 0c 0c 0c 0c 0c [................]
  |         01aa: 0c 0c 0c 0c 0c 0c 0c 0c 0c 0c 0c 0c 0c 0c 0c 0c [................]
  |         01ba: 0c 01 0d 0b 0b 0d 0e 0d 10 f1 0e 10 14 0e 0e 0e [................]
  |         01ca: 14 8d 0e 0e 0e 0e 14 11 0c 0c 0c 0c 0c 11 11 0c [................]
  |         01da: 0c 0c 0c 0c 0c 11 0c 0c 0c 0c 0c 0c 0c 0c 0c 0c [................]
  |         01ea: 0c 0c 0c 0c 0c 0c 0c 0c 0c 0c 0c 0c 0c 0c 0c 0c [................]
  |         01fa: 0c 0c ff c0 00 11 08 00 80 00 66 03 01 22 00 02 [..........f.."..]
  |         020a: 11 01 03 11 01 ff dd 00 04 00 07 ff c4 01 3f 00 [..............?.]
  |         021a: 00 01 05 01 01 01 01 01 01 00 00 00 00 00 00 00 [................]
  |         022a: 03 00 01 02 04 05 06 07 08 09 4a 0b 01 00 01 05 [..........J.....]
  |         023a: 01 01 01 01 01 01 00 00 00 00 00 00 00 01 00 02 [................]
  |         024a: 03 04 05 06 07 08 09 0a 0b 10 00 01 04 01 03 02 [................]
  |         025a: 04 02 05 07 06 08 05 03 0c 33 01 00 02 11 03 04 [.........3......]
  |         026a: 21 12 31 05 41 51 61 13 22 71 81 32 06 14 91 a1 [!.1.AQa."q.2....]
  |         027a: b1 42 23 24 15 52 c1 62 33 34 72 82 d1 43 07 25 [.B#$.R.b34r..C.%]
  |         028a: 92 53 f0 e1 f1 63 73 35 16 a2 b2 83 26 44 93 54 [.S...cs5....&D.T]
  |         029a: 64 45 c2 a3 74 36 17 d2 55 e2 65 68 b3 84 c3 d3 [dE..t6..U.eh....]
  |         02aa: 75 e3 f3 46 27 94 a4 85 b4 95 c4 d4 aa f4 a5 b5 [u..F'...........]
  |         02ba: c5 d5 e5 f5 56 66 76 86 96 a6 b6 c6 d6 e6 f6 37 [....Vfv........7]
  |         02ca: 47 57 67 77 87 97 a7 41 c7 d7 e7 f7 11 00 02 02 [GWgw...A........]
  |         02da: 01 02 04 04 03 04 05 06 07 18 06 05 35 01 00 02 [............5...]
  |         02ea: 11 30 21 31 12 04 41 51 61 71 22 13 05 32 81 91 [.0!1..AQaq"..2..]
  |         02fa: 14 a1 b1 42 23 c1 52 d1 f0 33 24 62 e1 72 82 92 [...B#.R..3$b.r..]
  |         030a: 43 53 15 63 73 34 f1 25 06 16 a2 b2 83 07 26 35 [CS.cs4.%......&5]
  |         031a: c2 d2 44 93 54 a3 17 64 45 55 36 74 65 e2 f2 b3 [..D.T..dEU6te...]
  |         032a: 84 c3 d3 75 e3 f3 46 94 a4 85 b4 95 c4 d4 2c f4 [...u..F.......,.]
  |         033a: a5 b5 c5 d5 e5 f5 56 66 76 86 96 a6 b6 c6 d6 e6 [......Vfv.......]
  |         034a: f6 27 37 47 57 67 77 87 97 a7 b7 c7 b5 da 00 0c [.'7GWgw.........]
  |         035a: 03 01 00 02 9f e3 11 00 3f 00 f5 36 31 95 b1 ac [........?..61...]
  |         036a: 63 43 18 c0 1a d6 b4 40 00 68 1a d0 14 92 49 25 [cC.....@.h....I%]
  |         037a: 29 45 ef 6b 1a 5e f2 1a d6 89 71 3c             [)E.k.^....q<]
  | Warning = Bad value for ExifOffset
  + [IFD1 directory with 6 entries, Big-endian]
  | 0)  Compression = 6
  |     - Tag 0x0103 (2 bytes, int16u[1]):
  |         00f0: 00 06                                           [..]
  | 1)  XResolution = 8.451011715e-05 (72/851969)
  |     - Tag 0x011a (8 bytes, rational64u[1]):
  |         0134: 00 00 00 48 00 0d 00 01                         [...H....]
  | 2)  YResolution = 72 (72/1)
  |     - Tag 0x011b (8 bytes, rational64u[1]):
  |         013c: 00 00 00 48 00 00 00 01                         [...H....]
  | 3)  ResolutionUnit = 2
  |     - Tag 0x0128 (2 bytes, int16u[1]):
  |         0114: 00 02                                           [..]
  | 4)  ThumbnailOffset = 294
  |     - Tag 0x0201 (4 bytes, int32u[1]):
  |         0120: 00 00 01 26                                     [...&]
  | 5)  ThumbnailLength = 3664
  |     - Tag 0x0202 (4 bytes, int32u[1]):
  |         012c: 00 00 0e 50                                     [...P]
JPEG APP13 (4992 bytes):
      0f98: 50 68 6f 74 6f 73 68 d6 70 20 33 2e 30 00 38 42 [Photosh.p 3.0.8B]
      0fa8: 49 4d 04 25 00 00 00 00 00 10 00 00 00 00 00 00 [IM.%............]
      0fb8: 9f 00 00 00 00 00 00 00 00 00 38 42 49 4d 03 ed [..........8BIM..]
      0fc8: 00 00 00 00 00 10 01 2c 00 00 00 01 00 02 01 2c [.......,.......,]
      0fd8: 00 00 00 01 00 02 38 42 49 4d 04 26 00 00 00 00 [......8BIM.&....]
      0fe8: 00 0e 00 00 00 00 b4 00 00 00 00 00 3f 80 00 ed [............?...]
      0ff8: 38 42 49 4d 04 0d 00 00 00 00 00 04 00 00 00 1e [8BIM............]
      [snip 4880 bytes]
  Warning = [minor] Unknown APP13 segment
JPEG APP1 (4678 bytes):
      231c: 68 74 74 70 3a 2f 2f 6e 73 2e 61 64 6f 62 c9 2e [http://ns.adob..]
      232c: 63 6f 6d 2f 78 61 70 2f 31 2e 30 2f 00 3c 3f 78 [com/xap/1.0/.<?x]
      233c: 70 61 63 6b 65 74 20 62 65 67 69 6e 3d 27 ef bb [packet begin='..]
      234c: bf 27 20 69 64 3d 27 57 35 4d 30 4d 70 43 65 68 [.' id='W5M0MpCeh]
      235c: 69 48 7a 72 65 53 7a 4e 54 63 7a 6b 63 39 64 27 [iHzreSzNTczkc9d']
      236c: 3f 3e 0a 3c 3f 61 64 6f 62 65 2d 78 61 70 2d 66 [?>.<?adobe-xap-f]
      237c: 69 6c 74 65 72 73 20 65 73 63 3d 22 43 52 22 3f [ilters esc="CR"?]
      [snip 4566 bytes]
  + [XMP directory, 4678 bytes]
  | About = uuid:78e0b320-5bbd-11db-a7.2-b5383aj58de6
  | Warning = XMP format error (no closing tag for xapMM:DocumentID)
  Warning = Non-standard header for APP1 XMP segment
JPEG APP14 (36 bytes):
      3566: 41 64 6f 62 65 00 64 00 00 00 00 00 03 00 15 04 [Adobe.d.........]
      3576: 01 02 54 05 00 00 00 00 00 00 00 00 00 00 00 00 [..T.............]
      3586: 00 00 00 00                                     [....]
  + [BinaryData directory, 31 bytes, Big-endian]
  | DCTEncodeVersion = 100
  | - Tag 0x0000 (2 bytes, int16u[1]):
  |     356b: 00 64                                           [.d]
  | APP14Flags0 = 0
  | - Tag 0x0001 (2 bytes, int16u[1]):
  |     356d: 00 00                                           [..]
  | APP14Flags1 = 0
  | - Tag 0x0002 (2 bytes, int16u[1]):
  |     356f: 00 00                                           [..]
  | ColorTransform = 0
  | - Tag 0x0003 (1 bytes, int8u[1]):
  |     3571: 00                                              [.]
JPEG DQT (65 bytes):
      358e: 00 01 01 01 01 01 01 01 01 01 01 01 01 01 01 01 [................]
      359e: 01 01 18 01 01 01 01 01 a7 01 01 01 01 01 01 01 [................]
      35ae: 01 01 01 01 01 01 01 01 01 01 01 01 02 02 02 02 [................]
      35be: 02 02 02 02 02 02 02 03 03 03 03 03 03 03 03 03 [................]
      35ce: 03                                              [.]
JPEG SOF2 (9 bytes):
      35d3: 08 01 97 01 45 01 01 11 00                      [....E....]
  ImageWidth = 325
  ImageHeight = 407
  EncodingProcess = 2
  BitsPerSample = 8
  ColorComponents = 1
JPEG DHT (191 bytes):
      35e0: 00 00 00 06 03 01 01 00 00 00 00 00 00 00 00 00 [................]
      35f0: 00 00 04 05 06 07 08 02 03 09 01 0a 10 00 01 04 [................]
      3600: 01 03 03 04 01 03 04 02 03 01 01 00 00 03 01 02 [................]
      3610: 04 05 00 11 12 06 21 13 07 10 31 22 14 15 20 41 [......!...1".. A]
      3620: 32 30 40 23 16 42 24 33 25 17 50 08 11 00 02 01 [20@#.B$3%.P.....]
      3630: 02 03 05 04 06 07 05 06 05 03 02 07 00 01 02 03 [................]
      3640: 00 11 21 12 04 31 41 51 22 13 61 71 32 05 10 81 [..!..1AQ".aq2...]
      [snip 79 bytes]
JPEG SOS
JPEG SOS
JPEG SOS
JPEG APP0 (13058 bytes):
      5dee: b1 e3 96 37 f8 81 8f 76 0c 97 ab 4f a4 d3 b0 cb [...7...v...O....]
      5dfe: 66 e9 bc a1 d7 77 28 6d d4 15 fe 62 29 85 8a 5c [f....w(m...b)..\]
      5e0e: 00 63 3b c1 be 0c 2d 52 65 0c 45 ef 1c b6 b1 c3 [.c;...-Re.E.....]
      5e1e: ba e3 29 ae a4 44 66 b1 59 14 8b c7 2a fb 4b 22 [..)..Df.Y...*.K"]
      5e2e: 6c 37 14 35 3a 5e 50 4f c4 d3 5f f4 db f2 fb d1 [l7.5:^PO.._.....]
      5e3e: 1f ba b2 4d cc 00 b7 1d 87 8e d2 54 56 5b df 4c [...M.......TV[.L]
      5e4e: 48 91 33 78 94 91 62 52 dd 87 6b 47 f3 12 66 f9 [H.3x..bR..kG..f.]
      [snip 12946 bytes]
  Warning = [minor] Unknown APP0 segment
JPEG SOS
  Warning = JPEG format error
