  ExifToolVersion = 13.59
  FileName = media_87.avif
  Directory = C:/Users/micro/IdeaProjects/kim/src/commonTest/resources/de/stefan_oltmann/kim/testdata/full
  FileSize = 16315319
  FileModifyDate = 1777200767.93468
  FileAccessDate = 1786601590.42321
  FileCreateDate = 1777200767.91558
  FilePermissions = 33206
  FileType = AVIF
  FileTypeExtension = AVIF
  MIMEType = image/avif
  FileType (SubDirectory) -->
  - Tag 'ftyp' (36 bytes):
      0008: 61 76 69 73 00 00 00 00 61 76 69 66 61 76 69 73 [avis....avifavis]
      0018: 6d 73 66 31 69 73 6f 38 6d 69 66 31 6d 69 61 66 [msf1iso8mif1miaf]
      0028: 4d 41 31 41                                     [MA1A]
  + [BinaryData directory, 36 bytes, Big-endian]
  | MajorBrand = avis
  | - Tag 0x0000 (4 bytes, undef[4]):
  |     0008: 61 76 69 73                                     [avis]
  | MinorVersion = 
  | - Tag 0x0001 (4 bytes, undef[4]):
  |     000c: 00 00 00 00                                     [....]
  | CompatibleBrands = avifavismsf1iso8mif1miafMA1A
  | - Tag 0x0002 (28 bytes, undef[28]):
  |     0010: 61 76 69 66 61 76 69 73 6d 73 66 31 69 73 6f 38 [avifavismsf1iso8]
  |     0020: 6d 69 66 31 6d 69 61 66 4d 41 31 41             [mif1miafMA1A]
  Meta (SubDirectory) -->
  - Tag 'meta' (262 bytes):
      0034: 00 00 00 00 00 00 00 21 68 64 6c 72 00 00 00 00 [.......!hdlr....]
      0044: 00 00 00 00 70 69 63 74 00 00 00 00 00 00 00 00 [....pict........]
      0054: 00 00 00 00 00 00 00 00 0e 70 69 74 6d 00 00 00 [.........pitm...]
      0064: 00 00 01 00 00 00 2c 69 6c 6f 63 00 00 00 00 44 [......,iloc....D]
      0074: 00 00 02 00 01 00 00 00 01 00 00 4c be 00 7a 98 [...........L..z.]
      0084: 5c 00 02 00 00 00 01 00 00 06 4c 00 00 46 72 00 [\.........L..Fr.]
      0094: 00 00 3d 69 69 6e 66 00 00 00 00 00 02 00 00 00 [..=iinf.........]
      00a4: 1a 69 6e 66 65 02 00 00 00 00 01 00 00 61 76 30 [.infe........av0]
      00b4: 31 43 6f 6c 6f 72 00 00 00 00 15 69 6e 66 65 02 [1Color.....infe.]
      00c4: 00 00 00 00 02 00 00 45 78 69 66 00 00 00 00 6a [.......Exif....j]
      00d4: 69 70 72 70 00 00 00 4b 69 70 63 6f 00 00 00 14 [iprp...Kipco....]
      00e4: 69 73 70 65 00 00 00 00 00 00 15 60 00 00 0e 40 [ispe.......`...@]
      00f4: 00 00 00 10 70 69 78 69 00 00 00 00 03 08 08 08 [....pixi........]
      0104: 00 00 00 0c 61 76 31 43 81 30 00 00 00 00 00 13 [....av1C.0......]
      0114: 63 6f 6c 72 6e 63 6c 78 00 01 00 0d 00 00 80 00 [colrnclx........]
      0124: 00 00 17 69 70 6d 61 00 00 00 00 00 00 00 01 00 [...ipma.........]
      0134: 01 04 01 02 83 04                               [......]
  + [Meta directory]
  | Handler (SubDirectory) -->
  | - Tag 'hdlr' (25 bytes):
  |     0040: 00 00 00 00 00 00 00 00 70 69 63 74 00 00 00 00 [........pict....]
  |     0050: 00 00 00 00 00 00 00 00 00                      [.........]
  | + [BinaryData directory, 25 bytes, Big-endian]
  | | HandlerClass = 
  | | - Tag 0x0004 (4 bytes, undef[4]):
  | |     0044: 00 00 00 00                                     [....]
  | | HandlerType = pict
  | | - Tag 0x0008 (4 bytes, undef[4]):
  | |     0048: 70 69 63 74                                     [pict]
  | | HandlerVendorID = 
  | | - Tag 0x000c (4 bytes, undef[4]):
  | |     004c: 00 00 00 00                                     [....]
  | | HandlerDescription = 
  | | - Tag 0x0018 (1 bytes, string[1]):
  | |     0058: 00                                              [.]
  | PrimaryItemReference = .
  | - Tag 'pitm' (6 bytes):
  |     0061: 00 00 00 00 00 01                               [......]
  | ItemLocation = D...L.z.\...LFr
  | - Tag 'iloc' (36 bytes):
  |     006f: 00 00 00 00 44 00 00 02 00 01 00 00 00 01 00 00 [....D...........]
  |     007f: 4c be 00 7a 98 5c 00 02 00 00 00 01 00 00 06 4c [L..z.\.........L]
  |     008f: 00 00 46 72                                     [..Fr]
  |   Item 1: const_meth= base=0x0 offset=0x4cbe len=0x7a985c
  |   Item 2: const_meth= base=0x0 offset=0x64c len=0x4672
  | ItemInformation (SubDirectory) -->
  | - Tag 'iinf' (53 bytes):
  |     009b: 00 00 00 00 00 02 00 00 00 1a 69 6e 66 65 02 00 [..........infe..]
  |     00ab: 00 00 00 01 00 00 61 76 30 31 43 6f 6c 6f 72 00 [......av01Color.]
  |     00bb: 00 00 00 15 69 6e 66 65 02 00 00 00 00 02 00 00 [....infe........]
  |     00cb: 45 78 69 66 00                                  [Exif.]
  | + [ItemInformation directory]
  | | ItemInfoEntry = ..av01Color
  | | - Tag 'infe' (18 bytes):
  | |     00a9: 02 00 00 00 00 01 00 00 61 76 30 31 43 6f 6c 6f [........av01Colo]
  | |     00b9: 72 00                                           [r.]
  | |   Item 1: Type=av01 Name=Color ContentType= (PrimaryItem)
  | | ItemInfoEntry = ..Exif
  | | - Tag 'infe' (13 bytes):
  | |     00c3: 02 00 00 00 00 02 00 00 45 78 69 66 00          [........Exif.]
  | |   Item 2: Type=Exif Name= ContentType=
  | ItemProperties (SubDirectory) -->
  | - Tag 'iprp' (98 bytes):
  |     00d8: 00 00 00 4b 69 70 63 6f 00 00 00 14 69 73 70 65 [...Kipco....ispe]
  |     00e8: 00 00 00 00 00 00 15 60 00 00 0e 40 00 00 00 10 [.......`...@....]
  |     00f8: 70 69 78 69 00 00 00 00 03 08 08 08 00 00 00 0c [pixi............]
  |     0108: 61 76 31 43 81 30 00 00 00 00 00 13 63 6f 6c 72 [av1C.0......colr]
  |     0118: 6e 63 6c 78 00 01 00 0d 00 00 80 00 00 00 17 69 [nclx...........i]
  |     0128: 70 6d 61 00 00 00 00 00 00 00 01 00 01 04 01 02 [pma.............]
  |     0138: 83 04                                           [..]
  | + [ItemProperties directory]
  | | ItemPropertyContainer (SubDirectory) -->
  | | - Tag 'ipco' (67 bytes):
  | |     00e0: 00 00 00 14 69 73 70 65 00 00 00 00 00 00 15 60 [....ispe.......`]
  | |     00f0: 00 00 0e 40 00 00 00 10 70 69 78 69 00 00 00 00 [...@....pixi....]
  | |     0100: 03 08 08 08 00 00 00 0c 61 76 31 43 81 30 00 00 [........av1C.0..]
  | |     0110: 00 00 00 13 63 6f 6c 72 6e 63 6c 78 00 01 00 0d [....colrnclx....]
  | |     0120: 00 00 80                                        [...]
  | | [Process ipco box later]
  | | ItemPropertyAssociation = .......
  | | - Tag 'ipma' (15 bytes):
  | |     012b: 00 00 00 00 00 00 00 01 00 01 04 01 02 83 04    [...............]
  | |   Item 1 properties: 1 2 3 4
  + [Processing items from ItemInformation directory with 2 entries]
  | Item 1) 'av01' (8034396 bytes)
  |     4cbe: 12 00 0a 0e 20 00 00 83 2e ab fc 7e e5 7c 90 10 [.... ......~.|..]
  |     4cce: d0 02 32 c5 b0 ea 03 14 00 35 a0 00 00 00 16 29 [..2......5.....)]
  |     4cde: 00 f8 a1 6c d9 b7 e4 86 89 30 c2 e1 86 5a ba 96 [...l.....0...Z..]
  |     4cee: 89 66 e1 8e 0c af 7a 94 d3 33 09 82 2f 68 70 8b [.f....z..3../hp.]
  |     4cfe: 22 35 24 3e 8b 36 03 aa 8c 2d fe b2 b6 31 9b d9 ["5$>.6...-...1..]
  |     4d0e: a4 f7 d5 3e 01 57 c9 1f d2 e9 86 ee 9d 2b 2d 2a [...>.W.......+-*]
  |     4d1e: 9b 1f 05 c4 d0 19 9f ae cd e9 25 62 21 f3 f5 a1 [..........%b!...]
  |     4d2e: 1f b8 26 28 57 34 3c 4f 5e fe 09 b8 b9 89 d6 e5 [..&(W4<O^.......]
  |     4d3e: d9 e2 90 b7 8e 23 fc a9 70 03 e5 90 a6 fb 85 fd [.....#..p.......]
  |     4d4e: 64 fa 67 91 b8 8b c2 b0 99 fa ee 63 df 67 32 f5 [d.g........c.g2.]
  |     4d5e: 27 0f 47 0e 3d 4f c0 50 24 9a 13 e6 df f8 a6 5d ['.G.=O.P$......]]
  |     4d6e: 6b 66 9b da 18 9f db 08 3f d0 ee 89 d3 c6 44 d0 [kf......?.....D.]
  |     4d7e: 9e 8d e6 e1 ac 51 a9 fb 1a b4 c5 4d 14 69 66 7e [.....Q.....M.if~]
  |     4d8e: 61 30 9b 6f 1c 72 63 e4 64 51 9d 46 2e 54 bd 9d [a0.o.rc.dQ.F.T..]
  |     4d9e: 71 51 38 37 21 47 5b 34 ac c9 a2 ab 48 18 2d f0 [qQ87!G[4....H.-.]
  |     4dae: 8c 80 1e 46 0b fa 2c de 6f 2c d0 7e 41 41 bb 7a [...F..,.o,.~AA.z]
  |     4dbe: 38 fc 6e 60 37 95 05 db 02 1e 1a 13 19 75 19 74 [8.n`7........u.t]
  |     4dce: ca 29 57 f3 fd c1 f3 6d b4 59 ab d9 f7 0d b5 33 [.)W....m.Y.....3]
  |     4dde: c0 ce 20 e0 33 ac 3f e2 13 be 84 8b a6 2f 0f 5a [.. .3.?....../.Z]
  |     4dee: a4 1b 53 9a 2f 81 41 de a5 f8 83 f7 fa b7 7e 3b [..S./.A.......~;]
  |     4dfe: 8d 94 c0 fb a4 14 42 b6 c8 b8 99 20 7f 01 85 96 [......B.... ....]
  |     4e0e: 51 66 51 eb 6e ec 3e 5f d0 30 09 1f 8f af f6 a7 [QfQ.n.>_.0......]
  |     4e1e: 84 c7 c9 d4 50 fe 9d ba c5 d9 08 e8 87 66 6e ae [....P........fn.]
  |     4e2e: 86 39 ef 6f d1 4c 47 dd 90 d6 b7 8f 09 19 de 24 [.9.o.LG........$]
  |     4e3e: 3f 2e 2a f3 d0 a8 ee 3f 64 62 93 e3 3a 87 3c 6b [?.*....?db..:.<k]
  |     4e4e: 6d e8 c5 4e 19 29 f5 47 0f f6 b3 35 84 4d f3 f9 [m..N.).G...5.M..]
  |     4e5e: 30 5a 91 18 f7 36 22 0c 16 88 d5 d0 be 54 17 8d [0Z...6"......T..]
  |     4e6e: 46 aa c5 43 d4 79 c5 52 8b 53 15 89 f7 b1 b6 58 [F..C.y.R.S.....X]
  |     4e7e: 2b 39 2f 73 40 68 67 6e 5f 95 2f 95 47 e3 80 52 [+9/s@hgn_./.G..R]
  |     4e8e: 40 7a 45 52 b5 86 93 af e5 1a cd 2f 59 4d 0d fa [@zER......./YM..]
  |     4e9e: 83 04 84 d3 2f 74 48 2f ee 1d e4 9c 0a 71 c6 99 [..../tH/.....q..]
  |     4eae: 88 7f d0 87 8a 51 63 bf 7e 95 16 e4 10 c7 45 5e [.....Qc.~.....E^]
  |     4ebe: ea d5 4c 3d e5 ae 25 76 ac 5e 0a eb b6 83 c9 b3 [..L=..%v.^......]
  |     4ece: ff ae be 81 10 f7 51 ea b3 c0 b9 3a 0b d9 84 26 [......Q....:...&]
  |     4ede: 02 a6 76 3e 87 96 5e 1f 21 de bc 0a df e7 08 9e [..v>..^.!.......]
  |     4eee: 92 00 2f a4 5b d3 d6 ec 51 a7 cd d3 5d 92 54 6c [../.[...Q...].Tl]
  |     4efe: 3f d3 3a af 4c 0f f8 77 aa eb 6c a6 9b 67 72 3f [?.:.L..w..l..gr?]
  |     4f0e: 15 f7 c0 3e e0 e5 65 df 9a 03 92 7e ac 87 30 2e [...>..e....~..0.]
  |     4f1e: 15 0e 92 70 c6 76 2d a6 c2 f4 47 6b 12 db f3 cb [...p.v-...Gk....]
  |     4f2e: 49 6c 77 33 d3 47 69 61 91 44 1f 46 dd fa 91 9c [Ilw3.Gia.D.F....]
  |     4f3e: 33 5b 11 ad 69 2a 16 13 0b 45 56 7f 63 51 a4 6a [3[..i*...EV.cQ.j]
  |     4f4e: 6b 41 49 56 7b 7e 9b 49 52 9f 60 55 5c cc 21 21 [kAIV{~.IR.`U\.!!]
  |     4f5e: bb 8b 76 99 d7 53 d8 e8 9e ab 25 cd 2d 30 cd 2a [..v..S....%.-0.*]
  |     4f6e: 66 1c 6f d0 31 17 4b 86 8a 7c 3c 80 7f 8c 1d b4 [f.o.1.K..|<.....]
  |     4f7e: 80 d2 f6 8c 5a 79 27 46 f0 51 83 82 18 50 ad 90 [....Zy'F.Q...P..]
  |     4f8e: 2a 63 4d e7 51 9e 2b 67 f1 5f 78 26 ab ff f4 a7 [*cM.Q.+g._x&....]
  |     4f9e: 64 11 87 54 41 d1 34 0a fe 48 14 4d 6a d8 40 c1 [d..TA.4..H.Mj.@.]
  |     4fae: fc f1 74 1e 50 b9 e8 29 1e 8e 15 dd 83 7e 57 76 [..t.P..).....~Wv]
  |     4fbe: 5c 5a ab e5 bd e9 11 b8 aa bf 6c d7 80 5d 3a 93 [\Z........l..]:.]
  |     4fce: 76 6f 5b cd a2 49 3e 79 23 92 e0 b7 5e 9d e3 65 [vo[..I>y#...^..e]
  |     4fde: 95 ea 6d bb ba 98 a0 10 9e 98 4c c8 34 93 1a 75 [..m.......L.4..u]
  |     4fee: c3 5b 6b 3c 8c 35 db 33 6f 63 c8 b3 55 2d 33 b4 [.[k<.5.3oc..U-3.]
  |     4ffe: c9 a3 8f af 83 ad cf 2c eb e4 a1 9d 0b ed 4d 88 [.......,......M.]
  |     500e: 00 d3 4d 30 0f 5d 44 8c 5d e4 68 67 bb 88 ae cf [..M0.]D.].hg....]
  |     501e: 93 14 f3 5f 41 88 73 94 1e e6 71 7e be 36 f7 2e [..._A.s...q~.6..]
  |     502e: d6 ec b2 61 83 09 8b 74 37 8a 16 30 84 85 24 16 [...a...t7..0..$.]
  |     503e: c1 38 3a e3 ac 9b b4 c6 e1 0c 27 32 ed da 4c 3b [.8:.......'2..L;]
  |     504e: 69 63 04 ed b4 89 7a e6 25 e2 7a 30 16 67 81 9f [ic....z.%.z0.g..]
  |     505e: 1a 67 0c f9 c5 79 6b 28 cc 94 58 5c 2e 62 ee f8 [.g...yk(..X\.b..]
  |     506e: 20 62 61 c7 a0 af ec db 10 22 7b 5a 6a 1f 12 af [ ba......"{Zj...]
  |     507e: f6 ad e9 f2 a0 72 0e d5 51 e1 b9 9a 77 b0 e8 f5 [.....r..Q...w...]
  |     508e: e0 ed 2b bf 90 65 ed 30 c3 54 6b 5b 93 02 83 e9 [..+..e.0.Tk[....]
  |     509e: 10 9a 35 e7 f0 3b b1 55 ae 84 bb 41 f6 0d 18 5d [..5..;.U...A...]]
  |     50ae: 5d d1 db f9 5b f9 7f e9 4e e6 81 bb 0e 4d c6 35 []...[...N....M.5]
  |     50be: f8 ed 09 f7 44 de 3d b6 3a 2f c8 55 25 9a d6 d2 [....D.=.:/.U%...]
  |     50ce: 40 d6 40 7d 76 7e 2a 68 56 b0 df c4 09 3b 97 1f [@.@}v~*hV....;..]
  |     50de: 44 46 d8 4e e6 af 7e fd 34 15 4e c8 21 67 74 91 [DF.N..~.4.N.!gt.]
  |     50ee: 2b fb 1f 66 83 c0 33 35 94 9f b6 39 72 97 77 94 [+..f..35...9r.w.]
  |     50fe: 51 43 55 05 78 cd b1 8a d5 72 da 63 b5 76 82 61 [QCU.x....r.c.v.a]
  |     510e: 01 43 46 2c 70 25 02 be 47 87 3d e2 b5 87 bb dd [.CF,p%..G.=.....]
  |     511e: 81 e9 f5 87 9e 1b ec 82 df 5b 57 72 02 4c f4 78 [.........[Wr.L.x]
  |     512e: 3a 78 3d e9 e6 b1 1a 69 07 51 af 51 d1 d1 28 4c [:x=....i.Q.Q..(L]
  |     513e: fb 52 28 b0 01 f0 30 7b 33 f7 56 c3 2c d0 8e 44 [.R(...0{3.V.,..D]
  |     514e: 38 1c 54 7f ad f1 1d 0d d3 11 72 7e 0b 0f 08 d7 [8.T.......r~....]
  |     515e: 9b 59 0b 0b 06 d5 98 13 7a a7 ac 4e d9 f2 c3 3e [.Y......z..N...>]
  |     516e: 69 96 7f da 31 9f fc 94 66 84 fe 6b 17 00 1d d4 [i...1...f..k....]
  |     517e: a2 43 4f fb 54 ca 11 b4 52 e0 5a cb c4 76 48 35 [.CO.T...R.Z..vH5]
  |     518e: ec 5b 4d d1 47 b5 d6 13 37 74 15 7b 76 5c 8b 1f [.[M.G...7t.{v\..]
  |     519e: 98 22 b1 c5 80 1e e4 af fe f8 0f 7f 73 1f 56 b9 [."..........s.V.]
  |     51ae: 7f f1 e8 6d 8e d4 a2 42 bb e4 3b 26 1a d1 c1 a8 [...m...B..;&....]
  |     51be: 19 c0 36 3e e1 92 1d 83 85 e9 64 80 cf 6a 13 b9 [..6>......d..j..]
  |     51ce: b5 ae 57 77 19 cc 47 2e 2e 84 b2 81 f7 cd e0 2c [..Ww..G........,]
  |     51de: 89 32 ae 5d a5 e1 80 80 7e 49 7f fd 40 53 ba 99 [.2.]....~I..@S..]
  |     51ee: 73 05 46 62 c9 f5 59 2e ec c2 2f 54 4c c9 a7 2f [s.Fb..Y.../TL../]
  |     51fe: 96 b2 cb 65 04 5e 99 f7 89 0c 99 80 74 32 83 6e [...e.^......t2.n]
  |     520e: aa 6d 11 de 32 ee 9a f4 2d 9f 68 aa 5c 14 f1 59 [.m..2...-.h.\..Y]
  |     521e: e2 02 7f 84 d8 3d 9e f4 68 96 76 5e 7d b2 6a aa [.....=..h.v^}.j.]
  |     522e: 6f 89 d3 dc 7a 89 ad 3f d8 69 f1 2e 22 ac 47 5b [o...z..?.i..".G[]
  |     523e: 5d 85 09 4f ef bc f0 49 f6 e8 fb d9 0e 68 52 2b []..O...I.....hR+]
  |     524e: df 89 4c 46 f2 20 e2 8b 19 2f cc 65 82 20 91 8f [..LF. .../.e. ..]
  |     525e: eb ac 14 7f b0 7b f2 7c 91 9f 30 d2 59 d8 80 ba [.....{.|..0.Y...]
  |     526e: 35 00 23 de 39 61 3f 39 ec e4 5a 00 7a e6 58 c4 [5.#.9a?9..Z.z.X.]
  |     527e: f0 8d 56 3d d0 13 e3 d5 09 1f e5 00 cd ff 7b 06 [..V=..........{.]
  |     528e: b1 fa be a5 5b 1f c2 16 dc fd 2d 0f ca ca 72 35 [....[.....-...r5]
  |     529e: 69 05 ed 2c 8a 30 fa 85 1c 11 ca 17 fa 98 b8 58 [i..,.0.........X]
  |     52ae: 86 32 32 b9 5f 20 6e 9a ed a5 49 30 96 81 b5 4d [.22._ n...I0...M]
  |     52be: 91 6b 7a 12 5f f1 0d 7c 3f e5 88 b0 92 ff 78 e1 [.kz._..|?.....x.]
  |     52ce: c0 6c 86 c1 0c b2 f4 b1 4a 88 a9 09 88 79 e0 c3 [.l......J....y..]
  |     52de: 0f 64 34 6d 9a c0 4a 89 42 a6 9c cc 78 06 49 17 [.d4m..J.B...x.I.]
  |     52ee: d6 ad eb 43 72 13 d7 c7 7a 74 f1 bf 5d 3f 74 35 [...Cr...zt..]?t5]
  |     52fe: 07 52 2d c8 59 36 96 10 6f 0f 9a 0c 6b ff 70 37 [.R-.Y6..o...k.p7]
  |     530e: e7 63 7d 08 cd e2 8d 69 07 86 99 f4 1b e8 99 11 [.c}....i........]
  |     531e: 14 d7 42 5f 3d e9 0b 8b e1 78 8c 25 96 bf 10 cd [..B_=....x.%....]
  |     532e: 57 66 6c 92 17 eb 86 53 db ea 9d 73 5b 81 c1 83 [Wfl....S...s[...]
  |     533e: 94 d8 d5 94 af e3 81 6e a4 09 67 bf 08 e6 43 d6 [.......n..g...C.]
  |     534e: e7 bf 53 ae 9c 65 ee 21 88 64 2c d4 b2 ed 41 ac [..S..e.!.d,...A.]
  |     535e: d9 3b 7b c4 c4 76 58 33 26 66 c1 27 00 6e 51 6d [.;{..vX3&f.'.nQm]
  |     536e: 5a fd c6 04 74 46 56 72 2b de 8b 16 11 ff b5 01 [Z...tFVr+.......]
  |     537e: ec 62 03 31 c7 c3 f6 6a 18 91 7e 6f 3f 35 0d ae [.b.1...j..~o?5..]
  |     538e: f7 8d a0 33 95 00 be 13 fb 6a c2 5d f4 28 fd 1f [...3.....j.].(..]
  |     539e: d4 f5 5a ab 41 e7 51 36 f2 2a 37 f1 69 ab 0f 92 [..Z.A.Q6.*7.i...]
  |     53ae: b5 87 92 e8 80 2f db 68 b7 cc 22 1a 49 35 e5 6a [...../.h..".I5.j]
  |     53be: c2 f3 28 19 a8 02 94 04 29 a3 cb 85 7e b8 64 e2 [..(.....)...~.d.]
  |     53ce: 91 d4 6d 98 7d ba 5b 5d e9 e3 28 e9 b3 ed 8a 95 [..m.}.[]..(.....]
  |     53de: 4c 10 0c 6f bd a6 3b b2 1a 36 ba de d4 cb f5 f7 [L..o..;..6......]
  |     53ee: d8 25 15 4f 6d ee 4c 33 ea 1f b9 29 34 9c b4 75 [.%.Om.L3...)4..u]
  |     53fe: 87 0d d3 1d 3f 8e 5d eb 03 86 25 59 46 9c 08 50 [....?.]...%YF..P]
  |     540e: 66 47 eb a0 21 d8 82 88 cc 92 9d ce 88 c6 91 b0 [fG..!...........]
  |     541e: 10 14 80 03 ae bf cb 24 c6 7b d4 e5 97 22 6e 9b [.......$.{..."n.]
  |     542e: d3 03 c2 d8 30 0a 93 4a e1 5d d9 94 51 ac 46 0d [....0..J.]..Q.F.]
  |     543e: a5 67 62 8e 66 c2 a2 b0 fd ff 23 51 9f ae fc ee [.gb.f.....#Q....]
  |     544e: 37 6c c6 ba 60 ab 40 86 f8 d4 69 ad 9b 29 73 3c [7l..`.@...i..)s<]
  |     545e: ef 0a 64 b9 6f ed 88 1a 47 de 26 5a e3 0b 6f c1 [..d.o...G.&Z..o.]
  |     546e: 5e f8 33 60 6c 50 e3 e9 a3 a4 86 72 3b 77 c3 56 [^.3`lP.....r;w.V]
  |     547e: 02 52 be e5 b4 17 ec 90 a0 72 66 8a 6b 37 9d 06 [.R.......rf.k7..]
  |     548e: 67 b4 0b 5e be 35 93 dc e4 94 fa 3f e9 a5 86 81 [g..^.5.....?....]
  |     549e: 3c 4e dc a3 bb 26 1b c1 e1 91 a2 11 aa b8 c4 6c [<N...&.........l]
  |     54ae: 8d cd c4 da 53 4d ac 91 51 0e 93 ac 3a a4 e0 eb [....SM..Q...:...]
  |     [snip 8032348 bytes]
  | Item 2) 'Exif' (18034 bytes)
  |     064c: 00 00 00 00 49 49 2a 00 08 00 00 00 0c 00 0f 01 [....II*.........]
  |     065c: 02 00 06 00 00 00 9e 00 00 00 10 01 02 00 0e 00 [................]
  |     066c: 00 00 a4 00 00 00 12 01 03 00 01 00 00 00 01 00 [................]
  |     067c: 00 00 1a 01 05 00 01 00 00 00 b2 00 00 00 1b 01 [................]
  |     068c: 05 00 01 00 00 00 ba 00 00 00 28 01 03 00 01 00 [..........(.....]
  |     069c: 00 00 02 00 00 00 32 01 02 00 14 00 00 00 c2 00 [......2.........]
  |     06ac: 00 00 3b 01 02 00 01 00 00 00 00 00 00 00 13 02 [..;.............]
  |     06bc: 03 00 01 00 00 00 02 00 00 00 98 82 02 00 01 00 [................]
  |     06cc: 00 00 00 00 00 00 69 87 04 00 01 00 00 00 d6 00 [......i.........]
  |     06dc: 00 00 25 88 04 00 01 00 00 00 86 24 00 00 98 24 [..%........$...$]
  |     06ec: 00 00 43 61 6e 6f 6e 00 43 61 6e 6f 6e 20 45 4f [..Canon.Canon EO]
  |     06fc: 53 20 37 30 44 00 48 00 00 00 01 00 00 00 48 00 [S 70D.H.......H.]
  |     070c: 00 00 01 00 00 00 32 30 31 35 3a 31 30 3a 31 31 [......2015:10:11]
  |     071c: 20 31 34 3a 34 31 3a 34 34 00 26 00 9a 82 05 00 [ 14:41:44.&.....]
  |     072c: 01 00 00 00 a4 02 00 00 9d 82 05 00 01 00 00 00 [................]
  |     073c: ac 02 00 00 22 88 03 00 01 00 00 00 02 00 00 00 [...."...........]
  |     074c: 27 88 03 00 01 00 00 00 90 01 00 00 30 88 03 00 ['...........0...]
  |     075c: 01 00 00 00 02 00 00 00 32 88 04 00 01 00 00 00 [........2.......]
  |     076c: 90 01 00 00 00 90 07 00 04 00 00 00 30 32 33 30 [............0230]
  |     077c: 03 90 02 00 14 00 00 00 b4 02 00 00 04 90 02 00 [................]
  |     078c: 14 00 00 00 c8 02 00 00 01 91 07 00 04 00 00 00 [................]
  |     079c: 01 02 03 00 01 92 0a 00 01 00 00 00 dc 02 00 00 [................]
  |     07ac: 02 92 05 00 01 00 00 00 e4 02 00 00 04 92 0a 00 [................]
  |     07bc: 01 00 00 00 ec 02 00 00 07 92 03 00 01 00 00 00 [................]
  |     07cc: 05 00 00 00 09 92 03 00 01 00 00 00 10 00 00 00 [................]
  |     07dc: 0a 92 05 00 01 00 00 00 f4 02 00 00 7c 92 07 00 [............|...]
  |     07ec: 08 20 00 00 fc 02 00 00 86 92 07 00 08 01 00 00 [. ..............]
  |     07fc: 04 23 00 00 90 92 02 00 03 00 00 00 30 30 00 00 [.#..........00..]
  |     080c: 91 92 02 00 03 00 00 00 30 30 00 00 92 92 02 00 [........00......]
  |     081c: 03 00 00 00 30 30 00 00 00 a0 07 00 04 00 00 00 [....00..........]
  |     082c: 30 31 30 30 01 a0 03 00 01 00 00 00 01 00 00 00 [0100............]
  |     083c: 02 a0 03 00 01 00 00 00 60 15 00 00 03 a0 03 00 [........`.......]
  |     084c: 01 00 00 00 40 0e 00 00 05 a0 04 00 01 00 00 00 [....@...........]
  |     085c: 68 24 00 00 0e a2 05 00 01 00 00 00 0c 24 00 00 [h$...........$..]
  |     086c: 0f a2 05 00 01 00 00 00 14 24 00 00 10 a2 03 00 [.........$......]
  |     087c: 01 00 00 00 02 00 00 00 01 a4 03 00 01 00 00 00 [................]
  |     088c: 00 00 00 00 02 a4 03 00 01 00 00 00 00 00 00 00 [................]
  |     089c: 03 a4 03 00 01 00 00 00 00 00 00 00 06 a4 03 00 [................]
  |     08ac: 01 00 00 00 00 00 00 00 30 a4 02 00 01 00 00 00 [........0.......]
  |     08bc: 00 00 00 00 31 a4 02 00 0d 00 00 00 1c 24 00 00 [....1........$..]
  |     08cc: 32 a4 05 00 04 00 00 00 2a 24 00 00 34 a4 02 00 [2.......*$..4...]
  |     08dc: 11 00 00 00 4a 24 00 00 35 a4 02 00 0b 00 00 00 [....J$..5.......]
  |     08ec: 5c 24 00 00 00 00 00 00 01 00 00 00 3c 00 00 00 [\$..........<...]
  |     08fc: 20 00 00 00 0a 00 00 00 32 30 31 35 3a 31 30 3a [ .......2015:10:]
  |     090c: 31 31 20 31 34 3a 34 31 3a 34 34 00 32 30 31 35 [11 14:41:44.2015]
  |     091c: 3a 31 30 3a 31 31 20 31 34 3a 34 31 3a 34 34 00 [:10:11 14:41:44.]
  |     092c: 00 00 06 00 00 00 01 00 00 60 03 00 00 00 01 00 [.........`......]
  |     093c: 00 00 00 00 01 00 00 00 32 00 00 00 01 00 00 00 [........2.......]
  |     094c: 29 00 01 00 03 00 31 00 00 00 ee 04 00 00 02 00 [).....1.........]
  |     095c: 03 00 04 00 00 00 50 05 00 00 03 00 03 00 04 00 [......P.........]
  |     096c: 00 00 58 05 00 00 04 00 03 00 22 00 00 00 60 05 [..X......."...`.]
  |     097c: 00 00 06 00 02 00 0e 00 00 00 a4 05 00 00 07 00 [................]
  |     098c: 02 00 18 00 00 00 b2 05 00 00 09 00 02 00 20 00 [.............. .]
  |     099c: 00 00 ca 05 00 00 0d 00 07 00 00 06 00 00 ea 05 [................]
  |     09ac: 00 00 10 00 04 00 01 00 00 00 25 03 00 80 13 00 [..........%.....]
  |     09bc: 03 00 04 00 00 00 ea 0b 00 00 19 00 03 00 01 00 [................]
  |     09cc: 00 00 01 00 00 00 26 00 03 00 8b 00 00 00 f2 0b [......&.........]
  |     09dc: 00 00 35 00 04 00 04 00 00 00 08 0d 00 00 93 00 [..5.............]
  |     09ec: 03 00 20 00 00 00 18 0d 00 00 95 00 02 00 4a 00 [.. ...........J.]
  |     09fc: 00 00 58 0d 00 00 96 00 02 00 10 00 00 00 a2 0d [..X.............]
  |     0a0c: 00 00 97 00 07 00 00 04 00 00 b2 0d 00 00 98 00 [................]
  |     0a1c: 03 00 04 00 00 00 b2 11 00 00 99 00 04 00 74 00 [..............t.]
  |     0a2c: 00 00 ba 11 00 00 9a 00 04 00 05 00 00 00 8a 13 [................]
  |     0a3c: 00 00 a0 00 03 00 0e 00 00 00 9e 13 00 00 aa 00 [................]
  |     0a4c: 03 00 06 00 00 00 ba 13 00 00 b4 00 03 00 01 00 [................]
  |     0a5c: 00 00 01 00 00 00 d0 00 04 00 01 00 00 00 00 00 [................]
  |     0a6c: 00 00 e0 00 03 00 11 00 00 00 c6 13 00 00 01 40 [...............@]
  |     0a7c: 03 00 21 05 00 00 e8 13 00 00 08 40 03 00 03 00 [..!........@....]
  |     0a8c: 00 00 2a 1e 00 00 09 40 03 00 03 00 00 00 30 1e [..*....@......0.]
  |     0a9c: 00 00 10 40 02 00 20 00 00 00 36 1e 00 00 11 40 [...@.. ...6....@]
  |     0aac: 07 00 fc 00 00 00 56 1e 00 00 12 40 02 00 20 00 [......V....@.. .]
  |     0abc: 00 00 52 1f 00 00 13 40 04 00 0b 00 00 00 72 1f [..R....@......r.]
  |     0acc: 00 00 15 40 07 00 c8 01 00 00 9e 1f 00 00 16 40 [...@...........@]
  |     0adc: 04 00 07 00 00 00 66 21 00 00 18 40 04 00 07 00 [......f!...@....]
  |     0aec: 00 00 82 21 00 00 19 40 07 00 1e 00 00 00 9e 21 [...!...@.......!]
  |     0afc: 00 00 20 40 04 00 07 00 00 00 bc 21 00 00 21 40 [.. @.......!..!@]
  |     0b0c: 04 00 05 00 00 00 d8 21 00 00 24 40 04 00 35 00 [.......!..$@..5.]
  |     0b1c: 00 00 ec 21 00 00 25 40 04 00 09 00 00 00 c0 22 [...!..%@......."]
  |     0b2c: 00 00 27 40 04 00 06 00 00 00 e4 22 00 00 00 00 [..'@......."....]
  |     0b3c: 00 00 62 00 02 00 00 00 03 00 00 00 00 00 00 00 [..b.............]
  |     0b4c: 02 00 00 00 01 00 00 00 3b 00 00 00 00 00 00 00 [........;.......]
  |     0b5c: ff 7f 0f 00 03 00 02 00 00 00 00 00 ff ff 3c 10 [..............<.]
  |     0b6c: 32 00 32 00 01 00 38 00 20 01 00 00 00 00 00 00 [2.2...8. .......]
  |     0b7c: 00 00 ff ff ff ff ff ff 00 00 00 00 00 00 00 00 [................]
  |     0b8c: ff ff ff ff 00 00 00 00 ff 7f ff ff ff ff ff ff [................]
  |     0b9c: 00 00 ff ff 00 00 32 00 16 0b 24 5a 00 00 00 00 [......2...$Z....]
  |     0bac: 00 00 00 00 44 00 00 00 e0 00 48 00 6c 00 c0 00 [....D.....H.l...]
  |     0bbc: 00 00 00 00 03 00 00 00 08 00 08 00 95 00 00 00 [................]
  |     0bcc: 00 00 00 00 00 00 00 00 01 00 00 00 00 00 68 00 [..............h.]
  |     0bdc: c0 00 64 00 00 00 00 00 f8 00 ff ff ff ff ff ff [..d.............]
  |     0bec: ff ff 00 00 00 00 00 00 43 61 6e 6f 6e 20 45 4f [........Canon EO]
  |     0bfc: 53 20 37 30 44 00 46 69 72 6d 77 61 72 65 20 56 [S 70D.Firmware V]
  |     0c0c: 65 72 73 69 6f 6e 20 31 2e 31 2e 31 00 00 00 00 [ersion 1.1.1....]
  |     0c1c: 00 00 00 00 00 00 00 00 00 00 00 00 00 00 00 00 [................]
  |     0c2c: 00 00 00 00 00 00 00 00 00 00 00 00 00 00 aa aa [................]
  |     0c3c: 68 22 68 23 58 00 01 2d 01 3e 00 03 00 00 00 00 [h"h#X..-.>......]
  |     0c4c: 00 00 01 00 00 06 00 00 00 95 92 00 a6 00 af 00 [................]
  |     0c5c: a9 00 32 00 00 20 00 00 00 00 00 02 03 00 00 00 [..2.. ..........]
  |     0c6c: 00 00 4a 00 32 00 73 01 bb bb fa 50 00 24 40 90 [..J.2.s....P.$@.]
  |     0c7c: 00 00 00 00 00 00 00 00 00 00 00 00 00 00 00 00 [................]
  |     0c8c: ff 88 00 00 00 00 40 ff 00 6e 00 46 00 30 00 00 [......@..n.F.0..]
  |     0c9c: 00 00 00 00 00 00 00 00 00 00 00 00 b4 8d b7 94 [................]
  |     0cac: 6e 00 00 00 00 00 00 00 00 00 01 01 00 00 00 00 [n...............]
  |     0cbc: 02 01 00 00 00 00 00 00 00 00 00 00 00 00 00 00 [................]
  |     0ccc: 00 00 57 00 49 04 00 00 00 00 00 00 00 00 ff ff [..W.I...........]
  |     0cdc: ff ff 0c cc cc 16 00 00 00 03 00 00 00 00 00 00 [................]
  |     0cec: 00 00 00 00 00 00 00 00 00 00 ff 01 00 00 00 4a [...............J]
  |     0cfc: 00 00 00 00 00 50 14 00 00 00 00 00 00 00 00 00 [.....P..........]
  |     0d0c: 00 01 00 00 00 01 00 00 00 01 00 00 00 03 00 00 [................]
  |     0d1c: 00 03 00 00 00 03 00 00 00 00 00 00 00 01 00 00 [................]
  |     0d2c: 00 00 00 00 00 01 00 00 00 87 00 00 00 01 00 00 [................]
  |     0d3c: 00 01 00 00 00 01 00 00 00 07 00 00 00 00 00 00 [................]
  |     0d4c: 03 05 03 55 55 00 00 00 00 0e 00 00 00 00 00 00 [...UU...........]
  |     0d5c: 00 00 00 00 00 00 00 03 07 07 11 0d 00 00 00 00 [................]
  |     0d6c: 00 00 00 00 00 00 00 00 00 00 00 55 55 05 00 00 [...........UU...]
  |     0d7c: 03 00 14 04 00 00 00 00 00 00 00 00 00 00 00 00 [................]
  |     0d8c: 00 00 00 00 00 00 03 02 02 00 00 00 00 00 00 00 [................]
  |     0d9c: 00 01 16 50 10 3c 00 32 00 32 81 67 92 7f 00 ff [...P.<.2.2.g....]
  |     0dac: 00 00 00 00 00 00 00 21 4e 1c 01 00 03 07 16 00 [.......!N.......]
  |     0dbc: 27 02 00 00 00 00 00 00 00 00 00 00 00 00 00 00 ['...............]
  |     0dcc: 00 00 00 00 00 00 00 00 00 00 00 00 00 02 00 00 [................]
  |     0ddc: 00 60 15 00 00 40 0e 00 00 9c 09 00 00 b0 05 00 [.`...@..........]
  |     0dec: 00 28 02 00 00 e0 02 00 00 d0 02 00 00 e0 01 00 [.(..............]
  |     0dfc: 00 00 00 00 00 00 00 00 00 d0 02 00 00 e0 01 00 [................]
  |     0e0c: 00 d0 02 00 00 e0 01 00 00 00 00 00 00 00 00 00 [................]
  |     0e1c: 00 d0 02 00 00 e0 01 00 00 00 00 00 00 00 00 00 [................]
  |     0e2c: 00 01 00 00 00 00 00 00 00 00 00 00 00 00 00 00 [................]
  |     0e3c: 00 06 00 00 00 00 00 00 00 00 00 00 00 ff ff ff [................]
  |     [snip 15986 bytes]
  | + [TIFF directory]
  | | ExifByteOrder = II
  | | + [IFD0 directory with 12 entries, Little-endian]
  | | | 0)  Make = Canon
  | | |     - Tag 0x010f (6 bytes, string[6]):
  | | |         06ee: 43 61 6e 6f 6e 00                               [Canon.]
  | | | 1)  Model = Canon EOS 70D
  | | |     - Tag 0x0110 (14 bytes, string[14]):
  | | |         06f4: 43 61 6e 6f 6e 20 45 4f 53 20 37 30 44 00       [Canon EOS 70D.]
  | | | 2)  Orientation = 1
  | | |     - Tag 0x0112 (2 bytes, int16u[1]):
  | | |         067a: 01 00                                           [..]
  | | | 3)  XResolution = 72 (72/1)
  | | |     - Tag 0x011a (8 bytes, rational64u[1]):
  | | |         0702: 48 00 00 00 01 00 00 00                         [H.......]
  | | | 4)  YResolution = 72 (72/1)
  | | |     - Tag 0x011b (8 bytes, rational64u[1]):
  | | |         070a: 48 00 00 00 01 00 00 00                         [H.......]
  | | | 5)  ResolutionUnit = 2
  | | |     - Tag 0x0128 (2 bytes, int16u[1]):
  | | |         069e: 02 00                                           [..]
  | | | 6)  ModifyDate = 2015:10:11 14:41:44
  | | |     - Tag 0x0132 (20 bytes, string[20]):
  | | |         0712: 32 30 31 35 3a 31 30 3a 31 31 20 31 34 3a 34 31 [2015:10:11 14:41]
  | | |         0722: 3a 34 34 00                                     [:44.]
  | | | 7)  Artist = 
  | | |     - Tag 0x013b (1 bytes, string[1]):
  | | |         06b6: 00                                              [.]
  | | | 8)  YCbCrPositioning = 2
  | | |     - Tag 0x0213 (2 bytes, int16u[1]):
  | | |         06c2: 02 00                                           [..]
  | | | 9)  Copyright = 
  | | |     - Tag 0x8298 (1 bytes, string[1] read as undef[1]):
  | | |         06ce: 00                                              [.]
  | | | 10) ExifOffset (SubDirectory) -->
  | | |     - Tag 0x8769 (4 bytes, int32u[1]):
  | | |         06da: d6 00 00 00                                     [....]
  | | | + [ExifIFD directory with 38 entries, Little-endian]
  | | | | 0)  ExposureTime = 0.01666666667 (1/60)
  | | | |     - Tag 0x829a (8 bytes, rational64u[1]):
  | | | |         08f4: 01 00 00 00 3c 00 00 00                         [....<...]
  | | | | 1)  FNumber = 3.2 (32/10)
  | | | |     - Tag 0x829d (8 bytes, rational64u[1]):
  | | | |         08fc: 20 00 00 00 0a 00 00 00                         [ .......]
  | | | | 2)  ExposureProgram = 2
  | | | |     - Tag 0x8822 (2 bytes, int16u[1]):
  | | | |         0748: 02 00                                           [..]
  | | | | 3)  ISO = 400
  | | | |     - Tag 0x8827 (2 bytes, int16u[1]):
  | | | |         0754: 90 01                                           [..]
  | | | | 4)  SensitivityType = 2
  | | | |     - Tag 0x8830 (2 bytes, int16u[1]):
  | | | |         0760: 02 00                                           [..]
  | | | | 5)  RecommendedExposureIndex = 400
  | | | |     - Tag 0x8832 (4 bytes, int32u[1]):
  | | | |         076c: 90 01 00 00                                     [....]
  | | | | 6)  ExifVersion = 0230
  | | | |     - Tag 0x9000 (4 bytes, undef[4]):
  | | | |         0778: 30 32 33 30                                     [0230]
  | | | | 7)  DateTimeOriginal = 2015:10:11 14:41:44
  | | | |     - Tag 0x9003 (20 bytes, string[20]):
  | | | |         0904: 32 30 31 35 3a 31 30 3a 31 31 20 31 34 3a 34 31 [2015:10:11 14:41]
  | | | |         0914: 3a 34 34 00                                     [:44.]
  | | | | 8)  CreateDate = 2015:10:11 14:41:44
  | | | |     - Tag 0x9004 (20 bytes, string[20]):
  | | | |         0918: 32 30 31 35 3a 31 30 3a 31 31 20 31 34 3a 34 31 [2015:10:11 14:41]
  | | | |         0928: 3a 34 34 00                                     [:44.]
  | | | | 9)  ComponentsConfiguration = 1 2 3 0
  | | | |     - Tag 0x9101 (4 bytes, undef[4] read as int8u[4]):
  | | | |         079c: 01 02 03 00                                     [....]
  | | | | 10) ShutterSpeedValue = 6 (393216/65536)
  | | | |     - Tag 0x9201 (8 bytes, rational64s[1]):
  | | | |         092c: 00 00 06 00 00 00 01 00                         [........]
  | | | | 11) ApertureValue = 3.375 (221184/65536)
  | | | |     - Tag 0x9202 (8 bytes, rational64u[1]):
  | | | |         0934: 00 60 03 00 00 00 01 00                         [.`......]
  | | | | 12) ExposureCompensation = 0 (0/1)
  | | | |     - Tag 0x9204 (8 bytes, rational64s[1]):
  | | | |         093c: 00 00 00 00 01 00 00 00                         [........]
  | | | | 13) MeteringMode = 5
  | | | |     - Tag 0x9207 (2 bytes, int16u[1]):
  | | | |         07cc: 05 00                                           [..]
  | | | | 14) Flash = 16
  | | | |     - Tag 0x9209 (2 bytes, int16u[1]):
  | | | |         07d8: 10 00                                           [..]
  | | | | 15) FocalLength = 50 (50/1)
  | | | |     - Tag 0x920a (8 bytes, rational64u[1]):
  | | | |         0944: 32 00 00 00 01 00 00 00                         [2.......]
  | | | | 16) MakerNoteCanon (SubDirectory) -->
  | | | |     - Tag 0x927c (8200 bytes, undef[8200]):
  | | | |         094c: 29 00 01 00 03 00 31 00 00 00 ee 04 00 00 02 00 [).....1.........]
  | | | |         095c: 03 00 04 00 00 00 50 05 00 00 03 00 03 00 04 00 [......P.........]
  | | | |         096c: 00 00 58 05 00 00 04 00 03 00 22 00 00 00 60 05 [..X......."...`.]
  | | | |         097c: 00 00 06 00 02 00 0e 00 00 00 a4 05 00 00 07 00 [................]
  | | | |         098c: 02 00 18 00 00 00 b2 05 00 00 09 00 02 00 20 00 [.............. .]
  | | | |         099c: 00 00 ca 05 00 00 0d 00 07 00 00 06 00 00 ea 05 [................]
  | | | |         09ac: 00 00 10 00 04 00 01 00 00 00 25 03 00 80 13 00 [..........%.....]
  | | | |         09bc: 03 00 04 00 00 00 ea 0b 00 00 19 00 03 00 01 00 [................]
  | | | |         09cc: 00 00 01 00 00 00 26 00 03 00 8b 00 00 00 f2 0b [......&.........]
  | | | |         09dc: 00 00 35 00 04 00 04 00 00 00 08 0d 00 00 93 00 [..5.............]
  | | | |         09ec: 03 00 20 00 00 00 18 0d 00 00 95 00 02 00 4a 00 [.. ...........J.]
  | | | |         09fc: 00 00 58 0d 00 00 96 00 02 00 10 00 00 00 a2 0d [..X.............]
  | | | |         0a0c: 00 00 97 00 07 00 00 04 00 00 b2 0d 00 00 98 00 [................]
  | | | |         0a1c: 03 00 04 00 00 00 b2 11 00 00 99 00 04 00 74 00 [..............t.]
  | | | |         0a2c: 00 00 ba 11 00 00 9a 00 04 00 05 00 00 00 8a 13 [................]
  | | | |         0a3c: 00 00 a0 00 03 00 0e 00 00 00 9e 13 00 00 aa 00 [................]
  | | | |         0a4c: 03 00 06 00 00 00 ba 13 00 00 b4 00 03 00 01 00 [................]
  | | | |         0a5c: 00 00 01 00 00 00 d0 00 04 00 01 00 00 00 00 00 [................]
  | | | |         0a6c: 00 00 e0 00 03 00 11 00 00 00 c6 13 00 00 01 40 [...............@]
  | | | |         0a7c: 03 00 21 05 00 00 e8 13 00 00 08 40 03 00 03 00 [..!........@....]
  | | | |         0a8c: 00 00 2a 1e 00 00 09 40 03 00 03 00 00 00 30 1e [..*....@......0.]
  | | | |         0a9c: 00 00 10 40 02 00 20 00 00 00 36 1e 00 00 11 40 [...@.. ...6....@]
  | | | |         0aac: 07 00 fc 00 00 00 56 1e 00 00 12 40 02 00 20 00 [......V....@.. .]
  | | | |         0abc: 00 00 52 1f 00 00 13 40 04 00 0b 00 00 00 72 1f [..R....@......r.]
  | | | |         0acc: 00 00 15 40 07 00 c8 01 00 00 9e 1f 00 00 16 40 [...@...........@]
  | | | |         0adc: 04 00 07 00 00 00 66 21 00 00 18 40 04 00 07 00 [......f!...@....]
  | | | |         0aec: 00 00 82 21 00 00 19 40 07 00 1e 00 00 00 9e 21 [...!...@.......!]
  | | | |         0afc: 00 00 20 40 04 00 07 00 00 00 bc 21 00 00 21 40 [.. @.......!..!@]
  | | | |         0b0c: 04 00 05 00 00 00 d8 21 00 00 24 40 04 00 35 00 [.......!..$@..5.]
  | | | |         0b1c: 00 00 ec 21 00 00 25 40 04 00 09 00 00 00 c0 22 [...!..%@......."]
  | | | |         0b2c: 00 00 27 40 04 00 06 00 00 00 e4 22 00 00 00 00 [..'@......."....]
  | | | |         0b3c: 00 00 62 00 02 00 00 00 03 00 00 00 00 00 00 00 [..b.............]
  | | | |         0b4c: 02 00 00 00 01 00 00 00 3b 00 00 00 00 00 00 00 [........;.......]
  | | | |         0b5c: ff 7f 0f 00 03 00 02 00 00 00 00 00 ff ff 3c 10 [..............<.]
  | | | |         0b6c: 32 00 32 00 01 00 38 00 20 01 00 00 00 00 00 00 [2.2...8. .......]
  | | | |         0b7c: 00 00 ff ff ff ff ff ff 00 00 00 00 00 00 00 00 [................]
  | | | |         0b8c: ff ff ff ff 00 00 00 00 ff 7f ff ff ff ff ff ff [................]
  | | | |         0b9c: 00 00 ff ff 00 00 32 00 16 0b 24 5a 00 00 00 00 [......2...$Z....]
  | | | |         0bac: 00 00 00 00 44 00 00 00 e0 00 48 00 6c 00 c0 00 [....D.....H.l...]
  | | | |         0bbc: 00 00 00 00 03 00 00 00 08 00 08 00 95 00 00 00 [................]
  | | | |         0bcc: 00 00 00 00 00 00 00 00 01 00 00 00 00 00 68 00 [..............h.]
  | | | |         0bdc: c0 00 64 00 00 00 00 00 f8 00 ff ff ff ff ff ff [..d.............]
  | | | |         0bec: ff ff 00 00 00 00 00 00 43 61 6e 6f 6e 20 45 4f [........Canon EO]
  | | | |         0bfc: 53 20 37 30 44 00 46 69 72 6d 77 61 72 65 20 56 [S 70D.Firmware V]
  | | | |         0c0c: 65 72 73 69 6f 6e 20 31 2e 31 2e 31 00 00 00 00 [ersion 1.1.1....]
  | | | |         0c1c: 00 00 00 00 00 00 00 00 00 00 00 00 00 00 00 00 [................]
  | | | |         0c2c: 00 00 00 00 00 00 00 00 00 00 00 00 00 00 aa aa [................]
  | | | |         0c3c: 68 22 68 23 58 00 01 2d 01 3e 00 03 00 00 00 00 [h"h#X..-.>......]
  | | | |         0c4c: 00 00 01 00 00 06 00 00 00 95 92 00 a6 00 af 00 [................]
  | | | |         0c5c: a9 00 32 00 00 20 00 00 00 00 00 02 03 00 00 00 [..2.. ..........]
  | | | |         0c6c: 00 00 4a 00 32 00 73 01 bb bb fa 50 00 24 40 90 [..J.2.s....P.$@.]
  | | | |         0c7c: 00 00 00 00 00 00 00 00 00 00 00 00 00 00 00 00 [................]
  | | | |         0c8c: ff 88 00 00 00 00 40 ff 00 6e 00 46 00 30 00 00 [......@..n.F.0..]
  | | | |         0c9c: 00 00 00 00 00 00 00 00 00 00 00 00 b4 8d b7 94 [................]
  | | | |         0cac: 6e 00 00 00 00 00 00 00 00 00 01 01 00 00 00 00 [n...............]
  | | | |         0cbc: 02 01 00 00 00 00 00 00 00 00 00 00 00 00 00 00 [................]
  | | | |         0ccc: 00 00 57 00 49 04 00 00 00 00 00 00 00 00 ff ff [..W.I...........]
  | | | |         0cdc: ff ff 0c cc cc 16 00 00 00 03 00 00 00 00 00 00 [................]
  | | | |         0cec: 00 00 00 00 00 00 00 00 00 00 ff 01 00 00 00 4a [...............J]
  | | | |         0cfc: 00 00 00 00 00 50 14 00 00 00 00 00 00 00 00 00 [.....P..........]
  | | | |         0d0c: 00 01 00 00 00 01 00 00 00 01 00 00 00 03 00 00 [................]
  | | | |         0d1c: 00 03 00 00 00 03 00 00 00 00 00 00 00 01 00 00 [................]
  | | | |         0d2c: 00 00 00 00 00 01 00 00 00 87 00 00 00 01 00 00 [................]
  | | | |         0d3c: 00 01 00 00 00 01 00 00 00 07 00 00 00 00 00 00 [................]
  | | | |         0d4c: 03 05 03 55 55 00 00 00 00 0e 00 00 00 00 00 00 [...UU...........]
  | | | |         0d5c: 00 00 00 00 00 00 00 03 07 07 11 0d 00 00 00 00 [................]
  | | | |         0d6c: 00 00 00 00 00 00 00 00 00 00 00 55 55 05 00 00 [...........UU...]
  | | | |         0d7c: 03 00 14 04 00 00 00 00 00 00 00 00 00 00 00 00 [................]
  | | | |         0d8c: 00 00 00 00 00 00 03 02 02 00 00 00 00 00 00 00 [................]
  | | | |         0d9c: 00 01 16 50 10 3c 00 32 00 32 81 67 92 7f 00 ff [...P.<.2.2.g....]
  | | | |         0dac: 00 00 00 00 00 00 00 21 4e 1c 01 00 03 07 16 00 [.......!N.......]
  | | | |         0dbc: 27 02 00 00 00 00 00 00 00 00 00 00 00 00 00 00 ['...............]
  | | | |         0dcc: 00 00 00 00 00 00 00 00 00 00 00 00 00 02 00 00 [................]
  | | | |         0ddc: 00 60 15 00 00 40 0e 00 00 9c 09 00 00 b0 05 00 [.`...@..........]
  | | | |         0dec: 00 28 02 00 00 e0 02 00 00 d0 02 00 00 e0 01 00 [.(..............]
  | | | |         0dfc: 00 00 00 00 00 00 00 00 00 d0 02 00 00 e0 01 00 [................]
  | | | |         0e0c: 00 d0 02 00 00 e0 01 00 00 00 00 00 00 00 00 00 [................]
  | | | |         0e1c: 00 d0 02 00 00 e0 01 00 00 00 00 00 00 00 00 00 [................]
  | | | |         0e2c: 00 01 00 00 00 00 00 00 00 00 00 00 00 00 00 00 [................]
  | | | |         0e3c: 00 06 00 00 00 00 00 00 00 00 00 00 00 ff ff ff [................]
  | | | |         0e4c: 7f ff ff ff 7f 00 00 00 00 00 00 00 00 00 02 00 [................]
  | | | |         0e5c: 00 00 00 00 00 00 00 00 00 0a 02 00 01 00 01 00 [................]
  | | | |         0e6c: 00 00 02 00 00 00 00 00 00 00 00 00 00 01 00 00 [................]
  | | | |         0e7c: 00 00 00 00 00 00 00 00 00 00 00 00 00 00 00 00 [................]
  | | | |         0e8c: 01 00 00 00 00 00 00 00 00 01 01 00 31 2e 31 2e [............1.1.]
  | | | |         0e9c: 31 00 42 31 28 33 32 29 00 00 00 00 05 00 00 00 [1.B1(32)........]
  | | | |         0eac: 00 00 00 00 a4 cd 59 00 00 00 00 00 00 00 03 80 [......Y.........]
  | | | |         0ebc: 00 00 00 00 00 00 00 00 00 00 00 00 00 00 00 00 [................]
  | | | |         0ecc: 00 00 00 00 00 00 00 00 00 00 00 00 00 00 00 00 [................]
  | | | |         0edc: 00 8e 00 00 00 64 00 00 00 64 00 00 00 00 00 00 [.....d...d......]
  | | | |         0eec: 00 65 17 00 00 00 00 00 00 64 00 00 00 65 00 00 [.e.......d...e..]
  | | | |         0efc: 00 64 00 00 00 08 00 00 00 08 00 00 00 08 00 00 [.d..............]
  | | | |         0f0c: 00 08 00 00 00 01 00 00 00 00 00 00 00 00 00 00 [................]
  | | | |         0f1c: 00 00 00 00 00 00 00 00 00 00 00 00 00 00 00 00 [................]
  | | | |         0f2c: 00 00 00 00 00 00 00 00 00 f4 01 00 04 00 04 74 [...............t]
  | | | |         0f3c: 02 00 00 00 00 00 00 00 00 00 00 00 00 00 00 00 [................]
  | | | |         0f4c: 00 00 00 00 00 00 00 00 00 00 00 00 00 00 00 00 [................]
  | | | |         0f5c: 00 00 00 00 00 f4 01 00 04 00 04 74 02 00 00 00 [...........t....]
  | | | |         0f6c: 00 00 00 00 00 00 00 00 00 00 00 00 00 00 00 00 [................]
  | | | |         0f7c: 00 00 00 00 00 00 00 00 00 00 00 00 00 00 00 00 [................]
  | | | |         0f8c: 00 f4 01 00 04 00 04 74 02 00 00 00 00 00 00 00 [.......t........]
  | | | |         0f9c: 00 00 00 00 00 00 00 00 00 00 00 00 00 00 00 00 [................]
  | | | |         0fac: 00 00 00 00 00 00 00 00 00 00 00 00 00 f4 01 00 [................]
  | | | |         0fbc: 04 00 04 74 02 00 00 00 00 00 00 00 00 00 00 00 [...t............]
  | | | |         0fcc: 00 00 00 00 00 00 00 00 00 00 00 00 00 00 00 00 [................]
  | | | |         0fdc: 00 00 00 00 00 00 00 00 00 f4 01 00 04 00 04 74 [...............t]
  | | | |         0fec: 02 00 00 00 00 00 00 00 00 01 00 00 00 00 00 00 [................]
  | | | |         0ffc: 00 00 00 00 00 00 00 00 00 01 00 00 00 00 00 00 [................]
  | | | |         100c: 00 03 00 00 00 00 00 00 00 00 00 00 00 ef be ad [................]
  | | | |         101c: de ef be ad de 00 00 00 00 02 00 00 00 00 00 00 [................]
  | | | |         102c: 00 00 00 00 00 ef be ad de ef be ad de 00 00 00 [................]
  | | | |         103c: 00 04 00 00 00 00 00 00 00 00 00 00 00 ef be ad [................]
  | | | |         104c: de ef be ad de 00 00 00 00 00 00 00 00 00 00 00 [................]
  | | | |         105c: 00 00 00 00 00 ef be ad de ef be ad de 00 00 00 [................]
  | | | |         106c: 00 00 00 00 00 00 00 00 00 00 00 00 00 ef be ad [................]
  | | | |         107c: de ef be ad de 00 00 00 00 03 00 00 00 ef be ad [................]
  | | | |         108c: de ef be ad de 00 00 00 00 00 00 00 00 00 00 00 [................]
  | | | |         109c: 00 03 00 00 00 00 00 00 00 00 00 00 00 ef be ad [................]
  | | | |         10ac: de ef be ad de 00 00 00 00 03 00 00 00 00 00 00 [................]
  | | | |         10bc: 00 00 00 00 00 00 00 00 00 00 00 00 00 00 00 00 [................]
  | | | |         10cc: 00 03 00 00 00 00 00 00 00 00 00 00 00 00 00 00 [................]
  | | | |         10dc: 00 00 00 00 00 00 00 00 00 03 00 00 00 00 00 00 [................]
  | | | |         10ec: 00 00 00 00 00 00 00 00 00 00 00 00 00 87 00 87 [................]
  | | | |         10fc: 00 87 00 00 00 ff ff ff ff ff ff ff ff 00 00 00 [................]
  | | | |         110c: 00 00 00 00 00 00 00 00 00 00 00 00 00 00 00 00 [................]
  | | | |         111c: 00 00 00 00 00 00 00 00 00 00 00 00 00 00 04 00 [................]
  | | | |         112c: 04 00 04 00 04 00 00 00 00 00 00 00 00 00 00 00 [................]
  | | | |         [snip 6168 bytes]
  | | | | + [MakerNotes directory with 41 entries, Little-endian]
  | | | | | 0)  CanonCameraSettings (SubDirectory) -->
  | | | | |     - Tag 0x0001 (98 bytes, int16u[49] read as undef[98]):
  | | | | |         0b3e: 62 00 02 00 00 00 03 00 00 00 00 00 00 00 02 00 [b...............]
  | | | | |         0b4e: 00 00 01 00 00 00 3b 00 00 00 00 00 00 00 ff 7f [......;.........]
  | | | | |         0b5e: 0f 00 03 00 02 00 00 00 00 00 ff ff 3c 10 32 00 [............<.2.]
  | | | | |         0b6e: 32 00 01 00 38 00 20 01 00 00 00 00 00 00 00 00 [2...8. .........]
  | | | | |         0b7e: ff ff ff ff ff ff 00 00 00 00 00 00 00 00 ff ff [................]
  | | | | |         0b8e: ff ff 00 00 00 00 ff 7f ff ff ff ff ff ff 00 00 [................]
  | | | | |         0b9e: ff ff                                           [..]
  | | | | | + [BinaryData directory, 98 bytes, Little-endian]
  | | | | | | MacroMode = 2
  | | | | | | - Tag 0x0001 (2 bytes, int16s[1]):
  | | | | | |     0b40: 02 00                                           [..]
  | | | | | | SelfTimer = 0
  | | | | | | - Tag 0x0002 (2 bytes, int16s[1]):
  | | | | | |     0b42: 00 00                                           [..]
  | | | | | | Quality = 3
  | | | | | | - Tag 0x0003 (2 bytes, int16s[1]):
  | | | | | |     0b44: 03 00                                           [..]
  | | | | | | CanonFlashMode = 0
  | | | | | | - Tag 0x0004 (2 bytes, int16s[1]):
  | | | | | |     0b46: 00 00                                           [..]
  | | | | | | ContinuousDrive = 0
  | | | | | | - Tag 0x0005 (2 bytes, int16s[1]):
  | | | | | |     0b48: 00 00                                           [..]
  | | | | | | FocusMode = 2
  | | | | | | - Tag 0x0007 (2 bytes, int16s[1]):
  | | | | | |     0b4c: 02 00                                           [..]
  | | | | | | RecordMode = 1
  | | | | | | - Tag 0x0009 (2 bytes, int16s[1]):
  | | | | | |     0b50: 01 00                                           [..]
  | | | | | | CanonImageSize = 0
  | | | | | | - Tag 0x000a (2 bytes, int16s[1]):
  | | | | | |     0b52: 00 00                                           [..]
  | | | | | | EasyMode = 59
  | | | | | | - Tag 0x000b (2 bytes, int16s[1]):
  | | | | | |     0b54: 3b 00                                           [;.]
  | | | | | | DigitalZoom = 0
  | | | | | | - Tag 0x000c (2 bytes, int16s[1]):
  | | | | | |     0b56: 00 00                                           [..]
  | | | | | | Contrast = 0
  | | | | | | - Tag 0x000d (2 bytes, int16s[1]):
  | | | | | |     0b58: 00 00                                           [..]
  | | | | | | Saturation = 0
  | | | | | | - Tag 0x000e (2 bytes, int16s[1]):
  | | | | | |     0b5a: 00 00                                           [..]
  | | | | | | Sharpness = 32767
  | | | | | | - Tag 0x000f (2 bytes, int16s[1]):
  | | | | | |     0b5c: ff 7f                                           [..]
  | | | | | | CameraISO = 15
  | | | | | | - Tag 0x0010 (2 bytes, int16s[1]):
  | | | | | |     0b5e: 0f 00                                           [..]
  | | | | | | MeteringMode = 3
  | | | | | | - Tag 0x0011 (2 bytes, int16s[1]):
  | | | | | |     0b60: 03 00                                           [..]
  | | | | | | FocusRange = 2
  | | | | | | - Tag 0x0012 (2 bytes, int16s[1]):
  | | | | | |     0b62: 02 00                                           [..]
  | | | | | | AFPoint = 0
  | | | | | | - Tag 0x0013 (2 bytes, int16s[1]):
  | | | | | |     0b64: 00 00                                           [..]
  | | | | | | CanonExposureMode = 0
  | | | | | | - Tag 0x0014 (2 bytes, int16s[1]):
  | | | | | |     0b66: 00 00                                           [..]
  | | | | | | LensType = 4156
  | | | | | | - Tag 0x0016 (2 bytes, int16u[1]):
  | | | | | |     0b6a: 3c 10                                           [<.]
  | | | | | | MaxFocalLength = 50
  | | | | | | - Tag 0x0017 (2 bytes, int16u[1]):
  | | | | | |     0b6c: 32 00                                           [2.]
  | | | | | | MinFocalLength = 50
  | | | | | | - Tag 0x0018 (2 bytes, int16u[1]):
  | | | | | |     0b6e: 32 00                                           [2.]
  | | | | | | FocalUnits = 1
  | | | | | | - Tag 0x0019 (2 bytes, int16s[1]):
  | | | | | |     0b70: 01 00                                           [..]
  | | | | | | MaxAperture = 56
  | | | | | | - Tag 0x001a (2 bytes, int16s[1]):
  | | | | | |     0b72: 38 00                                           [8.]
  | | | | | | MinAperture = 288
  | | | | | | - Tag 0x001b (2 bytes, int16s[1]):
  | | | | | |     0b74: 20 01                                           [ .]
  | | | | | | FlashModel = 0
  | | | | | | - Tag 0x001c, mask 0x7f (2 bytes, int16s[1]):
  | | | | | |     0b76: 00 00                                           [..]
  | | | | | | FlashBits = 0
  | | | | | | - Tag 0x001d (2 bytes, int16s[1]):
  | | | | | |     0b78: 00 00                                           [..]
  | | | | | | FocusContinuous = -1
  | | | | | | - Tag 0x0020 (2 bytes, int16s[1]):
  | | | | | |     0b7e: ff ff                                           [..]
  | | | | | | AESetting = -1
  | | | | | | - Tag 0x0021 (2 bytes, int16s[1]):
  | | | | | |     0b80: ff ff                                           [..]
  | | | | | | ImageStabilization = -1
  | | | | | | - Tag 0x0022 (2 bytes, int16s[1]):
  | | | | | |     0b82: ff ff                                           [..]
  | | | | | | DisplayAperture = 0
  | | | | | | - Tag 0x0023 (2 bytes, int16s[1]):
  | | | | | |     0b84: 00 00                                           [..]
  | | | | | | ZoomSourceWidth = 0
  | | | | | | - Tag 0x0024 (2 bytes, int16s[1]):
  | | | | | |     0b86: 00 00                                           [..]
  | | | | | | ZoomTargetWidth = 0
  | | | | | | - Tag 0x0025 (2 bytes, int16s[1]):
  | | | | | |     0b88: 00 00                                           [..]
  | | | | | | SpotMeteringMode = -1
  | | | | | | - Tag 0x0027 (2 bytes, int16s[1]):
  | | | | | |     0b8c: ff ff                                           [..]
  | | | | | | PhotoEffect = -1
  | | | | | | - Tag 0x0028 (2 bytes, int16s[1]):
  | | | | | |     0b8e: ff ff                                           [..]
  | | | | | | ManualFlashOutput = 0
  | | | | | | - Tag 0x0029 (2 bytes, int16s[1]):
  | | | | | |     0b90: 00 00                                           [..]
  | | | | | | ColorTone = 0
  | | | | | | - Tag 0x002a (2 bytes, int16s[1]):
  | | | | | |     0b92: 00 00                                           [..]
  | | | | | | SRAWQuality = -1
  | | | | | | - Tag 0x002e (2 bytes, int16s[1]):
  | | | | | |     0b9a: ff ff                                           [..]
  | | | | | 1)  CanonFocalLength (SubDirectory) -->
  | | | | |     - Tag 0x0002 (8 bytes, int16u[4] read as undef[8]):
  | | | | |         0ba0: 00 00 32 00 16 0b 24 5a                         [..2...$Z]
  | | | | | + [BinaryData directory, 8 bytes, Little-endian]
  | | | | | | FocalType = 0
  | | | | | | - Tag 0x0000 (2 bytes, int16u[1]):
  | | | | | |     0ba0: 00 00                                           [..]
  | | | | | | FocalLength = 50
  | | | | | | - Tag 0x0001 (2 bytes, int16u[1]):
  | | | | | |     0ba2: 32 00                                           [2.]
  | | | | | | FocalPlaneXUnknown = 2838
  | | | | | | - Tag 0x0002 (2 bytes, int16u[1]):
  | | | | | |     0ba4: 16 0b                                           [..]
  | | | | | | FocalPlaneYUnknown = 23076
  | | | | | | - Tag 0x0003 (2 bytes, int16u[1]):
  | | | | | |     0ba6: 24 5a                                           [$Z]
  | | | | | 2)  CanonFlashInfo = 0 0 0 0
  | | | | |     - Tag 0x0003 (8 bytes, int16u[4]):
  | | | | |         0ba8: 00 00 00 00 00 00 00 00                         [........]
  | | | | | 3)  CanonShotInfo (SubDirectory) -->
  | | | | |     - Tag 0x0004 (68 bytes, int16u[34] read as undef[68]):
  | | | | |         0bb0: 44 00 00 00 e0 00 48 00 6c 00 c0 00 00 00 00 00 [D.....H.l.......]
  | | | | |         0bc0: 03 00 00 00 08 00 08 00 95 00 00 00 00 00 00 00 [................]
  | | | | |         0bd0: 00 00 00 00 01 00 00 00 00 00 68 00 c0 00 64 00 [..........h...d.]
  | | | | |         0be0: 00 00 00 00 f8 00 ff ff ff ff ff ff ff ff 00 00 [................]
  | | | | |         0bf0: 00 00 00 00                                     [....]
  | | | | | + [BinaryData directory, 68 bytes, Little-endian]
  | | | | | | AutoISO = 0
  | | | | | | - Tag 0x0001 (2 bytes, int16s[1]):
  | | | | | |     0bb2: 00 00                                           [..]
  | | | | | | BaseISO = 224
  | | | | | | - Tag 0x0002 (2 bytes, int16s[1]):
  | | | | | |     0bb4: e0 00                                           [..]
  | | | | | | MeasuredEV = 72
  | | | | | | - Tag 0x0003 (2 bytes, int16s[1]):
  | | | | | |     0bb6: 48 00                                           [H.]
  | | | | | | TargetAperture = 108
  | | | | | | - Tag 0x0004 (2 bytes, int16s[1]):
  | | | | | |     0bb8: 6c 00                                           [l.]
  | | | | | | TargetExposureTime = 192
  | | | | | | - Tag 0x0005 (2 bytes, int16s[1]):
  | | | | | |     0bba: c0 00                                           [..]
  | | | | | | ExposureCompensation = 0
  | | | | | | - Tag 0x0006 (2 bytes, int16s[1]):
  | | | | | |     0bbc: 00 00                                           [..]
  | | | | | | WhiteBalance = 0
  | | | | | | - Tag 0x0007 (2 bytes, int16s[1]):
  | | | | | |     0bbe: 00 00                                           [..]
  | | | | | | SlowShutter = 3
  | | | | | | - Tag 0x0008 (2 bytes, int16s[1]):
  | | | | | |     0bc0: 03 00                                           [..]
  | | | | | | SequenceNumber = 0
  | | | | | | - Tag 0x0009 (2 bytes, int16s[1]):
  | | | | | |     0bc2: 00 00                                           [..]
  | | | | | | OpticalZoomCode = 8
  | | | | | | - Tag 0x000a (2 bytes, int16s[1]):
  | | | | | |     0bc4: 08 00                                           [..]
  | | | | | | CameraTemperature = 149
  | | | | | | - Tag 0x000c (2 bytes, int16s[1]):
  | | | | | |     0bc8: 95 00                                           [..]
  | | | | | | FlashGuideNumber = 0
  | | | | | | - Tag 0x000d (2 bytes, int16s[1]):
  | | | | | |     0bca: 00 00                                           [..]
  | | | | | | AFPointsInFocus = 0
  | | | | | | - Tag 0x000e (2 bytes, int16s[1]):
  | | | | | |     0bcc: 00 00                                           [..]
  | | | | | | FlashExposureComp = 0
  | | | | | | - Tag 0x000f (2 bytes, int16s[1]):
  | | | | | |     0bce: 00 00                                           [..]
  | | | | | | AutoExposureBracketing = 0
  | | | | | | - Tag 0x0010 (2 bytes, int16s[1]):
  | | | | | |     0bd0: 00 00                                           [..]
  | | | | | | AEBBracketValue = 0
  | | | | | | - Tag 0x0011 (2 bytes, int16s[1]):
  | | | | | |     0bd2: 00 00                                           [..]
  | | | | | | ControlMode = 1
  | | | | | | - Tag 0x0012 (2 bytes, int16s[1]):
  | | | | | |     0bd4: 01 00                                           [..]
  | | | | | | FocusDistanceUpper = 0
  | | | | | | - Tag 0x0013 (2 bytes, int16u[1]):
  | | | | | |     0bd6: 00 00                                           [..]
  | | | | | | FNumber = 104
  | | | | | | - Tag 0x0015 (2 bytes, int16s[1]):
  | | | | | |     0bda: 68 00                                           [h.]
  | | | | | | ExposureTime = 192
  | | | | | | - Tag 0x0016 (2 bytes, int16s[1]):
  | | | | | |     0bdc: c0 00                                           [..]
  | | | | | | MeasuredEV2 = 100
  | | | | | | - Tag 0x0017 (2 bytes, int16s[1]):
  | | | | | |     0bde: 64 00                                           [d.]
  | | | | | | BulbDuration = 0
  | | | | | | - Tag 0x0018 (2 bytes, int16s[1]):
  | | | | | |     0be0: 00 00                                           [..]
  | | | | | | CameraType = 248
  | | | | | | - Tag 0x001a (2 bytes, int16s[1]):
  | | | | | |     0be4: f8 00                                           [..]
  | | | | | | AutoRotate = -1
  | | | | | | - Tag 0x001b (2 bytes, int16s[1]):
  | | | | | |     0be6: ff ff                                           [..]
  | | | | | | NDFilter = -1
  | | | | | | - Tag 0x001c (2 bytes, int16s[1]):
  | | | | | |     0be8: ff ff                                           [..]
  | | | | | | SelfTimer2 = -1
  | | | | | | - Tag 0x001d (2 bytes, int16s[1]):
  | | | | | |     0bea: ff ff                                           [..]
  | | | | | | FlashOutput = 0
  | | | | | | - Tag 0x0021 (2 bytes, int16s[1]):
  | | | | | |     0bf2: 00 00                                           [..]
  | | | | | 4)  CanonImageType = Canon EOS 70D
  | | | | |     - Tag 0x0006 (14 bytes, string[14]):
  | | | | |         0bf4: 43 61 6e 6f 6e 20 45 4f 53 20 37 30 44 00       [Canon EOS 70D.]
  | | | | | 5)  CanonFirmwareVersion = Firmware Version 1.1.1
  | | | | |     - Tag 0x0007 (24 bytes, string[24]):
  | | | | |         0c02: 46 69 72 6d 77 61 72 65 20 56 65 72 73 69 6f 6e [Firmware Version]
  | | | | |         0c12: 20 31 2e 31 2e 31 00 00                         [ 1.1.1..]
  | | | | | 6)  OwnerName = 
  | | | | |     - Tag 0x0009 (32 bytes, string[32]):
  | | | | |         0c1a: 00 00 00 00 00 00 00 00 00 00 00 00 00 00 00 00 [................]
  | | | | |         0c2a: 00 00 00 00 00 00 00 00 00 00 00 00 00 00 00 00 [................]
  | | | | | 7)  CanonCameraInfo70D (SubDirectory) -->
  | | | | |     - Tag 0x000d (1536 bytes, undef[1536]):
  | | | | |         0c3a: aa aa 68 22 68 23 58 00 01 2d 01 3e 00 03 00 00 [..h"h#X..-.>....]
  | | | | |         0c4a: 00 00 00 00 01 00 00 06 00 00 00 95 92 00 a6 00 [................]
  | | | | |         0c5a: af 00 a9 00 32 00 00 20 00 00 00 00 00 02 03 00 [....2.. ........]
  | | | | |         0c6a: 00 00 00 00 4a 00 32 00 73 01 bb bb fa 50 00 24 [....J.2.s....P.$]
  | | | | |         0c7a: 40 90 00 00 00 00 00 00 00 00 00 00 00 00 00 00 [@...............]
  | | | | |         0c8a: 00 00 ff 88 00 00 00 00 40 ff 00 6e 00 46 00 30 [........@..n.F.0]
  | | | | |         0c9a: 00 00 00 00 00 00 00 00 00 00 00 00 00 00 b4 8d [................]
  | | | | |         0caa: b7 94 6e 00 00 00 00 00 00 00 00 00 01 01 00 00 [..n.............]
  | | | | |         0cba: 00 00 02 01 00 00 00 00 00 00 00 00 00 00 00 00 [................]
  | | | | |         0cca: 00 00 00 00 57 00 49 04 00 00 00 00 00 00 00 00 [....W.I.........]
  | | | | |         0cda: ff ff ff ff 0c cc cc 16 00 00 00 03 00 00 00 00 [................]
  | | | | |         0cea: 00 00 00 00 00 00 00 00 00 00 00 00 ff 01 00 00 [................]
  | | | | |         0cfa: 00 4a 00 00 00 00 00 50 14 00 00 00 00 00 00 00 [.J.....P........]
  | | | | |         0d0a: 00 00 00 01 00 00 00 01 00 00 00 01 00 00 00 03 [................]
  | | | | |         0d1a: 00 00 00 03 00 00 00 03 00 00 00 00 00 00 00 01 [................]
  | | | | |         0d2a: 00 00 00 00 00 00 00 01 00 00 00 87 00 00 00 01 [................]
  | | | | |         0d3a: 00 00 00 01 00 00 00 01 00 00 00 07 00 00 00 00 [................]
  | | | | |         0d4a: 00 00 03 05 03 55 55 00 00 00 00 0e 00 00 00 00 [.....UU.........]
  | | | | |         0d5a: 00 00 00 00 00 00 00 00 00 03 07 07 11 0d 00 00 [................]
  | | | | |         0d6a: 00 00 00 00 00 00 00 00 00 00 00 00 00 55 55 05 [.............UU.]
  | | | | |         0d7a: 00 00 03 00 14 04 00 00 00 00 00 00 00 00 00 00 [................]
  | | | | |         0d8a: 00 00 00 00 00 00 00 00 03 02 02 00 00 00 00 00 [................]
  | | | | |         0d9a: 00 00 00 01 16 50 10 3c 00 32 00 32 81 67 92 7f [.....P.<.2.2.g..]
  | | | | |         0daa: 00 ff 00 00 00 00 00 00 00 21 4e 1c 01 00 03 07 [.........!N.....]
  | | | | |         0dba: 16 00 27 02 00 00 00 00 00 00 00 00 00 00 00 00 [..'.............]
  | | | | |         0dca: 00 00 00 00 00 00 00 00 00 00 00 00 00 00 00 02 [................]
  | | | | |         0dda: 00 00 00 60 15 00 00 40 0e 00 00 9c 09 00 00 b0 [...`...@........]
  | | | | |         0dea: 05 00 00 28 02 00 00 e0 02 00 00 d0 02 00 00 e0 [...(............]
  | | | | |         0dfa: 01 00 00 00 00 00 00 00 00 00 00 d0 02 00 00 e0 [................]
  | | | | |         0e0a: 01 00 00 d0 02 00 00 e0 01 00 00 00 00 00 00 00 [................]
  | | | | |         0e1a: 00 00 00 d0 02 00 00 e0 01 00 00 00 00 00 00 00 [................]
  | | | | |         0e2a: 00 00 00 01 00 00 00 00 00 00 00 00 00 00 00 00 [................]
  | | | | |         0e3a: 00 00 00 06 00 00 00 00 00 00 00 00 00 00 00 ff [................]
  | | | | |         0e4a: ff ff 7f ff ff ff 7f 00 00 00 00 00 00 00 00 00 [................]
  | | | | |         0e5a: 02 00 00 00 00 00 00 00 00 00 00 0a 02 00 01 00 [................]
  | | | | |         0e6a: 01 00 00 00 02 00 00 00 00 00 00 00 00 00 00 01 [................]
  | | | | |         0e7a: 00 00 00 00 00 00 00 00 00 00 00 00 00 00 00 00 [................]
  | | | | |         0e8a: 00 00 01 00 00 00 00 00 00 00 00 01 01 00 31 2e [..............1.]
  | | | | |         0e9a: 31 2e 31 00 42 31 28 33 32 29 00 00 00 00 05 00 [1.1.B1(32)......]
  | | | | |         0eaa: 00 00 00 00 00 00 a4 cd 59 00 00 00 00 00 00 00 [........Y.......]
  | | | | |         0eba: 03 80 00 00 00 00 00 00 00 00 00 00 00 00 00 00 [................]
  | | | | |         0eca: 00 00 00 00 00 00 00 00 00 00 00 00 00 00 00 00 [................]
  | | | | |         0eda: 00 00 00 8e 00 00 00 64 00 00 00 64 00 00 00 00 [.......d...d....]
  | | | | |         0eea: 00 00 00 65 17 00 00 00 00 00 00 64 00 00 00 65 [...e.......d...e]
  | | | | |         0efa: 00 00 00 64 00 00 00 08 00 00 00 08 00 00 00 08 [...d............]
  | | | | |         0f0a: 00 00 00 08 00 00 00 01 00 00 00 00 00 00 00 00 [................]
  | | | | |         0f1a: 00 00 00 00 00 00 00 00 00 00 00 00 00 00 00 00 [................]
  | | | | |         0f2a: 00 00 00 00 00 00 00 00 00 00 00 f4 01 00 04 00 [................]
  | | | | |         0f3a: 04 74 02 00 00 00 00 00 00 00 00 00 00 00 00 00 [.t..............]
  | | | | |         0f4a: 00 00 00 00 00 00 00 00 00 00 00 00 00 00 00 00 [................]
  | | | | |         0f5a: 00 00 00 00 00 00 00 f4 01 00 04 00 04 74 02 00 [.............t..]
  | | | | |         0f6a: 00 00 00 00 00 00 00 00 00 00 00 00 00 00 00 00 [................]
  | | | | |         0f7a: 00 00 00 00 00 00 00 00 00 00 00 00 00 00 00 00 [................]
  | | | | |         0f8a: 00 00 00 f4 01 00 04 00 04 74 02 00 00 00 00 00 [.........t......]
  | | | | |         0f9a: 00 00 00 00 00 00 00 00 00 00 00 00 00 00 00 00 [................]
  | | | | |         0faa: 00 00 00 00 00 00 00 00 00 00 00 00 00 00 00 f4 [................]
  | | | | |         0fba: 01 00 04 00 04 74 02 00 00 00 00 00 00 00 00 00 [.....t..........]
  | | | | |         0fca: 00 00 00 00 00 00 00 00 00 00 00 00 00 00 00 00 [................]
  | | | | |         0fda: 00 00 00 00 00 00 00 00 00 00 00 f4 01 00 04 00 [................]
  | | | | |         0fea: 04 74 02 00 00 00 00 00 00 00 00 01 00 00 00 00 [.t..............]
  | | | | |         0ffa: 00 00 00 00 00 00 00 00 00 00 00 01 00 00 00 00 [................]
  | | | | |         100a: 00 00 00 03 00 00 00 00 00 00 00 00 00 00 00 ef [................]
  | | | | |         101a: be ad de ef be ad de 00 00 00 00 02 00 00 00 00 [................]
  | | | | |         102a: 00 00 00 00 00 00 00 ef be ad de ef be ad de 00 [................]
  | | | | |         103a: 00 00 00 04 00 00 00 00 00 00 00 00 00 00 00 ef [................]
  | | | | |         104a: be ad de ef be ad de 00 00 00 00 00 00 00 00 00 [................]
  | | | | |         105a: 00 00 00 00 00 00 00 ef be ad de ef be ad de 00 [................]
  | | | | |         106a: 00 00 00 00 00 00 00 00 00 00 00 00 00 00 00 ef [................]
  | | | | |         107a: be ad de ef be ad de 00 00 00 00 03 00 00 00 ef [................]
  | | | | |         108a: be ad de ef be ad de 00 00 00 00 00 00 00 00 00 [................]
  | | | | |         109a: 00 00 00 03 00 00 00 00 00 00 00 00 00 00 00 ef [................]
  | | | | |         10aa: be ad de ef be ad de 00 00 00 00 03 00 00 00 00 [................]
  | | | | |         10ba: 00 00 00 00 00 00 00 00 00 00 00 00 00 00 00 00 [................]
  | | | | |         10ca: 00 00 00 03 00 00 00 00 00 00 00 00 00 00 00 00 [................]
  | | | | |         10da: 00 00 00 00 00 00 00 00 00 00 00 03 00 00 00 00 [................]
  | | | | |         10ea: 00 00 00 00 00 00 00 00 00 00 00 00 00 00 00 87 [................]
  | | | | |         10fa: 00 87 00 87 00 00 00 ff ff ff ff ff ff ff ff 00 [................]
  | | | | |         110a: 00 00 00 00 00 00 00 00 00 00 00 00 00 00 00 00 [................]
  | | | | |         111a: 00 00 00 00 00 00 00 00 00 00 00 00 00 00 00 00 [................]
  | | | | |         112a: 04 00 04 00 04 00 04 00 00 00 00 00 00 00 00 00 [................]
  | | | | |         113a: 00 00 00 00 00 00 00 00 00 00 00 00 00 00 00 00 [................]
  | | | | |         114a: 00 00 00 00 00 00 00 00 04 00 04 00 04 00 04 00 [................]
  | | | | |         115a: 00 00 00 00 00 00 00 00 00 00 00 00 00 00 00 00 [................]
  | | | | |         116a: 00 00 00 00 00 00 00 00 00 00 00 00 00 00 00 00 [................]
  | | | | |         117a: 04 00 04 00 04 00 04 00 00 00 00 00 00 00 00 00 [................]
  | | | | |         118a: 00 00 00 00 00 00 00 00 00 00 00 00 00 00 00 00 [................]
  | | | | |         119a: 00 00 00 00 00 00 00 00 04 00 04 00 04 00 04 00 [................]
  | | | | |         11aa: 00 00 00 00 00 00 00 00 00 00 00 00 00 00 00 00 [................]
  | | | | |         11ba: 00 00 00 00 00 00 00 00 00 00 00 00 00 00 00 00 [................]
  | | | | |         11ca: 04 00 04 00 04 00 04 00 00 00 00 00 00 00 00 28 [...............(]
  | | | | |         11da: 75 1a 56 02 00 00 00 04 00 00 00 00 00 00 00 04 [u.V.............]
  | | | | |         11ea: 00 00 00 00 00 00 00 04 00 00 00 00 00 00 00 00 [................]
  | | | | |         11fa: 00 00 10 00 00 00 00 00 00 00 00 00 00 00 00 00 [................]
  | | | | |         120a: 37 00 00 d8 3a 01 00 00 00 00 00 00 00 00 00 00 [7...:...........]
  | | | | |         121a: 00 00 00 03 00 00 00 53 00 00 00 58 00 03 80 00 [.......S...X....]
  | | | | |         122a: 00 00 00 03 00 00 00 4d 00 00 00 4e 00 00 00 00 [.......M...N....]
  | | | | | + [BinaryData directory, 1536 bytes, Little-endian]
  | | | | | | FNumber = 34
  | | | | | | - Tag 0x0003 (1 bytes, int8u[1]):
  | | | | | |     0c3d: 22                                              ["]
  | | | | | | ExposureTime = 104
  | | | | | | - Tag 0x0004 (1 bytes, int8u[1]):
  | | | | | |     0c3e: 68                                              [h]
  | | | | | | ISO = 88
  | | | | | | - Tag 0x0006 (1 bytes, int8u[1]):
  | | | | | |     0c40: 58                                              [X]
  | | | | | | CameraTemperature = 149
  | | | | | | - Tag 0x001b (1 bytes, int8u[1]):
  | | | | | |     0c55: 95                                              [.]
  | | | | | | FocalLength = 50
  | | | | | | - Tag 0x0023 (2 bytes, int16uRev[1]):
  | | | | | |     0c5d: 00 32                                           [.2]
  | | | | | | CameraOrientation = 0
  | | | | | | - Tag 0x0084 (1 bytes, int8u[1]):
  | | | | | |     0cbe: 00                                              [.]
  | | | | | | FocusDistanceUpper = 87
  | | | | | | - Tag 0x0093 (2 bytes, int16uRev[1]):
  | | | | | |     0ccd: 00 57                                           [.W]
  | | | | | | FocusDistanceLower = 73
  | | | | | | - Tag 0x0095 (2 bytes, int16uRev[1]):
  | | | | | |     0ccf: 00 49                                           [.I]
  | | | | | | ColorTemperature = 5200
  | | | | | | - Tag 0x00c7 (2 bytes, int16u[1]):
  | | | | | |     0d01: 50 14                                           [P.]
  | | | | | | LensType = 4156
  | | | | | | - Tag 0x0166 (2 bytes, int16uRev[1]):
  | | | | | |     0da0: 10 3c                                           [.<]
  | | | | | | MinFocalLength = 50
  | | | | | | - Tag 0x0168 (2 bytes, int16uRev[1]):
  | | | | | |     0da2: 00 32                                           [.2]
  | | | | | | MaxFocalLength = 50
  | | | | | | - Tag 0x016a (2 bytes, int16uRev[1]):
  | | | | | |     0da4: 00 32                                           [.2]
  | | | | | | FirmwareVersion = 1.1.1
  | | | | | | - Tag 0x025e (6 bytes, string[6]):
  | | | | | |     0e98: 31 2e 31 2e 31 00                               [1.1.1.]
  | | | | | | FileIndex = 5989
  | | | | | | - Tag 0x02b3 (4 bytes, int32u[1]):
  | | | | | |     0eed: 65 17 00 00                                     [e...]
  | | | | | | DirectoryIndex = 101
  | | | | | | - Tag 0x02bf (4 bytes, int32u[1]):
  | | | | | |     0ef9: 65 00 00 00                                     [e...]
  | | | | | | PictureStyleInfo (SubDirectory) -->
  | | | | | | - Tag 0x03cf (561 bytes, int8u[1]):
  | | | | | |     1009: 00 00 00 00 03 00 00 00 00 00 00 00 00 00 00 00 [................]
  | | | | | |     1019: ef be ad de ef be ad de 00 00 00 00 02 00 00 00 [................]
  | | | | | |     1029: 00 00 00 00 00 00 00 00 ef be ad de ef be ad de [................]
  | | | | | |     1039: 00 00 00 00 04 00 00 00 00 00 00 00 00 00 00 00 [................]
  | | | | | |     1049: ef be ad de ef be ad de 00 00 00 00 00 00 00 00 [................]
  | | | | | |     1059: 00 00 00 00 00 00 00 00 ef be ad de ef be ad de [................]
  | | | | | |     1069: 00 00 00 00 00 00 00 00 00 00 00 00 00 00 00 00 [................]
  | | | | | |     1079: ef be ad de ef be ad de 00 00 00 00 03 00 00 00 [................]
  | | | | | |     1089: ef be ad de ef be ad de 00 00 00 00 00 00 00 00 [................]
  | | | | | |     1099: 00 00 00 00 03 00 00 00 00 00 00 00 00 00 00 00 [................]
  | | | | | |     10a9: ef be ad de ef be ad de 00 00 00 00 03 00 00 00 [................]
  | | | | | |     10b9: 00 00 00 00 00 00 00 00 00 00 00 00 00 00 00 00 [................]
  | | | | | |     10c9: 00 00 00 00 03 00 00 00 00 00 00 00 00 00 00 00 [................]
  | | | | | |     10d9: 00 00 00 00 00 00 00 00 00 00 00 00 03 00 00 00 [................]
  | | | | | |     10e9: 00 00 00 00 00 00 00 00 00 00 00 00 00 00 00 00 [................]
  | | | | | |     10f9: 87 00 87 00 87 00 00 00 ff ff ff ff ff ff ff ff [................]
  | | | | | |     1109: 00 00 00 00 00 00 00 00 00 00 00 00 00 00 00 00 [................]
  | | | | | |     1119: 00 00 00 00 00 00 00 00 00 00 00 00 00 00 00 00 [................]
  | | | | | |     1129: 00 04 00 04 00 04 00 04 00 00 00 00 00 00 00 00 [................]
  | | | | | |     1139: 00 00 00 00 00 00 00 00 00 00 00 00 00 00 00 00 [................]
  | | | | | |     1149: 00 00 00 00 00 00 00 00 00 04 00 04 00 04 00 04 [................]
  | | | | | |     1159: 00 00 00 00 00 00 00 00 00 00 00 00 00 00 00 00 [................]
  | | | | | |     1169: 00 00 00 00 00 00 00 00 00 00 00 00 00 00 00 00 [................]
  | | | | | |     1179: 00 04 00 04 00 04 00 04 00 00 00 00 00 00 00 00 [................]
  | | | | | |     1189: 00 00 00 00 00 00 00 00 00 00 00 00 00 00 00 00 [................]
  | | | | | |     1199: 00 00 00 00 00 00 00 00 00 04 00 04 00 04 00 04 [................]
  | | | | | |     11a9: 00 00 00 00 00 00 00 00 00 00 00 00 00 00 00 00 [................]
  | | | | | |     11b9: 00 00 00 00 00 00 00 00 00 00 00 00 00 00 00 00 [................]
  | | | | | |     11c9: 00 04 00 04 00 04 00 04 00 00 00 00 00 00 00 00 [................]
  | | | | | |     11d9: 28 75 1a 56 02 00 00 00 04 00 00 00 00 00 00 00 [(u.V............]
  | | | | | |     11e9: 04 00 00 00 00 00 00 00 04 00 00 00 00 00 00 00 [................]
  | | | | | |     11f9: 00 00 00 10 00 00 00 00 00 00 00 00 00 00 00 00 [................]
  | | | | | |     1209: 00 37 00 00 d8 3a 01 00 00 00 00 00 00 00 00 00 [.7...:..........]
  | | | | | |     1219: 00 00 00 00 03 00 00 00 53 00 00 00 58 00 03 80 [........S...X...]
  | | | | | |     1229: 00 00 00 00 03 00 00 00 4d 00 00 00 4e 00 00 00 [........M...N...]
  | | | | | |     1239: 00                                              [.]
  | | | | | | + [BinaryData directory, 561 bytes, Little-endian]
  | | | | | | | ContrastStandard = 0
  | | | | | | | - Tag 0x0000 (4 bytes, int32s[1]):
  | | | | | | |     1009: 00 00 00 00                                     [....]
  | | | | | | | SharpnessStandard = 3
  | | | | | | | - Tag 0x0004 (4 bytes, int32s[1]):
  | | | | | | |     100d: 03 00 00 00                                     [....]
  | | | | | | | SaturationStandard = 0
  | | | | | | | - Tag 0x0008 (4 bytes, int32s[1]):
  | | | | | | |     1011: 00 00 00 00                                     [....]
  | | | | | | | ColorToneStandard = 0
  | | | | | | | - Tag 0x000c (4 bytes, int32s[1]):
  | | | | | | |     1015: 00 00 00 00                                     [....]
  | | | | | | | FilterEffectStandard = -559038737
  | | | | | | | - Tag 0x0010 (4 bytes, int32s[1]):
  | | | | | | |     1019: ef be ad de                                     [....]
  | | | | | | | ToningEffectStandard = -559038737
  | | | | | | | - Tag 0x0014 (4 bytes, int32s[1]):
  | | | | | | |     101d: ef be ad de                                     [....]
  | | | | | | | ContrastPortrait = 0
  | | | | | | | - Tag 0x0018 (4 bytes, int32s[1]):
  | | | | | | |     1021: 00 00 00 00                                     [....]
  | | | | | | | SharpnessPortrait = 2
  | | | | | | | - Tag 0x001c (4 bytes, int32s[1]):
  | | | | | | |     1025: 02 00 00 00                                     [....]
  | | | | | | | SaturationPortrait = 0
  | | | | | | | - Tag 0x0020 (4 bytes, int32s[1]):
  | | | | | | |     1029: 00 00 00 00                                     [....]
  | | | | | | | ColorTonePortrait = 0
  | | | | | | | - Tag 0x0024 (4 bytes, int32s[1]):
  | | | | | | |     102d: 00 00 00 00                                     [....]
  | | | | | | | FilterEffectPortrait = -559038737
  | | | | | | | - Tag 0x0028 (4 bytes, int32s[1]):
  | | | | | | |     1031: ef be ad de                                     [....]
  | | | | | | | ToningEffectPortrait = -559038737
  | | | | | | | - Tag 0x002c (4 bytes, int32s[1]):
  | | | | | | |     1035: ef be ad de                                     [....]
  | | | | | | | ContrastLandscape = 0
  | | | | | | | - Tag 0x0030 (4 bytes, int32s[1]):
  | | | | | | |     1039: 00 00 00 00                                     [....]
  | | | | | | | SharpnessLandscape = 4
  | | | | | | | - Tag 0x0034 (4 bytes, int32s[1]):
  | | | | | | |     103d: 04 00 00 00                                     [....]
  | | | | | | | SaturationLandscape = 0
  | | | | | | | - Tag 0x0038 (4 bytes, int32s[1]):
  | | | | | | |     1041: 00 00 00 00                                     [....]
  | | | | | | | ColorToneLandscape = 0
  | | | | | | | - Tag 0x003c (4 bytes, int32s[1]):
  | | | | | | |     1045: 00 00 00 00                                     [....]
  | | | | | | | FilterEffectLandscape = -559038737
  | | | | | | | - Tag 0x0040 (4 bytes, int32s[1]):
  | | | | | | |     1049: ef be ad de                                     [....]
  | | | | | | | ToningEffectLandscape = -559038737
  | | | | | | | - Tag 0x0044 (4 bytes, int32s[1]):
  | | | | | | |     104d: ef be ad de                                     [....]
  | | | | | | | ContrastNeutral = 0
  | | | | | | | - Tag 0x0048 (4 bytes, int32s[1]):
  | | | | | | |     1051: 00 00 00 00                                     [....]
  | | | | | | | SharpnessNeutral = 0
  | | | | | | | - Tag 0x004c (4 bytes, int32s[1]):
  | | | | | | |     1055: 00 00 00 00                                     [....]
  | | | | | | | SaturationNeutral = 0
  | | | | | | | - Tag 0x0050 (4 bytes, int32s[1]):
  | | | | | | |     1059: 00 00 00 00                                     [....]
  | | | | | | | ColorToneNeutral = 0
  | | | | | | | - Tag 0x0054 (4 bytes, int32s[1]):
  | | | | | | |     105d: 00 00 00 00                                     [....]
  | | | | | | | FilterEffectNeutral = -559038737
  | | | | | | | - Tag 0x0058 (4 bytes, int32s[1]):
  | | | | | | |     1061: ef be ad de                                     [....]
  | | | | | | | ToningEffectNeutral = -559038737
  | | | | | | | - Tag 0x005c (4 bytes, int32s[1]):
  | | | | | | |     1065: ef be ad de                                     [....]
  | | | | | | | ContrastFaithful = 0
  | | | | | | | - Tag 0x0060 (4 bytes, int32s[1]):
  | | | | | | |     1069: 00 00 00 00                                     [....]
  | | | | | | | SharpnessFaithful = 0
  | | | | | | | - Tag 0x0064 (4 bytes, int32s[1]):
  | | | | | | |     106d: 00 00 00 00                                     [....]
  | | | | | | | SaturationFaithful = 0
  | | | | | | | - Tag 0x0068 (4 bytes, int32s[1]):
  | | | | | | |     1071: 00 00 00 00                                     [....]
  | | | | | | | ColorToneFaithful = 0
  | | | | | | | - Tag 0x006c (4 bytes, int32s[1]):
  | | | | | | |     1075: 00 00 00 00                                     [....]
  | | | | | | | FilterEffectFaithful = -559038737
  | | | | | | | - Tag 0x0070 (4 bytes, int32s[1]):
  | | | | | | |     1079: ef be ad de                                     [....]
  | | | | | | | ToningEffectFaithful = -559038737
  | | | | | | | - Tag 0x0074 (4 bytes, int32s[1]):
  | | | | | | |     107d: ef be ad de                                     [....]
  | | | | | | | ContrastMonochrome = 0
  | | | | | | | - Tag 0x0078 (4 bytes, int32s[1]):
  | | | | | | |     1081: 00 00 00 00                                     [....]
  | | | | | | | SharpnessMonochrome = 3
  | | | | | | | - Tag 0x007c (4 bytes, int32s[1]):
  | | | | | | |     1085: 03 00 00 00                                     [....]
  | | | | | | | SaturationMonochrome = -559038737
  | | | | | | | - Tag 0x0080 (4 bytes, int32s[1]):
  | | | | | | |     1089: ef be ad de                                     [....]
  | | | | | | | ColorToneMonochrome = -559038737
  | | | | | | | - Tag 0x0084 (4 bytes, int32s[1]):
  | | | | | | |     108d: ef be ad de                                     [....]
  | | | | | | | FilterEffectMonochrome = 0
  | | | | | | | - Tag 0x0088 (4 bytes, int32s[1]):
  | | | | | | |     1091: 00 00 00 00                                     [....]
  | | | | | | | ToningEffectMonochrome = 0
  | | | | | | | - Tag 0x008c (4 bytes, int32s[1]):
  | | | | | | |     1095: 00 00 00 00                                     [....]
  | | | | | | | ContrastAuto = 0
  | | | | | | | - Tag 0x0090 (4 bytes, int32s[1]):
  | | | | | | |     1099: 00 00 00 00                                     [....]
  | | | | | | | SharpnessAuto = 3
  | | | | | | | - Tag 0x0094 (4 bytes, int32s[1]):
  | | | | | | |     109d: 03 00 00 00                                     [....]
  | | | | | | | SaturationAuto = 0
  | | | | | | | - Tag 0x0098 (4 bytes, int32s[1]):
  | | | | | | |     10a1: 00 00 00 00                                     [....]
  | | | | | | | ColorToneAuto = 0
  | | | | | | | - Tag 0x009c (4 bytes, int32s[1]):
  | | | | | | |     10a5: 00 00 00 00                                     [....]
  | | | | | | | FilterEffectAuto = -559038737
  | | | | | | | - Tag 0x00a0 (4 bytes, int32s[1]):
  | | | | | | |     10a9: ef be ad de                                     [....]
  | | | | | | | ToningEffectAuto = -559038737
  | | | | | | | - Tag 0x00a4 (4 bytes, int32s[1]):
  | | | | | | |     10ad: ef be ad de                                     [....]
  | | | | | | | ContrastUserDef1 = 0
  | | | | | | | - Tag 0x00a8 (4 bytes, int32s[1]):
  | | | | | | |     10b1: 00 00 00 00                                     [....]
  | | | | | | | SharpnessUserDef1 = 3
  | | | | | | | - Tag 0x00ac (4 bytes, int32s[1]):
  | | | | | | |     10b5: 03 00 00 00                                     [....]
  | | | | | | | SaturationUserDef1 = 0
  | | | | | | | - Tag 0x00b0 (4 bytes, int32s[1]):
  | | | | | | |     10b9: 00 00 00 00                                     [....]
  | | | | | | | ColorToneUserDef1 = 0
  | | | | | | | - Tag 0x00b4 (4 bytes, int32s[1]):
  | | | | | | |     10bd: 00 00 00 00                                     [....]
  | | | | | | | FilterEffectUserDef1 = 0
  | | | | | | | - Tag 0x00b8 (4 bytes, int32s[1]):
  | | | | | | |     10c1: 00 00 00 00                                     [....]
  | | | | | | | ToningEffectUserDef1 = 0
  | | | | | | | - Tag 0x00bc (4 bytes, int32s[1]):
  | | | | | | |     10c5: 00 00 00 00                                     [....]
  | | | | | | | ContrastUserDef2 = 0
  | | | | | | | - Tag 0x00c0 (4 bytes, int32s[1]):
  | | | | | | |     10c9: 00 00 00 00                                     [....]
  | | | | | | | SharpnessUserDef2 = 3
  | | | | | | | - Tag 0x00c4 (4 bytes, int32s[1]):
  | | | | | | |     10cd: 03 00 00 00                                     [....]
  | | | | | | | SaturationUserDef2 = 0
  | | | | | | | - Tag 0x00c8 (4 bytes, int32s[1]):
  | | | | | | |     10d1: 00 00 00 00                                     [....]
  | | | | | | | ColorToneUserDef2 = 0
  | | | | | | | - Tag 0x00cc (4 bytes, int32s[1]):
  | | | | | | |     10d5: 00 00 00 00                                     [....]
  | | | | | | | FilterEffectUserDef2 = 0
  | | | | | | | - Tag 0x00d0 (4 bytes, int32s[1]):
  | | | | | | |     10d9: 00 00 00 00                                     [....]
  | | | | | | | ToningEffectUserDef2 = 0
  | | | | | | | - Tag 0x00d4 (4 bytes, int32s[1]):
  | | | | | | |     10dd: 00 00 00 00                                     [....]
  | | | | | | | ContrastUserDef3 = 0
  | | | | | | | - Tag 0x00d8 (4 bytes, int32s[1]):
  | | | | | | |     10e1: 00 00 00 00                                     [....]
  | | | | | | | SharpnessUserDef3 = 3
  | | | | | | | - Tag 0x00dc (4 bytes, int32s[1]):
  | | | | | | |     10e5: 03 00 00 00                                     [....]
  | | | | | | | SaturationUserDef3 = 0
  | | | | | | | - Tag 0x00e0 (4 bytes, int32s[1]):
  | | | | | | |     10e9: 00 00 00 00                                     [....]
  | | | | | | | ColorToneUserDef3 = 0
  | | | | | | | - Tag 0x00e4 (4 bytes, int32s[1]):
  | | | | | | |     10ed: 00 00 00 00                                     [....]
  | | | | | | | FilterEffectUserDef3 = 0
  | | | | | | | - Tag 0x00e8 (4 bytes, int32s[1]):
  | | | | | | |     10f1: 00 00 00 00                                     [....]
  | | | | | | | ToningEffectUserDef3 = 0
  | | | | | | | - Tag 0x00ec (4 bytes, int32s[1]):
  | | | | | | |     10f5: 00 00 00 00                                     [....]
  | | | | | | | UserDef1PictureStyle = 135
  | | | | | | | - Tag 0x00f0 (2 bytes, int16u[1]):
  | | | | | | |     10f9: 87 00                                           [..]
  | | | | | | | UserDef2PictureStyle = 135
  | | | | | | | - Tag 0x00f2 (2 bytes, int16u[1]):
  | | | | | | |     10fb: 87 00                                           [..]
  | | | | | | | UserDef3PictureStyle = 135
  | | | | | | | - Tag 0x00f4 (2 bytes, int16u[1]):
  | | | | | | |     10fd: 87 00                                           [..]
  | | | | | 8)  CanonModelID = 2147484453
  | | | | |     - Tag 0x0010 (4 bytes, int32u[1]):
  | | | | |         09b6: 25 03 00 80                                     [%...]
  | | | | | 9)  ThumbnailImageValidArea = 0 159 7 112
  | | | | |     - Tag 0x0013 (8 bytes, int16u[4]):
  | | | | |         123a: 00 00 9f 00 07 00 70 00                         [......p.]
  | | | | | 10) Canon_0x0019 = 1
  | | | | |     - Tag 0x0019 (2 bytes, int16u[1]):
  | | | | |         09ce: 01 00                                           [..]
  | | | | | 11) CanonAFInfo2 (SubDirectory) -->
  | | | | |     - Tag 0x0026 (278 bytes, int16u[139] read as undef[278]):
  | | | | |         1242: 16 01 04 00 1f 00 13 00 60 15 40 0e 60 15 40 0e [........`.@.`.@.]
  | | | | |         1252: e5 00 e5 00 e5 00 e5 00 e5 00 e5 00 e5 00 e5 00 [................]
  | | | | |         1262: e5 00 e5 00 e5 00 e5 00 e5 00 e5 00 e5 00 e5 00 [................]
  | | | | |         1272: e5 00 e5 00 e5 00 00 00 00 00 00 00 00 00 00 00 [................]
  | | | | |         1282: 00 00 00 00 00 00 00 00 00 00 00 00 00 00 15 01 [................]
  | | | | |         1292: 15 01 15 01 15 01 15 01 15 01 15 01 15 01 15 01 [................]
  | | | | |         12a2: 15 01 15 01 15 01 15 01 15 01 15 01 15 01 15 01 [................]
  | | | | |         12b2: 15 01 15 01 00 00 00 00 00 00 00 00 00 00 00 00 [................]
  | | | | |         12c2: 00 00 00 00 00 00 00 00 00 00 00 00 8d fa 7f fc [................]
  | | | | |         12d2: 7f fc 7f fc 71 fe 71 fe 71 fe 00 00 00 00 00 00 [....q.q.q.......]
  | | | | |         12e2: 00 00 00 00 8f 01 8f 01 8f 01 81 03 81 03 81 03 [................]
  | | | | |         12f2: 73 05 00 00 00 00 00 00 00 00 00 00 00 00 00 00 [s...............]
  | | | | |         1302: 00 00 00 00 00 00 00 00 00 00 00 00 91 01 00 00 [................]
  | | | | |         1312: 6f fe 91 01 00 00 6f fe f3 02 91 01 00 00 6f fe [o.....o.......o.]
  | | | | |         1322: 0d fd 91 01 00 00 6f fe 91 01 00 00 6f fe 00 00 [......o.....o...]
  | | | | |         1332: 00 00 00 00 00 00 00 00 00 00 00 00 00 00 00 00 [................]
  | | | | |         1342: 00 00 00 00 00 00 00 00 00 00 04 00 ff ff 07 00 [................]
  | | | | |         1352: 00 00 00 00 ff ff                               [......]
  | | | | | + [SerialData directory, 278 bytes]
  | | | | | | 0)  AFInfoSize = 278
  | | | | | |     - Tag 0x0000 (2 bytes, int16u[1]):
  | | | | | |         1242: 16 01                                           [..]
  | | | | | | 1)  AFAreaMode = 4
  | | | | | |     - Tag 0x0001 (2 bytes, int16u[1]):
  | | | | | |         1244: 04 00                                           [..]
  | | | | | | 2)  NumAFPoints = 31
  | | | | | |     - Tag 0x0002 (2 bytes, int16u[1]):
  | | | | | |         1246: 1f 00                                           [..]
  | | | | | | 3)  ValidAFPoints = 19
  | | | | | |     - Tag 0x0003 (2 bytes, int16u[1]):
  | | | | | |         1248: 13 00                                           [..]
  | | | | | | 4)  CanonImageWidth = 5472
  | | | | | |     - Tag 0x0004 (2 bytes, int16u[1]):
  | | | | | |         124a: 60 15                                           [`.]
  | | | | | | 5)  CanonImageHeight = 3648
  | | | | | |     - Tag 0x0005 (2 bytes, int16u[1]):
  | | | | | |         124c: 40 0e                                           [@.]
  | | | | | | 6)  AFImageWidth = 5472
  | | | | | |     - Tag 0x0006 (2 bytes, int16u[1]):
  | | | | | |         124e: 60 15                                           [`.]
  | | | | | | 7)  AFImageHeight = 3648
  | | | | | |     - Tag 0x0007 (2 bytes, int16u[1]):
  | | | | | |         1250: 40 0e                                           [@.]
  | | | | | | 8)  AFAreaWidths = 229 229 229 229 229 229 229 229 229 229 229 229 229 229 229 229 229 229 229 0 0 0 0 0 0 0 0 0 0 0 0
  | | | | | |     - Tag 0x0008 (62 bytes, int16s[31]):
  | | | | | |         1252: e5 00 e5 00 e5 00 e5 00 e5 00 e5 00 e5 00 e5 00 [................]
  | | | | | |         1262: e5 00 e5 00 e5 00 e5 00 e5 00 e5 00 e5 00 e5 00 [................]
  | | | | | |         1272: e5 00 e5 00 e5 00 00 00 00 00 00 00 00 00 00 00 [................]
  | | | | | |         1282: 00 00 00 00 00 00 00 00 00 00 00 00 00 00       [..............]
  | | | | | | 9)  AFAreaHeights = 277 277 277 277 277 277 277 277 277 277 277 277 277 277 277 277 277 277 277 0 0 0 0 0 0 0 0 0 0 0 0
  | | | | | |     - Tag 0x0009 (62 bytes, int16s[31]):
  | | | | | |         1290: 15 01 15 01 15 01 15 01 15 01 15 01 15 01 15 01 [................]
  | | | | | |         12a0: 15 01 15 01 15 01 15 01 15 01 15 01 15 01 15 01 [................]
  | | | | | |         12b0: 15 01 15 01 15 01 00 00 00 00 00 00 00 00 00 00 [................]
  | | | | | |         12c0: 00 00 00 00 00 00 00 00 00 00 00 00 00 00       [..............]
  | | | | | | 10) AFAreaXPositions = -1395 -897 -897 -897 -399 -399 -399 0 0 0 0 0 399 399 399 897 897 897 1395 0 0 0 0 0 0 0 0 0 0 0 0
  | | | | | |     - Tag 0x000a (62 bytes, int16s[31]):
  | | | | | |         12ce: 8d fa 7f fc 7f fc 7f fc 71 fe 71 fe 71 fe 00 00 [........q.q.q...]
  | | | | | |         12de: 00 00 00 00 00 00 00 00 8f 01 8f 01 8f 01 81 03 [................]
  | | | | | |         12ee: 81 03 81 03 73 05 00 00 00 00 00 00 00 00 00 00 [....s...........]
  | | | | | |         12fe: 00 00 00 00 00 00 00 00 00 00 00 00 00 00       [..............]
  | | | | | | 11) AFAreaYPositions = 0 401 0 -401 401 0 -401 755 401 0 -401 -755 401 0 -401 401 0 -401 0 0 0 0 0 0 0 0 0 0 0 0 0
  | | | | | |     - Tag 0x000b (62 bytes, int16s[31]):
  | | | | | |         130c: 00 00 91 01 00 00 6f fe 91 01 00 00 6f fe f3 02 [......o.....o...]
  | | | | | |         131c: 91 01 00 00 6f fe 0d fd 91 01 00 00 6f fe 91 01 [....o.......o...]
  | | | | | |         132c: 00 00 6f fe 00 00 00 00 00 00 00 00 00 00 00 00 [..o.............]
  | | | | | |         133c: 00 00 00 00 00 00 00 00 00 00 00 00 00 00       [..............]
  | | | | | | 12) AFPointsInFocus = 0 4
  | | | | | |     - Tag 0x000c (4 bytes, int16s[2]):
  | | | | | |         134a: 00 00 04 00                                     [....]
  | | | | | | 13) AFPointsSelected = -1 7
  | | | | | |     - Tag 0x000d (4 bytes, int16s[2]):
  | | | | | |         134e: ff ff 07 00                                     [....]
  | | | | | 12) TimeInfo (SubDirectory) -->
  | | | | |     - Tag 0x0035 (16 bytes, int32u[4] read as undef[16]):
  | | | | |         1358: 10 00 00 00 00 00 00 00 14 00 00 00 00 00 00 00 [................]
  | | | | | + [BinaryData directory, 16 bytes, Little-endian]
  | | | | | | TimeZone = 0
  | | | | | | - Tag 0x0001 (4 bytes, int32s[1]):
  | | | | | |     135c: 00 00 00 00                                     [....]
  | | | | | | TimeZoneCity = 20
  | | | | | | - Tag 0x0002 (4 bytes, int32s[1]):
  | | | | | |     1360: 14 00 00 00                                     [....]
  | | | | | | DaylightSavings = 0
  | | | | | | - Tag 0x0003 (4 bytes, int32s[1]):
  | | | | | |     1364: 00 00 00 00                                     [....]
  | | | | | 13) CanonFileInfo (SubDirectory) -->
  | | | | |     - Tag 0x0093 (64 bytes, int16u[32] read as undef[64]):
  | | | | |         1368: 40 00 00 00 00 00 00 00 00 00 00 00 00 00 00 00 [@...............]
  | | | | |         1378: ff ff 00 00 00 00 00 00 00 00 00 00 ff ff ff ff [................]
  | | | | |         1388: a6 00 ff ff 00 00 00 00 57 00 49 00 00 00 00 00 [........W.I.....]
  | | | | |         1398: 00 00 00 00 ff ff 00 00 00 00 00 00 ff ff ff ff [................]
  | | | | | + [BinaryData directory, 64 bytes, Little-endian]
  | | | | | | BracketMode = 0
  | | | | | | - Tag 0x0003 (2 bytes, int16s[1]):
  | | | | | |     136e: 00 00                                           [..]
  | | | | | | BracketValue = 0
  | | | | | | - Tag 0x0004 (2 bytes, int16s[1]):
  | | | | | |     1370: 00 00                                           [..]
  | | | | | | BracketShotNumber = 0
  | | | | | | - Tag 0x0005 (2 bytes, int16s[1]):
  | | | | | |     1372: 00 00                                           [..]
  | | | | | | RawJpgQuality = 0
  | | | | | | - Tag 0x0006 (2 bytes, int16s[1]):
  | | | | | |     1374: 00 00                                           [..]
  | | | | | | RawJpgSize = 0
  | | | | | | - Tag 0x0007 (2 bytes, int16s[1]):
  | | | | | |     1376: 00 00                                           [..]
  | | | | | | LongExposureNoiseReduction2 = -1
  | | | | | | - Tag 0x0008 (2 bytes, int16s[1]):
  | | | | | |     1378: ff ff                                           [..]
  | | | | | | WBBracketMode = 0
  | | | | | | - Tag 0x0009 (2 bytes, int16s[1]):
  | | | | | |     137a: 00 00                                           [..]
  | | | | | | WBBracketValueAB = 0
  | | | | | | - Tag 0x000c (2 bytes, int16s[1]):
  | | | | | |     1380: 00 00                                           [..]
  | | | | | | WBBracketValueGM = 0
  | | | | | | - Tag 0x000d (2 bytes, int16s[1]):
  | | | | | |     1382: 00 00                                           [..]
  | | | | | | FilterEffect = -1
  | | | | | | - Tag 0x000e (2 bytes, int16s[1]):
  | | | | | |     1384: ff ff                                           [..]
  | | | | | | ToningEffect = -1
  | | | | | | - Tag 0x000f (2 bytes, int16s[1]):
  | | | | | |     1386: ff ff                                           [..]
  | | | | | | LiveViewShooting = 0
  | | | | | | - Tag 0x0013 (2 bytes, int16s[1]):
  | | | | | |     138e: 00 00                                           [..]
  | | | | | | FocusDistanceUpper = 87
  | | | | | | - Tag 0x0014 (2 bytes, int16u[1]):
  | | | | | |     1390: 57 00                                           [W.]
  | | | | | | FocusDistanceLower = 73
  | | | | | | - Tag 0x0015 (2 bytes, int16u[1]):
  | | | | | |     1392: 49 00                                           [I.]
  | | | | | | ShutterMode = 0
  | | | | | | - Tag 0x0017 (2 bytes, int16s[1]):
  | | | | | |     1396: 00 00                                           [..]
  | | | | | | FlashExposureLock = 0
  | | | | | | - Tag 0x0019 (2 bytes, int16s[1]):
  | | | | | |     139a: 00 00                                           [..]
  | | | | | 14) LensModel = EF50mm f/1.8 STM
  | | | | |     - Tag 0x0095 (74 bytes, string[74]):
  | | | | |         13a8: 45 46 35 30 6d 6d 20 66 2f 31 2e 38 20 53 54 4d [EF50mm f/1.8 STM]
  | | | | |         13b8: 00 2d 35 2e 36 20 49 53 20 53 54 4d 00 00 00 00 [.-5.6 IS STM....]
  | | | | |         13c8: 00 00 00 00 00 00 00 00 00 00 00 00 00 00 00 00 [................]
  | | | | |         13d8: 00 00 00 00 00 00 00 00 00 00 00 00 00 00 00 00 [................]
  | | | | |         13e8: 00 00 00 00 00 00 55 55 64 17                   [......UUd.]
  | | | | | 15) InternalSerialNumber = FA0381304
  | | | | |     - Tag 0x0096 (16 bytes, string[16]):
  | | | | |         13f2: 46 41 30 33 38 31 33 30 34 00 00 00 00 00 00 00 [FA0381304.......]
  | | | | | 16) DustRemovalData = 
  | | | | |     - Tag 0x0097 (1024 bytes, undef[1024]):
  | | | | |         1402: 00 00 00 00 00 00 00 00 00 00 00 00 00 00 00 00 [................]
  | | | | |         1412: 00 00 00 00 00 00 00 00 00 00 00 00 00 00 00 00 [................]
  | | | | |         1422: 00 00 00 00 00 00 00 00 00 00 00 00 00 00 00 00 [................]
  | | | | |         1432: 00 00 00 00 00 00 00 00 00 00 00 00 00 00 00 00 [................]
  | | | | |         1442: 00 00 00 00 00 00 00 00 00 00 00 00 00 00 00 00 [................]
  | | | | |         1452: 00 00 00 00 00 00 00 00 00 00 00 00 00 00 00 00 [................]
  | | | | |         1462: 00 00 00 00 00 00 00 00 00 00 00 00 00 00 00 00 [................]
  | | | | |         1472: 00 00 00 00 00 00 00 00 00 00 00 00 00 00 00 00 [................]
  | | | | |         1482: 00 00 00 00 00 00 00 00 00 00 00 00 00 00 00 00 [................]
  | | | | |         1492: 00 00 00 00 00 00 00 00 00 00 00 00 00 00 00 00 [................]
  | | | | |         14a2: 00 00 00 00 00 00 00 00 00 00 00 00 00 00 00 00 [................]
  | | | | |         14b2: 00 00 00 00 00 00 00 00 00 00 00 00 00 00 00 00 [................]
  | | | | |         14c2: 00 00 00 00 00 00 00 00 00 00 00 00 00 00 00 00 [................]
  | | | | |         14d2: 00 00 00 00 00 00 00 00 00 00 00 00 00 00 00 00 [................]
  | | | | |         14e2: 00 00 00 00 00 00 00 00 00 00 00 00 00 00 00 00 [................]
  | | | | |         14f2: 00 00 00 00 00 00 00 00 00 00 00 00 00 00 00 00 [................]
  | | | | |         1502: 00 00 00 00 00 00 00 00 00 00 00 00 00 00 00 00 [................]
  | | | | |         1512: 00 00 00 00 00 00 00 00 00 00 00 00 00 00 00 00 [................]
  | | | | |         1522: 00 00 00 00 00 00 00 00 00 00 00 00 00 00 00 00 [................]
  | | | | |         1532: 00 00 00 00 00 00 00 00 00 00 00 00 00 00 00 00 [................]
  | | | | |         1542: 00 00 00 00 00 00 00 00 00 00 00 00 00 00 00 00 [................]
  | | | | |         1552: 00 00 00 00 00 00 00 00 00 00 00 00 00 00 00 00 [................]
  | | | | |         1562: 00 00 00 00 00 00 00 00 00 00 00 00 00 00 00 00 [................]
  | | | | |         1572: 00 00 00 00 00 00 00 00 00 00 00 00 00 00 00 00 [................]
  | | | | |         1582: 00 00 00 00 00 00 00 00 00 00 00 00 00 00 00 00 [................]
  | | | | |         1592: 00 00 00 00 00 00 00 00 00 00 00 00 00 00 00 00 [................]
  | | | | |         15a2: 00 00 00 00 00 00 00 00 00 00 00 00 00 00 00 00 [................]
  | | | | |         15b2: 00 00 00 00 00 00 00 00 00 00 00 00 00 00 00 00 [................]
  | | | | |         15c2: 00 00 00 00 00 00 00 00 00 00 00 00 00 00 00 00 [................]
  | | | | |         15d2: 00 00 00 00 00 00 00 00 00 00 00 00 00 00 00 00 [................]
  | | | | |         15e2: 00 00 00 00 00 00 00 00 00 00 00 00 00 00 00 00 [................]
  | | | | |         15f2: 00 00 00 00 00 00 00 00 00 00 00 00 00 00 00 00 [................]
  | | | | |         1602: 00 00 00 00 00 00 00 00 00 00 00 00 00 00 00 00 [................]
  | | | | |         1612: 00 00 00 00 00 00 00 00 00 00 00 00 00 00 00 00 [................]
  | | | | |         1622: 00 00 00 00 00 00 00 00 00 00 00 00 00 00 00 00 [................]
  | | | | |         1632: 00 00 00 00 00 00 00 00 00 00 00 00 00 00 00 00 [................]
  | | | | |         1642: 00 00 00 00 00 00 00 00 00 00 00 00 00 00 00 00 [................]
  | | | | |         1652: 00 00 00 00 00 00 00 00 00 00 00 00 00 00 00 00 [................]
  | | | | |         1662: 00 00 00 00 00 00 00 00 00 00 00 00 00 00 00 00 [................]
  | | | | |         1672: 00 00 00 00 00 00 00 00 00 00 00 00 00 00 00 00 [................]
  | | | | |         1682: 00 00 00 00 00 00 00 00 00 00 00 00 00 00 00 00 [................]
  | | | | |         1692: 00 00 00 00 00 00 00 00 00 00 00 00 00 00 00 00 [................]
  | | | | |         16a2: 00 00 00 00 00 00 00 00 00 00 00 00 00 00 00 00 [................]
  | | | | |         16b2: 00 00 00 00 00 00 00 00 00 00 00 00 00 00 00 00 [................]
  | | | | |         16c2: 00 00 00 00 00 00 00 00 00 00 00 00 00 00 00 00 [................]
  | | | | |         16d2: 00 00 00 00 00 00 00 00 00 00 00 00 00 00 00 00 [................]
  | | | | |         16e2: 00 00 00 00 00 00 00 00 00 00 00 00 00 00 00 00 [................]
  | | | | |         16f2: 00 00 00 00 00 00 00 00 00 00 00 00 00 00 00 00 [................]
  | | | | |         1702: 00 00 00 00 00 00 00 00 00 00 00 00 00 00 00 00 [................]
  | | | | |         1712: 00 00 00 00 00 00 00 00 00 00 00 00 00 00 00 00 [................]
  | | | | |         1722: 00 00 00 00 00 00 00 00 00 00 00 00 00 00 00 00 [................]
  | | | | |         1732: 00 00 00 00 00 00 00 00 00 00 00 00 00 00 00 00 [................]
  | | | | |         1742: 00 00 00 00 00 00 00 00 00 00 00 00 00 00 00 00 [................]
  | | | | |         1752: 00 00 00 00 00 00 00 00 00 00 00 00 00 00 00 00 [................]
  | | | | |         1762: 00 00 00 00 00 00 00 00 00 00 00 00 00 00 00 00 [................]
  | | | | |         1772: 00 00 00 00 00 00 00 00 00 00 00 00 00 00 00 00 [................]
  | | | | |         1782: 00 00 00 00 00 00 00 00 00 00 00 00 00 00 00 00 [................]
  | | | | |         1792: 00 00 00 00 00 00 00 00 00 00 00 00 00 00 00 00 [................]
  | | | | |         17a2: 00 00 00 00 00 00 00 00 00 00 00 00 00 00 00 00 [................]
  | | | | |         17b2: 00 00 00 00 00 00 00 00 00 00 00 00 00 00 00 00 [................]
  | | | | |         17c2: 00 00 00 00 00 00 00 00 00 00 00 00 00 00 00 00 [................]
  | | | | |         17d2: 00 00 00 00 00 00 00 00 00 00 00 00 00 00 00 00 [................]
  | | | | |         17e2: 00 00 00 00 00 00 00 00 00 00 00 00 00 00 00 00 [................]
  | | | | |         17f2: 00 00 00 00 00 00 00 00 00 00 00 00 00 00 00 00 [................]
  | | | | | 17) CropInfo (SubDirectory) -->
  | | | | |     - Tag 0x0098 (8 bytes, int16u[4] read as undef[8]):
  | | | | |         1802: 00 00 00 00 00 00 00 00                         [........]
  | | | | | + [BinaryData directory, 8 bytes, Little-endian]
  | | | | | | CropLeftMargin = 0
  | | | | | | - Tag 0x0000 (2 bytes, int16u[1]):
  | | | | | |     1802: 00 00                                           [..]
  | | | | | | CropRightMargin = 0
  | | | | | | - Tag 0x0001 (2 bytes, int16u[1]):
  | | | | | |     1804: 00 00                                           [..]
  | | | | | | CropTopMargin = 0
  | | | | | | - Tag 0x0002 (2 bytes, int16u[1]):
  | | | | | |     1806: 00 00                                           [..]
  | | | | | | CropBottomMargin = 0
  | | | | | | - Tag 0x0003 (2 bytes, int16u[1]):
  | | | | | |     1808: 00 00                                           [..]
  | | | | | 18) CustomFunctions2 (SubDirectory) -->
  | | | | |     - Tag 0x0099 (464 bytes, int32u[116] read as undef[464]):
  | | | | |         180a: d0 01 00 00 03 00 00 00 01 00 00 00 54 00 00 00 [............T...]
  | | | | |         181a: 06 00 00 00 01 01 00 00 01 00 00 00 00 00 00 00 [................]
  | | | | |         182a: 02 01 00 00 01 00 00 00 00 00 00 00 04 01 00 00 [................]
  | | | | |         183a: 01 00 00 00 00 00 00 00 05 01 00 00 01 00 00 00 [................]
  | | | | |         184a: 00 00 00 00 06 01 00 00 02 00 00 00 03 00 00 00 [................]
  | | | | |         185a: 00 00 00 00 08 01 00 00 01 00 00 00 00 00 00 00 [................]
  | | | | |         186a: 03 00 00 00 e4 00 00 00 0d 00 00 00 02 05 00 00 [................]
  | | | | |         187a: 01 00 00 00 00 00 00 00 18 05 00 00 01 00 00 00 [................]
  | | | | |         188a: 00 00 00 00 19 05 00 00 01 00 00 00 00 00 00 00 [................]
  | | | | |         189a: 1a 05 00 00 01 00 00 00 00 00 00 00 0e 05 00 00 [................]
  | | | | |         18aa: 01 00 00 00 00 00 00 00 05 05 00 00 01 00 00 00 [................]
  | | | | |         18ba: 00 00 00 00 12 05 00 00 02 00 00 00 00 00 00 00 [................]
  | | | | |         18ca: 07 00 00 00 1b 05 00 00 01 00 00 00 00 00 00 00 [................]
  | | | | |         18da: 16 05 00 00 01 00 00 00 00 00 00 00 13 05 00 00 [................]
  | | | | |         18ea: 01 00 00 00 00 00 00 00 0c 05 00 00 01 00 00 00 [................]
  | | | | |         18fa: 00 00 00 00 10 05 00 00 01 00 00 00 00 00 00 00 [................]
  | | | | |         190a: 07 05 00 00 10 00 00 00 00 00 00 00 00 00 00 00 [................]
  | | | | |         191a: 00 00 00 00 00 00 00 00 00 00 00 00 00 00 00 00 [................]
  | | | | |         192a: 00 00 00 00 00 00 00 00 00 00 00 00 00 00 00 00 [................]
  | | | | |         193a: 00 00 00 00 00 00 00 00 00 00 00 00 00 00 00 00 [................]
  | | | | |         194a: 00 00 00 00 00 00 00 00 04 00 00 00 84 00 00 00 [................]
  | | | | |         195a: 04 00 00 00 06 07 00 00 01 00 00 00 00 00 00 00 [................]
  | | | | |         196a: 0f 07 00 00 02 00 00 00 00 00 00 00 02 00 00 00 [................]
  | | | | |         197a: 0a 04 00 00 01 00 00 00 03 00 00 00 0c 07 00 00 [................]
  | | | | |         198a: 13 00 00 00 00 00 00 00 00 00 00 00 00 00 00 00 [................]
  | | | | |         199a: 00 00 00 00 00 00 00 00 00 00 00 00 00 00 00 00 [................]
  | | | | |         19aa: 00 00 00 00 00 00 00 00 00 00 00 00 00 00 00 00 [................]
  | | | | |         19ba: 00 00 00 00 00 00 00 00 00 00 00 00 00 00 00 00 [................]
  | | | | |         19ca: 00 00 00 00 00 00 00 00 00 00 00 00 00 00 00 00 [................]
  | | | | | + [CanonCustom2 directory with 3 entries, 464 bytes]
  | | | | | + [CanonCustom2 group 1 directory with 6 entries, 84 bytes]
  | | | | | | 0)  ExposureLevelIncrements = 0
  | | | | | |     - Tag 0x0101 (4 bytes, int32u[1])
  | | | | | | 1)  ISOSpeedIncrements = 0
  | | | | | |     - Tag 0x0102 (4 bytes, int32u[1])
  | | | | | | 2)  AEBAutoCancel = 0
  | | | | | |     - Tag 0x0104 (4 bytes, int32u[1])
  | | | | | | 3)  AEBSequence = 0
  | | | | | |     - Tag 0x0105 (4 bytes, int32u[1])
  | | | | | | 4)  AEBShotCount = 3 0
  | | | | | |     - Tag 0x0106 (8 bytes, int32u[2])
  | | | | | | 5)  SafetyShift = 0
  | | | | | |     - Tag 0x0108 (4 bytes, int32u[1])
  | | | | | + [CanonCustom2 group 3 directory with 13 entries, 228 bytes]
  | | | | | | 0)  AIServoTrackingSensitivity = 0
  | | | | | |     - Tag 0x0502 (4 bytes, int32u[1])
  | | | | | | 1)  AccelerationTracking = 0
  | | | | | |     - Tag 0x0518 (4 bytes, int32u[1])
  | | | | | | 2)  AIServoFirstImagePriority = 0
  | | | | | |     - Tag 0x0519 (4 bytes, int32u[1])
  | | | | | | 3)  AIServoSecondImagePriority = 0
  | | | | | |     - Tag 0x051a (4 bytes, int32u[1])
  | | | | | | 4)  AFAssistBeam = 0
  | | | | | |     - Tag 0x050e (4 bytes, int32u[1])
  | | | | | | 5)  LensDriveNoAF = 0
  | | | | | |     - Tag 0x0505 (4 bytes, int32u[1])
  | | | | | | 6)  SelectAFAreaSelectMode = 0 7
  | | | | | |     - Tag 0x0512 (8 bytes, int32u[2])
  | | | | | | 7)  AFAreaSelectMethod = 0
  | | | | | |     - Tag 0x051b (4 bytes, int32u[1])
  | | | | | | 8)  OrientationLinkedAFPoint = 0
  | | | | | |     - Tag 0x0516 (4 bytes, int32u[1])
  | | | | | | 9)  ManualAFPointSelectPattern = 0
  | | | | | |     - Tag 0x0513 (4 bytes, int32u[1])
  | | | | | | 10) AFPointDisplayDuringFocus = 0
  | | | | | |     - Tag 0x050c (4 bytes, int32u[1])
  | | | | | | 11) SuperimposedDisplay = 0
  | | | | | |     - Tag 0x0510 (4 bytes, int32u[1])
  | | | | | | 12) AFMicroadjustment = 0 0 0 0 0 0 0 0 0 0 0 0 0 0 0 0
  | | | | | |     - Tag 0x0507 (64 bytes, int32u[16])
  | | | | | + [CanonCustom2 group 4 directory with 4 entries, 132 bytes]
  | | | | | | 0)  DialDirectionTvAv = 0
  | | | | | |     - Tag 0x0706 (4 bytes, int32u[1])
  | | | | | | 1)  MultiFunctionLock = 0 2
  | | | | | |     - Tag 0x070f (8 bytes, int32u[2])
  | | | | | | 2)  ViewfinderWarnings = 3
  | | | | | |     - Tag 0x040a (4 bytes, int32u[1])
  | | | | | | 3)  CustomControls = 0 0 0 0 0 0 0 0 0 0 0 0 0 0 0 0 0 0 0
  | | | | | |     - Tag 0x070c (76 bytes, int32u[19])
  | | | | | 19) AspectInfo (SubDirectory) -->
  | | | | |     - Tag 0x009a (20 bytes, int32u[5] read as undef[20]):
  | | | | |         19da: 00 00 00 00 60 15 00 00 40 0e 00 00 00 00 00 00 [....`...@.......]
  | | | | |         19ea: 00 00 00 00                                     [....]
  | | | | | + [BinaryData directory, 20 bytes, Little-endian]
  | | | | | | AspectRatio = 0
  | | | | | | - Tag 0x0000 (4 bytes, int32u[1]):
  | | | | | |     19da: 00 00 00 00                                     [....]
  | | | | | | CroppedImageWidth = 5472
  | | | | | | - Tag 0x0001 (4 bytes, int32u[1]):
  | | | | | |     19de: 60 15 00 00                                     [`...]
  | | | | | | CroppedImageHeight = 3648
  | | | | | | - Tag 0x0002 (4 bytes, int32u[1]):
  | | | | | |     19e2: 40 0e 00 00                                     [@...]
  | | | | | | CroppedImageLeft = 0
  | | | | | | - Tag 0x0003 (4 bytes, int32u[1]):
  | | | | | |     19e6: 00 00 00 00                                     [....]
  | | | | | | CroppedImageTop = 0
  | | | | | | - Tag 0x0004 (4 bytes, int32u[1]):
  | | | | | |     19ea: 00 00 00 00                                     [....]
  | | | | | 20) ProcessingInfo (SubDirectory) -->
  | | | | |     - Tag 0x00a0 (28 bytes, int16u[14] read as undef[28]):
  | | | | |         19ee: 1c 00 00 00 03 00 00 00 00 00 00 00 00 00 00 00 [................]
  | | | | |         19fe: ff ff 50 14 87 00 00 00 00 00 00 00             [..P.........]
  | | | | | + [BinaryData directory, 28 bytes, Little-endian]
  | | | | | | ToneCurve = 0
  | | | | | | - Tag 0x0001 (2 bytes, int16s[1]):
  | | | | | |     19f0: 00 00                                           [..]
  | | | | | | Sharpness = 3
  | | | | | | - Tag 0x0002 (2 bytes, int16s[1]):
  | | | | | |     19f2: 03 00                                           [..]
  | | | | | | SharpnessFrequency = 0
  | | | | | | - Tag 0x0003 (2 bytes, int16s[1]):
  | | | | | |     19f4: 00 00                                           [..]
  | | | | | | SensorRedLevel = 0
  | | | | | | - Tag 0x0004 (2 bytes, int16s[1]):
  | | | | | |     19f6: 00 00                                           [..]
  | | | | | | SensorBlueLevel = 0
  | | | | | | - Tag 0x0005 (2 bytes, int16s[1]):
  | | | | | |     19f8: 00 00                                           [..]
  | | | | | | WhiteBalanceRed = 0
  | | | | | | - Tag 0x0006 (2 bytes, int16s[1]):
  | | | | | |     19fa: 00 00                                           [..]
  | | | | | | WhiteBalanceBlue = 0
  | | | | | | - Tag 0x0007 (2 bytes, int16s[1]):
  | | | | | |     19fc: 00 00                                           [..]
  | | | | | | WhiteBalance = -1
  | | | | | | - Tag 0x0008 (2 bytes, int16s[1]):
  | | | | | |     19fe: ff ff                                           [..]
  | | | | | | ColorTemperature = 5200
  | | | | | | - Tag 0x0009 (2 bytes, int16s[1]):
  | | | | | |     1a00: 50 14                                           [P.]
  | | | | | | PictureStyle = 135
  | | | | | | - Tag 0x000a (2 bytes, int16s[1]):
  | | | | | |     1a02: 87 00                                           [..]
  | | | | | | DigitalGain = 0
  | | | | | | - Tag 0x000b (2 bytes, int16s[1]):
  | | | | | |     1a04: 00 00                                           [..]
  | | | | | | WBShiftAB = 0
  | | | | | | - Tag 0x000c (2 bytes, int16s[1]):
  | | | | | |     1a06: 00 00                                           [..]
  | | | | | | WBShiftGM = 0
  | | | | | | - Tag 0x000d (2 bytes, int16s[1]):
  | | | | | |     1a08: 00 00                                           [..]
  | | | | | 21) MeasuredColor (SubDirectory) -->
  | | | | |     - Tag 0x00aa (12 bytes, int16u[6] read as undef[12]):
  | | | | |         1a0a: 0c 00 53 02 00 04 00 04 03 02 00 00             [..S.........]
  | | | | | + [BinaryData directory, 12 bytes, Little-endian]
  | | | | | | MeasuredRGGB = 595 1024 1024 515
  | | | | | | - Tag 0x0001 (8 bytes, int16u[4]):
  | | | | | |     1a0c: 53 02 00 04 00 04 03 02                         [S.......]
  | | | | | 22) ColorSpace = 1
  | | | | |     - Tag 0x00b4 (2 bytes, int16u[1]):
  | | | | |         0a5e: 01 00                                           [..]
  | | | | | 23) VRDOffset = 0
  | | | | |     - Tag 0x00d0 (4 bytes, int32u[1]):
  | | | | |         0a6a: 00 00 00 00                                     [....]
  | | | | | 24) SensorInfo (SubDirectory) -->
  | | | | |     - Tag 0x00e0 (34 bytes, int16u[17] read as undef[34]):
  | | | | |         1a16: 22 00 c0 15 7c 0e 01 00 01 00 54 00 32 00 b3 15 ["...|.....T.2...]
  | | | | |         1a26: 71 0e 00 00 00 00 00 00 00 00 00 00 00 00 00 00 [q...............]
  | | | | |         1a36: 00 00                                           [..]
  | | | | | + [BinaryData directory, 34 bytes, Little-endian]
  | | | | | | SensorWidth = 5568
  | | | | | | - Tag 0x0001 (2 bytes, int16s[1]):
  | | | | | |     1a18: c0 15                                           [..]
  | | | | | | SensorHeight = 3708
  | | | | | | - Tag 0x0002 (2 bytes, int16s[1]):
  | | | | | |     1a1a: 7c 0e                                           [|.]
  | | | | | | SensorLeftBorder = 84
  | | | | | | - Tag 0x0005 (2 bytes, int16s[1]):
  | | | | | |     1a20: 54 00                                           [T.]
  | | | | | | SensorTopBorder = 50
  | | | | | | - Tag 0x0006 (2 bytes, int16s[1]):
  | | | | | |     1a22: 32 00                                           [2.]
  | | | | | | SensorRightBorder = 5555
  | | | | | | - Tag 0x0007 (2 bytes, int16s[1]):
  | | | | | |     1a24: b3 15                                           [..]
  | | | | | | SensorBottomBorder = 3697
  | | | | | | - Tag 0x0008 (2 bytes, int16s[1]):
  | | | | | |     1a26: 71 0e                                           [q.]
  | | | | | | BlackMaskLeftBorder = 0
  | | | | | | - Tag 0x0009 (2 bytes, int16s[1]):
  | | | | | |     1a28: 00 00                                           [..]
  | | | | | | BlackMaskTopBorder = 0
  | | | | | | - Tag 0x000a (2 bytes, int16s[1]):
  | | | | | |     1a2a: 00 00                                           [..]
  | | | | | | BlackMaskRightBorder = 0
  | | | | | | - Tag 0x000b (2 bytes, int16s[1]):
  | | | | | |     1a2c: 00 00                                           [..]
  | | | | | | BlackMaskBottomBorder = 0
  | | | | | | - Tag 0x000c (2 bytes, int16s[1]):
  | | | | | |     1a2e: 00 00                                           [..]
  | | | | | 25) ColorData7 (SubDirectory) -->
  | | | | |     - Tag 0x4001 (2626 bytes, int16u[1313] read as undef[2626]):
  | | | | |         1a38: 0a 00 1d 03 00 04 00 04 89 01 2e 02 00 04 00 04 [................]
  | | | | |         1a48: 04 02 8f 01 00 04 00 04 aa 02 5d 07 78 09 75 09 [..........].x.u.]
  | | | | |         1a58: 9f 03 04 07 e9 0c ec 0c 7d 06 63 03 ab 08 b2 08 [........}.c.....]
  | | | | |         1a68: c5 05 ff ff 00 00 fd 00 fd 00 fd 00 00 00 6f 06 [..............o.]
  | | | | |         1a78: 51 0d 46 0d a2 07 d9 02 e0 00 e6 00 26 00 77 00 [Q.F.........&.w.]
  | | | | |         1a88: f3 02 f3 02 50 04 37 06 6d 0a 64 0a 32 02 c1 06 [....P.7.m.d.2...]
  | | | | |         1a98: df 0d e4 0d cc 07 00 03 e8 00 e5 00 27 00 82 00 [............'...]
  | | | | |         1aa8: fe 02 07 03 4d 04 77 06 b4 0a b6 0a 30 02 c2 07 [....M.w.....0...]
  | | | | |         1ab8: 00 04 00 04 6c 07 9d 11 c2 07 00 04 00 04 6c 07 [....l.........l.]
  | | | | |         1ac8: 9d 11 c2 07 00 04 00 04 6c 07 9d 11 c2 07 00 04 [........l.......]
  | | | | |         1ad8: 00 04 6c 07 9d 11 00 04 00 04 00 04 00 04 0b 11 [..l.............]
  | | | | |         1ae8: 00 04 00 04 00 04 00 04 0b 11 c2 07 00 04 00 04 [................]
  | | | | |         1af8: 6c 07 9d 11 c2 07 00 04 00 04 6c 07 9d 11 c2 07 [l.........l.....]
  | | | | |         1b08: 00 04 00 04 6c 07 9d 11 c6 07 00 04 00 04 6c 07 [....l.........l.]
  | | | | |         1b18: 9d 11 0d 07 00 04 00 04 b3 07 fc 0f 0b 07 04 04 [................]
  | | | | |         1b28: fb 03 b1 07 fc 0f 00 00 00 00 00 00 00 00 00 00 [................]
  | | | | |         1b38: 2d 08 00 04 00 04 88 06 50 14 76 09 00 04 00 04 [-.......P.v.....]
  | | | | |         1b48: a2 05 58 1b ca 08 00 04 00 04 0d 06 70 17 c1 05 [..X.........p...]
  | | | | |         1b58: 00 04 00 04 76 09 80 0c 20 07 00 04 00 04 f6 08 [....v... .......]
  | | | | |         1b68: 95 0e 2d 08 00 04 00 04 88 06 44 14 06 09 00 04 [..-.......D.....]
  | | | | |         1b78: 00 04 0b 06 1c 18 2d 08 00 04 00 04 88 06 44 14 [......-.......D.]
  | | | | |         1b88: 2d 08 00 04 00 04 88 06 44 14 2d 08 00 04 00 04 [-.......D.-.....]
  | | | | |         1b98: 88 06 44 14 2d 08 00 04 00 04 88 06 44 14 2d 08 [..D.-.......D.-.]
  | | | | |         1ba8: 00 04 00 04 88 06 44 14 e1 03 00 04 00 04 01 04 [......D.........]
  | | | | |         1bb8: 71 10 e1 03 00 04 00 04 01 04 71 10 e1 03 00 04 [q.........q.....]
  | | | | |         1bc8: 00 04 01 04 71 10 e1 03 00 04 00 04 01 04 71 10 [....q.........q.]
  | | | | |         1bd8: e1 03 00 04 00 04 01 04 71 10 e1 fe 7d 01 48 03 [........q...}.H.]
  | | | | |         1be8: 94 2a f4 fe 86 01 30 03 10 27 1c ff 9a 01 03 03 [.*....0..'......]
  | | | | |         1bf8: 6c 20 45 ff b1 01 d7 02 58 1b 79 ff d2 01 a5 02 [l E.....X.y.....]
  | | | | |         1c08: 70 17 92 ff e2 01 8d 02 e0 15 ae ff f5 01 73 02 [p.............s.]
  | | | | |         1c18: 50 14 db ff 10 02 4a 02 5c 12 12 00 39 02 1e 02 [P.....J.\...9...]
  | | | | |         1c28: 68 10 46 00 63 02 f8 01 d8 0e 78 00 8f 02 d7 01 [h.F.c.....x.....]
  | | | | |         1c38: ac 0d b3 00 c8 02 b1 01 80 0c e2 00 f4 02 92 01 [................]
  | | | | |         1c48: b8 0b 0f 01 29 03 7d 01 f0 0a 80 01 b8 03 48 01 [....).}.......H.]
  | | | | |         1c58: 60 09 f4 01 10 08 1d 08 01 08 01 08 01 08 01 08 [`...............]
  | | | | |         1c68: 00 00 00 00 00 00 00 00 00 00 00 00 00 00 00 00 [................]
  | | | | |         1c78: 00 00 00 00 00 00 00 00 00 00 00 00 00 00 00 00 [................]
  | | | | |         1c88: 00 00 00 00 00 00 00 00 00 00 00 00 00 00 00 00 [................]
  | | | | |         1c98: 00 00 00 00 00 00 00 00 00 00 00 00 00 00 00 00 [................]
  | | | | |         1ca8: 00 00 00 00 00 00 00 00 00 00 00 00 00 00 00 00 [................]
  | | | | |         1cb8: 00 00 00 00 00 00 00 00 00 00 00 00 00 00 00 00 [................]
  | | | | |         1cc8: 00 00 00 00 00 00 00 00 00 00 00 00 00 00 00 00 [................]
  | | | | |         1cd8: 00 00 00 00 00 00 00 00 00 00 00 00 00 00 00 00 [................]
  | | | | |         1ce8: 00 00 00 00 00 00 01 00 00 00 01 00 03 00 01 00 [................]
  | | | | |         1cf8: 06 00 09 00 07 00 02 00 05 00 04 00 18 00 00 00 [................]
  | | | | |         1d08: 00 00 00 00 04 00 45 00 2c 00 43 00 e1 00 66 01 [......E.,.C...f.]
  | | | | |         1d18: a1 18 de 19 9b 13 7c 06 34 03 9d 02 49 07 0d 00 [......|.4...I...]
  | | | | |         1d28: 00 00 00 00 02 00 2b 00 25 00 52 00 30 01 b9 01 [......+.%.R.0...]
  | | | | |         1d38: bd 0f 7e 05 f4 13 c4 03 66 01 17 01 9c 02 02 00 [..~.....f.......]
  | | | | |         1d48: 15 00 10 00 37 00 21 03 1b 02 25 04 86 0b e3 0d [....7.!...%.....]
  | | | | |         1d58: f4 4f f2 2b 98 49 bd 10 5e 05 e0 03 6a 0d 4e 00 [.O.+.I..^...j.N.]
  | | | | |         1d68: 00 00 00 00 00 00 00 80 00 00 00 04 00 04 00 04 [................]
  | | | | |         1d78: 2e 0b 22 10 44 1b 76 10 a2 00 00 00 00 10 8e 0f [..".D.v.........]
  | | | | |         1d88: 62 ff 00 00 00 10 00 00 00 01 01 00 3c 68 02 00 [b...........<h..]
  | | | | |         1d98: 7e 6b 02 00 7b 6d 01 00 68 37 00 04 00 04 00 04 [~k..{m..h7......]
  | | | | |         1da8: 00 00 00 00 00 00 fd ff 00 00 ff 1f 00 01 00 00 [................]
  | | | | |         1db8: 00 00 00 04 c8 02 b2 01 f4 01 74 02 9b 01 f9 02 [..........t.....]
  | | | | |         1dc8: 00 00 00 00 00 00 00 00 00 00 1f 00 3f 00 5f 00 [............?._.]
  | | | | |         1dd8: 7f 00 9f 00 bf 00 df 00 ff 00 00 00 1f 00 41 00 [..............A.]
  | | | | |         1de8: 62 00 82 00 a1 00 c0 00 df 00 ff 00 01 00 00 00 [b...............]
  | | | | |         1df8: 66 00 00 00 10 00 20 00 40 00 60 00 80 00 c0 00 [f..... .@.`.....]
  | | | | |         1e08: 00 00 00 00 00 00 00 00 00 00 00 00 00 00 e8 03 [................]
  | | | | |         1e18: e8 03 e8 03 e8 03 e8 03 e8 03 e8 03 88 04 00 00 [................]
  | | | | |         1e28: 01 08 01 08 01 08 01 08 f4 38 f4 3a 10 27 00 00 [.........8.:.'..]
  | | | | |         1e38: dd 00 83 00 71 00 02 00 00 00 c6 07 40 08 70 10 [....q.......@.p.]
  | | | | |         1e48: f8 10 c6 07 40 08 38 0d c0 0d c6 07 40 08 d0 0e [....@.8.....@...]
  | | | | |         1e58: 58 0f 7c 00 b6 00 ce 00 00 00 00 00 00 00 00 00 [X.|.............]
  | | | | |         1e68: 00 00 00 00 00 00 00 00 00 00 00 00 00 00 00 00 [................]
  | | | | |         1e78: 00 00 00 00 00 00 00 00 00 00 00 00 00 00 00 00 [................]
  | | | | |         1e88: 00 00 00 00 00 00 00 00 00 00 00 00 00 00 00 00 [................]
  | | | | |         1e98: 00 00 00 00 00 00 00 00 00 00 00 00 00 00 00 00 [................]
  | | | | |         1ea8: 00 00 00 00 00 00 00 00 00 00 00 00 00 00 00 00 [................]
  | | | | |         1eb8: 00 00 00 00 00 00 00 00 00 00 00 00 00 00 00 00 [................]
  | | | | |         1ec8: 00 00 00 00 00 00 00 00 00 00 00 00 00 00 00 00 [................]
  | | | | |         1ed8: 00 00 00 00 00 00 00 00 00 00 00 00 00 00 00 00 [................]
  | | | | |         1ee8: 00 00 00 00 00 00 00 00 00 00 00 00 00 00 00 00 [................]
  | | | | |         1ef8: 00 00 00 00 00 00 00 00 00 00 00 00 00 00 00 00 [................]
  | | | | |         1f08: 00 00 00 00 00 00 00 00 00 00 00 00 00 00 00 00 [................]
  | | | | |         1f18: 00 00 00 00 00 00 00 00 00 00 00 00 00 00 00 00 [................]
  | | | | |         1f28: 00 00 00 00 00 00 00 00 00 00 00 00 00 00 00 00 [................]
  | | | | |         1f38: 00 00 00 00 00 00 00 00 00 00 00 00 00 00 00 00 [................]
  | | | | |         1f48: 00 00 00 00 00 00 00 00 00 00 00 00 00 00 00 00 [................]
  | | | | |         1f58: 00 00 00 00 00 00 00 00 00 00 00 00 00 00 00 00 [................]
  | | | | |         1f68: 00 00 00 00 00 00 00 00 00 00 00 00 00 00 00 00 [................]
  | | | | |         1f78: 00 00 00 00 00 00 00 00 00 00 00 00 00 00 00 00 [................]
  | | | | |         1f88: 00 00 00 00 00 00 00 00 00 00 00 00 00 00 00 00 [................]
  | | | | |         1f98: 00 00 00 00 00 00 00 00 00 00 00 00 00 00 00 00 [................]
  | | | | |         1fa8: 00 00 00 00 00 00 00 00 00 00 00 00 00 00 00 00 [................]
  | | | | |         1fb8: 00 00 00 00 00 00 00 00 00 00 00 00 00 00 00 00 [................]
  | | | | |         1fc8: 00 00 00 00 00 00 00 00 00 00 00 00 00 00 00 00 [................]
  | | | | |         1fd8: 00 00 00 00 00 00 00 00 00 00 00 00 00 00 00 00 [................]
  | | | | |         1fe8: 00 00 00 00 00 00 00 00 00 00 00 00 00 00 00 00 [................]
  | | | | |         1ff8: 00 00 00 00 00 00 00 00 00 00 00 00 00 00 00 00 [................]
  | | | | |         2008: 00 00 00 00 00 00 00 00 00 00 00 00 00 00 00 00 [................]
  | | | | |         2018: 00 00 00 00 00 00 00 00 00 00 00 00 00 00 00 00 [................]
  | | | | |         2028: 00 00 00 00 00 00 00 00 00 00 00 00 00 00 00 00 [................]
  | | | | |         2038: 00 00 00 00 00 00 00 00 00 00 00 00 00 00 00 00 [................]
  | | | | |         2048: 00 00 00 00 00 00 00 00 00 00 00 00 00 00 00 00 [................]
  | | | | |         2058: 00 00 00 00 00 00 00 00 00 00 00 00 00 00 00 00 [................]
  | | | | |         2068: 00 00 00 00 00 00 00 00 00 00 00 00 00 00 00 00 [................]
  | | | | |         2078: 00 00 00 00 00 00 00 00 00 00 00 00 00 00 00 00 [................]
  | | | | |         2088: 00 00 00 00 00 00 00 00 00 00 00 00 00 00 00 00 [................]
  | | | | |         2098: 00 00 00 00 00 00 00 00 00 00 00 00 00 00 00 00 [................]
  | | | | |         20a8: 00 00 00 00 00 00 00 00 00 00 00 00 00 00 00 00 [................]
  | | | | |         20b8: 00 00 00 00 00 00 00 00 00 00 00 00 00 00 00 00 [................]
  | | | | |         20c8: 00 00 00 00 00 00 00 00 00 00 00 00 00 00 00 00 [................]
  | | | | |         20d8: 00 00 00 00 00 00 00 00 00 00 00 00 00 00 00 00 [................]
  | | | | |         20e8: 00 00 00 00 00 00 00 00 00 00 00 00 00 00 00 00 [................]
  | | | | |         20f8: 00 00 00 00 00 00 00 00 00 00 00 00 00 00 00 00 [................]
  | | | | |         2108: 00 00 00 00 00 00 00 00 00 00 00 00 00 00 00 00 [................]
  | | | | |         2118: 00 00 00 00 00 00 00 00 00 00 00 00 00 00 00 00 [................]
  | | | | |         2128: 00 00 00 00 00 00 00 00 00 00 00 00 00 00 00 00 [................]
  | | | | |         2138: 00 00 00 00 00 00 00 00 00 00 00 00 00 00 00 00 [................]
  | | | | |         2148: 00 00 00 00 00 00 00 00 00 00 00 00 00 00 00 00 [................]
  | | | | |         2158: aa aa 00 00 20 00 40 00 80 00 e0 00 00 01 00 01 [.... .@.........]
  | | | | |         2168: 00 01 00 01 00 00 20 00 40 00 80 00 e0 00 00 01 [...... .@.......]
  | | | | |         2178: 00 01 00 01 00 01 51 00 6f 00 76 00 1a 00 18 00 [......Q.o.v.....]
  | | | | |         2188: d7 00 d7 00 04 00 47 00 a8 00 b5 00 ff 00 00 00 [......G.........]
  | | | | |         2198: 00 00 00 00 00 00 00 00 00 00 00 00 00 00 00 00 [................]
  | | | | |         21a8: 00 00 00 00 00 00 00 00 00 00 00 00 00 00 00 00 [................]
  | | | | |         21b8: 00 00 00 00 00 00 00 00 00 00 00 00 00 00 00 00 [................]
  | | | | |         21c8: 00 00 00 00 8f 00 a9 00 f3 00 00 00 00 00 00 00 [................]
  | | | | |         21d8: 00 00 00 00 00 00 00 00 00 00 00 00 00 00 00 00 [................]
  | | | | |         21e8: 00 00 00 00 00 00 00 00 00 00 00 00 00 00 00 00 [................]
  | | | | |         21f8: 00 00 00 00 00 00 00 00 00 00 00 00 00 00 00 00 [................]
  | | | | |         2208: 00 00 00 00 00 00 00 00 00 00 64 00 00 00 00 00 [..........d.....]
  | | | | |         2218: 00 00 a6 13 ca 05 00 04 3e 03 a7 02 00 04 d6 01 [........>.......]
  | | | | |         [snip 594 bytes]
  | | | | | + [BinaryData directory, 2626 bytes, Little-endian]
  | | | | | | ColorDataVersion = 10
  | | | | | | - Tag 0x0000 (2 bytes, int16s[1]):
  | | | | | |     1a38: 0a 00                                           [..]
  | | | | | | WB_RGGBLevelsAsShot = 1986 1024 1024 1900
  | | | | | | - Tag 0x003f (8 bytes, int16s[4]):
  | | | | | |     1ab6: c2 07 00 04 00 04 6c 07                         [......l.]
  | | | | | | ColorTempAsShot = 4509
  | | | | | | - Tag 0x0043 (2 bytes, int16s[1]):
  | | | | | |     1abe: 9d 11                                           [..]
  | | | | | | WB_RGGBLevelsAuto = 1986 1024 1024 1900
  | | | | | | - Tag 0x0044 (8 bytes, int16s[4]):
  | | | | | |     1ac0: c2 07 00 04 00 04 6c 07                         [......l.]
  | | | | | | ColorTempAuto = 4509
  | | | | | | - Tag 0x0048 (2 bytes, int16s[1]):
  | | | | | |     1ac8: 9d 11                                           [..]
  | | | | | | WB_RGGBLevelsMeasured = 1986 1024 1024 1900
  | | | | | | - Tag 0x0049 (8 bytes, int16s[4]):
  | | | | | |     1aca: c2 07 00 04 00 04 6c 07                         [......l.]
  | | | | | | ColorTempMeasured = 4509
  | | | | | | - Tag 0x004d (2 bytes, int16s[1]):
  | | | | | |     1ad2: 9d 11                                           [..]
  | | | | | | WB_RGGBLevelsUnknown = 1986 1024 1024 1900
  | | | | | | - Tag 0x004e (8 bytes, int16s[4]):
  | | | | | |     1ad4: c2 07 00 04 00 04 6c 07                         [......l.]
  | | | | | | ColorTempUnknown = 4509
  | | | | | | - Tag 0x0052 (2 bytes, int16s[1]):
  | | | | | |     1adc: 9d 11                                           [..]
  | | | | | | WB_RGGBLevelsUnknown2 = 1024 1024 1024 1024
  | | | | | | - Tag 0x0053 (8 bytes, int16s[4]):
  | | | | | |     1ade: 00 04 00 04 00 04 00 04                         [........]
  | | | | | | ColorTempUnknown2 = 4363
  | | | | | | - Tag 0x0057 (2 bytes, int16s[1]):
  | | | | | |     1ae6: 0b 11                                           [..]
  | | | | | | WB_RGGBLevelsUnknown3 = 1024 1024 1024 1024
  | | | | | | - Tag 0x0058 (8 bytes, int16s[4]):
  | | | | | |     1ae8: 00 04 00 04 00 04 00 04                         [........]
  | | | | | | ColorTempUnknown3 = 4363
  | | | | | | - Tag 0x005c (2 bytes, int16s[1]):
  | | | | | |     1af0: 0b 11                                           [..]
  | | | | | | WB_RGGBLevelsUnknown4 = 1986 1024 1024 1900
  | | | | | | - Tag 0x005d (8 bytes, int16s[4]):
  | | | | | |     1af2: c2 07 00 04 00 04 6c 07                         [......l.]
  | | | | | | ColorTempUnknown4 = 4509
  | | | | | | - Tag 0x0061 (2 bytes, int16s[1]):
  | | | | | |     1afa: 9d 11                                           [..]
  | | | | | | WB_RGGBLevelsUnknown5 = 1986 1024 1024 1900
  | | | | | | - Tag 0x0062 (8 bytes, int16s[4]):
  | | | | | |     1afc: c2 07 00 04 00 04 6c 07                         [......l.]
  | | | | | | ColorTempUnknown5 = 4509
  | | | | | | - Tag 0x0066 (2 bytes, int16s[1]):
  | | | | | |     1b04: 9d 11                                           [..]
  | | | | | | WB_RGGBLevelsUnknown6 = 1986 1024 1024 1900
  | | | | | | - Tag 0x0067 (8 bytes, int16s[4]):
  | | | | | |     1b06: c2 07 00 04 00 04 6c 07                         [......l.]
  | | | | | | ColorTempUnknown6 = 4509
  | | | | | | - Tag 0x006b (2 bytes, int16s[1]):
  | | | | | |     1b0e: 9d 11                                           [..]
  | | | | | | WB_RGGBLevelsUnknown7 = 1990 1024 1024 1900
  | | | | | | - Tag 0x006c (8 bytes, int16s[4]):
  | | | | | |     1b10: c6 07 00 04 00 04 6c 07                         [......l.]
  | | | | | | ColorTempUnknown7 = 4509
  | | | | | | - Tag 0x0070 (2 bytes, int16s[1]):
  | | | | | |     1b18: 9d 11                                           [..]
  | | | | | | WB_RGGBLevelsUnknown8 = 1805 1024 1024 1971
  | | | | | | - Tag 0x0071 (8 bytes, int16s[4]):
  | | | | | |     1b1a: 0d 07 00 04 00 04 b3 07                         [........]
  | | | | | | ColorTempUnknown8 = 4092
  | | | | | | - Tag 0x0075 (2 bytes, int16s[1]):
  | | | | | |     1b22: fc 0f                                           [..]
  | | | | | | WB_RGGBLevelsUnknown9 = 1803 1028 1019 1969
  | | | | | | - Tag 0x0076 (8 bytes, int16s[4]):
  | | | | | |     1b24: 0b 07 04 04 fb 03 b1 07                         [........]
  | | | | | | ColorTempUnknown9 = 4092
  | | | | | | - Tag 0x007a (2 bytes, int16s[1]):
  | | | | | |     1b2c: fc 0f                                           [..]
  | | | | | | WB_RGGBLevelsUnknown10 = 0 0 0 0
  | | | | | | - Tag 0x007b (8 bytes, int16s[4]):
  | | | | | |     1b2e: 00 00 00 00 00 00 00 00                         [........]
  | | | | | | ColorTempUnknown10 = 0
  | | | | | | - Tag 0x007f (2 bytes, int16s[1]):
  | | | | | |     1b36: 00 00                                           [..]
  | | | | | | WB_RGGBLevelsDaylight = 2093 1024 1024 1672
  | | | | | | - Tag 0x0080 (8 bytes, int16s[4]):
  | | | | | |     1b38: 2d 08 00 04 00 04 88 06                         [-.......]
  | | | | | | ColorTempDaylight = 5200
  | | | | | | - Tag 0x0084 (2 bytes, int16s[1]):
  | | | | | |     1b40: 50 14                                           [P.]
  | | | | | | WB_RGGBLevelsShade = 2422 1024 1024 1442
  | | | | | | - Tag 0x0085 (8 bytes, int16s[4]):
  | | | | | |     1b42: 76 09 00 04 00 04 a2 05                         [v.......]
  | | | | | | ColorTempShade = 7000
  | | | | | | - Tag 0x0089 (2 bytes, int16s[1]):
  | | | | | |     1b4a: 58 1b                                           [X.]
  | | | | | | WB_RGGBLevelsCloudy = 2250 1024 1024 1549
  | | | | | | - Tag 0x008a (8 bytes, int16s[4]):
  | | | | | |     1b4c: ca 08 00 04 00 04 0d 06                         [........]
  | | | | | | ColorTempCloudy = 6000
  | | | | | | - Tag 0x008e (2 bytes, int16s[1]):
  | | | | | |     1b54: 70 17                                           [p.]
  | | | | | | WB_RGGBLevelsTungsten = 1473 1024 1024 2422
  | | | | | | - Tag 0x008f (8 bytes, int16s[4]):
  | | | | | |     1b56: c1 05 00 04 00 04 76 09                         [......v.]
  | | | | | | ColorTempTungsten = 3200
  | | | | | | - Tag 0x0093 (2 bytes, int16s[1]):
  | | | | | |     1b5e: 80 0c                                           [..]
  | | | | | | WB_RGGBLevelsFluorescent = 1824 1024 1024 2294
  | | | | | | - Tag 0x0094 (8 bytes, int16s[4]):
  | | | | | |     1b60: 20 07 00 04 00 04 f6 08                         [ .......]
  | | | | | | ColorTempFluorescent = 3733
  | | | | | | - Tag 0x0098 (2 bytes, int16s[1]):
  | | | | | |     1b68: 95 0e                                           [..]
  | | | | | | WB_RGGBLevelsKelvin = 2093 1024 1024 1672
  | | | | | | - Tag 0x0099 (8 bytes, int16s[4]):
  | | | | | |     1b6a: 2d 08 00 04 00 04 88 06                         [-.......]
  | | | | | | ColorTempKelvin = 5188
  | | | | | | - Tag 0x009d (2 bytes, int16s[1]):
  | | | | | |     1b72: 44 14                                           [D.]
  | | | | | | WB_RGGBLevelsFlash = 2310 1024 1024 1547
  | | | | | | - Tag 0x009e (8 bytes, int16s[4]):
  | | | | | |     1b74: 06 09 00 04 00 04 0b 06                         [........]
  | | | | | | ColorTempFlash = 6172
  | | | | | | - Tag 0x00a2 (2 bytes, int16s[1]):
  | | | | | |     1b7c: 1c 18                                           [..]
  | | | | | | WB_RGGBLevelsUnknown11 = 2093 1024 1024 1672
  | | | | | | - Tag 0x00a3 (8 bytes, int16s[4]):
  | | | | | |     1b7e: 2d 08 00 04 00 04 88 06                         [-.......]
  | | | | | | ColorTempUnknown11 = 5188
  | | | | | | - Tag 0x00a7 (2 bytes, int16s[1]):
  | | | | | |     1b86: 44 14                                           [D.]
  | | | | | | WB_RGGBLevelsUnknown12 = 2093 1024 1024 1672
  | | | | | | - Tag 0x00a8 (8 bytes, int16s[4]):
  | | | | | |     1b88: 2d 08 00 04 00 04 88 06                         [-.......]
  | | | | | | ColorTempUnknown12 = 5188
  | | | | | | - Tag 0x00ac (2 bytes, int16s[1]):
  | | | | | |     1b90: 44 14                                           [D.]
  | | | | | | WB_RGGBLevelsUnknown13 = 2093 1024 1024 1672
  | | | | | | - Tag 0x00ad (8 bytes, int16s[4]):
  | | | | | |     1b92: 2d 08 00 04 00 04 88 06                         [-.......]
  | | | | | | ColorTempUnknown13 = 5188
  | | | | | | - Tag 0x00b1 (2 bytes, int16s[1]):
  | | | | | |     1b9a: 44 14                                           [D.]
  | | | | | | WB_RGGBLevelsUnknown14 = 2093 1024 1024 1672
  | | | | | | - Tag 0x00b2 (8 bytes, int16s[4]):
  | | | | | |     1b9c: 2d 08 00 04 00 04 88 06                         [-.......]
  | | | | | | ColorTempUnknown14 = 5188
  | | | | | | - Tag 0x00b6 (2 bytes, int16s[1]):
  | | | | | |     1ba4: 44 14                                           [D.]
  | | | | | | WB_RGGBLevelsUnknown15 = 2093 1024 1024 1672
  | | | | | | - Tag 0x00b7 (8 bytes, int16s[4]):
  | | | | | |     1ba6: 2d 08 00 04 00 04 88 06                         [-.......]
  | | | | | | ColorTempUnknown15 = 5188
  | | | | | | - Tag 0x00bb (2 bytes, int16s[1]):
  | | | | | |     1bae: 44 14                                           [D.]
  | | | | | | WB_RGGBLevelsUnknown16 = 993 1024 1024 1025
  | | | | | | - Tag 0x00bc (8 bytes, int16s[4]):
  | | | | | |     1bb0: e1 03 00 04 00 04 01 04                         [........]
  | | | | | | ColorTempUnknown16 = 4209
  | | | | | | - Tag 0x00c0 (2 bytes, int16s[1]):
  | | | | | |     1bb8: 71 10                                           [q.]
  | | | | | | WB_RGGBLevelsUnknown17 = 993 1024 1024 1025
  | | | | | | - Tag 0x00c1 (8 bytes, int16s[4]):
  | | | | | |     1bba: e1 03 00 04 00 04 01 04                         [........]
  | | | | | | ColorTempUnknown17 = 4209
  | | | | | | - Tag 0x00c5 (2 bytes, int16s[1]):
  | | | | | |     1bc2: 71 10                                           [q.]
  | | | | | | WB_RGGBLevelsUnknown18 = 993 1024 1024 1025
  | | | | | | - Tag 0x00c6 (8 bytes, int16s[4]):
  | | | | | |     1bc4: e1 03 00 04 00 04 01 04                         [........]
  | | | | | | ColorTempUnknown18 = 4209
  | | | | | | - Tag 0x00ca (2 bytes, int16s[1]):
  | | | | | |     1bcc: 71 10                                           [q.]
  | | | | | | WB_RGGBLevelsUnknown19 = 993 1024 1024 1025
  | | | | | | - Tag 0x00cb (8 bytes, int16s[4]):
  | | | | | |     1bce: e1 03 00 04 00 04 01 04                         [........]
  | | | | | | ColorTempUnknown19 = 4209
  | | | | | | - Tag 0x00cf (2 bytes, int16s[1]):
  | | | | | |     1bd6: 71 10                                           [q.]
  | | | | | | WB_RGGBLevelsUnknown20 = 993 1024 1024 1025
  | | | | | | - Tag 0x00d0 (8 bytes, int16s[4]):
  | | | | | |     1bd8: e1 03 00 04 00 04 01 04                         [........]
  | | | | | | ColorTempUnknown20 = 4209
  | | | | | | - Tag 0x00d4 (2 bytes, int16s[1]):
  | | | | | |     1be0: 71 10                                           [q.]
  | | | | | | ColorCalib (SubDirectory) -->
  | | | | | | - Tag 0x00d5 (120 bytes, undef[120]):
  | | | | | |     1be2: e1 fe 7d 01 48 03 94 2a f4 fe 86 01 30 03 10 27 [..}.H..*....0..']
  | | | | | |     1bf2: 1c ff 9a 01 03 03 6c 20 45 ff b1 01 d7 02 58 1b [......l E.....X.]
  | | | | | |     1c02: 79 ff d2 01 a5 02 70 17 92 ff e2 01 8d 02 e0 15 [y.....p.........]
  | | | | | |     1c12: ae ff f5 01 73 02 50 14 db ff 10 02 4a 02 5c 12 [....s.P.....J.\.]
  | | | | | |     1c22: 12 00 39 02 1e 02 68 10 46 00 63 02 f8 01 d8 0e [..9...h.F.c.....]
  | | | | | |     1c32: 78 00 8f 02 d7 01 ac 0d b3 00 c8 02 b1 01 80 0c [x...............]
  | | | | | |     1c42: e2 00 f4 02 92 01 b8 0b 0f 01 29 03 7d 01 f0 0a [..........).}...]
  | | | | | |     1c52: 80 01 b8 03 48 01 60 09                         [....H.`.]
  | | | | | | + [BinaryData directory, 120 bytes, Little-endian]
  | | | | | | | CameraColorCalibration01 = -287 381 840 10900
  | | | | | | | - Tag 0x0000 (8 bytes, int16s[4]):
  | | | | | | |     1be2: e1 fe 7d 01 48 03 94 2a                         [..}.H..*]
  | | | | | | | CameraColorCalibration02 = -268 390 816 10000
  | | | | | | | - Tag 0x0004 (8 bytes, int16s[4]):
  | | | | | | |     1bea: f4 fe 86 01 30 03 10 27                         [....0..']
  | | | | | | | CameraColorCalibration03 = -228 410 771 8300
  | | | | | | | - Tag 0x0008 (8 bytes, int16s[4]):
  | | | | | | |     1bf2: 1c ff 9a 01 03 03 6c 20                         [......l ]
  | | | | | | | CameraColorCalibration04 = -187 433 727 7000
  | | | | | | | - Tag 0x000c (8 bytes, int16s[4]):
  | | | | | | |     1bfa: 45 ff b1 01 d7 02 58 1b                         [E.....X.]
  | | | | | | | CameraColorCalibration05 = -135 466 677 6000
  | | | | | | | - Tag 0x0010 (8 bytes, int16s[4]):
  | | | | | | |     1c02: 79 ff d2 01 a5 02 70 17                         [y.....p.]
  | | | | | | | CameraColorCalibration06 = -110 482 653 5600
  | | | | | | | - Tag 0x0014 (8 bytes, int16s[4]):
  | | | | | | |     1c0a: 92 ff e2 01 8d 02 e0 15                         [........]
  | | | | | | | CameraColorCalibration07 = -82 501 627 5200
  | | | | | | | - Tag 0x0018 (8 bytes, int16s[4]):
  | | | | | | |     1c12: ae ff f5 01 73 02 50 14                         [....s.P.]
  | | | | | | | CameraColorCalibration08 = -37 528 586 4700
  | | | | | | | - Tag 0x001c (8 bytes, int16s[4]):
  | | | | | | |     1c1a: db ff 10 02 4a 02 5c 12                         [....J.\.]
  | | | | | | | CameraColorCalibration09 = 18 569 542 4200
  | | | | | | | - Tag 0x0020 (8 bytes, int16s[4]):
  | | | | | | |     1c22: 12 00 39 02 1e 02 68 10                         [..9...h.]
  | | | | | | | CameraColorCalibration10 = 70 611 504 3800
  | | | | | | | - Tag 0x0024 (8 bytes, int16s[4]):
  | | | | | | |     1c2a: 46 00 63 02 f8 01 d8 0e                         [F.c.....]
  | | | | | | | CameraColorCalibration11 = 120 655 471 3500
  | | | | | | | - Tag 0x0028 (8 bytes, int16s[4]):
  | | | | | | |     1c32: 78 00 8f 02 d7 01 ac 0d                         [x.......]
  | | | | | | | CameraColorCalibration12 = 179 712 433 3200
  | | | | | | | - Tag 0x002c (8 bytes, int16s[4]):
  | | | | | | |     1c3a: b3 00 c8 02 b1 01 80 0c                         [........]
  | | | | | | | CameraColorCalibration13 = 226 756 402 3000
  | | | | | | | - Tag 0x0030 (8 bytes, int16s[4]):
  | | | | | | |     1c42: e2 00 f4 02 92 01 b8 0b                         [........]
  | | | | | | | CameraColorCalibration14 = 271 809 381 2800
  | | | | | | | - Tag 0x0034 (8 bytes, int16s[4]):
  | | | | | | |     1c4a: 0f 01 29 03 7d 01 f0 0a                         [..).}...]
  | | | | | | | CameraColorCalibration15 = 384 952 328 2400
  | | | | | | | - Tag 0x0038 (8 bytes, int16s[4]):
  | | | | | | |     1c52: 80 01 b8 03 48 01 60 09                         [....H.`.]
  | | | | | | AverageBlackLevel = 2049 2049 2049 2049
  | | | | | | - Tag 0x0114 (8 bytes, int16u[4]):
  | | | | | |     1c60: 01 08 01 08 01 08 01 08                         [........]
  | | | | | | FlashOutput = 0
  | | | | | | - Tag 0x0198 (2 bytes, int16s[1]):
  | | | | | |     1d68: 00 00                                           [..]
  | | | | | | FlashBatteryLevel = 0
  | | | | | | - Tag 0x0199 (2 bytes, int16s[1]):
  | | | | | |     1d6a: 00 00                                           [..]
  | | | | | | RawMeasuredRGGB = 1748762625 1803419650 1836777474 929562625
  | | | | | | - Tag 0x01ad (16 bytes, int32u[4]):
  | | | | | |     1d92: 01 00 3c 68 02 00 7e 6b 02 00 7b 6d 01 00 68 37 [..<h..~k..{m..h7]
  | | | | | | PerChannelBlackLevel = 2049 2049 2049 2049
  | | | | | | - Tag 0x01f8 (8 bytes, int16u[4]):
  | | | | | |     1e28: 01 08 01 08 01 08 01 08                         [........]
  | | | | | | NormalWhiteLevel = 14580
  | | | | | | - Tag 0x01fc (2 bytes, int16u[1]):
  | | | | | |     1e30: f4 38                                           [.8]
  | | | | | | SpecularWhiteLevel = 15092
  | | | | | | - Tag 0x01fd (2 bytes, int16u[1]):
  | | | | | |     1e32: f4 3a                                           [.:]
  | | | | | | LinearityUpperMargin = 10000
  | | | | | | - Tag 0x01fe (2 bytes, int16u[1]):
  | | | | | |     1e34: 10 27                                           [.']
  | | | | | 26) PictureStyleUserDef = 135 135 135
  | | | | |     - Tag 0x4008 (6 bytes, int16u[3]):
  | | | | |         247a: 87 00 87 00 87 00                               [......]
  | | | | | 27) PictureStylePC = 0 0 0
  | | | | |     - Tag 0x4009 (6 bytes, int16u[3]):
  | | | | |         2480: 00 00 00 00 00 00                               [......]
  | | | | | 28) CustomPictureStyleFileName = 
  | | | | |     - Tag 0x4010 (32 bytes, string[32]):
  | | | | |         2486: 00 00 00 00 00 00 00 00 00 00 00 00 00 00 00 00 [................]
  | | | | |         2496: 00 00 00 00 00 00 00 00 00 00 00 00 00 00 00 00 [................]
  | | | | | 29) Canon_0x4011 = 
  | | | | |     - Tag 0x4011 (252 bytes, undef[252]):
  | | | | |         24a6: 00 00 00 00 00 00 00 00 00 00 00 00 00 00 00 00 [................]
  | | | | |         24b6: 00 00 00 00 00 00 00 00 00 00 00 00 00 00 00 00 [................]
  | | | | |         24c6: 00 00 00 00 00 00 00 00 00 00 00 00 00 00 00 00 [................]
  | | | | |         24d6: 00 00 00 00 00 00 00 00 00 00 00 00 00 00 00 00 [................]
  | | | | |         24e6: 00 00 00 00 00 00 00 00 00 00 00 00 00 00 00 00 [................]
  | | | | |         24f6: 00 00 00 00 00 00 00 00 00 00 00 00 00 00 00 00 [................]
  | | | | |         2506: 00 00 00 00 00 00 00 00 00 00 00 00 00 00 00 00 [................]
  | | | | |         2516: 00 00 00 00 00 00 00 00 00 00 00 00 00 00 00 00 [................]
  | | | | |         2526: 00 00 00 00 00 00 00 00 00 00 00 00 00 00 00 00 [................]
  | | | | |         2536: 00 00 00 00 00 00 00 00 00 00 00 00 00 00 00 00 [................]
  | | | | |         2546: 00 00 00 00 00 00 00 00 00 00 00 00 00 00 00 00 [................]
  | | | | |         2556: 00 00 00 00 00 00 00 00 00 00 00 00 00 00 00 00 [................]
  | | | | |         2566: 00 00 00 00 00 00 00 00 00 00 00 00 00 00 00 00 [................]
  | | | | |         2576: 00 00 00 00 00 00 00 00 00 00 00 00 00 00 00 00 [................]
  | | | | |         2586: 00 00 00 00 00 00 00 00 00 00 00 00 00 00 00 00 [................]
  | | | | |         2596: 00 00 00 00 00 00 00 00 00 00 00 00             [............]
  | | | | | 30) Canon_0x4012 = 
  | | | | |     - Tag 0x4012 (32 bytes, string[32]):
  | | | | |         25a2: 00 00 00 00 00 00 00 00 00 00 00 00 00 00 00 00 [................]
  | | | | |         25b2: 00 00 00 00 00 00 00 00 00 00 00 00 00 00 00 00 [................]
  | | | | | 31) AFMicroAdj (SubDirectory) -->
  | | | | |     - Tag 0x4013 (44 bytes, int32u[11] read as undef[44]):
  | | | | |         25c2: 2c 00 00 00 00 00 00 00 00 00 00 00 0a 00 00 00 [,...............]
  | | | | |         25d2: ff ff ff ff 00 00 00 00 0a 00 00 00 00 00 00 00 [................]
  | | | | |         25e2: 0a 00 00 00 00 00 00 00 0a 00 00 00             [............]
  | | | | | + [BinaryData directory, 44 bytes, Little-endian]
  | | | | | | AFMicroAdjMode = 0
  | | | | | | - Tag 0x0001 (4 bytes, int32s[1]):
  | | | | | |     25c6: 00 00 00 00                                     [....]
  | | | | | | AFMicroAdjValue = 0
  | | | | | | - Tag 0x0002 (8 bytes, rational64s[1]):
  | | | | | |     25ca: 00 00 00 00 0a 00 00 00                         [........]
  | | | | | 32) VignettingCorr (SubDirectory) -->
  | | | | |     - Tag 0x4015 (456 bytes, undef[456]):
  | | | | |         25ee: 00 21 c8 01 00 00 00 00 00 00 00 00 00 00 00 00 [.!..............]
  | | | | |         25fe: 00 00 00 00 04 10 60 15 40 0e ff 1f d1 1e 3f 1d [......`.@.....?.]
  | | | | |         260e: f9 1b 8f 1a 5c 18 00 00 b2 03 ea 05 65 07 df 08 [....\.......e...]
  | | | | |         261e: 1a 0a 00 40 81 40 be 40 dc 40 d6 40 cf 40 00 40 [...@.@.@.@.@.@.@]
  | | | | |         262e: ea 3f fc 3f 47 40 a6 40 cf 40 00 00 b2 03 ea 05 [.?.?G@.@.@......]
  | | | | |         263e: 22 08 9d 09 1a 0a e4 3f cf 3f b2 3f 93 3f 84 3f ["......?.?.?.?.?]
  | | | | |         264e: 81 3f 00 00 b2 03 ea 05 22 08 9d 09 1a 0a 00 00 [.?......".......]
  | | | | |         265e: 00 00 00 00 00 00 00 00 00 00 00 00 00 00 00 00 [................]
  | | | | |         266e: 00 00 00 00 00 00 00 00 00 00 00 00 00 00 00 00 [................]
  | | | | |         267e: 00 00 00 00 00 00 00 00 00 00 00 00 00 00 00 00 [................]
  | | | | |         268e: 00 00 00 00 00 00 00 00 00 00 00 00 00 00 00 00 [................]
  | | | | |         269e: 00 00 00 00 00 00 00 00 00 00 00 00 00 00 00 00 [................]
  | | | | |         26ae: 00 00 00 00 00 00 00 00 00 00 00 00 00 00 00 00 [................]
  | | | | |         26be: 00 00 00 00 00 00 00 00 00 00 00 00 00 00 00 00 [................]
  | | | | |         26ce: 00 00 00 00 00 00 00 00 00 00 00 00 00 00 00 00 [................]
  | | | | |         26de: 00 00 00 00 00 00 00 00 00 00 00 00 00 00 00 00 [................]
  | | | | |         26ee: 00 00 00 00 00 00 00 00 00 00 00 00 00 00 00 00 [................]
  | | | | |         26fe: 00 00 00 00 00 00 00 00 00 00 00 00 00 00 00 00 [................]
  | | | | |         270e: 00 00 00 00 00 00 00 00 00 00 00 00 00 00 00 00 [................]
  | | | | |         271e: 00 00 00 00 00 00 00 00 00 00 00 00 00 00 00 00 [................]
  | | | | |         272e: 00 00 00 00 00 00 00 00 00 00 00 00 00 00 00 00 [................]
  | | | | |         273e: 00 00 00 00 00 00 00 00 00 00 00 00 00 00 00 00 [................]
  | | | | |         274e: 00 00 00 00 00 00 00 00 00 00 00 00 00 00 00 00 [................]
  | | | | |         275e: 00 00 00 00 00 00 00 00 00 00 00 00 00 00 00 00 [................]
  | | | | |         276e: 00 00 00 00 00 00 00 00 00 00 00 00 00 00 00 00 [................]
  | | | | |         277e: 00 00 00 00 00 00 00 00 00 00 00 00 00 00 00 00 [................]
  | | | | |         278e: 00 00 00 00 00 00 00 00 00 00 00 00 00 00 00 00 [................]
  | | | | |         279e: 00 00 00 00 00 00 00 00 00 00 00 00 00 00 00 00 [................]
  | | | | |         27ae: 00 00 00 00 32 00 00 00                         [....2...]
  | | | | | + [BinaryData directory, 456 bytes, Little-endian]
  | | | | | | PeripheralLighting = 0
  | | | | | | - Tag 0x0002 (2 bytes, int16s[1]):
  | | | | | |     25f2: 00 00                                           [..]
  | | | | | | DistortionCorrection = 0
  | | | | | | - Tag 0x0003 (2 bytes, int16s[1]):
  | | | | | |     25f4: 00 00                                           [..]
  | | | | | | ChromaticAberrationCorr = 0
  | | | | | | - Tag 0x0004 (2 bytes, int16s[1]):
  | | | | | |     25f6: 00 00                                           [..]
  | | | | | | ChromaticAberrationCorr = 0
  | | | | | | - Tag 0x0005 (2 bytes, int16s[1]):
  | | | | | |     25f8: 00 00                                           [..]
  | | | | | | PeripheralLightingValue = 0
  | | | | | | - Tag 0x0006 (2 bytes, int16s[1]):
  | | | | | |     25fa: 00 00                                           [..]
  | | | | | | DistortionCorrectionValue = 0
  | | | | | | - Tag 0x0009 (2 bytes, int16s[1]):
  | | | | | |     2600: 00 00                                           [..]
  | | | | | | OriginalImageWidth = 5472
  | | | | | | - Tag 0x000b (2 bytes, int16s[1]):
  | | | | | |     2604: 60 15                                           [`.]
  | | | | | | OriginalImageHeight = 3648
  | | | | | | - Tag 0x000c (2 bytes, int16s[1]):
  | | | | | |     2606: 40 0e                                           [@.]
  | | | | | 33) VignettingCorr2 (SubDirectory) -->
  | | | | |     - Tag 0x4016 (28 bytes, int32u[7] read as undef[28]):
  | | | | |         27b6: 1c 00 00 00 00 00 00 00 01 00 00 00 00 00 00 00 [................]
  | | | | |         27c6: 01 00 00 00 00 00 00 00 00 00 00 00             [............]
  | | | | | + [BinaryData directory, 28 bytes, Little-endian]
  | | | | | | PeripheralLightingSetting = 0
  | | | | | | - Tag 0x0005 (4 bytes, int32s[1]):
  | | | | | |     27ca: 00 00 00 00                                     [....]
  | | | | | | ChromaticAberrationSetting = 0
  | | | | | | - Tag 0x0006 (4 bytes, int32s[1]):
  | | | | | |     27ce: 00 00 00 00                                     [....]
  | | | | | 34) LightingOpt (SubDirectory) -->
  | | | | |     - Tag 0x4018 (28 bytes, int32u[7] read as undef[28]):
  | | | | |         27d2: 1c 00 00 00 00 00 00 00 00 00 00 00 00 00 00 00 [................]
  | | | | |         27e2: 00 00 00 00 00 00 00 00 01 00 00 00             [............]
  | | | | | + [BinaryData directory, 28 bytes, Little-endian]
  | | | | | | PeripheralIlluminationCorr = 0
  | | | | | | - Tag 0x0001 (4 bytes, int32s[1]):
  | | | | | |     27d6: 00 00 00 00                                     [....]
  | | | | | | AutoLightingOptimizer = 0
  | | | | | | - Tag 0x0002 (4 bytes, int32s[1]):
  | | | | | |     27da: 00 00 00 00                                     [....]
  | | | | | | HighlightTonePriority = 0
  | | | | | | - Tag 0x0003 (4 bytes, int32s[1]):
  | | | | | |     27de: 00 00 00 00                                     [....]
  | | | | | | LongExposureNoiseReduction = 0
  | | | | | | - Tag 0x0004 (4 bytes, int32s[1]):
  | | | | | |     27e2: 00 00 00 00                                     [....]
  | | | | | | HighISONoiseReduction = 0
  | | | | | | - Tag 0x0005 (4 bytes, int32s[1]):
  | | | | | |     27e6: 00 00 00 00                                     [....]
  | | | | | 35) LensInfo (SubDirectory) -->
  | | | | |     - Tag 0x4019 (30 bytes, undef[30]):
  | | | | |         27ee: 00 00 21 4e 1c 00 00 00 00 00 00 00 00 00 00 00 [..!N............]
  | | | | |         27fe: 00 00 00 00 00 00 00 00 00 00 00 00 00 00       [..............]
  | | | | | + [BinaryData directory, 30 bytes, Little-endian]
  | | | | | | LensSerialNumber = !N.
  | | | | | | - Tag 0x0000 (5 bytes, undef[5]):
  | | | | | |     27ee: 00 00 21 4e 1c                                  [..!N.]
  | | | | | 36) AmbienceInfo (SubDirectory) -->
  | | | | |     - Tag 0x4020 (28 bytes, int32u[7] read as undef[28]):
  | | | | |         280c: 1c 00 00 00 00 00 00 00 00 00 00 00 00 00 00 00 [................]
  | | | | |         281c: 00 00 00 00 ff ff ff 7f 00 00 00 00             [............]
  | | | | | + [BinaryData directory, 28 bytes, Little-endian]
  | | | | | | AmbienceSelection = 0
  | | | | | | - Tag 0x0001 (4 bytes, int32s[1]):
  | | | | | |     2810: 00 00 00 00                                     [....]
  | | | | | 37) MultiExp (SubDirectory) -->
  | | | | |     - Tag 0x4021 (20 bytes, int32u[5] read as undef[20]):
  | | | | |         2828: 14 00 00 00 00 00 00 00 00 00 00 00 00 00 00 00 [................]
  | | | | |         2838: 01 00 00 00                                     [....]
  | | | | | + [BinaryData directory, 20 bytes, Little-endian]
  | | | | | | MultiExposure = 0
  | | | | | | - Tag 0x0001 (4 bytes, int32s[1]):
  | | | | | |     282c: 00 00 00 00                                     [....]
  | | | | | | MultiExposureControl = 0
  | | | | | | - Tag 0x0002 (4 bytes, int32s[1]):
  | | | | | |     2830: 00 00 00 00                                     [....]
  | | | | | | MultiExposureShots = 0
  | | | | | | - Tag 0x0003 (4 bytes, int32s[1]):
  | | | | | |     2834: 00 00 00 00                                     [....]
  | | | | | 38) FilterInfo (SubDirectory) -->
  | | | | |     - Tag 0x4024 (212 bytes, int32u[53] read as undef[212]):
  | | | | |         283c: d4 00 00 00 07 00 00 00 01 00 00 00 14 00 00 00 [................]
  | | | | |         284c: 01 00 00 00 01 01 00 00 01 00 00 00 ff ff ff ff [................]
  | | | | |         285c: 02 00 00 00 14 00 00 00 01 00 00 00 01 02 00 00 [................]
  | | | | |         286c: 01 00 00 00 ff ff ff ff 03 00 00 00 14 00 00 00 [................]
  | | | | |         287c: 01 00 00 00 01 03 00 00 01 00 00 00 ff ff ff ff [................]
  | | | | |         288c: 04 00 00 00 38 00 00 00 04 00 00 00 01 04 00 00 [....8...........]
  | | | | |         289c: 01 00 00 00 ff ff ff ff 02 04 00 00 01 00 00 00 [................]
  | | | | |         28ac: 00 00 00 00 03 04 00 00 01 00 00 00 00 00 00 00 [................]
  | | | | |         28bc: 04 04 00 00 01 00 00 00 00 00 00 00 05 00 00 00 [................]
  | | | | |         28cc: 14 00 00 00 01 00 00 00 01 05 00 00 01 00 00 00 [................]
  | | | | |         28dc: ff ff ff ff 06 00 00 00 14 00 00 00 01 00 00 00 [................]
  | | | | |         28ec: 01 06 00 00 01 00 00 00 ff ff ff ff 07 00 00 00 [................]
  | | | | |         28fc: 14 00 00 00 01 00 00 00 01 07 00 00 01 00 00 00 [................]
  | | | | |         290c: ff ff ff ff                                     [....]
  | | | | | + [Creative Filter directory with 7 entries]
  | | | | | + [Filter 1 directory with 1 entries, 20 bytes]
  | | | | | | GrainyBWFilter = -1
  | | | | | | - Tag 0x0101 (4 bytes):
  | | | | | |     2208: ff ff ff ff                                     [....]
  | | | | | + [Filter 2 directory with 1 entries, 20 bytes]
  | | | | | | SoftFocusFilter = -1
  | | | | | | - Tag 0x0201 (4 bytes):
  | | | | | |     2220: ff ff ff ff                                     [....]
  | | | | | + [Filter 3 directory with 1 entries, 20 bytes]
  | | | | | | ToyCameraFilter = -1
  | | | | | | - Tag 0x0301 (4 bytes):
  | | | | | |     2238: ff ff ff ff                                     [....]
  | | | | | + [Filter 4 directory with 4 entries, 56 bytes]
  | | | | | | MiniatureFilter = -1
  | | | | | | - Tag 0x0401 (4 bytes):
  | | | | | |     2250: ff ff ff ff                                     [....]
  | | | | | | MiniatureFilterOrientation = 0
  | | | | | | - Tag 0x0402 (4 bytes):
  | | | | | |     225c: 00 00 00 00                                     [....]
  | | | | | | MiniatureFilterPosition = 0
  | | | | | | - Tag 0x0403 (4 bytes):
  | | | | | |     2268: 00 00 00 00                                     [....]
  | | | | | | MiniatureFilterParameter = 0
  | | | | | | - Tag 0x0404 (4 bytes):
  | | | | | |     2274: 00 00 00 00                                     [....]
  | | | | | + [Filter 5 directory with 1 entries, 20 bytes]
  | | | | | | FisheyeFilter = -1
  | | | | | | - Tag 0x0501 (4 bytes):
  | | | | | |     228c: ff ff ff ff                                     [....]
  | | | | | + [Filter 6 directory with 1 entries, 20 bytes]
  | | | | | | PaintingFilter = -1
  | | | | | | - Tag 0x0601 (4 bytes):
  | | | | | |     22a4: ff ff ff ff                                     [....]
  | | | | | + [Filter 7 directory with 1 entries, 20 bytes]
  | | | | | | WatercolorFilter = -1
  | | | | | | - Tag 0x0701 (4 bytes):
  | | | | | |     22bc: ff ff ff ff                                     [....]
  | | | | | 39) HDRInfo (SubDirectory) -->
  | | | | |     - Tag 0x4025 (36 bytes, int32u[9] read as undef[36]):
  | | | | |         2910: 24 00 00 00 00 00 00 00 00 00 00 00 00 00 00 00 [$...............]
  | | | | |         2920: 00 00 00 00 00 00 00 00 00 00 00 00 00 00 00 00 [................]
  | | | | |         2930: 00 00 00 00                                     [....]
  | | | | | + [BinaryData directory, 36 bytes, Little-endian]
  | | | | | | HDR = 0
  | | | | | | - Tag 0x0001 (4 bytes, int32s[1]):
  | | | | | |     2914: 00 00 00 00                                     [....]
  | | | | | | HDREffect = 0
  | | | | | | - Tag 0x0002 (4 bytes, int32s[1]):
  | | | | | |     2918: 00 00 00 00                                     [....]
  | | | | | 40) Canon_0x4027 = 24 524546 2969567282 134217728 13684944 65539
  | | | | |     - Tag 0x4027 (24 bytes, int32u[6]):
  | | | | |         2934: 18 00 00 00 02 01 08 00 32 00 00 b1 00 00 00 08 [........2.......]
  | | | | |         2944: d0 d0 d0 00 03 00 01 00                         [........]
  | | | | 17) UserComment = 
  | | | |     - Tag 0x9286 (264 bytes, undef[264]):
  | | | |         2954: 00 00 00 00 00 00 00 00 00 00 00 00 00 00 00 00 [................]
  | | | |         2964: 00 00 00 00 00 00 00 00 00 00 00 00 00 00 00 00 [................]
  | | | |         2974: 00 00 00 00 00 00 00 00 00 00 00 00 00 00 00 00 [................]
  | | | |         2984: 00 00 00 00 00 00 00 00 00 00 00 00 00 00 00 00 [................]
  | | | |         2994: 00 00 00 00 00 00 00 00 00 00 00 00 00 00 00 00 [................]
  | | | |         29a4: 00 00 00 00 00 00 00 00 00 00 00 00 00 00 00 00 [................]
  | | | |         29b4: 00 00 00 00 00 00 00 00 00 00 00 00 00 00 00 00 [................]
  | | | |         29c4: 00 00 00 00 00 00 00 00 00 00 00 00 00 00 00 00 [................]
  | | | |         29d4: 00 00 00 00 00 00 00 00 00 00 00 00 00 00 00 00 [................]
  | | | |         29e4: 00 00 00 00 00 00 00 00 00 00 00 00 00 00 00 00 [................]
  | | | |         29f4: 00 00 00 00 00 00 00 00 00 00 00 00 00 00 00 00 [................]
  | | | |         2a04: 00 00 00 00 00 00 00 00 00 00 00 00 00 00 00 00 [................]
  | | | |         2a14: 00 00 00 00 00 00 00 00 00 00 00 00 00 00 00 00 [................]
  | | | |         2a24: 00 00 00 00 00 00 00 00 00 00 00 00 00 00 00 00 [................]
  | | | |         2a34: 00 00 00 00 00 00 00 00 00 00 00 00 00 00 00 00 [................]
  | | | |         2a44: 00 00 00 00 00 00 00 00 00 00 00 00 00 00 00 00 [................]
  | | | |         2a54: 00 00 00 00 00 00 00 00                         [........]
  | | | | 18) SubSecTime = 00
  | | | |     - Tag 0x9290 (3 bytes, string[3]):
  | | | |         0808: 30 30 00                                        [00.]
  | | | | 19) SubSecTimeOriginal = 00
  | | | |     - Tag 0x9291 (3 bytes, string[3]):
  | | | |         0814: 30 30 00                                        [00.]
  | | | | 20) SubSecTimeDigitized = 00
  | | | |     - Tag 0x9292 (3 bytes, string[3]):
  | | | |         0820: 30 30 00                                        [00.]
  | | | | 21) FlashpixVersion = 0100
  | | | |     - Tag 0xa000 (4 bytes, undef[4]):
  | | | |         082c: 30 31 30 30                                     [0100]
  | | | | 22) ColorSpace = 1
  | | | |     - Tag 0xa001 (2 bytes, int16u[1]):
  | | | |         0838: 01 00                                           [..]
  | | | | 23) ExifImageWidth = 5472
  | | | |     - Tag 0xa002 (2 bytes, int16u[1]):
  | | | |         0844: 60 15                                           [`.]
  | | | | 24) ExifImageHeight = 3648
  | | | |     - Tag 0xa003 (2 bytes, int16u[1]):
  | | | |         0850: 40 0e                                           [@.]
  | | | | 25) InteropOffset (SubDirectory) -->
  | | | |     - Tag 0xa005 (4 bytes, int32u[1]):
  | | | |         085c: 68 24 00 00                                     [h$..]
  | | | | + [InteropIFD directory with 2 entries, Little-endian]
  | | | | | 0)  InteropIndex = R98
  | | | | |     - Tag 0x0001 (4 bytes, string[4]):
  | | | | |         2ac2: 52 39 38 00                                     [R98.]
  | | | | | 1)  InteropVersion = 0100
  | | | | |     - Tag 0x0002 (4 bytes, undef[4]):
  | | | | |         2ace: 30 31 30 30                                     [0100]
  | | | | 26) FocalPlaneXResolution = 6086.76307 (5472000/899)
  | | | |     - Tag 0xa20e (8 bytes, rational64u[1]):
  | | | |         2a5c: 00 7f 53 00 83 03 00 00                         [..S.....]
  | | | | 27) FocalPlaneYResolution = 6090.15025 (3648000/599)
  | | | |     - Tag 0xa20f (8 bytes, rational64u[1]):
  | | | |         2a64: 00 aa 37 00 57 02 00 00                         [..7.W...]
  | | | | 28) FocalPlaneResolutionUnit = 2
  | | | |     - Tag 0xa210 (2 bytes, int16u[1]):
  | | | |         0880: 02 00                                           [..]
  | | | | 29) CustomRendered = 0
  | | | |     - Tag 0xa401 (2 bytes, int16u[1]):
  | | | |         088c: 00 00                                           [..]
  | | | | 30) ExposureMode = 0
  | | | |     - Tag 0xa402 (2 bytes, int16u[1]):
  | | | |         0898: 00 00                                           [..]
  | | | | 31) WhiteBalance = 0
  | | | |     - Tag 0xa403 (2 bytes, int16u[1]):
  | | | |         08a4: 00 00                                           [..]
  | | | | 32) SceneCaptureType = 0
  | | | |     - Tag 0xa406 (2 bytes, int16u[1]):
  | | | |         08b0: 00 00                                           [..]
  | | | | 33) OwnerName = 
  | | | |     - Tag 0xa430 (1 bytes, string[1]):
  | | | |         08bc: 00                                              [.]
  | | | | 34) SerialNumber = 053022005903
  | | | |     - Tag 0xa431 (13 bytes, string[13]):
  | | | |         2a6c: 30 35 33 30 32 32 30 30 35 39 30 33 00          [053022005903.]
  | | | | 35) LensInfo = 50 50 0 0 (50/1 50/1 0/1 0/1)
  | | | |     - Tag 0xa432 (32 bytes, rational64u[4]):
  | | | |         2a7a: 32 00 00 00 01 00 00 00 32 00 00 00 01 00 00 00 [2.......2.......]
  | | | |         2a8a: 00 00 00 00 01 00 00 00 00 00 00 00 01 00 00 00 [................]
  | | | | 36) LensModel = EF50mm f/1.8 STM
  | | | |     - Tag 0xa434 (17 bytes, string[17]):
  | | | |         2a9a: 45 46 35 30 6d 6d 20 66 2f 31 2e 38 20 53 54 4d [EF50mm f/1.8 STM]
  | | | |         2aaa: 00                                              [.]
  | | | | 37) LensSerialNumber = 0000214e1c
  | | | |     - Tag 0xa435 (11 bytes, string[11]):
  | | | |         2aac: 30 30 30 30 32 31 34 65 31 63 00                [0000214e1c.]
  | | | 11) GPSInfo (SubDirectory) -->
  | | |     - Tag 0x8825 (4 bytes, int32u[1]):
  | | |         06e6: 86 24 00 00                                     [.$..]
  | | | + [GPS directory with 1 entries, Little-endian]
  | | | | 0)  GPSVersionID = 2 3 0 0
  | | | |     - Tag 0x0000 (4 bytes, int8u[4]):
  | | | |         2ae0: 02 03 00 00                                     [....]
  | | + [IFD1 directory with 6 entries, Little-endian]
  | | | 0)  Compression = 6
  | | |     - Tag 0x0103 (2 bytes, int16u[1]):
  | | |         2af2: 06 00                                           [..]
  | | | 1)  XResolution = 72 (72/1)
  | | |     - Tag 0x011a (8 bytes, rational64u[1]):
  | | |         2b36: 48 00 00 00 01 00 00 00                         [H.......]
  | | | 2)  YResolution = 72 (72/1)
  | | |     - Tag 0x011b (8 bytes, rational64u[1]):
  | | |         2b3e: 48 00 00 00 01 00 00 00                         [H.......]
  | | | 3)  ResolutionUnit = 2
  | | |     - Tag 0x0128 (2 bytes, int16u[1]):
  | | |         2b16: 02 00                                           [..]
  | | | 4)  ThumbnailOffset = 9462
  | | |     - Tag 0x0201 (4 bytes, int32u[1]):
  | | |         2b22: f6 24 00 00                                     [.$..]
  | | | 5)  ThumbnailLength = 8567
  | | |     - Tag 0x0202 (4 bytes, int32u[1]):
  | | |         2b2e: 77 21 00 00                                     [w!..]
  | + [ItemPropertyContainer directory]
  | | 1)  ImageSpatialExtent = .`.@
  | |     - Tag 'ispe' (12 bytes):
  | |         00e8: 00 00 00 00 00 00 15 60 00 00 0e 40             [.......`...@]
  | | ImageWidth = 5472
  | | ImageHeight = 3648
  | | 2)  ImagePixelDepth = ....
  | |     - Tag 'pixi' (8 bytes):
  | |         00fc: 00 00 00 00 03 08 08 08                         [........]
  | | 3)  AV1Configuration (SubDirectory) -->
  | |     - Tag 'av1C' (4 bytes):
  | |         010c: 81 30 00 00                                     [.0..]
  | | + [BinaryData directory, 4 bytes, Big-endian]
  | | | AV1ConfigurationVersion = 1
  | | | - Tag 0x0000, mask 0x7f (1 bytes, int8u[1]):
  | | |     010c: 81                                              [.]
  | | | SeqProfile = 1
  | | | - Tag 0x0001, mask 0xe0 (1 bytes, int8u[1]):
  | | |     010d: 30                                              [0]
  | | | SeqTier0 = 0
  | | | - Tag 0x0002, mask 0x80 (1 bytes, int8u[1]):
  | | |     010e: 00                                              [.]
  | | | ChromaFormat = 0
  | | | - Tag '2.3', mask 0x1c (1 bytes, int8u[1]):
  | | |     010e: 00                                              [.]
  | | | ChromaSamplePosition = 0
  | | | - Tag '2.4', mask 0x03 (1 bytes, int8u[1]):
  | | |     010e: 00                                              [.]
  | | | InitialDelaySamples = 0
  | | | - Tag 0x0003 (1 bytes, int8u[1]):
  | | |     010f: 00                                              [.]
  | | 4)  ColorRepresentation (SubDirectory) -->
  | |     - Tag 'colr' (11 bytes):
  | |         0118: 6e 63 6c 78 00 01 00 0d 00 00 80                [nclx.......]
  | | + [BinaryData directory, 11 bytes, Big-endian]
  | | | ColorProfiles = nclx
  | | | - Tag 0x0000 (4 bytes, undef[4]):
  | | |     0118: 6e 63 6c 78                                     [nclx]
  | | | ColorPrimaries = 1
  | | | - Tag 0x0004 (2 bytes, int16u[1]):
  | | |     011c: 00 01                                           [..]
  | | | TransferCharacteristics = 13
  | | | - Tag 0x0006 (2 bytes, int16u[1]):
  | | |     011e: 00 0d                                           [..]
  | | | MatrixCoefficients = 0
  | | | - Tag 0x0008 (2 bytes, int16u[1]):
  | | |     0120: 00 00                                           [..]
  | | | VideoFullRangeFlag = 1
  | | | - Tag 0x000a, mask 0x80 (1 bytes, int8u[1]):
  | | |     0122: 80                                              [.]
  Movie (SubDirectory) -->
  - Tag 'moov' (702 bytes):
      0142: 00 00 00 78 6d 76 68 64 01 00 00 00 00 00 00 00 [...xmvhd........]
      0152: e6 0d 0f 41 00 00 00 00 e6 0d 0f 41 00 00 00 1e [...A.......A....]
      0162: ff ff ff ff ff ff ff ff 00 01 00 00 01 00 00 00 [................]
      0172: 00 00 00 00 00 00 00 00 00 01 00 00 00 00 00 00 [................]
      0182: 00 00 00 00 00 00 00 00 00 01 00 00 00 00 00 00 [................]
      0192: 00 00 00 00 00 00 00 00 40 00 00 00 00 00 00 00 [........@.......]
      01a2: 00 00 00 00 00 00 00 00 00 00 00 00 00 00 00 00 [................]
      01b2: 00 00 00 00 00 00 00 01 00 00 02 46 74 72 61 6b [...........Ftrak]
      01c2: 00 00 00 68 74 6b 68 64 01 00 00 01 00 00 00 00 [...htkhd........]
      01d2: e6 0d 0f 41 00 00 00 00 e6 0d 0f 41 00 00 00 01 [...A.......A....]
      01e2: 00 00 00 00 ff ff ff ff ff ff ff ff 00 00 00 00 [................]
      01f2: 00 00 00 00 00 00 00 00 00 00 00 00 00 01 00 00 [................]
      0202: 00 00 00 00 00 00 00 00 00 00 00 00 00 01 00 00 [................]
      0212: 00 00 00 00 00 00 00 00 00 00 00 00 40 00 00 00 [............@...]
      0222: 15 60 00 00 0e 40 00 00 00 00 00 2c 65 64 74 73 [.`...@.....,edts]
      0232: 00 00 00 24 65 6c 73 74 01 00 00 01 00 00 00 01 [...$elst........]
      0242: 00 00 00 00 00 00 00 02 00 00 00 00 00 00 00 00 [................]
      0252: 00 01 00 00 00 00 01 aa 6d 64 69 61 00 00 00 2c [........mdia...,]
      0262: 6d 64 68 64 01 00 00 00 00 00 00 00 e6 0d 0f 41 [mdhd...........A]
      0272: 00 00 00 00 e6 0d 0f 41 00 00 00 1e 00 00 00 00 [.......A........]
      0282: 00 00 00 02 55 c4 00 00 00 00 00 21 68 64 6c 72 [....U......!hdlr]
      0292: 00 00 00 00 00 00 00 00 70 69 63 74 00 00 00 00 [........pict....]
      02a2: 00 00 00 00 00 00 00 00 00 00 00 01 55 6d 69 6e [............Umin]
      02b2: 66 00 00 00 14 76 6d 68 64 00 00 00 01 00 00 00 [f....vmhd.......]
      02c2: 00 00 00 00 00 00 00 00 24 64 69 6e 66 00 00 00 [........$dinf...]
      02d2: 1c 64 72 65 66 00 00 00 00 00 00 00 01 00 00 00 [.dref...........]
      02e2: 0c 75 72 6c 20 00 00 00 01 00 00 01 15 73 74 62 [.url ........stb]
      02f2: 6c 00 00 00 95 73 74 73 64 00 00 00 00 00 00 00 [l....stsd.......]
      0302: 01 00 00 00 85 61 76 30 31 00 00 00 00 00 00 00 [.....av01.......]
      0312: 01 00 00 00 00 00 00 00 00 00 00 00 00 00 00 00 [................]
      0322: 00 15 60 0e 40 00 48 00 00 00 48 00 00 00 00 00 [..`.@.H...H.....]
      0332: 00 00 01 0a 41 4f 4d 20 43 6f 64 69 6e 67 00 00 [....AOM Coding..]
      0342: 00 00 00 00 00 00 00 00 00 00 00 00 00 00 00 00 [................]
      0352: 00 00 00 00 18 ff ff 00 00 00 0c 61 76 31 43 81 [...........av1C.]
      0362: 30 00 00 00 00 00 13 63 6f 6c 72 6e 63 6c 78 00 [0......colrnclx.]
      0372: 01 00 0d 00 00 80 00 00 00 10 63 63 73 74 00 00 [..........ccst..]
      0382: 00 00 7c 00 00 00 00 00 00 18 73 74 74 73 00 00 [..|.......stts..]
      0392: 00 00 00 00 00 01 00 00 00 02 00 00 00 01 00 00 [................]
      03a2: 00 1c 73 74 73 63 00 00 00 00 00 00 00 01 00 00 [..stsc..........]
      03b2: 00 01 00 00 00 02 00 00 00 01 00 00 00 1c 73 74 [..............st]
      03c2: 73 7a 00 00 00 00 00 00 00 00 00 00 00 02 00 7a [sz.............z]
      03d2: 98 5c 00 7e 0e 9d 00 00 00 14 73 74 63 6f 00 00 [.\.~......stco..]
      03e2: 00 00 00 00 00 01 00 00 4c be 00 00 00 14 73 74 [........L.....st]
      03f2: 73 73 00 00 00 00 00 00 00 01 00 00 00 01       [ss............]
  + [Movie directory]
  | MovieHeader (SubDirectory) -->
  | - Tag 'mvhd' (112 bytes):
  |     014a: 01 00 00 00 00 00 00 00 e6 0d 0f 41 00 00 00 00 [...........A....]
  |     015a: e6 0d 0f 41 00 00 00 1e ff ff ff ff ff ff ff ff [...A............]
  |     016a: 00 01 00 00 01 00 00 00 00 00 00 00 00 00 00 00 [................]
  |     017a: 00 01 00 00 00 00 00 00 00 00 00 00 00 00 00 00 [................]
  |     018a: 00 01 00 00 00 00 00 00 00 00 00 00 00 00 00 00 [................]
  |     019a: 40 00 00 00 00 00 00 00 00 00 00 00 00 00 00 00 [@...............]
  |     01aa: 00 00 00 00 00 00 00 00 00 00 00 00 00 00 00 01 [................]
  | + [BinaryData directory, 112 bytes, Big-endian]
  | | MovieHeaderVersion = 1
  | | - Tag 0x0000 (1 bytes, int8u[1]):
  | |     014a: 01                                              [.]
  | | CreateDate = 3859615553
  | | - Tag 0x0001 (8 bytes, int64u[1]):
  | |     014e: 00 00 00 00 e6 0d 0f 41                         [.......A]
  | | [offsets adjusted by +0x0004 after 0x0001 CreateDate]
  | | ModifyDate = 3859615553
  | | - Tag 0x0002 (8 bytes, int64u[1]):
  | |     0156: 00 00 00 00 e6 0d 0f 41                         [.......A]
  | | [offsets adjusted by +0x0008 after 0x0002 ModifyDate]
  | | TimeScale = 30
  | | - Tag 0x0003 (4 bytes, int32u[1]):
  | |     015e: 00 00 00 1e                                     [....]
  | | Duration = 18446744073709551615
  | | - Tag 0x0004 (8 bytes, int64u[1]):
  | |     0162: ff ff ff ff ff ff ff ff                         [........]
  | | [offsets adjusted by +0x000c after 0x0004 Duration]
  | | PreferredRate = 65536
  | | - Tag 0x0005 (4 bytes, int32u[1]):
  | |     016a: 00 01 00 00                                     [....]
  | | PreferredVolume = 256
  | | - Tag 0x0006 (2 bytes, int16u[1]):
  | |     016e: 01 00                                           [..]
  | | MatrixStructure = 1 0 0 0 1 0 0 0 16384
  | | - Tag 0x0009 (36 bytes, fixed32s[9]):
  | |     017a: 00 01 00 00 00 00 00 00 00 00 00 00 00 00 00 00 [................]
  | |     018a: 00 01 00 00 00 00 00 00 00 00 00 00 00 00 00 00 [................]
  | |     019a: 40 00 00 00                                     [@...]
  | | PreviewTime = 0
  | | - Tag 0x0012 (4 bytes, int32u[1]):
  | |     019e: 00 00 00 00                                     [....]
  | | PreviewDuration = 0
  | | - Tag 0x0013 (4 bytes, int32u[1]):
  | |     01a2: 00 00 00 00                                     [....]
  | | PosterTime = 0
  | | - Tag 0x0014 (4 bytes, int32u[1]):
  | |     01a6: 00 00 00 00                                     [....]
  | | SelectionTime = 0
  | | - Tag 0x0015 (4 bytes, int32u[1]):
  | |     01aa: 00 00 00 00                                     [....]
  | | SelectionDuration = 0
  | | - Tag 0x0016 (4 bytes, int32u[1]):
  | |     01ae: 00 00 00 00                                     [....]
  | | CurrentTime = 0
  | | - Tag 0x0017 (4 bytes, int32u[1]):
  | |     01b2: 00 00 00 00                                     [....]
  | | NextTrackID = 1
  | | - Tag 0x0018 (4 bytes, int32u[1]):
  | |     01b6: 00 00 00 01                                     [....]
  | Track (SubDirectory) -->
  | - Tag 'trak' (574 bytes):
  |     01c2: 00 00 00 68 74 6b 68 64 01 00 00 01 00 00 00 00 [...htkhd........]
  |     01d2: e6 0d 0f 41 00 00 00 00 e6 0d 0f 41 00 00 00 01 [...A.......A....]
  |     01e2: 00 00 00 00 ff ff ff ff ff ff ff ff 00 00 00 00 [................]
  |     01f2: 00 00 00 00 00 00 00 00 00 00 00 00 00 01 00 00 [................]
  |     0202: 00 00 00 00 00 00 00 00 00 00 00 00 00 01 00 00 [................]
  |     0212: 00 00 00 00 00 00 00 00 00 00 00 00 40 00 00 00 [............@...]
  |     0222: 15 60 00 00 0e 40 00 00 00 00 00 2c 65 64 74 73 [.`...@.....,edts]
  |     0232: 00 00 00 24 65 6c 73 74 01 00 00 01 00 00 00 01 [...$elst........]
  |     0242: 00 00 00 00 00 00 00 02 00 00 00 00 00 00 00 00 [................]
  |     0252: 00 01 00 00 00 00 01 aa 6d 64 69 61 00 00 00 2c [........mdia...,]
  |     0262: 6d 64 68 64 01 00 00 00 00 00 00 00 e6 0d 0f 41 [mdhd...........A]
  |     0272: 00 00 00 00 e6 0d 0f 41 00 00 00 1e 00 00 00 00 [.......A........]
  |     0282: 00 00 00 02 55 c4 00 00 00 00 00 21 68 64 6c 72 [....U......!hdlr]
  |     0292: 00 00 00 00 00 00 00 00 70 69 63 74 00 00 00 00 [........pict....]
  |     02a2: 00 00 00 00 00 00 00 00 00 00 00 01 55 6d 69 6e [............Umin]
  |     02b2: 66 00 00 00 14 76 6d 68 64 00 00 00 01 00 00 00 [f....vmhd.......]
  |     02c2: 00 00 00 00 00 00 00 00 24 64 69 6e 66 00 00 00 [........$dinf...]
  |     02d2: 1c 64 72 65 66 00 00 00 00 00 00 00 01 00 00 00 [.dref...........]
  |     02e2: 0c 75 72 6c 20 00 00 00 01 00 00 01 15 73 74 62 [.url ........stb]
  |     02f2: 6c 00 00 00 95 73 74 73 64 00 00 00 00 00 00 00 [l....stsd.......]
  |     0302: 01 00 00 00 85 61 76 30 31 00 00 00 00 00 00 00 [.....av01.......]
  |     0312: 01 00 00 00 00 00 00 00 00 00 00 00 00 00 00 00 [................]
  |     0322: 00 15 60 0e 40 00 48 00 00 00 48 00 00 00 00 00 [..`.@.H...H.....]
  |     0332: 00 00 01 0a 41 4f 4d 20 43 6f 64 69 6e 67 00 00 [....AOM Coding..]
  |     0342: 00 00 00 00 00 00 00 00 00 00 00 00 00 00 00 00 [................]
  |     0352: 00 00 00 00 18 ff ff 00 00 00 0c 61 76 31 43 81 [...........av1C.]
  |     0362: 30 00 00 00 00 00 13 63 6f 6c 72 6e 63 6c 78 00 [0......colrnclx.]
  |     0372: 01 00 0d 00 00 80 00 00 00 10 63 63 73 74 00 00 [..........ccst..]
  |     0382: 00 00 7c 00 00 00 00 00 00 18 73 74 74 73 00 00 [..|.......stts..]
  |     0392: 00 00 00 00 00 01 00 00 00 02 00 00 00 01 00 00 [................]
  |     03a2: 00 1c 73 74 73 63 00 00 00 00 00 00 00 01 00 00 [..stsc..........]
  |     03b2: 00 01 00 00 00 02 00 00 00 01 00 00 00 1c 73 74 [..............st]
  |     03c2: 73 7a 00 00 00 00 00 00 00 00 00 00 00 02 00 7a [sz.............z]
  |     03d2: 98 5c 00 7e 0e 9d 00 00 00 14 73 74 63 6f 00 00 [.\.~......stco..]
  |     03e2: 00 00 00 00 00 01 00 00 4c be 00 00 00 14 73 74 [........L.....st]
  |     03f2: 73 73 00 00 00 00 00 00 00 01 00 00 00 01       [ss............]
  | + [Track directory]
  | | TrackHeader (SubDirectory) -->
  | | - Tag 'tkhd' (96 bytes):
  | |     01ca: 01 00 00 01 00 00 00 00 e6 0d 0f 41 00 00 00 00 [...........A....]
  | |     01da: e6 0d 0f 41 00 00 00 01 00 00 00 00 ff ff ff ff [...A............]
  | |     01ea: ff ff ff ff 00 00 00 00 00 00 00 00 00 00 00 00 [................]
  | |     01fa: 00 00 00 00 00 01 00 00 00 00 00 00 00 00 00 00 [................]
  | |     020a: 00 00 00 00 00 01 00 00 00 00 00 00 00 00 00 00 [................]
  | |     021a: 00 00 00 00 40 00 00 00 15 60 00 00 0e 40 00 00 [....@....`...@..]
  | | + [BinaryData directory, 96 bytes, Big-endian]
  | | | TrackHeaderVersion = 1
  | | | - Tag 0x0000 (1 bytes, int8u[1]):
  | | |     01ca: 01                                              [.]
  | | | TrackCreateDate = 3859615553
  | | | - Tag 0x0001 (8 bytes, int64u[1]):
  | | |     01ce: 00 00 00 00 e6 0d 0f 41                         [.......A]
  | | | [offsets adjusted by +0x0004 after 0x0001 TrackCreateDate]
  | | | TrackModifyDate = 3859615553
  | | | - Tag 0x0002 (8 bytes, int64u[1]):
  | | |     01d6: 00 00 00 00 e6 0d 0f 41                         [.......A]
  | | | [offsets adjusted by +0x0008 after 0x0002 TrackModifyDate]
  | | | TrackID = 1
  | | | - Tag 0x0003 (4 bytes, int32u[1]):
  | | |     01de: 00 00 00 01                                     [....]
  | | | TrackDuration = 18446744073709551615
  | | | - Tag 0x0005 (8 bytes, int64u[1]):
  | | |     01e6: ff ff ff ff ff ff ff ff                         [........]
  | | | [offsets adjusted by +0x000c after 0x0005 TrackDuration]
  | | | TrackLayer = 0
  | | | - Tag 0x0008 (2 bytes, int16u[1]):
  | | |     01f6: 00 00                                           [..]
  | | | TrackVolume = 0
  | | | - Tag 0x0009 (2 bytes, int16u[1]):
  | | |     01fa: 00 00                                           [..]
  | | | MatrixStructure = 1 0 0 0 1 0 0 0 16384
  | | | - Tag 0x000a (36 bytes, fixed32s[9]):
  | | |     01fe: 00 01 00 00 00 00 00 00 00 00 00 00 00 00 00 00 [................]
  | | |     020e: 00 01 00 00 00 00 00 00 00 00 00 00 00 00 00 00 [................]
  | | |     021e: 40 00 00 00                                     [@...]
  | | | ImageWidth = 358612992
  | | | - Tag 0x0013 (4 bytes, int32u[1]):
  | | |     0222: 15 60 00 00                                     [.`..]
  | | | ImageHeight = 239075328
  | | | - Tag 0x0014 (4 bytes, int32u[1]):
  | | |     0226: 0e 40 00 00                                     [.@..]
  | | Unknown_edts = $elst.....
  | | - Tag 'edts' (36 bytes):
  | |     0232: 00 00 00 24 65 6c 73 74 01 00 00 01 00 00 00 01 [...$elst........]
  | |     0242: 00 00 00 00 00 00 00 02 00 00 00 00 00 00 00 00 [................]
  | |     0252: 00 01 00 00                                     [....]
  | | Media (SubDirectory) -->
  | | - Tag 'mdia' (418 bytes):
  | |     025e: 00 00 00 2c 6d 64 68 64 01 00 00 00 00 00 00 00 [...,mdhd........]
  | |     026e: e6 0d 0f 41 00 00 00 00 e6 0d 0f 41 00 00 00 1e [...A.......A....]
  | |     027e: 00 00 00 00 00 00 00 02 55 c4 00 00 00 00 00 21 [........U......!]
  | |     028e: 68 64 6c 72 00 00 00 00 00 00 00 00 70 69 63 74 [hdlr........pict]
  | |     029e: 00 00 00 00 00 00 00 00 00 00 00 00 00 00 00 01 [................]
  | |     02ae: 55 6d 69 6e 66 00 00 00 14 76 6d 68 64 00 00 00 [Uminf....vmhd...]
  | |     02be: 01 00 00 00 00 00 00 00 00 00 00 00 24 64 69 6e [............$din]
  | |     02ce: 66 00 00 00 1c 64 72 65 66 00 00 00 00 00 00 00 [f....dref.......]
  | |     02de: 01 00 00 00 0c 75 72 6c 20 00 00 00 01 00 00 01 [.....url .......]
  | |     02ee: 15 73 74 62 6c 00 00 00 95 73 74 73 64 00 00 00 [.stbl....stsd...]
  | |     02fe: 00 00 00 00 01 00 00 00 85 61 76 30 31 00 00 00 [.........av01...]
  | |     030e: 00 00 00 00 01 00 00 00 00 00 00 00 00 00 00 00 [................]
  | |     031e: 00 00 00 00 00 15 60 0e 40 00 48 00 00 00 48 00 [......`.@.H...H.]
  | |     032e: 00 00 00 00 00 00 01 0a 41 4f 4d 20 43 6f 64 69 [........AOM Codi]
  | |     033e: 6e 67 00 00 00 00 00 00 00 00 00 00 00 00 00 00 [ng..............]
  | |     034e: 00 00 00 00 00 00 00 00 18 ff ff 00 00 00 0c 61 [...............a]
  | |     035e: 76 31 43 81 30 00 00 00 00 00 13 63 6f 6c 72 6e [v1C.0......colrn]
  | |     036e: 63 6c 78 00 01 00 0d 00 00 80 00 00 00 10 63 63 [clx...........cc]
  | |     037e: 73 74 00 00 00 00 7c 00 00 00 00 00 00 18 73 74 [st....|.......st]
  | |     038e: 74 73 00 00 00 00 00 00 00 01 00 00 00 02 00 00 [ts..............]
  | |     039e: 00 01 00 00 00 1c 73 74 73 63 00 00 00 00 00 00 [......stsc......]
  | |     03ae: 00 01 00 00 00 01 00 00 00 02 00 00 00 01 00 00 [................]
  | |     03be: 00 1c 73 74 73 7a 00 00 00 00 00 00 00 00 00 00 [..stsz..........]
  | |     03ce: 00 02 00 7a 98 5c 00 7e 0e 9d 00 00 00 14 73 74 [...z.\.~......st]
  | |     03de: 63 6f 00 00 00 00 00 00 00 01 00 00 4c be 00 00 [co..........L...]
  | |     03ee: 00 14 73 74 73 73 00 00 00 00 00 00 00 01 00 00 [..stss..........]
  | |     03fe: 00 01                                           [..]
  | | + [Media directory]
  | | | MediaHeader (SubDirectory) -->
  | | | - Tag 'mdhd' (36 bytes):
  | | |     0266: 01 00 00 00 00 00 00 00 e6 0d 0f 41 00 00 00 00 [...........A....]
  | | |     0276: e6 0d 0f 41 00 00 00 1e 00 00 00 00 00 00 00 02 [...A............]
  | | |     0286: 55 c4 00 00                                     [U...]
  | | | + [BinaryData directory, 36 bytes, Big-endian]
  | | | | MediaHeaderVersion = 16777216
  | | | | - Tag 0x0000 (4 bytes, int32u[1]):
  | | | |     0266: 01 00 00 00                                     [....]
  | | | | MediaCreateDate = 3859615553
  | | | | - Tag 0x0001 (8 bytes, int64u[1]):
  | | | |     026a: 00 00 00 00 e6 0d 0f 41                         [.......A]
  | | | | [offsets adjusted by +0x0004 after 0x0001 MediaCreateDate]
  | | | | MediaModifyDate = 3859615553
  | | | | - Tag 0x0002 (8 bytes, int64u[1]):
  | | | |     0272: 00 00 00 00 e6 0d 0f 41                         [.......A]
  | | | | [offsets adjusted by +0x0008 after 0x0002 MediaModifyDate]
  | | | | MediaTimeScale = 30
  | | | | - Tag 0x0003 (4 bytes, int32u[1]):
  | | | |     027a: 00 00 00 1e                                     [....]
  | | | | MediaDuration = 2
  | | | | - Tag 0x0004 (8 bytes, int64u[1]):
  | | | |     027e: 00 00 00 00 00 00 00 02                         [........]
  | | | | [offsets adjusted by +0x000c after 0x0004 MediaDuration]
  | | | | MediaLanguageCode = 21956
  | | | | - Tag 0x0005 (2 bytes, int16u[1]):
  | | | |     0286: 55 c4                                           [U.]
  | | | Handler (SubDirectory) -->
  | | | - Tag 'hdlr' (25 bytes):
  | | |     0292: 00 00 00 00 00 00 00 00 70 69 63 74 00 00 00 00 [........pict....]
  | | |     02a2: 00 00 00 00 00 00 00 00 00                      [.........]
  | | | + [BinaryData directory, 25 bytes, Big-endian]
  | | | | HandlerClass = 
  | | | | - Tag 0x0004 (4 bytes, undef[4]):
  | | | |     0296: 00 00 00 00                                     [....]
  | | | | HandlerType = pict
  | | | | - Tag 0x0008 (4 bytes, undef[4]):
  | | | |     029a: 70 69 63 74                                     [pict]
  | | | | HandlerVendorID = 
  | | | | - Tag 0x000c (4 bytes, undef[4]):
  | | | |     029e: 00 00 00 00                                     [....]
  | | | | HandlerDescription = 
  | | | | - Tag 0x0018 (1 bytes, string[1]):
  | | | |     02aa: 00                                              [.]
  | | | MediaInfo (SubDirectory) -->
  | | | - Tag 'minf' (333 bytes):
  | | |     02b3: 00 00 00 14 76 6d 68 64 00 00 00 01 00 00 00 00 [....vmhd........]
  | | |     02c3: 00 00 00 00 00 00 00 24 64 69 6e 66 00 00 00 1c [.......$dinf....]
  | | |     02d3: 64 72 65 66 00 00 00 00 00 00 00 01 00 00 00 0c [dref............]
  | | |     02e3: 75 72 6c 20 00 00 00 01 00 00 01 15 73 74 62 6c [url ........stbl]
  | | |     02f3: 00 00 00 95 73 74 73 64 00 00 00 00 00 00 00 01 [....stsd........]
  | | |     0303: 00 00 00 85 61 76 30 31 00 00 00 00 00 00 00 01 [....av01........]
  | | |     0313: 00 00 00 00 00 00 00 00 00 00 00 00 00 00 00 00 [................]
  | | |     0323: 15 60 0e 40 00 48 00 00 00 48 00 00 00 00 00 00 [.`.@.H...H......]
  | | |     0333: 00 01 0a 41 4f 4d 20 43 6f 64 69 6e 67 00 00 00 [...AOM Coding...]
  | | |     0343: 00 00 00 00 00 00 00 00 00 00 00 00 00 00 00 00 [................]
  | | |     0353: 00 00 00 18 ff ff 00 00 00 0c 61 76 31 43 81 30 [..........av1C.0]
  | | |     0363: 00 00 00 00 00 13 63 6f 6c 72 6e 63 6c 78 00 01 [......colrnclx..]
  | | |     0373: 00 0d 00 00 80 00 00 00 10 63 63 73 74 00 00 00 [.........ccst...]
  | | |     0383: 00 7c 00 00 00 00 00 00 18 73 74 74 73 00 00 00 [.|.......stts...]
  | | |     0393: 00 00 00 00 01 00 00 00 02 00 00 00 01 00 00 00 [................]
  | | |     03a3: 1c 73 74 73 63 00 00 00 00 00 00 00 01 00 00 00 [.stsc...........]
  | | |     03b3: 01 00 00 00 02 00 00 00 01 00 00 00 1c 73 74 73 [.............sts]
  | | |     03c3: 7a 00 00 00 00 00 00 00 00 00 00 00 02 00 7a 98 [z.............z.]
  | | |     03d3: 5c 00 7e 0e 9d 00 00 00 14 73 74 63 6f 00 00 00 [\.~......stco...]
  | | |     03e3: 00 00 00 00 01 00 00 4c be 00 00 00 14 73 74 73 [.......L.....sts]
  | | |     03f3: 73 00 00 00 00 00 00 00 01 00 00 00 01          [s............]
  | | | + [MediaInfo directory]
  | | | | VideoHeader (SubDirectory) -->
  | | | | - Tag 'vmhd' (12 bytes):
  | | | |     02bb: 00 00 00 01 00 00 00 00 00 00 00 00             [............]
  | | | | + [BinaryData directory, 12 bytes, Big-endian]
  | | | | | GraphicsMode = 0
  | | | | | - Tag 0x0002 (2 bytes, int16u[1]):
  | | | | |     02bf: 00 00                                           [..]
  | | | | | OpColor = 0 0 0
  | | | | | - Tag 0x0003 (6 bytes, int16u[3]):
  | | | | |     02c1: 00 00 00 00 00 00                               [......]
  | | | | DataInfo (SubDirectory) -->
  | | | | - Tag 'dinf' (28 bytes):
  | | | |     02cf: 00 00 00 1c 64 72 65 66 00 00 00 00 00 00 00 01 [....dref........]
  | | | |     02df: 00 00 00 0c 75 72 6c 20 00 00 00 01             [....url ....]
  | | | | + [DataInfo directory]
  | | | | | DataRef (SubDirectory) -->
  | | | | | - Tag 'dref' (20 bytes):
  | | | | |     02d7: 00 00 00 00 00 00 00 01 00 00 00 0c 75 72 6c 20 [............url ]
  | | | | |     02e7: 00 00 00 01                                     [....]
  | | | | | + [DataRef directory]
  | | | | | | URL = .
  | | | | | | - Tag 'url ' (4 bytes, undef):
  | | | | | |     02e7: 00 00 00 01                                     [....]
  | | | | SampleTable (SubDirectory) -->
  | | | | - Tag 'stbl' (269 bytes):
  | | | |     02f3: 00 00 00 95 73 74 73 64 00 00 00 00 00 00 00 01 [....stsd........]
  | | | |     0303: 00 00 00 85 61 76 30 31 00 00 00 00 00 00 00 01 [....av01........]
  | | | |     0313: 00 00 00 00 00 00 00 00 00 00 00 00 00 00 00 00 [................]
  | | | |     0323: 15 60 0e 40 00 48 00 00 00 48 00 00 00 00 00 00 [.`.@.H...H......]
  | | | |     0333: 00 01 0a 41 4f 4d 20 43 6f 64 69 6e 67 00 00 00 [...AOM Coding...]
  | | | |     0343: 00 00 00 00 00 00 00 00 00 00 00 00 00 00 00 00 [................]
  | | | |     0353: 00 00 00 18 ff ff 00 00 00 0c 61 76 31 43 81 30 [..........av1C.0]
  | | | |     0363: 00 00 00 00 00 13 63 6f 6c 72 6e 63 6c 78 00 01 [......colrnclx..]
  | | | |     0373: 00 0d 00 00 80 00 00 00 10 63 63 73 74 00 00 00 [.........ccst...]
  | | | |     0383: 00 7c 00 00 00 00 00 00 18 73 74 74 73 00 00 00 [.|.......stts...]
  | | | |     0393: 00 00 00 00 01 00 00 00 02 00 00 00 01 00 00 00 [................]
  | | | |     03a3: 1c 73 74 73 63 00 00 00 00 00 00 00 01 00 00 00 [.stsc...........]
  | | | |     03b3: 01 00 00 00 02 00 00 00 01 00 00 00 1c 73 74 73 [.............sts]
  | | | |     03c3: 7a 00 00 00 00 00 00 00 00 00 00 00 02 00 7a 98 [z.............z.]
  | | | |     03d3: 5c 00 7e 0e 9d 00 00 00 14 73 74 63 6f 00 00 00 [\.~......stco...]
  | | | |     03e3: 00 00 00 00 01 00 00 4c be 00 00 00 14 73 74 73 [.......L.....sts]
  | | | |     03f3: 73 00 00 00 00 00 00 00 01 00 00 00 01          [s............]
  | | | | + [SampleTable directory]
  | | | | | OtherSampleDesc (SubDirectory) -->
  | | | | | - Tag 'stsd' (141 bytes):
  | | | | |     02fb: 00 00 00 00 00 00 00 01 00 00 00 85 61 76 30 31 [............av01]
  | | | | |     030b: 00 00 00 00 00 00 00 01 00 00 00 00 00 00 00 00 [................]
  | | | | |     031b: 00 00 00 00 00 00 00 00 15 60 0e 40 00 48 00 00 [.........`.@.H..]
  | | | | |     032b: 00 48 00 00 00 00 00 00 00 01 0a 41 4f 4d 20 43 [.H.........AOM C]
  | | | | |     033b: 6f 64 69 6e 67 00 00 00 00 00 00 00 00 00 00 00 [oding...........]
  | | | | |     034b: 00 00 00 00 00 00 00 00 00 00 00 18 ff ff 00 00 [................]
  | | | | |     035b: 00 0c 61 76 31 43 81 30 00 00 00 00 00 13 63 6f [..av1C.0......co]
  | | | | |     036b: 6c 72 6e 63 6c 78 00 01 00 0d 00 00 80 00 00 00 [lrnclx..........]
  | | | | |     037b: 10 63 63 73 74 00 00 00 00 7c 00 00 00          [.ccst....|...]
  | | | | | + [BinaryData directory, 94 bytes, Big-endian]
  | | | | | | OtherFormat = av01
  | | | | | | - Tag 0x0004 (4 bytes, undef[4]):
  | | | | | |     0307: 61 76 30 31                                     [av01]
  | | | | | + [OtherSampleDesc directory]
  | | | | | | Unknown_av1C = .0
  | | | | | | - Tag 'av1C' (4 bytes):
  | | | | | |     0361: 81 30 00 00                                     [.0..]
  | | | | | | Unknown_colr = nclx...
  | | | | | | - Tag 'colr' (11 bytes):
  | | | | | |     036d: 6e 63 6c 78 00 01 00 0d 00 00 80                [nclx.......]
  | | | | | | Unknown_ccst = |
  | | | | | | - Tag 'ccst' (8 bytes):
  | | | | | |     0380: 00 00 00 00 7c 00 00 00                         [....|...]
  | | | | | TimeToSampleTable = ...
  | | | | | - Tag 'stts' (16 bytes, undef):
  | | | | |     0390: 00 00 00 00 00 00 00 01 00 00 00 02 00 00 00 01 [................]
  | | | | | SampleToChunk = ....
  | | | | | - Tag 'stsc' (20 bytes):
  | | | | |     03a8: 00 00 00 00 00 00 00 01 00 00 00 01 00 00 00 02 [................]
  | | | | |     03b8: 00 00 00 01                                     [....]
  | | | | | SampleSizes = .z.\~..
  | | | | | - Tag 'stsz' (20 bytes):
  | | | | |     03c4: 00 00 00 00 00 00 00 00 00 00 00 02 00 7a 98 5c [.............z.\]
  | | | | |     03d4: 00 7e 0e 9d                                     [.~..]
  | | | | | ChunkOffset = .L.
  | | | | | - Tag 'stco' (12 bytes):
  | | | | |     03e0: 00 00 00 00 00 00 00 01 00 00 4c be             [..........L.]
  | | | | | SyncSampleTable = ..
  | | | | | - Tag 'stss' (12 bytes):
  | | | | |     03f4: 00 00 00 00 00 00 00 01 00 00 00 01             [............]
  XMP (SubDirectory) -->
  - Tag 'uuid' (572 bytes):
      0408: be 7a cf cb 97 a9 42 e8 9c 71 99 94 91 e3 af ac [.z....B..q......]
      0418: 3c 3f 78 70 61 63 6b 65 74 20 62 65 67 69 6e 3d [<?xpacket begin=]
      0428: 27 ef bb bf 27 20 69 64 3d 27 57 35 4d 30 4d 70 ['...' id='W5M0Mp]
      0438: 43 65 68 69 48 7a 72 65 53 7a 4e 54 63 7a 6b 63 [CehiHzreSzNTczkc]
      0448: 39 64 27 3f 3e 0a 3c 78 3a 78 6d 70 6d 65 74 61 [9d'?>.<x:xmpmeta]
      0458: 20 78 6d 6c 6e 73 3a 78 3d 27 61 64 6f 62 65 3a [ xmlns:x='adobe:]
      0468: 6e 73 3a 6d 65 74 61 2f 27 20 78 3a 78 6d 70 74 [ns:meta/' x:xmpt]
      0478: 6b 3d 27 49 6d 61 67 65 3a 3a 45 78 69 66 54 6f [k='Image::ExifTo]
      0488: 6f 6c 20 31 33 2e 35 30 27 3e 0a 3c 72 64 66 3a [ol 13.50'>.<rdf:]
      0498: 52 44 46 20 78 6d 6c 6e 73 3a 72 64 66 3d 27 68 [RDF xmlns:rdf='h]
      04a8: 74 74 70 3a 2f 2f 77 77 77 2e 77 33 2e 6f 72 67 [ttp://www.w3.org]
      04b8: 2f 31 39 39 39 2f 30 32 2f 32 32 2d 72 64 66 2d [/1999/02/22-rdf-]
      04c8: 73 79 6e 74 61 78 2d 6e 73 23 27 3e 0a 20 3c 72 [syntax-ns#'>. <r]
      04d8: 64 66 3a 44 65 73 63 72 69 70 74 69 6f 6e 20 72 [df:Description r]
      04e8: 64 66 3a 61 62 6f 75 74 3d 27 27 0a 20 20 78 6d [df:about=''.  xm]
      04f8: 6c 6e 73 3a 78 6d 70 3d 27 68 74 74 70 3a 2f 2f [lns:xmp='http://]
      0508: 6e 73 2e 61 64 6f 62 65 2e 63 6f 6d 2f 78 61 70 [ns.adobe.com/xap]
      0518: 2f 31 2e 30 2f 27 0a 20 20 78 6d 6c 6e 73 3a 64 [/1.0/'.  xmlns:d]
      0528: 63 3d 27 68 74 74 70 3a 2f 2f 70 75 72 6c 2e 6f [c='http://purl.o]
      0538: 72 67 2f 64 63 2f 65 6c 65 6d 65 6e 74 73 2f 31 [rg/dc/elements/1]
      0548: 2e 31 2f 27 3e 0a 20 20 3c 78 6d 70 3a 52 61 74 [.1/'>.  <xmp:Rat]
      0558: 69 6e 67 3e 33 3c 2f 78 6d 70 3a 52 61 74 69 6e [ing>3</xmp:Ratin]
      0568: 67 3e 0a 20 20 3c 64 63 3a 64 65 73 63 72 69 70 [g>.  <dc:descrip]
      0578: 74 69 6f 6e 3e 0a 20 20 20 3c 72 64 66 3a 41 6c [tion>.   <rdf:Al]
      0588: 74 3e 0a 20 20 20 20 3c 72 64 66 3a 6c 69 20 78 [t>.    <rdf:li x]
      0598: 6d 6c 3a 6c 61 6e 67 3d 27 78 2d 64 65 66 61 75 [ml:lang='x-defau]
      05a8: 6c 74 27 3e 41 6e 69 6d 61 74 65 64 20 41 56 49 [lt'>Animated AVI]
      05b8: 46 20 77 69 74 68 20 58 4d 50 20 69 6e 20 74 6f [F with XMP in to]
      05c8: 70 2d 6c 65 76 65 6c 20 55 55 49 44 20 62 6f 78 [p-level UUID box]
      05d8: 3c 2f 72 64 66 3a 6c 69 3e 0a 20 20 20 3c 2f 72 [</rdf:li>.   </r]
      05e8: 64 66 3a 41 6c 74 3e 0a 20 20 3c 2f 64 63 3a 64 [df:Alt>.  </dc:d]
      05f8: 65 73 63 72 69 70 74 69 6f 6e 3e 0a 20 3c 2f 72 [escription>. </r]
      0608: 64 66 3a 44 65 73 63 72 69 70 74 69 6f 6e 3e 0a [df:Description>.]
      0618: 3c 2f 72 64 66 3a 52 44 46 3e 0a 3c 2f 78 3a 78 [</rdf:RDF>.</x:x]
      0628: 6d 70 6d 65 74 61 3e 0a 3c 3f 78 70 61 63 6b 65 [mpmeta>.<?xpacke]
      0638: 74 20 65 6e 64 3d 27 77 27 3f 3e 0a             [t end='w'?>.]
  + [XMP directory, 556 bytes]
  | XMPToolkit = Image::ExifTool 13.50
  | Rating = 3
  | - Tag 'x:xmpmeta/rdf:RDF/rdf:Description/xmp:Rating'
  | Description = Animated AVIF with XMP in top-level UUID box
  | - Tag 'x:xmpmeta/rdf:RDF/rdf:Description/dc:description/rdf:Alt/rdf:li 10'
  MediaDataSize = 16313707
  MediaDataOffset = 1612
  MediaData = II*...........................(....2....;............i....%....$.$CanonCanon EOS 70DH.H.2015:10:11 14:41:44&............"....'.....0....2........0230.....................................................|... ........#....00....00....00...0100.........`.....@.....h$.....$.....$.....................0...1....$2...*$4...J$5...\$.< .2015:10:11 14:41:442015:10:11 14:41:44..`...2.)..1.....P....X..."`............. ..........%...........&....5...... ....JX..................t..............................@.!....@..*..@..0..@. 6..@..V..@. R..@..r..@......@..f!.@...!.@...! @...!!@...!$@.5.!%@..."'@..."b....;.......<.22.8 .....................2..$ZD.Hl......h.d.........Canon EOS 70DFirmware Version 1.1.1..h"h#X.-.>........2 ..J2s....P$@...@.nF0....n....WI............JP.................UU......UU.........P.<22.g...!N.....'..`.@.....(.......................................1.1.1B1(32)...Y...dde.ded.........t.....t.....t.....t.....t..................................................................................................(u.V.....7.:..SX...MN..p.....`.@.`.@..................................................................q.q.q.............s...o...o.....o.....o...o.........@.........WI......EF50mm f/1.8 STM-5.6 IS STMUUd.FA0381304....T................................................................................`.@.....P...S....."..|...T2..q....................].x.u.........}.c............o.Q.F.......&w....P.7.m.d.2............'.....M.w.....0.....l.......l.......l.......l...................l.......l.......l.......l.....................-.....P.v.....X.......p.....v... .......-.....D.........-.....D.-.....D.-.....D.-.....D.-.....D.......q.......q.......q.......q.......q...}.H..*....0..'......l E.....X.y.....p.............s.P.....J.\..9...h.Fc.....x......................).}.......H.`...........................E,C.f.......|.4...I...+%R0.....~.....f........7!...%......O.+.I..^...j.N......".D.v.....b....<h.~k.{m.h7...............t......?_......Ab......f. @`...........................8.:.'..q...@.p.....@.8.....@...X.|.... @[snip]
  - Tag 'mdat' (16313707 bytes):
      064c: 00 00 00 00 49 49 2a 00 08 00 00 00 0c 00 0f 01 [....II*.........]
      065c: 02 00 06 00 00 00 9e 00 00 00 10 01 02 00 0e 00 [................]
      066c: 00 00 a4 00 00 00 12 01 03 00 01 00 00 00 01 00 [................]
      067c: 00 00 1a 01 05 00 01 00 00 00 b2 00 00 00 1b 01 [................]
      068c: 05 00 01 00 00 00 ba 00 00 00 28 01 03 00 01 00 [..........(.....]
      069c: 00 00 02 00 00 00 32 01 02 00 14 00 00 00 c2 00 [......2.........]
      06ac: 00 00 3b 01 02 00 01 00 00 00 00 00 00 00 13 02 [..;.............]
      06bc: 03 00 01 00 00 00 02 00 00 00 98 82 02 00 01 00 [................]
      06cc: 00 00 00 00 00 00 69 87 04 00 01 00 00 00 d6 00 [......i.........]
      06dc: 00 00 25 88 04 00 01 00 00 00 86 24 00 00 98 24 [..%........$...$]
      06ec: 00 00 43 61 6e 6f 6e 00 43 61 6e 6f 6e 20 45 4f [..Canon.Canon EO]
      06fc: 53 20 37 30 44 00 48 00 00 00 01 00 00 00 48 00 [S 70D.H.......H.]
      070c: 00 00 01 00 00 00 32 30 31 35 3a 31 30 3a 31 31 [......2015:10:11]
      071c: 20 31 34 3a 34 31 3a 34 34 00 26 00 9a 82 05 00 [ 14:41:44.&.....]
      072c: 01 00 00 00 a4 02 00 00 9d 82 05 00 01 00 00 00 [................]
      073c: ac 02 00 00 22 88 03 00 01 00 00 00 02 00 00 00 [...."...........]
      074c: 27 88 03 00 01 00 00 00 90 01 00 00 30 88 03 00 ['...........0...]
      075c: 01 00 00 00 02 00 00 00 32 88 04 00 01 00 00 00 [........2.......]
      076c: 90 01 00 00 00 90 07 00 04 00 00 00 30 32 33 30 [............0230]
      077c: 03 90 02 00 14 00 00 00 b4 02 00 00 04 90 02 00 [................]
      078c: 14 00 00 00 c8 02 00 00 01 91 07 00 04 00 00 00 [................]
      079c: 01 02 03 00 01 92 0a 00 01 00 00 00 dc 02 00 00 [................]
      07ac: 02 92 05 00 01 00 00 00 e4 02 00 00 04 92 0a 00 [................]
      07bc: 01 00 00 00 ec 02 00 00 07 92 03 00 01 00 00 00 [................]
      07cc: 05 00 00 00 09 92 03 00 01 00 00 00 10 00 00 00 [................]
      07dc: 0a 92 05 00 01 00 00 00 f4 02 00 00 7c 92 07 00 [............|...]
      07ec: 08 20 00 00 fc 02 00 00 86 92 07 00 08 01 00 00 [. ..............]
      07fc: 04 23 00 00 90 92 02 00 03 00 00 00 30 30 00 00 [.#..........00..]
      080c: 91 92 02 00 03 00 00 00 30 30 00 00 92 92 02 00 [........00......]
      081c: 03 00 00 00 30 30 00 00 00 a0 07 00 04 00 00 00 [....00..........]
      082c: 30 31 30 30 01 a0 03 00 01 00 00 00 01 00 00 00 [0100............]
      083c: 02 a0 03 00 01 00 00 00 60 15 00 00 03 a0 03 00 [........`.......]
      084c: 01 00 00 00 40 0e 00 00 05 a0 04 00 01 00 00 00 [....@...........]
      085c: 68 24 00 00 0e a2 05 00 01 00 00 00 0c 24 00 00 [h$...........$..]
      086c: 0f a2 05 00 01 00 00 00 14 24 00 00 10 a2 03 00 [.........$......]
      087c: 01 00 00 00 02 00 00 00 01 a4 03 00 01 00 00 00 [................]
      088c: 00 00 00 00 02 a4 03 00 01 00 00 00 00 00 00 00 [................]
      089c: 03 a4 03 00 01 00 00 00 00 00 00 00 06 a4 03 00 [................]
      08ac: 01 00 00 00 00 00 00 00 30 a4 02 00 01 00 00 00 [........0.......]
      08bc: 00 00 00 00 31 a4 02 00 0d 00 00 00 1c 24 00 00 [....1........$..]
      08cc: 32 a4 05 00 04 00 00 00 2a 24 00 00 34 a4 02 00 [2.......*$..4...]
      08dc: 11 00 00 00 4a 24 00 00 35 a4 02 00 0b 00 00 00 [....J$..5.......]
      08ec: 5c 24 00 00 00 00 00 00 01 00 00 00 3c 00 00 00 [\$..........<...]
      08fc: 20 00 00 00 0a 00 00 00 32 30 31 35 3a 31 30 3a [ .......2015:10:]
      090c: 31 31 20 31 34 3a 34 31 3a 34 34 00 32 30 31 35 [11 14:41:44.2015]
      091c: 3a 31 30 3a 31 31 20 31 34 3a 34 31 3a 34 34 00 [:10:11 14:41:44.]
      092c: 00 00 06 00 00 00 01 00 00 60 03 00 00 00 01 00 [.........`......]
      093c: 00 00 00 00 01 00 00 00 32 00 00 00 01 00 00 00 [........2.......]
      094c: 29 00 01 00 03 00 31 00 00 00 ee 04 00 00 02 00 [).....1.........]
      095c: 03 00 04 00 00 00 50 05 00 00 03 00 03 00 04 00 [......P.........]
      096c: 00 00 58 05 00 00 04 00 03 00 22 00 00 00 60 05 [..X......."...`.]
      097c: 00 00 06 00 02 00 0e 00 00 00 a4 05 00 00 07 00 [................]
      098c: 02 00 18 00 00 00 b2 05 00 00 09 00 02 00 20 00 [.............. .]
      099c: 00 00 ca 05 00 00 0d 00 07 00 00 06 00 00 ea 05 [................]
      09ac: 00 00 10 00 04 00 01 00 00 00 25 03 00 80 13 00 [..........%.....]
      09bc: 03 00 04 00 00 00 ea 0b 00 00 19 00 03 00 01 00 [................]
      09cc: 00 00 01 00 00 00 26 00 03 00 8b 00 00 00 f2 0b [......&.........]
      09dc: 00 00 35 00 04 00 04 00 00 00 08 0d 00 00 93 00 [..5.............]
      09ec: 03 00 20 00 00 00 18 0d 00 00 95 00 02 00 4a 00 [.. ...........J.]
      09fc: 00 00 58 0d 00 00 96 00 02 00 10 00 00 00 a2 0d [..X.............]
      0a0c: 00 00 97 00 07 00 00 04 00 00 b2 0d 00 00 98 00 [................]
      0a1c: 03 00 04 00 00 00 b2 11 00 00 99 00 04 00 74 00 [..............t.]
      0a2c: 00 00 ba 11 00 00 9a 00 04 00 05 00 00 00 8a 13 [................]
      0a3c: 00 00 a0 00 03 00 0e 00 00 00 9e 13 00 00 aa 00 [................]
      0a4c: 03 00 06 00 00 00 ba 13 00 00 b4 00 03 00 01 00 [................]
      0a5c: 00 00 01 00 00 00 d0 00 04 00 01 00 00 00 00 00 [................]
      0a6c: 00 00 e0 00 03 00 11 00 00 00 c6 13 00 00 01 40 [...............@]
      0a7c: 03 00 21 05 00 00 e8 13 00 00 08 40 03 00 03 00 [..!........@....]
      0a8c: 00 00 2a 1e 00 00 09 40 03 00 03 00 00 00 30 1e [..*....@......0.]
      0a9c: 00 00 10 40 02 00 20 00 00 00 36 1e 00 00 11 40 [...@.. ...6....@]
      0aac: 07 00 fc 00 00 00 56 1e 00 00 12 40 02 00 20 00 [......V....@.. .]
      0abc: 00 00 52 1f 00 00 13 40 04 00 0b 00 00 00 72 1f [..R....@......r.]
      0acc: 00 00 15 40 07 00 c8 01 00 00 9e 1f 00 00 16 40 [...@...........@]
      0adc: 04 00 07 00 00 00 66 21 00 00 18 40 04 00 07 00 [......f!...@....]
      0aec: 00 00 82 21 00 00 19 40 07 00 1e 00 00 00 9e 21 [...!...@.......!]
      0afc: 00 00 20 40 04 00 07 00 00 00 bc 21 00 00 21 40 [.. @.......!..!@]
      0b0c: 04 00 05 00 00 00 d8 21 00 00 24 40 04 00 35 00 [.......!..$@..5.]
      0b1c: 00 00 ec 21 00 00 25 40 04 00 09 00 00 00 c0 22 [...!..%@......."]
      0b2c: 00 00 27 40 04 00 06 00 00 00 e4 22 00 00 00 00 [..'@......."....]
      0b3c: 00 00 62 00 02 00 00 00 03 00 00 00 00 00 00 00 [..b.............]
      0b4c: 02 00 00 00 01 00 00 00 3b 00 00 00 00 00 00 00 [........;.......]
      0b5c: ff 7f 0f 00 03 00 02 00 00 00 00 00 ff ff 3c 10 [..............<.]
      0b6c: 32 00 32 00 01 00 38 00 20 01 00 00 00 00 00 00 [2.2...8. .......]
      0b7c: 00 00 ff ff ff ff ff ff 00 00 00 00 00 00 00 00 [................]
      0b8c: ff ff ff ff 00 00 00 00 ff 7f ff ff ff ff ff ff [................]
      0b9c: 00 00 ff ff 00 00 32 00 16 0b 24 5a 00 00 00 00 [......2...$Z....]
      0bac: 00 00 00 00 44 00 00 00 e0 00 48 00 6c 00 c0 00 [....D.....H.l...]
      0bbc: 00 00 00 00 03 00 00 00 08 00 08 00 95 00 00 00 [................]
      0bcc: 00 00 00 00 00 00 00 00 01 00 00 00 00 00 68 00 [..............h.]
      0bdc: c0 00 64 00 00 00 00 00 f8 00 ff ff ff ff ff ff [..d.............]
      0bec: ff ff 00 00 00 00 00 00 43 61 6e 6f 6e 20 45 4f [........Canon EO]
      0bfc: 53 20 37 30 44 00 46 69 72 6d 77 61 72 65 20 56 [S 70D.Firmware V]
      0c0c: 65 72 73 69 6f 6e 20 31 2e 31 2e 31 00 00 00 00 [ersion 1.1.1....]
      0c1c: 00 00 00 00 00 00 00 00 00 00 00 00 00 00 00 00 [................]
      0c2c: 00 00 00 00 00 00 00 00 00 00 00 00 00 00 aa aa [................]
      0c3c: 68 22 68 23 58 00 01 2d 01 3e 00 03 00 00 00 00 [h"h#X..-.>......]
      0c4c: 00 00 01 00 00 06 00 00 00 95 92 00 a6 00 af 00 [................]
      0c5c: a9 00 32 00 00 20 00 00 00 00 00 02 03 00 00 00 [..2.. ..........]
      0c6c: 00 00 4a 00 32 00 73 01 bb bb fa 50 00 24 40 90 [..J.2.s....P.$@.]
      0c7c: 00 00 00 00 00 00 00 00 00 00 00 00 00 00 00 00 [................]
      0c8c: ff 88 00 00 00 00 40 ff 00 6e 00 46 00 30 00 00 [......@..n.F.0..]
      0c9c: 00 00 00 00 00 00 00 00 00 00 00 00 b4 8d b7 94 [................]
      0cac: 6e 00 00 00 00 00 00 00 00 00 01 01 00 00 00 00 [n...............]
      0cbc: 02 01 00 00 00 00 00 00 00 00 00 00 00 00 00 00 [................]
      0ccc: 00 00 57 00 49 04 00 00 00 00 00 00 00 00 ff ff [..W.I...........]
      0cdc: ff ff 0c cc cc 16 00 00 00 03 00 00 00 00 00 00 [................]
      0cec: 00 00 00 00 00 00 00 00 00 00 ff 01 00 00 00 4a [...............J]
      0cfc: 00 00 00 00 00 50 14 00 00 00 00 00 00 00 00 00 [.....P..........]
      0d0c: 00 01 00 00 00 01 00 00 00 01 00 00 00 03 00 00 [................]
      0d1c: 00 03 00 00 00 03 00 00 00 00 00 00 00 01 00 00 [................]
      0d2c: 00 00 00 00 00 01 00 00 00 87 00 00 00 01 00 00 [................]
      0d3c: 00 01 00 00 00 01 00 00 00 07 00 00 00 00 00 00 [................]
      0d4c: 03 05 03 55 55 00 00 00 00 0e 00 00 00 00 00 00 [...UU...........]
      0d5c: 00 00 00 00 00 00 00 03 07 07 11 0d 00 00 00 00 [................]
      0d6c: 00 00 00 00 00 00 00 00 00 00 00 55 55 05 00 00 [...........UU...]
      0d7c: 03 00 14 04 00 00 00 00 00 00 00 00 00 00 00 00 [................]
      0d8c: 00 00 00 00 00 00 03 02 02 00 00 00 00 00 00 00 [................]
      0d9c: 00 01 16 50 10 3c 00 32 00 32 81 67 92 7f 00 ff [...P.<.2.2.g....]
      0dac: 00 00 00 00 00 00 00 21 4e 1c 01 00 03 07 16 00 [.......!N.......]
      0dbc: 27 02 00 00 00 00 00 00 00 00 00 00 00 00 00 00 ['...............]
      0dcc: 00 00 00 00 00 00 00 00 00 00 00 00 00 02 00 00 [................]
      0ddc: 00 60 15 00 00 40 0e 00 00 9c 09 00 00 b0 05 00 [.`...@..........]
      0dec: 00 28 02 00 00 e0 02 00 00 d0 02 00 00 e0 01 00 [.(..............]
      0dfc: 00 00 00 00 00 00 00 00 00 d0 02 00 00 e0 01 00 [................]
      0e0c: 00 d0 02 00 00 e0 01 00 00 00 00 00 00 00 00 00 [................]
      0e1c: 00 d0 02 00 00 e0 01 00 00 00 00 00 00 00 00 00 [................]
      0e2c: 00 01 00 00 00 00 00 00 00 00 00 00 00 00 00 00 [................]
      [snip 16311675 bytes]
