  ExifToolVersion = 13.59
  FileName = media_74.avif
  Directory = C:/Users/micro/IdeaProjects/kim/src/commonTest/resources/de/stefan_oltmann/kim/testdata/full
  FileSize = 276794
  FileModifyDate = 1776264330.19485
  FileAccessDate = 1786601587.24596
  FileCreateDate = 1776264330.18685
  FilePermissions = 33206
  FileType = AVIF
  FileTypeExtension = AVIF
  MIMEType = image/avif
  FileType (SubDirectory) -->
  - Tag 'ftyp' (20 bytes):
      0008: 61 76 69 66 00 00 00 00 61 76 69 66 6d 69 66 31 [avif....avifmif1]
      0018: 6d 69 61 66                                     [miaf]
  + [BinaryData directory, 20 bytes, Big-endian]
  | MajorBrand = avif
  | - Tag 0x0000 (4 bytes, undef[4]):
  |     0008: 61 76 69 66                                     [avif]
  | MinorVersion = 
  | - Tag 0x0001 (4 bytes, undef[4]):
  |     000c: 00 00 00 00                                     [....]
  | CompatibleBrands = avifmif1miaf
  | - Tag 0x0002 (12 bytes, undef[12]):
  |     0010: 61 76 69 66 6d 69 66 31 6d 69 61 66             [avifmif1miaf]
  Meta (SubDirectory) -->
  - Tag 'meta' (365 bytes):
      0024: 00 00 00 00 00 00 00 21 68 64 6c 72 00 00 00 00 [.......!hdlr....]
      0034: 00 00 00 00 70 69 63 74 00 00 00 00 00 00 00 00 [....pict........]
      0044: 00 00 00 00 00 00 00 00 0e 70 69 74 6d 00 00 00 [.........pitm...]
      0054: 00 00 01 00 00 00 46 69 6c 6f 63 00 00 00 00 44 [......Filoc....D]
      0064: 40 00 03 00 01 00 00 00 00 01 99 00 01 00 00 00 [@...............]
      0074: 00 00 03 e6 4c 00 02 00 00 00 03 e7 e5 00 01 00 [....L...........]
      0084: 00 00 00 00 00 46 78 00 03 00 00 00 04 2e 5d 00 [.....Fx.......].]
      0094: 01 00 00 00 00 00 00 0a dd 00 00 00 62 69 69 6e [............biin]
      00a4: 66 00 00 00 00 00 03 00 00 00 15 69 6e 66 65 02 [f..........infe.]
      00b4: 00 00 00 00 01 00 00 61 76 30 31 00 00 00 00 15 [.......av01.....]
      00c4: 69 6e 66 65 02 00 00 01 00 02 00 00 45 78 69 66 [infe........Exif]
      00d4: 00 00 00 00 2a 69 6e 66 65 02 00 00 01 00 03 00 [....*infe.......]
      00e4: 00 6d 69 6d 65 00 61 70 70 6c 69 63 61 74 69 6f [.mime.applicatio]
      00f4: 6e 2f 72 64 66 2b 78 6d 6c 00 00 00 00 00 6a 69 [n/rdf+xml.....ji]
      0104: 70 72 70 00 00 00 4b 69 70 63 6f 00 00 00 13 63 [prp...Kipco....c]
      0114: 6f 6c 72 6e 63 6c 78 00 01 00 0d 00 06 80 00 00 [olrnclx.........]
      0124: 00 0c 61 76 31 43 81 10 0c 00 00 00 00 14 69 73 [..av1C........is]
      0134: 70 65 00 00 00 00 00 00 15 60 00 00 0e 40 00 00 [pe.......`...@..]
      0144: 00 10 70 69 78 69 00 00 00 00 03 08 08 08 00 00 [..pixi..........]
      0154: 00 17 69 70 6d 61 00 00 00 00 00 00 00 01 00 01 [..ipma..........]
      0164: 04 01 82 03 04 00 00 00 28 69 72 65 66 00 00 00 [........(iref...]
      0174: 00 00 00 00 0e 63 64 73 63 00 02 00 01 00 01 00 [.....cdsc.......]
      0184: 00 00 0e 63 64 73 63 00 03 00 01 00 01          [...cdsc......]
  + [Meta directory]
  | Handler (SubDirectory) -->
  | - Tag 'hdlr' (25 bytes):
  |     0030: 00 00 00 00 00 00 00 00 70 69 63 74 00 00 00 00 [........pict....]
  |     0040: 00 00 00 00 00 00 00 00 00                      [.........]
  | + [BinaryData directory, 25 bytes, Big-endian]
  | | HandlerClass = 
  | | - Tag 0x0004 (4 bytes, undef[4]):
  | |     0034: 00 00 00 00                                     [....]
  | | HandlerType = pict
  | | - Tag 0x0008 (4 bytes, undef[4]):
  | |     0038: 70 69 63 74                                     [pict]
  | | HandlerVendorID = 
  | | - Tag 0x000c (4 bytes, undef[4]):
  | |     003c: 00 00 00 00                                     [....]
  | | HandlerDescription = 
  | | - Tag 0x0018 (1 bytes, string[1]):
  | |     0048: 00                                              [.]
  | PrimaryItemReference = .
  | - Tag 'pitm' (6 bytes):
  |     0051: 00 00 00 00 00 01                               [......]
  | ItemLocation = D@.......L.....Fx...]...
  | - Tag 'iloc' (62 bytes):
  |     005f: 00 00 00 00 44 40 00 03 00 01 00 00 00 00 01 99 [....D@..........]
  |     006f: 00 01 00 00 00 00 00 03 e6 4c 00 02 00 00 00 03 [.........L......]
  |     007f: e7 e5 00 01 00 00 00 00 00 00 46 78 00 03 00 00 [..........Fx....]
  |     008f: 00 04 2e 5d 00 01 00 00 00 00 00 00 0a dd       [...]..........]
  |   Item 1: const_meth= base=0x199 offset=0x0 len=0x3e64c
  |   Item 2: const_meth= base=0x3e7e5 offset=0x0 len=0x4678
  |   Item 3: const_meth= base=0x42e5d offset=0x0 len=0xadd
  | ItemInformation (SubDirectory) -->
  | - Tag 'iinf' (90 bytes):
  |     00a5: 00 00 00 00 00 03 00 00 00 15 69 6e 66 65 02 00 [..........infe..]
  |     00b5: 00 00 00 01 00 00 61 76 30 31 00 00 00 00 15 69 [......av01.....i]
  |     00c5: 6e 66 65 02 00 00 01 00 02 00 00 45 78 69 66 00 [nfe........Exif.]
  |     00d5: 00 00 00 2a 69 6e 66 65 02 00 00 01 00 03 00 00 [...*infe........]
  |     00e5: 6d 69 6d 65 00 61 70 70 6c 69 63 61 74 69 6f 6e [mime.application]
  |     00f5: 2f 72 64 66 2b 78 6d 6c 00 00                   [/rdf+xml..]
  | + [ItemInformation directory]
  | | ItemInfoEntry = ..av01
  | | - Tag 'infe' (13 bytes):
  | |     00b3: 02 00 00 00 00 01 00 00 61 76 30 31 00          [........av01.]
  | |   Item 1: Type=av01 Name= ContentType= (PrimaryItem)
  | | ItemInfoEntry = ...Exif
  | | - Tag 'infe' (13 bytes):
  | |     00c8: 02 00 00 01 00 02 00 00 45 78 69 66 00          [........Exif.]
  | |   Item 2: Type=Exif Name= ContentType=
  | | ItemInfoEntry = ...mimeapplication/rdf+xml
  | | - Tag 'infe' (34 bytes):
  | |     00dd: 02 00 00 01 00 03 00 00 6d 69 6d 65 00 61 70 70 [........mime.app]
  | |     00ed: 6c 69 63 61 74 69 6f 6e 2f 72 64 66 2b 78 6d 6c [lication/rdf+xml]
  | |     00fd: 00 00                                           [..]
  | |   Item 3: Type=mime Name= ContentType=application/rdf+xml
  | ItemProperties (SubDirectory) -->
  | - Tag 'iprp' (98 bytes):
  |     0107: 00 00 00 4b 69 70 63 6f 00 00 00 13 63 6f 6c 72 [...Kipco....colr]
  |     0117: 6e 63 6c 78 00 01 00 0d 00 06 80 00 00 00 0c 61 [nclx...........a]
  |     0127: 76 31 43 81 10 0c 00 00 00 00 14 69 73 70 65 00 [v1C........ispe.]
  |     0137: 00 00 00 00 00 15 60 00 00 0e 40 00 00 00 10 70 [......`...@....p]
  |     0147: 69 78 69 00 00 00 00 03 08 08 08 00 00 00 17 69 [ixi............i]
  |     0157: 70 6d 61 00 00 00 00 00 00 00 01 00 01 04 01 82 [pma.............]
  |     0167: 03 04                                           [..]
  | + [ItemProperties directory]
  | | ItemPropertyContainer (SubDirectory) -->
  | | - Tag 'ipco' (67 bytes):
  | |     010f: 00 00 00 13 63 6f 6c 72 6e 63 6c 78 00 01 00 0d [....colrnclx....]
  | |     011f: 00 06 80 00 00 00 0c 61 76 31 43 81 10 0c 00 00 [.......av1C.....]
  | |     012f: 00 00 14 69 73 70 65 00 00 00 00 00 00 15 60 00 [...ispe.......`.]
  | |     013f: 00 0e 40 00 00 00 10 70 69 78 69 00 00 00 00 03 [..@....pixi.....]
  | |     014f: 08 08 08                                        [...]
  | | [Process ipco box later]
  | | ItemPropertyAssociation = .......
  | | - Tag 'ipma' (15 bytes):
  | |     015a: 00 00 00 00 00 00 00 01 00 01 04 01 82 03 04    [...............]
  | |   Item 1 properties: 1 2 3 4
  | ItemReference (SubDirectory) -->
  | - Tag 'iref' (32 bytes):
  |     0171: 00 00 00 00 00 00 00 0e 63 64 73 63 00 02 00 01 [........cdsc....]
  |     0181: 00 01 00 00 00 0e 63 64 73 63 00 03 00 01 00 01 [......cdsc......]
  | + [ItemReference directory]
  | | ContentDescribes = ...
  | | - Tag 'cdsc' (6 bytes):
  | |     017d: 00 02 00 01 00 01                               [......]
  | |   Item 2 refers to: 1
  | | ContentDescribes = ...
  | | - Tag 'cdsc' (6 bytes):
  | |     018b: 00 03 00 01 00 01                               [......]
  | |   Item 3 refers to: 1
  + [Processing items from ItemInformation directory with 3 entries]
  | Item 1) 'av01' (255564 bytes)
  |     0199: 12 00 0a 0b 1c 32 ea bf c7 fc 10 10 d0 68 40 32 [.....2.......h@2]
  |     01a9: b9 cc 0f 11 a0 00 28 a2 8a 14 00 72 0a 00 f4 c0 [......(....r....]
  |     01b9: c7 d4 4d f4 ad 18 c7 e1 ca 4f 8b 99 99 8a ec 10 [..M......O......]
  |     01c9: 0f 6a 23 a7 4b 4a aa 1a ec b2 47 6a f7 a6 96 23 [.j#.KJ....Gj...#]
  |     01d9: ae 1e e7 80 02 2d 6c 9f c7 b0 08 3a 47 92 97 60 [.....-l....:G..`]
  |     01e9: cc dd 1a 79 8f 31 cd 5c a1 99 b5 bb 3c f9 3f 11 [...y.1.\....<.?.]
  |     01f9: 22 d1 38 94 d4 e7 03 4b 8b 90 1d 5c 35 84 31 1a [".8....K...\5.1.]
  |     0209: e1 08 51 1d 21 f3 4a 19 05 a0 44 4b 8c 30 14 61 [..Q.!.J...DK.0.a]
  |     0219: ae c4 7b c7 f4 4f 40 f8 bc c6 57 b4 a6 04 dd 8c [..{..O@...W.....]
  |     0229: 29 cb eb 77 a4 16 b3 09 f1 e7 b5 35 36 b6 d0 06 [)..w.......56...]
  |     0239: e1 31 18 4d 21 70 b1 25 e8 83 23 00 e2 e9 ed 0d [.1.M!p.%..#.....]
  |     0249: 9f c7 63 99 7e e5 22 98 0b a0 95 9d eb 2d f3 1d [..c.~."......-..]
  |     0259: 27 76 eb a5 cd 90 06 bc 0e 26 40 11 43 08 d9 4b ['v.......&@.C..K]
  |     0269: 19 9e 24 5f 31 d7 9e a0 2f 93 fc 31 42 a2 b8 a3 [..$_1.../..1B...]
  |     0279: f8 40 be 71 a1 1e 5e 9b 57 1b c1 c9 3f 52 e3 c5 [.@.q..^.W...?R..]
  |     0289: b6 47 cc ea db 36 72 2e d9 21 bc 44 b7 bd 49 d2 [.G...6r..!.D..I.]
  |     0299: 2b 7b 4e ba 3c 15 09 24 b4 90 60 f0 cb c2 6f 41 [+{N.<..$..`...oA]
  |     02a9: 1b c3 01 02 07 a5 b2 cc dc 13 a7 39 38 5c f6 d0 [...........98\..]
  |     02b9: df 0e 5d 4a 85 e8 c8 43 92 9b 00 f3 7d a4 11 62 [..]J...C....}..b]
  |     02c9: 45 5b 96 50 4a fc c8 36 85 22 71 ab 2b de 4f 67 [E[.PJ..6."q.+.Og]
  |     02d9: 16 89 f6 12 5d 6f 9b f5 b6 ea 89 81 da 22 28 dd [....]o......."(.]
  |     02e9: 11 f5 79 ac 12 64 af 67 f8 ae bf 66 7f 0c b7 4e [..y..d.g...f...N]
  |     02f9: 99 34 ec c9 03 61 42 8e 78 da e7 13 08 50 a9 9a [.4...aB.x....P..]
  |     0309: 0d 29 ea a5 9f 32 55 96 22 20 57 09 ec dc 15 43 [.)...2U." W....C]
  |     0319: 69 8b 95 2e 6d fd f8 01 2b 7d 59 59 e9 29 ac 4f [i...m...+}YY.).O]
  |     0329: f4 c2 40 08 5e 7b b3 dd 70 ea b4 aa 23 d5 d5 52 [..@.^{..p...#..R]
  |     0339: fc a5 24 f3 40 ba 9a fa 76 0d 5a 14 34 d6 54 07 [..$.@...v.Z.4.T.]
  |     0349: 73 85 7f 41 b5 d3 e8 10 73 2d f0 a0 34 8d 9a ea [s..A....s-..4...]
  |     0359: a8 32 df 26 30 b0 95 8d 45 1a 75 c1 69 9d ac 7b [.2.&0...E.u.i..{]
  |     0369: e2 36 6c 75 c3 18 26 9c 06 90 06 7f d9 8f e0 55 [.6lu..&........U]
  |     0379: 90 3c 4a 31 cf e4 bc f5 94 51 0e cf 0e dc 03 4f [.<J1.....Q.....O]
  |     0389: 69 66 22 9a fa 7c 02 4b a3 c3 43 63 a2 c0 14 99 [if"..|.K..Cc....]
  |     0399: 3d b5 39 4a c7 dc 9f 2b 58 52 02 32 c2 d4 3a 37 [=.9J...+XR.2..:7]
  |     03a9: 1f cd c0 97 51 83 6f df ed 18 ff 90 64 ba 67 e8 [....Q.o.....d.g.]
  |     03b9: d1 a7 c7 65 2d fd 54 98 b9 a5 b1 d0 36 59 fc 78 [...e-.T.....6Y.x]
  |     03c9: a5 e9 ac ac 2e a9 cb 7d ad 0a 50 fe 97 72 8d 9b [.......}..P..r..]
  |     03d9: 3a 15 5e 40 50 94 50 53 40 d0 51 70 e2 2c 2e 43 [:.^@P.PS@.Qp.,.C]
  |     03e9: 42 54 28 af c6 ae 4f 55 28 75 26 9f 4e 26 93 77 [BT(...OU(u&.N&.w]
  |     03f9: 38 f2 c6 f6 c2 91 85 66 03 16 2d 6f c6 8e 80 80 [8......f..-o....]
  |     0409: 63 56 bc 55 03 59 cb dd 72 95 e2 45 09 eb 48 9d [cV.U.Y..r..E..H.]
  |     0419: 24 73 37 69 d6 f2 1b 70 5d cb 59 88 b9 17 85 db [$s7i...p].Y.....]
  |     0429: 31 78 f0 81 01 7a 20 dc 55 38 9e 97 90 0f 45 5f [1x...z .U8....E_]
  |     0439: 4e 49 20 cb 42 e9 65 69 fd 5c 0f 45 68 93 7a d7 [NI .B.ei.\.Eh.z.]
  |     0449: 3a 81 ec c1 ba df d6 e1 e6 2f 61 27 69 8d 3b 2f [:......../a'i.;/]
  |     0459: 90 04 f3 6c 3f 10 d7 81 0c 81 1f d8 93 68 ea 84 [...l?........h..]
  |     0469: 51 07 6f 5e b5 45 71 2b 56 b8 7a a6 e1 60 06 9e [Q.o^.Eq+V.z..`..]
  |     0479: d0 6a ef 43 a2 27 89 71 d0 0e 0e d0 4d f6 46 79 [.j.C.'.q....M.Fy]
  |     0489: 56 36 30 e0 79 c2 29 fc d2 bf 4d fb fd 55 9b c1 [V60.y.)...M..U..]
  |     0499: c8 2f a3 bc 06 ae 4b 01 69 d3 26 0a 30 fb e2 55 [./....K.i.&.0..U]
  |     04a9: 53 3a 46 9d f7 0d c2 6d e0 de fa 7d 24 f1 82 22 [S:F....m...}$.."]
  |     04b9: 4e 61 34 a5 1f 1a 5d 6b 6e 88 78 45 87 79 bb 44 [Na4...]kn.xE.y.D]
  |     04c9: db 91 ee 62 95 e9 c9 68 96 b5 9e 06 4b 75 b3 39 [...b...h....Ku.9]
  |     04d9: 26 95 28 ed cd 5d 02 85 a7 9a 22 f6 79 37 f8 ee [&.(..]....".y7..]
  |     04e9: bf e4 79 c7 10 67 a1 76 8a 5b 2a 06 2c 18 bf 85 [..y..g.v.[*.,...]
  |     04f9: ca 06 73 32 05 4e 47 00 c9 7f df 35 e1 9b 9d 20 [..s2.NG....5... ]
  |     0509: dd 63 cd 23 eb 26 92 9b cf c0 8b d0 5b f7 71 2d [.c.#.&......[.q-]
  |     0519: b5 32 91 2a a6 7a 15 86 4a 15 ae 0f 2e 72 86 7a [.2.*.z..J....r.z]
  |     0529: 48 a1 29 cc 1f e6 0b 67 ae 22 e2 a9 c8 27 b9 5c [H.)....g."...'.\]
  |     0539: 35 25 82 e2 55 e9 1c 35 d5 ae 8b 06 ee a4 58 45 [5%..U..5......XE]
  |     0549: b5 c8 2a 82 57 4a 1d 2d 37 3e 6e b7 3f 95 c7 5a [..*.WJ.-7>n.?..Z]
  |     0559: b1 6f 41 b9 14 88 2d a3 35 57 c5 53 3d 98 c1 0a [.oA...-.5W.S=...]
  |     0569: d5 c6 65 3c 44 2d 38 a5 e1 33 ff 15 9e 07 65 d7 [..e<D-8..3....e.]
  |     0579: d0 6f b9 35 c2 4c 92 9e a2 61 4d f5 f2 9c fe f4 [.o.5.L...aM.....]
  |     0589: 09 e4 ff f6 24 21 33 de c1 5f 26 81 8c e2 cb 0a [....$!3.._&.....]
  |     0599: 80 3e af 5e 46 f4 06 f7 f8 69 f5 4b fa 6c 50 3e [.>.^F....i.K.lP>]
  |     05a9: dc 62 f8 bb 32 b6 e5 78 40 af bd e2 c3 26 77 64 [.b..2..x@....&wd]
  |     05b9: 5f 24 b6 2b 08 78 16 14 78 d0 e2 a5 17 c2 2a a7 [_$.+.x..x.....*.]
  |     05c9: b7 f8 21 90 0f 3c 04 c6 d8 a1 bf 9f db 95 75 1f [..!..<........u.]
  |     05d9: 1f 34 7e f3 3d 5e 0b 12 c5 cf a2 f5 2d 57 32 7f [.4~.=^......-W2.]
  |     05e9: 10 c9 dd 36 59 f1 73 0b b2 e1 bb ed c0 b1 9d ac [...6Y.s.........]
  |     05f9: c7 7f a7 2a c5 ec d3 9d fe 03 9e 07 01 ac 3a e3 [...*..........:.]
  |     0609: 10 57 d4 e7 31 34 11 57 5b 21 10 10 ab 3c bd 81 [.W..14.W[!...<..]
  |     0619: 0e d5 cc d8 ec 1b e0 98 bb 6c b9 cb 1f e4 ec 48 [.........l.....H]
  |     0629: f6 91 16 a1 4e 7d 35 46 bf 02 d4 4f 26 5a 41 39 [....N}5F...O&ZA9]
  |     0639: 14 2d b1 3b 19 e0 7b 36 3e d2 a1 3d 94 df 64 4b [.-.;..{6>..=..dK]
  |     0649: fe 5b ea a0 64 ee 9a 46 ae d5 b1 1f cc c9 75 b1 [.[..d..F......u.]
  |     0659: ec c3 ae 7a b1 69 af 46 88 41 c2 33 af fe 37 52 [...z.i.F.A.3..7R]
  |     0669: 23 4d 80 4b e8 69 c1 91 34 79 21 77 bb f0 9f 7e [#M.K.i..4y!w...~]
  |     0679: c2 25 f1 23 42 8b 55 88 4d e6 b3 af b0 1d 1b 51 [.%.#B.U.M......Q]
  |     0689: 65 8f bf 03 af 61 6a 24 27 1f 76 0c 65 2a 85 ce [e....aj$'.v.e*..]
  |     0699: e2 f6 07 48 9a 04 71 94 ce 40 6b 15 78 16 9a 6f [...H..q..@k.x..o]
  |     06a9: b8 7b aa 12 bd f4 0b 38 96 b8 9f 33 25 92 13 23 [.{.....8...3%..#]
  |     06b9: b3 83 6c 4e ca fe 16 d7 dd 15 19 0d be a3 17 03 [..lN............]
  |     06c9: 25 ae 04 d1 1e 26 fb 65 73 2d 45 30 28 03 15 88 [%....&.es-E0(...]
  |     06d9: 31 4f 56 cf 16 e1 90 ff 52 29 8d bb 01 d6 22 67 [1OV.....R)...."g]
  |     06e9: 70 cd 33 00 d5 d8 b0 55 33 07 6e c5 2f 11 11 4d [p.3....U3.n./..M]
  |     06f9: 17 da a6 5d 90 46 ee 61 10 7b 4e bf db 0c 86 41 [...].F.a.{N....A]
  |     0709: b0 1e 33 f7 d4 53 92 6f 23 e5 6a c7 0a 68 b2 38 [..3..S.o#.j..h.8]
  |     0719: 8a 3a 96 7c c7 09 a9 9c 67 b7 02 57 df e9 dd b9 [.:.|....g..W....]
  |     0729: d5 85 31 d3 4d 75 4a 97 26 ec bb 3d d2 66 9e f5 [..1.MuJ.&..=.f..]
  |     0739: cb 1a c2 70 c9 e2 73 cd 84 fe 2a 3c da ac 0b 20 [...p..s...*<... ]
  |     0749: 4c a4 97 15 74 c5 0a 07 c9 55 7e a8 5f 96 db 57 [L...t....U~._..W]
  |     0759: 76 2a be f8 46 74 43 95 22 08 d4 b0 5d a5 b2 cd [v*..FtC."...]...]
  |     0769: 75 8f 17 15 c2 86 44 80 a7 63 2c bf cd 05 ff 84 [u.....D..c,.....]
  |     0779: 4a fe 51 08 e9 d3 cd 0b e3 f4 62 ef 23 0a e6 81 [J.Q.......b.#...]
  |     0789: e4 3b bc 11 3a 88 39 f8 31 0a 9d 5d 86 18 4c 47 [.;..:.9.1..]..LG]
  |     0799: b0 0b 1c 56 fe 2c 40 de e5 bc 59 ac c0 17 5d 87 [...V.,@...Y...].]
  |     07a9: ba 80 f0 0e 75 af 6c b2 f3 92 b3 be b7 79 db 93 [....u.l......y..]
  |     07b9: 38 00 f3 e5 71 28 84 ee e1 9e c6 ca 64 16 6a 0f [8...q(......d.j.]
  |     07c9: 39 eb ff 80 e8 38 d0 4c f9 d2 0c c7 d7 ec b9 70 [9....8.L.......p]
  |     07d9: e4 6c 69 3c bf 55 8b 6a 0b eb dd 3b 30 ea 2d 8b [.li<.U.j...;0.-.]
  |     07e9: e9 e8 68 c2 75 ef 64 2f 95 c2 67 0d bc ba da 86 [..h.u.d/..g.....]
  |     07f9: 2d b1 b0 1d 5d 86 f9 55 61 23 a8 62 39 fd 27 0f [-...]..Ua#.b9.'.]
  |     0809: 83 3b 1d ec 04 f2 f1 56 cf 92 32 12 3b fa dd fb [.;.....V..2.;...]
  |     0819: ca 4f 63 ac ad 5d bb e3 63 66 4e 8c 14 ed 98 e2 [.Oc..]..cfN.....]
  |     0829: 1c 97 c9 4d dc e3 e7 bf 24 f6 8d 3b 14 59 9b e5 [...M....$..;.Y..]
  |     0839: 95 f9 8c 1b a9 fb 79 db e7 0e e6 f8 af c1 0b e7 [......y.........]
  |     0849: 11 98 02 24 81 58 be f1 26 3b b0 4c d4 d9 70 f9 [...$.X..&;.L..p.]
  |     0859: 0b bd 6c 98 9b 12 21 69 e5 41 77 aa a5 36 4f 2f [..l...!i.Aw..6O/]
  |     0869: 1a 20 80 a9 5a 12 c3 89 64 35 f7 0c 85 b5 fa 3b [. ..Z...d5.....;]
  |     0879: e9 df b8 f7 93 99 0f a5 a3 bc 8d ee 23 0b 74 d1 [............#.t.]
  |     0889: c8 c1 f6 9d 1b 78 3a 3d d8 f7 c1 0a 17 75 9e fb [.....x:=.....u..]
  |     0899: 65 71 1f 06 ab 1d e3 aa 86 62 f2 6e 94 dd 4a b2 [eq.......b.n..J.]
  |     08a9: 26 b9 81 15 73 4e fe 2b 11 f9 b7 1e 62 8c e1 af [&...sN.+....b...]
  |     08b9: b7 2b 51 fc f7 d2 bc 83 22 cb cf 08 9f 03 23 37 [.+Q.....".....#7]
  |     08c9: 23 a7 62 2c 8b 66 d9 04 66 d7 8f ce 08 fa 92 e4 [#.b,.f..f.......]
  |     08d9: 4c 53 b9 6c ba 34 5d 0f fa 67 f4 21 94 49 e3 8b [LS.l.4]..g.!.I..]
  |     08e9: b5 7b 1c 3a 7e 38 b9 37 60 3f 57 32 25 cd 0b 6c [.{.:~8.7`?W2%..l]
  |     08f9: c0 2a 2c 46 02 55 17 36 37 47 8f 5e 79 91 2d 4f [.*,F.U.67G.^y.-O]
  |     0909: b5 64 08 1f 77 74 de 53 63 41 58 ee b8 e2 c4 ec [.d..wt.ScAX.....]
  |     0919: ce 0b 73 d1 4e 8b b9 d2 74 df 56 64 ec 44 13 7d [..s.N...t.Vd.D.}]
  |     0929: 6b b9 e9 c2 04 77 3c b2 f5 79 69 9c 43 38 38 18 [k....w<..yi.C88.]
  |     0939: cd db 9c e8 b9 ad 9e 99 3c 70 c4 32 4d 9d 93 2e [........<p.2M...]
  |     0949: 90 44 c4 e5 02 0f 51 f1 96 12 c0 d8 38 a0 e4 f6 [.D....Q.....8...]
  |     0959: b6 14 59 0f 59 5e bf 05 ba 6b c8 a8 f5 c1 7f 36 [..Y.Y^...k.....6]
  |     0969: 20 8f c0 23 96 46 41 61 e1 c1 5c 3d 42 62 eb 6e [ ..#.FAa..\=Bb.n]
  |     0979: 58 fe e3 ae 99 9f 6d 61 13 4e ef 88 8e f2 c5 08 [X.....ma.N......]
  |     0989: 59 e7 8f 36 ba 2e 0a c6 fe c8 f4 be aa 46 e5 0e [Y..6.........F..]
  |     [snip 253516 bytes]
  | Item 2) 'Exif' (18040 bytes)
  |    3e7e5: 00 00 00 06 45 78 69 66 00 00 49 49 2a 00 08 00 [....Exif..II*...]
  |    3e7f5: 00 00 0c 00 0f 01 02 00 06 00 00 00 9e 00 00 00 [................]
  |    3e805: 10 01 02 00 0e 00 00 00 a4 00 00 00 12 01 03 00 [................]
  |    3e815: 01 00 00 00 01 00 00 00 1a 01 05 00 01 00 00 00 [................]
  |    3e825: b2 00 00 00 1b 01 05 00 01 00 00 00 ba 00 00 00 [................]
  |    3e835: 28 01 03 00 01 00 00 00 02 00 00 00 32 01 02 00 [(...........2...]
  |    3e845: 14 00 00 00 c2 00 00 00 3b 01 02 00 01 00 00 00 [........;.......]
  |    3e855: 00 00 00 00 13 02 03 00 01 00 00 00 02 00 00 00 [................]
  |    3e865: 98 82 02 00 01 00 00 00 00 00 00 00 69 87 04 00 [............i...]
  |    3e875: 01 00 00 00 d6 00 00 00 25 88 04 00 01 00 00 00 [........%.......]
  |    3e885: 86 24 00 00 98 24 00 00 43 61 6e 6f 6e 00 43 61 [.$...$..Canon.Ca]
  |    3e895: 6e 6f 6e 20 45 4f 53 20 37 30 44 00 48 00 00 00 [non EOS 70D.H...]
  |    3e8a5: 01 00 00 00 48 00 00 00 01 00 00 00 32 30 31 35 [....H.......2015]
  |    3e8b5: 3a 31 30 3a 31 31 20 31 34 3a 34 31 3a 34 34 00 [:10:11 14:41:44.]
  |    3e8c5: 26 00 9a 82 05 00 01 00 00 00 a4 02 00 00 9d 82 [&...............]
  |    3e8d5: 05 00 01 00 00 00 ac 02 00 00 22 88 03 00 01 00 [..........".....]
  |    3e8e5: 00 00 02 00 00 00 27 88 03 00 01 00 00 00 90 01 [......'.........]
  |    3e8f5: 00 00 30 88 03 00 01 00 00 00 02 00 00 00 32 88 [..0...........2.]
  |    3e905: 04 00 01 00 00 00 90 01 00 00 00 90 07 00 04 00 [................]
  |    3e915: 00 00 30 32 33 30 03 90 02 00 14 00 00 00 b4 02 [..0230..........]
  |    3e925: 00 00 04 90 02 00 14 00 00 00 c8 02 00 00 01 91 [................]
  |    3e935: 07 00 04 00 00 00 01 02 03 00 01 92 0a 00 01 00 [................]
  |    3e945: 00 00 dc 02 00 00 02 92 05 00 01 00 00 00 e4 02 [................]
  |    3e955: 00 00 04 92 0a 00 01 00 00 00 ec 02 00 00 07 92 [................]
  |    3e965: 03 00 01 00 00 00 05 00 00 00 09 92 03 00 01 00 [................]
  |    3e975: 00 00 10 00 00 00 0a 92 05 00 01 00 00 00 f4 02 [................]
  |    3e985: 00 00 7c 92 07 00 08 20 00 00 fc 02 00 00 86 92 [..|.... ........]
  |    3e995: 07 00 08 01 00 00 04 23 00 00 90 92 02 00 03 00 [.......#........]
  |    3e9a5: 00 00 30 30 00 00 91 92 02 00 03 00 00 00 30 30 [..00..........00]
  |    3e9b5: 00 00 92 92 02 00 03 00 00 00 30 30 00 00 00 a0 [..........00....]
  |    3e9c5: 07 00 04 00 00 00 30 31 30 30 01 a0 03 00 01 00 [......0100......]
  |    3e9d5: 00 00 01 00 00 00 02 a0 03 00 01 00 00 00 60 15 [..............`.]
  |    3e9e5: 00 00 03 a0 03 00 01 00 00 00 40 0e 00 00 05 a0 [..........@.....]
  |    3e9f5: 04 00 01 00 00 00 68 24 00 00 0e a2 05 00 01 00 [......h$........]
  |    3ea05: 00 00 0c 24 00 00 0f a2 05 00 01 00 00 00 14 24 [...$...........$]
  |    3ea15: 00 00 10 a2 03 00 01 00 00 00 02 00 00 00 01 a4 [................]
  |    3ea25: 03 00 01 00 00 00 00 00 00 00 02 a4 03 00 01 00 [................]
  |    3ea35: 00 00 00 00 00 00 03 a4 03 00 01 00 00 00 00 00 [................]
  |    3ea45: 00 00 06 a4 03 00 01 00 00 00 00 00 00 00 30 a4 [..............0.]
  |    3ea55: 02 00 01 00 00 00 00 00 00 00 31 a4 02 00 0d 00 [..........1.....]
  |    3ea65: 00 00 1c 24 00 00 32 a4 05 00 04 00 00 00 2a 24 [...$..2.......*$]
  |    3ea75: 00 00 34 a4 02 00 11 00 00 00 4a 24 00 00 35 a4 [..4.......J$..5.]
  |    3ea85: 02 00 0b 00 00 00 5c 24 00 00 00 00 00 00 01 00 [......\$........]
  |    3ea95: 00 00 3c 00 00 00 20 00 00 00 0a 00 00 00 32 30 [..<... .......20]
  |    3eaa5: 31 35 3a 31 30 3a 31 31 20 31 34 3a 34 31 3a 34 [15:10:11 14:41:4]
  |    3eab5: 34 00 32 30 31 35 3a 31 30 3a 31 31 20 31 34 3a [4.2015:10:11 14:]
  |    3eac5: 34 31 3a 34 34 00 00 00 06 00 00 00 01 00 00 60 [41:44..........`]
  |    3ead5: 03 00 00 00 01 00 00 00 00 00 01 00 00 00 32 00 [..............2.]
  |    3eae5: 00 00 01 00 00 00 29 00 01 00 03 00 31 00 00 00 [......).....1...]
  |    3eaf5: ee 04 00 00 02 00 03 00 04 00 00 00 50 05 00 00 [............P...]
  |    3eb05: 03 00 03 00 04 00 00 00 58 05 00 00 04 00 03 00 [........X.......]
  |    3eb15: 22 00 00 00 60 05 00 00 06 00 02 00 0e 00 00 00 ["...`...........]
  |    3eb25: a4 05 00 00 07 00 02 00 18 00 00 00 b2 05 00 00 [................]
  |    3eb35: 09 00 02 00 20 00 00 00 ca 05 00 00 0d 00 07 00 [.... ...........]
  |    3eb45: 00 06 00 00 ea 05 00 00 10 00 04 00 01 00 00 00 [................]
  |    3eb55: 25 03 00 80 13 00 03 00 04 00 00 00 ea 0b 00 00 [%...............]
  |    3eb65: 19 00 03 00 01 00 00 00 01 00 00 00 26 00 03 00 [............&...]
  |    3eb75: 8b 00 00 00 f2 0b 00 00 35 00 04 00 04 00 00 00 [........5.......]
  |    3eb85: 08 0d 00 00 93 00 03 00 20 00 00 00 18 0d 00 00 [........ .......]
  |    3eb95: 95 00 02 00 4a 00 00 00 58 0d 00 00 96 00 02 00 [....J...X.......]
  |    3eba5: 10 00 00 00 a2 0d 00 00 97 00 07 00 00 04 00 00 [................]
  |    3ebb5: b2 0d 00 00 98 00 03 00 04 00 00 00 b2 11 00 00 [................]
  |    3ebc5: 99 00 04 00 74 00 00 00 ba 11 00 00 9a 00 04 00 [....t...........]
  |    3ebd5: 05 00 00 00 8a 13 00 00 a0 00 03 00 0e 00 00 00 [................]
  |    3ebe5: 9e 13 00 00 aa 00 03 00 06 00 00 00 ba 13 00 00 [................]
  |    3ebf5: b4 00 03 00 01 00 00 00 01 00 00 00 d0 00 04 00 [................]
  |    3ec05: 01 00 00 00 00 00 00 00 e0 00 03 00 11 00 00 00 [................]
  |    3ec15: c6 13 00 00 01 40 03 00 21 05 00 00 e8 13 00 00 [.....@..!.......]
  |    3ec25: 08 40 03 00 03 00 00 00 2a 1e 00 00 09 40 03 00 [.@......*....@..]
  |    3ec35: 03 00 00 00 30 1e 00 00 10 40 02 00 20 00 00 00 [....0....@.. ...]
  |    3ec45: 36 1e 00 00 11 40 07 00 fc 00 00 00 56 1e 00 00 [6....@......V...]
  |    3ec55: 12 40 02 00 20 00 00 00 52 1f 00 00 13 40 04 00 [.@.. ...R....@..]
  |    3ec65: 0b 00 00 00 72 1f 00 00 15 40 07 00 c8 01 00 00 [....r....@......]
  |    3ec75: 9e 1f 00 00 16 40 04 00 07 00 00 00 66 21 00 00 [.....@......f!..]
  |    3ec85: 18 40 04 00 07 00 00 00 82 21 00 00 19 40 07 00 [.@.......!...@..]
  |    3ec95: 1e 00 00 00 9e 21 00 00 20 40 04 00 07 00 00 00 [.....!.. @......]
  |    3eca5: bc 21 00 00 21 40 04 00 05 00 00 00 d8 21 00 00 [.!..!@.......!..]
  |    3ecb5: 24 40 04 00 35 00 00 00 ec 21 00 00 25 40 04 00 [$@..5....!..%@..]
  |    3ecc5: 09 00 00 00 c0 22 00 00 27 40 04 00 06 00 00 00 [....."..'@......]
  |    3ecd5: e4 22 00 00 00 00 00 00 62 00 02 00 00 00 03 00 [."......b.......]
  |    3ece5: 00 00 00 00 00 00 02 00 00 00 01 00 00 00 3b 00 [..............;.]
  |    3ecf5: 00 00 00 00 00 00 ff 7f 0f 00 03 00 02 00 00 00 [................]
  |    3ed05: 00 00 ff ff 3c 10 32 00 32 00 01 00 38 00 20 01 [....<.2.2...8. .]
  |    3ed15: 00 00 00 00 00 00 00 00 ff ff ff ff ff ff 00 00 [................]
  |    3ed25: 00 00 00 00 00 00 ff ff ff ff 00 00 00 00 ff 7f [................]
  |    3ed35: ff ff ff ff ff ff 00 00 ff ff 00 00 32 00 16 0b [............2...]
  |    3ed45: 24 5a 00 00 00 00 00 00 00 00 44 00 00 00 e0 00 [$Z........D.....]
  |    3ed55: 48 00 6c 00 c0 00 00 00 00 00 03 00 00 00 08 00 [H.l.............]
  |    3ed65: 08 00 95 00 00 00 00 00 00 00 00 00 00 00 01 00 [................]
  |    3ed75: 00 00 00 00 68 00 c0 00 64 00 00 00 00 00 f8 00 [....h...d.......]
  |    3ed85: ff ff ff ff ff ff ff ff 00 00 00 00 00 00 43 61 [..............Ca]
  |    3ed95: 6e 6f 6e 20 45 4f 53 20 37 30 44 00 46 69 72 6d [non EOS 70D.Firm]
  |    3eda5: 77 61 72 65 20 56 65 72 73 69 6f 6e 20 31 2e 31 [ware Version 1.1]
  |    3edb5: 2e 31 00 00 00 00 00 00 00 00 00 00 00 00 00 00 [.1..............]
  |    3edc5: 00 00 00 00 00 00 00 00 00 00 00 00 00 00 00 00 [................]
  |    3edd5: 00 00 00 00 aa aa 68 22 68 23 58 00 01 2d 01 3e [......h"h#X..-.>]
  |    3ede5: 00 03 00 00 00 00 00 00 01 00 00 06 00 00 00 95 [................]
  |    3edf5: 92 00 a6 00 af 00 a9 00 32 00 00 20 00 00 00 00 [........2.. ....]
  |    3ee05: 00 02 03 00 00 00 00 00 4a 00 32 00 73 01 bb bb [........J.2.s...]
  |    3ee15: fa 50 00 24 40 90 00 00 00 00 00 00 00 00 00 00 [.P.$@...........]
  |    3ee25: 00 00 00 00 00 00 ff 88 00 00 00 00 40 ff 00 6e [............@..n]
  |    3ee35: 00 46 00 30 00 00 00 00 00 00 00 00 00 00 00 00 [.F.0............]
  |    3ee45: 00 00 b4 8d b7 94 6e 00 00 00 00 00 00 00 00 00 [......n.........]
  |    3ee55: 01 01 00 00 00 00 02 01 00 00 00 00 00 00 00 00 [................]
  |    3ee65: 00 00 00 00 00 00 00 00 57 00 49 04 00 00 00 00 [........W.I.....]
  |    3ee75: 00 00 00 00 ff ff ff ff 0c cc cc 16 00 00 00 03 [................]
  |    3ee85: 00 00 00 00 00 00 00 00 00 00 00 00 00 00 00 00 [................]
  |    3ee95: ff 01 00 00 00 4a 00 00 00 00 00 50 14 00 00 00 [.....J.....P....]
  |    3eea5: 00 00 00 00 00 00 00 01 00 00 00 01 00 00 00 01 [................]
  |    3eeb5: 00 00 00 03 00 00 00 03 00 00 00 03 00 00 00 00 [................]
  |    3eec5: 00 00 00 01 00 00 00 00 00 00 00 01 00 00 00 87 [................]
  |    3eed5: 00 00 00 01 00 00 00 01 00 00 00 01 00 00 00 07 [................]
  |    3eee5: 00 00 00 00 00 00 03 05 03 55 55 00 00 00 00 0e [.........UU.....]
  |    3eef5: 00 00 00 00 00 00 00 00 00 00 00 00 00 03 07 07 [................]
  |    3ef05: 11 0d 00 00 00 00 00 00 00 00 00 00 00 00 00 00 [................]
  |    3ef15: 00 55 55 05 00 00 03 00 14 04 00 00 00 00 00 00 [.UU.............]
  |    3ef25: 00 00 00 00 00 00 00 00 00 00 00 00 03 02 02 00 [................]
  |    3ef35: 00 00 00 00 00 00 00 01 16 50 10 3c 00 32 00 32 [.........P.<.2.2]
  |    3ef45: 81 67 92 7f 00 ff 00 00 00 00 00 00 00 21 4e 1c [.g...........!N.]
  |    3ef55: 01 00 03 07 16 00 27 02 00 00 00 00 00 00 00 00 [......'.........]
  |    3ef65: 00 00 00 00 00 00 00 00 00 00 00 00 00 00 00 00 [................]
  |    3ef75: 00 00 00 02 00 00 00 60 15 00 00 40 0e 00 00 9c [.......`...@....]
  |    3ef85: 09 00 00 b0 05 00 00 28 02 00 00 e0 02 00 00 d0 [.......(........]
  |    3ef95: 02 00 00 e0 01 00 00 00 00 00 00 00 00 00 00 d0 [................]
  |    3efa5: 02 00 00 e0 01 00 00 d0 02 00 00 e0 01 00 00 00 [................]
  |    3efb5: 00 00 00 00 00 00 00 d0 02 00 00 e0 01 00 00 00 [................]
  |    3efc5: 00 00 00 00 00 00 00 01 00 00 00 00 00 00 00 00 [................]
  |    3efd5: 00 00 00 00 00 00 00 06 00 00 00 00 00 00 00 00 [................]
  |     [snip 15992 bytes]
  | + [TIFF directory]
  | | ExifByteOrder = II
  | | + [IFD0 directory with 12 entries, Little-endian]
  | | | 0)  Make = Canon
  | | |     - Tag 0x010f (6 bytes, string[6]):
  | | |        3e88d: 43 61 6e 6f 6e 00                               [Canon.]
  | | | 1)  Model = Canon EOS 70D
  | | |     - Tag 0x0110 (14 bytes, string[14]):
  | | |        3e893: 43 61 6e 6f 6e 20 45 4f 53 20 37 30 44 00       [Canon EOS 70D.]
  | | | 2)  Orientation = 1
  | | |     - Tag 0x0112 (2 bytes, int16u[1]):
  | | |        3e819: 01 00                                           [..]
  | | | 3)  XResolution = 72 (72/1)
  | | |     - Tag 0x011a (8 bytes, rational64u[1]):
  | | |        3e8a1: 48 00 00 00 01 00 00 00                         [H.......]
  | | | 4)  YResolution = 72 (72/1)
  | | |     - Tag 0x011b (8 bytes, rational64u[1]):
  | | |        3e8a9: 48 00 00 00 01 00 00 00                         [H.......]
  | | | 5)  ResolutionUnit = 2
  | | |     - Tag 0x0128 (2 bytes, int16u[1]):
  | | |        3e83d: 02 00                                           [..]
  | | | 6)  ModifyDate = 2015:10:11 14:41:44
  | | |     - Tag 0x0132 (20 bytes, string[20]):
  | | |        3e8b1: 32 30 31 35 3a 31 30 3a 31 31 20 31 34 3a 34 31 [2015:10:11 14:41]
  | | |        3e8c1: 3a 34 34 00                                     [:44.]
  | | | 7)  Artist = 
  | | |     - Tag 0x013b (1 bytes, string[1]):
  | | |        3e855: 00                                              [.]
  | | | 8)  YCbCrPositioning = 2
  | | |     - Tag 0x0213 (2 bytes, int16u[1]):
  | | |        3e861: 02 00                                           [..]
  | | | 9)  Copyright = 
  | | |     - Tag 0x8298 (1 bytes, string[1] read as undef[1]):
  | | |        3e86d: 00                                              [.]
  | | | 10) ExifOffset (SubDirectory) -->
  | | |     - Tag 0x8769 (4 bytes, int32u[1]):
  | | |        3e879: d6 00 00 00                                     [....]
  | | | + [ExifIFD directory with 38 entries, Little-endian]
  | | | | 0)  ExposureTime = 0.01666666667 (1/60)
  | | | |     - Tag 0x829a (8 bytes, rational64u[1]):
  | | | |        3ea93: 01 00 00 00 3c 00 00 00                         [....<...]
  | | | | 1)  FNumber = 3.2 (32/10)
  | | | |     - Tag 0x829d (8 bytes, rational64u[1]):
  | | | |        3ea9b: 20 00 00 00 0a 00 00 00                         [ .......]
  | | | | 2)  ExposureProgram = 2
  | | | |     - Tag 0x8822 (2 bytes, int16u[1]):
  | | | |        3e8e7: 02 00                                           [..]
  | | | | 3)  ISO = 400
  | | | |     - Tag 0x8827 (2 bytes, int16u[1]):
  | | | |        3e8f3: 90 01                                           [..]
  | | | | 4)  SensitivityType = 2
  | | | |     - Tag 0x8830 (2 bytes, int16u[1]):
  | | | |        3e8ff: 02 00                                           [..]
  | | | | 5)  RecommendedExposureIndex = 400
  | | | |     - Tag 0x8832 (4 bytes, int32u[1]):
  | | | |        3e90b: 90 01 00 00                                     [....]
  | | | | 6)  ExifVersion = 0230
  | | | |     - Tag 0x9000 (4 bytes, undef[4]):
  | | | |        3e917: 30 32 33 30                                     [0230]
  | | | | 7)  DateTimeOriginal = 2015:10:11 14:41:44
  | | | |     - Tag 0x9003 (20 bytes, string[20]):
  | | | |        3eaa3: 32 30 31 35 3a 31 30 3a 31 31 20 31 34 3a 34 31 [2015:10:11 14:41]
  | | | |        3eab3: 3a 34 34 00                                     [:44.]
  | | | | 8)  CreateDate = 2015:10:11 14:41:44
  | | | |     - Tag 0x9004 (20 bytes, string[20]):
  | | | |        3eab7: 32 30 31 35 3a 31 30 3a 31 31 20 31 34 3a 34 31 [2015:10:11 14:41]
  | | | |        3eac7: 3a 34 34 00                                     [:44.]
  | | | | 9)  ComponentsConfiguration = 1 2 3 0
  | | | |     - Tag 0x9101 (4 bytes, undef[4] read as int8u[4]):
  | | | |        3e93b: 01 02 03 00                                     [....]
  | | | | 10) ShutterSpeedValue = 6 (393216/65536)
  | | | |     - Tag 0x9201 (8 bytes, rational64s[1]):
  | | | |        3eacb: 00 00 06 00 00 00 01 00                         [........]
  | | | | 11) ApertureValue = 3.375 (221184/65536)
  | | | |     - Tag 0x9202 (8 bytes, rational64u[1]):
  | | | |        3ead3: 00 60 03 00 00 00 01 00                         [.`......]
  | | | | 12) ExposureCompensation = 0 (0/1)
  | | | |     - Tag 0x9204 (8 bytes, rational64s[1]):
  | | | |        3eadb: 00 00 00 00 01 00 00 00                         [........]
  | | | | 13) MeteringMode = 5
  | | | |     - Tag 0x9207 (2 bytes, int16u[1]):
  | | | |        3e96b: 05 00                                           [..]
  | | | | 14) Flash = 16
  | | | |     - Tag 0x9209 (2 bytes, int16u[1]):
  | | | |        3e977: 10 00                                           [..]
  | | | | 15) FocalLength = 50 (50/1)
  | | | |     - Tag 0x920a (8 bytes, rational64u[1]):
  | | | |        3eae3: 32 00 00 00 01 00 00 00                         [2.......]
  | | | | 16) MakerNoteCanon (SubDirectory) -->
  | | | |     - Tag 0x927c (8200 bytes, undef[8200]):
  | | | |        3eaeb: 29 00 01 00 03 00 31 00 00 00 ee 04 00 00 02 00 [).....1.........]
  | | | |        3eafb: 03 00 04 00 00 00 50 05 00 00 03 00 03 00 04 00 [......P.........]
  | | | |        3eb0b: 00 00 58 05 00 00 04 00 03 00 22 00 00 00 60 05 [..X......."...`.]
  | | | |        3eb1b: 00 00 06 00 02 00 0e 00 00 00 a4 05 00 00 07 00 [................]
  | | | |        3eb2b: 02 00 18 00 00 00 b2 05 00 00 09 00 02 00 20 00 [.............. .]
  | | | |        3eb3b: 00 00 ca 05 00 00 0d 00 07 00 00 06 00 00 ea 05 [................]
  | | | |        3eb4b: 00 00 10 00 04 00 01 00 00 00 25 03 00 80 13 00 [..........%.....]
  | | | |        3eb5b: 03 00 04 00 00 00 ea 0b 00 00 19 00 03 00 01 00 [................]
  | | | |        3eb6b: 00 00 01 00 00 00 26 00 03 00 8b 00 00 00 f2 0b [......&.........]
  | | | |        3eb7b: 00 00 35 00 04 00 04 00 00 00 08 0d 00 00 93 00 [..5.............]
  | | | |        3eb8b: 03 00 20 00 00 00 18 0d 00 00 95 00 02 00 4a 00 [.. ...........J.]
  | | | |        3eb9b: 00 00 58 0d 00 00 96 00 02 00 10 00 00 00 a2 0d [..X.............]
  | | | |        3ebab: 00 00 97 00 07 00 00 04 00 00 b2 0d 00 00 98 00 [................]
  | | | |        3ebbb: 03 00 04 00 00 00 b2 11 00 00 99 00 04 00 74 00 [..............t.]
  | | | |        3ebcb: 00 00 ba 11 00 00 9a 00 04 00 05 00 00 00 8a 13 [................]
  | | | |        3ebdb: 00 00 a0 00 03 00 0e 00 00 00 9e 13 00 00 aa 00 [................]
  | | | |        3ebeb: 03 00 06 00 00 00 ba 13 00 00 b4 00 03 00 01 00 [................]
  | | | |        3ebfb: 00 00 01 00 00 00 d0 00 04 00 01 00 00 00 00 00 [................]
  | | | |        3ec0b: 00 00 e0 00 03 00 11 00 00 00 c6 13 00 00 01 40 [...............@]
  | | | |        3ec1b: 03 00 21 05 00 00 e8 13 00 00 08 40 03 00 03 00 [..!........@....]
  | | | |        3ec2b: 00 00 2a 1e 00 00 09 40 03 00 03 00 00 00 30 1e [..*....@......0.]
  | | | |        3ec3b: 00 00 10 40 02 00 20 00 00 00 36 1e 00 00 11 40 [...@.. ...6....@]
  | | | |        3ec4b: 07 00 fc 00 00 00 56 1e 00 00 12 40 02 00 20 00 [......V....@.. .]
  | | | |        3ec5b: 00 00 52 1f 00 00 13 40 04 00 0b 00 00 00 72 1f [..R....@......r.]
  | | | |        3ec6b: 00 00 15 40 07 00 c8 01 00 00 9e 1f 00 00 16 40 [...@...........@]
  | | | |        3ec7b: 04 00 07 00 00 00 66 21 00 00 18 40 04 00 07 00 [......f!...@....]
  | | | |        3ec8b: 00 00 82 21 00 00 19 40 07 00 1e 00 00 00 9e 21 [...!...@.......!]
  | | | |        3ec9b: 00 00 20 40 04 00 07 00 00 00 bc 21 00 00 21 40 [.. @.......!..!@]
  | | | |        3ecab: 04 00 05 00 00 00 d8 21 00 00 24 40 04 00 35 00 [.......!..$@..5.]
  | | | |        3ecbb: 00 00 ec 21 00 00 25 40 04 00 09 00 00 00 c0 22 [...!..%@......."]
  | | | |        3eccb: 00 00 27 40 04 00 06 00 00 00 e4 22 00 00 00 00 [..'@......."....]
  | | | |        3ecdb: 00 00 62 00 02 00 00 00 03 00 00 00 00 00 00 00 [..b.............]
  | | | |        3eceb: 02 00 00 00 01 00 00 00 3b 00 00 00 00 00 00 00 [........;.......]
  | | | |        3ecfb: ff 7f 0f 00 03 00 02 00 00 00 00 00 ff ff 3c 10 [..............<.]
  | | | |        3ed0b: 32 00 32 00 01 00 38 00 20 01 00 00 00 00 00 00 [2.2...8. .......]
  | | | |        3ed1b: 00 00 ff ff ff ff ff ff 00 00 00 00 00 00 00 00 [................]
  | | | |        3ed2b: ff ff ff ff 00 00 00 00 ff 7f ff ff ff ff ff ff [................]
  | | | |        3ed3b: 00 00 ff ff 00 00 32 00 16 0b 24 5a 00 00 00 00 [......2...$Z....]
  | | | |        3ed4b: 00 00 00 00 44 00 00 00 e0 00 48 00 6c 00 c0 00 [....D.....H.l...]
  | | | |        3ed5b: 00 00 00 00 03 00 00 00 08 00 08 00 95 00 00 00 [................]
  | | | |        3ed6b: 00 00 00 00 00 00 00 00 01 00 00 00 00 00 68 00 [..............h.]
  | | | |        3ed7b: c0 00 64 00 00 00 00 00 f8 00 ff ff ff ff ff ff [..d.............]
  | | | |        3ed8b: ff ff 00 00 00 00 00 00 43 61 6e 6f 6e 20 45 4f [........Canon EO]
  | | | |        3ed9b: 53 20 37 30 44 00 46 69 72 6d 77 61 72 65 20 56 [S 70D.Firmware V]
  | | | |        3edab: 65 72 73 69 6f 6e 20 31 2e 31 2e 31 00 00 00 00 [ersion 1.1.1....]
  | | | |        3edbb: 00 00 00 00 00 00 00 00 00 00 00 00 00 00 00 00 [................]
  | | | |        3edcb: 00 00 00 00 00 00 00 00 00 00 00 00 00 00 aa aa [................]
  | | | |        3eddb: 68 22 68 23 58 00 01 2d 01 3e 00 03 00 00 00 00 [h"h#X..-.>......]
  | | | |        3edeb: 00 00 01 00 00 06 00 00 00 95 92 00 a6 00 af 00 [................]
  | | | |        3edfb: a9 00 32 00 00 20 00 00 00 00 00 02 03 00 00 00 [..2.. ..........]
  | | | |        3ee0b: 00 00 4a 00 32 00 73 01 bb bb fa 50 00 24 40 90 [..J.2.s....P.$@.]
  | | | |        3ee1b: 00 00 00 00 00 00 00 00 00 00 00 00 00 00 00 00 [................]
  | | | |        3ee2b: ff 88 00 00 00 00 40 ff 00 6e 00 46 00 30 00 00 [......@..n.F.0..]
  | | | |        3ee3b: 00 00 00 00 00 00 00 00 00 00 00 00 b4 8d b7 94 [................]
  | | | |        3ee4b: 6e 00 00 00 00 00 00 00 00 00 01 01 00 00 00 00 [n...............]
  | | | |        3ee5b: 02 01 00 00 00 00 00 00 00 00 00 00 00 00 00 00 [................]
  | | | |        3ee6b: 00 00 57 00 49 04 00 00 00 00 00 00 00 00 ff ff [..W.I...........]
  | | | |        3ee7b: ff ff 0c cc cc 16 00 00 00 03 00 00 00 00 00 00 [................]
  | | | |        3ee8b: 00 00 00 00 00 00 00 00 00 00 ff 01 00 00 00 4a [...............J]
  | | | |        3ee9b: 00 00 00 00 00 50 14 00 00 00 00 00 00 00 00 00 [.....P..........]
  | | | |        3eeab: 00 01 00 00 00 01 00 00 00 01 00 00 00 03 00 00 [................]
  | | | |        3eebb: 00 03 00 00 00 03 00 00 00 00 00 00 00 01 00 00 [................]
  | | | |        3eecb: 00 00 00 00 00 01 00 00 00 87 00 00 00 01 00 00 [................]
  | | | |        3eedb: 00 01 00 00 00 01 00 00 00 07 00 00 00 00 00 00 [................]
  | | | |        3eeeb: 03 05 03 55 55 00 00 00 00 0e 00 00 00 00 00 00 [...UU...........]
  | | | |        3eefb: 00 00 00 00 00 00 00 03 07 07 11 0d 00 00 00 00 [................]
  | | | |        3ef0b: 00 00 00 00 00 00 00 00 00 00 00 55 55 05 00 00 [...........UU...]
  | | | |        3ef1b: 03 00 14 04 00 00 00 00 00 00 00 00 00 00 00 00 [................]
  | | | |        3ef2b: 00 00 00 00 00 00 03 02 02 00 00 00 00 00 00 00 [................]
  | | | |        3ef3b: 00 01 16 50 10 3c 00 32 00 32 81 67 92 7f 00 ff [...P.<.2.2.g....]
  | | | |        3ef4b: 00 00 00 00 00 00 00 21 4e 1c 01 00 03 07 16 00 [.......!N.......]
  | | | |        3ef5b: 27 02 00 00 00 00 00 00 00 00 00 00 00 00 00 00 ['...............]
  | | | |        3ef6b: 00 00 00 00 00 00 00 00 00 00 00 00 00 02 00 00 [................]
  | | | |        3ef7b: 00 60 15 00 00 40 0e 00 00 9c 09 00 00 b0 05 00 [.`...@..........]
  | | | |        3ef8b: 00 28 02 00 00 e0 02 00 00 d0 02 00 00 e0 01 00 [.(..............]
  | | | |        3ef9b: 00 00 00 00 00 00 00 00 00 d0 02 00 00 e0 01 00 [................]
  | | | |        3efab: 00 d0 02 00 00 e0 01 00 00 00 00 00 00 00 00 00 [................]
  | | | |        3efbb: 00 d0 02 00 00 e0 01 00 00 00 00 00 00 00 00 00 [................]
  | | | |        3efcb: 00 01 00 00 00 00 00 00 00 00 00 00 00 00 00 00 [................]
  | | | |        3efdb: 00 06 00 00 00 00 00 00 00 00 00 00 00 ff ff ff [................]
  | | | |        3efeb: 7f ff ff ff 7f 00 00 00 00 00 00 00 00 00 02 00 [................]
  | | | |        3effb: 00 00 00 00 00 00 00 00 00 0a 02 00 01 00 01 00 [................]
  | | | |        3f00b: 00 00 02 00 00 00 00 00 00 00 00 00 00 01 00 00 [................]
  | | | |        3f01b: 00 00 00 00 00 00 00 00 00 00 00 00 00 00 00 00 [................]
  | | | |        3f02b: 01 00 00 00 00 00 00 00 00 01 01 00 31 2e 31 2e [............1.1.]
  | | | |        3f03b: 31 00 42 31 28 33 32 29 00 00 00 00 05 00 00 00 [1.B1(32)........]
  | | | |        3f04b: 00 00 00 00 a4 cd 59 00 00 00 00 00 00 00 03 80 [......Y.........]
  | | | |        3f05b: 00 00 00 00 00 00 00 00 00 00 00 00 00 00 00 00 [................]
  | | | |        3f06b: 00 00 00 00 00 00 00 00 00 00 00 00 00 00 00 00 [................]
  | | | |        3f07b: 00 8e 00 00 00 64 00 00 00 64 00 00 00 00 00 00 [.....d...d......]
  | | | |        3f08b: 00 65 17 00 00 00 00 00 00 64 00 00 00 65 00 00 [.e.......d...e..]
  | | | |        3f09b: 00 64 00 00 00 08 00 00 00 08 00 00 00 08 00 00 [.d..............]
  | | | |        3f0ab: 00 08 00 00 00 01 00 00 00 00 00 00 00 00 00 00 [................]
  | | | |        3f0bb: 00 00 00 00 00 00 00 00 00 00 00 00 00 00 00 00 [................]
  | | | |        3f0cb: 00 00 00 00 00 00 00 00 00 f4 01 00 04 00 04 74 [...............t]
  | | | |        3f0db: 02 00 00 00 00 00 00 00 00 00 00 00 00 00 00 00 [................]
  | | | |        3f0eb: 00 00 00 00 00 00 00 00 00 00 00 00 00 00 00 00 [................]
  | | | |        3f0fb: 00 00 00 00 00 f4 01 00 04 00 04 74 02 00 00 00 [...........t....]
  | | | |        3f10b: 00 00 00 00 00 00 00 00 00 00 00 00 00 00 00 00 [................]
  | | | |        3f11b: 00 00 00 00 00 00 00 00 00 00 00 00 00 00 00 00 [................]
  | | | |        3f12b: 00 f4 01 00 04 00 04 74 02 00 00 00 00 00 00 00 [.......t........]
  | | | |        3f13b: 00 00 00 00 00 00 00 00 00 00 00 00 00 00 00 00 [................]
  | | | |        3f14b: 00 00 00 00 00 00 00 00 00 00 00 00 00 f4 01 00 [................]
  | | | |        3f15b: 04 00 04 74 02 00 00 00 00 00 00 00 00 00 00 00 [...t............]
  | | | |        3f16b: 00 00 00 00 00 00 00 00 00 00 00 00 00 00 00 00 [................]
  | | | |        3f17b: 00 00 00 00 00 00 00 00 00 f4 01 00 04 00 04 74 [...............t]
  | | | |        3f18b: 02 00 00 00 00 00 00 00 00 01 00 00 00 00 00 00 [................]
  | | | |        3f19b: 00 00 00 00 00 00 00 00 00 01 00 00 00 00 00 00 [................]
  | | | |        3f1ab: 00 03 00 00 00 00 00 00 00 00 00 00 00 ef be ad [................]
  | | | |        3f1bb: de ef be ad de 00 00 00 00 02 00 00 00 00 00 00 [................]
  | | | |        3f1cb: 00 00 00 00 00 ef be ad de ef be ad de 00 00 00 [................]
  | | | |        3f1db: 00 04 00 00 00 00 00 00 00 00 00 00 00 ef be ad [................]
  | | | |        3f1eb: de ef be ad de 00 00 00 00 00 00 00 00 00 00 00 [................]
  | | | |        3f1fb: 00 00 00 00 00 ef be ad de ef be ad de 00 00 00 [................]
  | | | |        3f20b: 00 00 00 00 00 00 00 00 00 00 00 00 00 ef be ad [................]
  | | | |        3f21b: de ef be ad de 00 00 00 00 03 00 00 00 ef be ad [................]
  | | | |        3f22b: de ef be ad de 00 00 00 00 00 00 00 00 00 00 00 [................]
  | | | |        3f23b: 00 03 00 00 00 00 00 00 00 00 00 00 00 ef be ad [................]
  | | | |        3f24b: de ef be ad de 00 00 00 00 03 00 00 00 00 00 00 [................]
  | | | |        3f25b: 00 00 00 00 00 00 00 00 00 00 00 00 00 00 00 00 [................]
  | | | |        3f26b: 00 03 00 00 00 00 00 00 00 00 00 00 00 00 00 00 [................]
  | | | |        3f27b: 00 00 00 00 00 00 00 00 00 03 00 00 00 00 00 00 [................]
  | | | |        3f28b: 00 00 00 00 00 00 00 00 00 00 00 00 00 87 00 87 [................]
  | | | |        3f29b: 00 87 00 00 00 ff ff ff ff ff ff ff ff 00 00 00 [................]
  | | | |        3f2ab: 00 00 00 00 00 00 00 00 00 00 00 00 00 00 00 00 [................]
  | | | |        3f2bb: 00 00 00 00 00 00 00 00 00 00 00 00 00 00 04 00 [................]
  | | | |        3f2cb: 04 00 04 00 04 00 00 00 00 00 00 00 00 00 00 00 [................]
  | | | |         [snip 6168 bytes]
  | | | | + [MakerNotes directory with 41 entries, Little-endian]
  | | | | | 0)  CanonCameraSettings (SubDirectory) -->
  | | | | |     - Tag 0x0001 (98 bytes, int16u[49] read as undef[98]):
  | | | | |        3ecdd: 62 00 02 00 00 00 03 00 00 00 00 00 00 00 02 00 [b...............]
  | | | | |        3eced: 00 00 01 00 00 00 3b 00 00 00 00 00 00 00 ff 7f [......;.........]
  | | | | |        3ecfd: 0f 00 03 00 02 00 00 00 00 00 ff ff 3c 10 32 00 [............<.2.]
  | | | | |        3ed0d: 32 00 01 00 38 00 20 01 00 00 00 00 00 00 00 00 [2...8. .........]
  | | | | |        3ed1d: ff ff ff ff ff ff 00 00 00 00 00 00 00 00 ff ff [................]
  | | | | |        3ed2d: ff ff 00 00 00 00 ff 7f ff ff ff ff ff ff 00 00 [................]
  | | | | |        3ed3d: ff ff                                           [..]
  | | | | | + [BinaryData directory, 98 bytes, Little-endian]
  | | | | | | MacroMode = 2
  | | | | | | - Tag 0x0001 (2 bytes, int16s[1]):
  | | | | | |    3ecdf: 02 00                                           [..]
  | | | | | | SelfTimer = 0
  | | | | | | - Tag 0x0002 (2 bytes, int16s[1]):
  | | | | | |    3ece1: 00 00                                           [..]
  | | | | | | Quality = 3
  | | | | | | - Tag 0x0003 (2 bytes, int16s[1]):
  | | | | | |    3ece3: 03 00                                           [..]
  | | | | | | CanonFlashMode = 0
  | | | | | | - Tag 0x0004 (2 bytes, int16s[1]):
  | | | | | |    3ece5: 00 00                                           [..]
  | | | | | | ContinuousDrive = 0
  | | | | | | - Tag 0x0005 (2 bytes, int16s[1]):
  | | | | | |    3ece7: 00 00                                           [..]
  | | | | | | FocusMode = 2
  | | | | | | - Tag 0x0007 (2 bytes, int16s[1]):
  | | | | | |    3eceb: 02 00                                           [..]
  | | | | | | RecordMode = 1
  | | | | | | - Tag 0x0009 (2 bytes, int16s[1]):
  | | | | | |    3ecef: 01 00                                           [..]
  | | | | | | CanonImageSize = 0
  | | | | | | - Tag 0x000a (2 bytes, int16s[1]):
  | | | | | |    3ecf1: 00 00                                           [..]
  | | | | | | EasyMode = 59
  | | | | | | - Tag 0x000b (2 bytes, int16s[1]):
  | | | | | |    3ecf3: 3b 00                                           [;.]
  | | | | | | DigitalZoom = 0
  | | | | | | - Tag 0x000c (2 bytes, int16s[1]):
  | | | | | |    3ecf5: 00 00                                           [..]
  | | | | | | Contrast = 0
  | | | | | | - Tag 0x000d (2 bytes, int16s[1]):
  | | | | | |    3ecf7: 00 00                                           [..]
  | | | | | | Saturation = 0
  | | | | | | - Tag 0x000e (2 bytes, int16s[1]):
  | | | | | |    3ecf9: 00 00                                           [..]
  | | | | | | Sharpness = 32767
  | | | | | | - Tag 0x000f (2 bytes, int16s[1]):
  | | | | | |    3ecfb: ff 7f                                           [..]
  | | | | | | CameraISO = 15
  | | | | | | - Tag 0x0010 (2 bytes, int16s[1]):
  | | | | | |    3ecfd: 0f 00                                           [..]
  | | | | | | MeteringMode = 3
  | | | | | | - Tag 0x0011 (2 bytes, int16s[1]):
  | | | | | |    3ecff: 03 00                                           [..]
  | | | | | | FocusRange = 2
  | | | | | | - Tag 0x0012 (2 bytes, int16s[1]):
  | | | | | |    3ed01: 02 00                                           [..]
  | | | | | | AFPoint = 0
  | | | | | | - Tag 0x0013 (2 bytes, int16s[1]):
  | | | | | |    3ed03: 00 00                                           [..]
  | | | | | | CanonExposureMode = 0
  | | | | | | - Tag 0x0014 (2 bytes, int16s[1]):
  | | | | | |    3ed05: 00 00                                           [..]
  | | | | | | LensType = 4156
  | | | | | | - Tag 0x0016 (2 bytes, int16u[1]):
  | | | | | |    3ed09: 3c 10                                           [<.]
  | | | | | | MaxFocalLength = 50
  | | | | | | - Tag 0x0017 (2 bytes, int16u[1]):
  | | | | | |    3ed0b: 32 00                                           [2.]
  | | | | | | MinFocalLength = 50
  | | | | | | - Tag 0x0018 (2 bytes, int16u[1]):
  | | | | | |    3ed0d: 32 00                                           [2.]
  | | | | | | FocalUnits = 1
  | | | | | | - Tag 0x0019 (2 bytes, int16s[1]):
  | | | | | |    3ed0f: 01 00                                           [..]
  | | | | | | MaxAperture = 56
  | | | | | | - Tag 0x001a (2 bytes, int16s[1]):
  | | | | | |    3ed11: 38 00                                           [8.]
  | | | | | | MinAperture = 288
  | | | | | | - Tag 0x001b (2 bytes, int16s[1]):
  | | | | | |    3ed13: 20 01                                           [ .]
  | | | | | | FlashModel = 0
  | | | | | | - Tag 0x001c, mask 0x7f (2 bytes, int16s[1]):
  | | | | | |    3ed15: 00 00                                           [..]
  | | | | | | FlashBits = 0
  | | | | | | - Tag 0x001d (2 bytes, int16s[1]):
  | | | | | |    3ed17: 00 00                                           [..]
  | | | | | | FocusContinuous = -1
  | | | | | | - Tag 0x0020 (2 bytes, int16s[1]):
  | | | | | |    3ed1d: ff ff                                           [..]
  | | | | | | AESetting = -1
  | | | | | | - Tag 0x0021 (2 bytes, int16s[1]):
  | | | | | |    3ed1f: ff ff                                           [..]
  | | | | | | ImageStabilization = -1
  | | | | | | - Tag 0x0022 (2 bytes, int16s[1]):
  | | | | | |    3ed21: ff ff                                           [..]
  | | | | | | DisplayAperture = 0
  | | | | | | - Tag 0x0023 (2 bytes, int16s[1]):
  | | | | | |    3ed23: 00 00                                           [..]
  | | | | | | ZoomSourceWidth = 0
  | | | | | | - Tag 0x0024 (2 bytes, int16s[1]):
  | | | | | |    3ed25: 00 00                                           [..]
  | | | | | | ZoomTargetWidth = 0
  | | | | | | - Tag 0x0025 (2 bytes, int16s[1]):
  | | | | | |    3ed27: 00 00                                           [..]
  | | | | | | SpotMeteringMode = -1
  | | | | | | - Tag 0x0027 (2 bytes, int16s[1]):
  | | | | | |    3ed2b: ff ff                                           [..]
  | | | | | | PhotoEffect = -1
  | | | | | | - Tag 0x0028 (2 bytes, int16s[1]):
  | | | | | |    3ed2d: ff ff                                           [..]
  | | | | | | ManualFlashOutput = 0
  | | | | | | - Tag 0x0029 (2 bytes, int16s[1]):
  | | | | | |    3ed2f: 00 00                                           [..]
  | | | | | | ColorTone = 0
  | | | | | | - Tag 0x002a (2 bytes, int16s[1]):
  | | | | | |    3ed31: 00 00                                           [..]
  | | | | | | SRAWQuality = -1
  | | | | | | - Tag 0x002e (2 bytes, int16s[1]):
  | | | | | |    3ed39: ff ff                                           [..]
  | | | | | 1)  CanonFocalLength (SubDirectory) -->
  | | | | |     - Tag 0x0002 (8 bytes, int16u[4] read as undef[8]):
  | | | | |        3ed3f: 00 00 32 00 16 0b 24 5a                         [..2...$Z]
  | | | | | + [BinaryData directory, 8 bytes, Little-endian]
  | | | | | | FocalType = 0
  | | | | | | - Tag 0x0000 (2 bytes, int16u[1]):
  | | | | | |    3ed3f: 00 00                                           [..]
  | | | | | | FocalLength = 50
  | | | | | | - Tag 0x0001 (2 bytes, int16u[1]):
  | | | | | |    3ed41: 32 00                                           [2.]
  | | | | | | FocalPlaneXUnknown = 2838
  | | | | | | - Tag 0x0002 (2 bytes, int16u[1]):
  | | | | | |    3ed43: 16 0b                                           [..]
  | | | | | | FocalPlaneYUnknown = 23076
  | | | | | | - Tag 0x0003 (2 bytes, int16u[1]):
  | | | | | |    3ed45: 24 5a                                           [$Z]
  | | | | | 2)  CanonFlashInfo = 0 0 0 0
  | | | | |     - Tag 0x0003 (8 bytes, int16u[4]):
  | | | | |        3ed47: 00 00 00 00 00 00 00 00                         [........]
  | | | | | 3)  CanonShotInfo (SubDirectory) -->
  | | | | |     - Tag 0x0004 (68 bytes, int16u[34] read as undef[68]):
  | | | | |        3ed4f: 44 00 00 00 e0 00 48 00 6c 00 c0 00 00 00 00 00 [D.....H.l.......]
  | | | | |        3ed5f: 03 00 00 00 08 00 08 00 95 00 00 00 00 00 00 00 [................]
  | | | | |        3ed6f: 00 00 00 00 01 00 00 00 00 00 68 00 c0 00 64 00 [..........h...d.]
  | | | | |        3ed7f: 00 00 00 00 f8 00 ff ff ff ff ff ff ff ff 00 00 [................]
  | | | | |        3ed8f: 00 00 00 00                                     [....]
  | | | | | + [BinaryData directory, 68 bytes, Little-endian]
  | | | | | | AutoISO = 0
  | | | | | | - Tag 0x0001 (2 bytes, int16s[1]):
  | | | | | |    3ed51: 00 00                                           [..]
  | | | | | | BaseISO = 224
  | | | | | | - Tag 0x0002 (2 bytes, int16s[1]):
  | | | | | |    3ed53: e0 00                                           [..]
  | | | | | | MeasuredEV = 72
  | | | | | | - Tag 0x0003 (2 bytes, int16s[1]):
  | | | | | |    3ed55: 48 00                                           [H.]
  | | | | | | TargetAperture = 108
  | | | | | | - Tag 0x0004 (2 bytes, int16s[1]):
  | | | | | |    3ed57: 6c 00                                           [l.]
  | | | | | | TargetExposureTime = 192
  | | | | | | - Tag 0x0005 (2 bytes, int16s[1]):
  | | | | | |    3ed59: c0 00                                           [..]
  | | | | | | ExposureCompensation = 0
  | | | | | | - Tag 0x0006 (2 bytes, int16s[1]):
  | | | | | |    3ed5b: 00 00                                           [..]
  | | | | | | WhiteBalance = 0
  | | | | | | - Tag 0x0007 (2 bytes, int16s[1]):
  | | | | | |    3ed5d: 00 00                                           [..]
  | | | | | | SlowShutter = 3
  | | | | | | - Tag 0x0008 (2 bytes, int16s[1]):
  | | | | | |    3ed5f: 03 00                                           [..]
  | | | | | | SequenceNumber = 0
  | | | | | | - Tag 0x0009 (2 bytes, int16s[1]):
  | | | | | |    3ed61: 00 00                                           [..]
  | | | | | | OpticalZoomCode = 8
  | | | | | | - Tag 0x000a (2 bytes, int16s[1]):
  | | | | | |    3ed63: 08 00                                           [..]
  | | | | | | CameraTemperature = 149
  | | | | | | - Tag 0x000c (2 bytes, int16s[1]):
  | | | | | |    3ed67: 95 00                                           [..]
  | | | | | | FlashGuideNumber = 0
  | | | | | | - Tag 0x000d (2 bytes, int16s[1]):
  | | | | | |    3ed69: 00 00                                           [..]
  | | | | | | AFPointsInFocus = 0
  | | | | | | - Tag 0x000e (2 bytes, int16s[1]):
  | | | | | |    3ed6b: 00 00                                           [..]
  | | | | | | FlashExposureComp = 0
  | | | | | | - Tag 0x000f (2 bytes, int16s[1]):
  | | | | | |    3ed6d: 00 00                                           [..]
  | | | | | | AutoExposureBracketing = 0
  | | | | | | - Tag 0x0010 (2 bytes, int16s[1]):
  | | | | | |    3ed6f: 00 00                                           [..]
  | | | | | | AEBBracketValue = 0
  | | | | | | - Tag 0x0011 (2 bytes, int16s[1]):
  | | | | | |    3ed71: 00 00                                           [..]
  | | | | | | ControlMode = 1
  | | | | | | - Tag 0x0012 (2 bytes, int16s[1]):
  | | | | | |    3ed73: 01 00                                           [..]
  | | | | | | FocusDistanceUpper = 0
  | | | | | | - Tag 0x0013 (2 bytes, int16u[1]):
  | | | | | |    3ed75: 00 00                                           [..]
  | | | | | | FNumber = 104
  | | | | | | - Tag 0x0015 (2 bytes, int16s[1]):
  | | | | | |    3ed79: 68 00                                           [h.]
  | | | | | | ExposureTime = 192
  | | | | | | - Tag 0x0016 (2 bytes, int16s[1]):
  | | | | | |    3ed7b: c0 00                                           [..]
  | | | | | | MeasuredEV2 = 100
  | | | | | | - Tag 0x0017 (2 bytes, int16s[1]):
  | | | | | |    3ed7d: 64 00                                           [d.]
  | | | | | | BulbDuration = 0
  | | | | | | - Tag 0x0018 (2 bytes, int16s[1]):
  | | | | | |    3ed7f: 00 00                                           [..]
  | | | | | | CameraType = 248
  | | | | | | - Tag 0x001a (2 bytes, int16s[1]):
  | | | | | |    3ed83: f8 00                                           [..]
  | | | | | | AutoRotate = -1
  | | | | | | - Tag 0x001b (2 bytes, int16s[1]):
  | | | | | |    3ed85: ff ff                                           [..]
  | | | | | | NDFilter = -1
  | | | | | | - Tag 0x001c (2 bytes, int16s[1]):
  | | | | | |    3ed87: ff ff                                           [..]
  | | | | | | SelfTimer2 = -1
  | | | | | | - Tag 0x001d (2 bytes, int16s[1]):
  | | | | | |    3ed89: ff ff                                           [..]
  | | | | | | FlashOutput = 0
  | | | | | | - Tag 0x0021 (2 bytes, int16s[1]):
  | | | | | |    3ed91: 00 00                                           [..]
  | | | | | 4)  CanonImageType = Canon EOS 70D
  | | | | |     - Tag 0x0006 (14 bytes, string[14]):
  | | | | |        3ed93: 43 61 6e 6f 6e 20 45 4f 53 20 37 30 44 00       [Canon EOS 70D.]
  | | | | | 5)  CanonFirmwareVersion = Firmware Version 1.1.1
  | | | | |     - Tag 0x0007 (24 bytes, string[24]):
  | | | | |        3eda1: 46 69 72 6d 77 61 72 65 20 56 65 72 73 69 6f 6e [Firmware Version]
  | | | | |        3edb1: 20 31 2e 31 2e 31 00 00                         [ 1.1.1..]
  | | | | | 6)  OwnerName = 
  | | | | |     - Tag 0x0009 (32 bytes, string[32]):
  | | | | |        3edb9: 00 00 00 00 00 00 00 00 00 00 00 00 00 00 00 00 [................]
  | | | | |        3edc9: 00 00 00 00 00 00 00 00 00 00 00 00 00 00 00 00 [................]
  | | | | | 7)  CanonCameraInfo70D (SubDirectory) -->
  | | | | |     - Tag 0x000d (1536 bytes, undef[1536]):
  | | | | |        3edd9: aa aa 68 22 68 23 58 00 01 2d 01 3e 00 03 00 00 [..h"h#X..-.>....]
  | | | | |        3ede9: 00 00 00 00 01 00 00 06 00 00 00 95 92 00 a6 00 [................]
  | | | | |        3edf9: af 00 a9 00 32 00 00 20 00 00 00 00 00 02 03 00 [....2.. ........]
  | | | | |        3ee09: 00 00 00 00 4a 00 32 00 73 01 bb bb fa 50 00 24 [....J.2.s....P.$]
  | | | | |        3ee19: 40 90 00 00 00 00 00 00 00 00 00 00 00 00 00 00 [@...............]
  | | | | |        3ee29: 00 00 ff 88 00 00 00 00 40 ff 00 6e 00 46 00 30 [........@..n.F.0]
  | | | | |        3ee39: 00 00 00 00 00 00 00 00 00 00 00 00 00 00 b4 8d [................]
  | | | | |        3ee49: b7 94 6e 00 00 00 00 00 00 00 00 00 01 01 00 00 [..n.............]
  | | | | |        3ee59: 00 00 02 01 00 00 00 00 00 00 00 00 00 00 00 00 [................]
  | | | | |        3ee69: 00 00 00 00 57 00 49 04 00 00 00 00 00 00 00 00 [....W.I.........]
  | | | | |        3ee79: ff ff ff ff 0c cc cc 16 00 00 00 03 00 00 00 00 [................]
  | | | | |        3ee89: 00 00 00 00 00 00 00 00 00 00 00 00 ff 01 00 00 [................]
  | | | | |        3ee99: 00 4a 00 00 00 00 00 50 14 00 00 00 00 00 00 00 [.J.....P........]
  | | | | |        3eea9: 00 00 00 01 00 00 00 01 00 00 00 01 00 00 00 03 [................]
  | | | | |        3eeb9: 00 00 00 03 00 00 00 03 00 00 00 00 00 00 00 01 [................]
  | | | | |        3eec9: 00 00 00 00 00 00 00 01 00 00 00 87 00 00 00 01 [................]
  | | | | |        3eed9: 00 00 00 01 00 00 00 01 00 00 00 07 00 00 00 00 [................]
  | | | | |        3eee9: 00 00 03 05 03 55 55 00 00 00 00 0e 00 00 00 00 [.....UU.........]
  | | | | |        3eef9: 00 00 00 00 00 00 00 00 00 03 07 07 11 0d 00 00 [................]
  | | | | |        3ef09: 00 00 00 00 00 00 00 00 00 00 00 00 00 55 55 05 [.............UU.]
  | | | | |        3ef19: 00 00 03 00 14 04 00 00 00 00 00 00 00 00 00 00 [................]
  | | | | |        3ef29: 00 00 00 00 00 00 00 00 03 02 02 00 00 00 00 00 [................]
  | | | | |        3ef39: 00 00 00 01 16 50 10 3c 00 32 00 32 81 67 92 7f [.....P.<.2.2.g..]
  | | | | |        3ef49: 00 ff 00 00 00 00 00 00 00 21 4e 1c 01 00 03 07 [.........!N.....]
  | | | | |        3ef59: 16 00 27 02 00 00 00 00 00 00 00 00 00 00 00 00 [..'.............]
  | | | | |        3ef69: 00 00 00 00 00 00 00 00 00 00 00 00 00 00 00 02 [................]
  | | | | |        3ef79: 00 00 00 60 15 00 00 40 0e 00 00 9c 09 00 00 b0 [...`...@........]
  | | | | |        3ef89: 05 00 00 28 02 00 00 e0 02 00 00 d0 02 00 00 e0 [...(............]
  | | | | |        3ef99: 01 00 00 00 00 00 00 00 00 00 00 d0 02 00 00 e0 [................]
  | | | | |        3efa9: 01 00 00 d0 02 00 00 e0 01 00 00 00 00 00 00 00 [................]
  | | | | |        3efb9: 00 00 00 d0 02 00 00 e0 01 00 00 00 00 00 00 00 [................]
  | | | | |        3efc9: 00 00 00 01 00 00 00 00 00 00 00 00 00 00 00 00 [................]
  | | | | |        3efd9: 00 00 00 06 00 00 00 00 00 00 00 00 00 00 00 ff [................]
  | | | | |        3efe9: ff ff 7f ff ff ff 7f 00 00 00 00 00 00 00 00 00 [................]
  | | | | |        3eff9: 02 00 00 00 00 00 00 00 00 00 00 0a 02 00 01 00 [................]
  | | | | |        3f009: 01 00 00 00 02 00 00 00 00 00 00 00 00 00 00 01 [................]
  | | | | |        3f019: 00 00 00 00 00 00 00 00 00 00 00 00 00 00 00 00 [................]
  | | | | |        3f029: 00 00 01 00 00 00 00 00 00 00 00 01 01 00 31 2e [..............1.]
  | | | | |        3f039: 31 2e 31 00 42 31 28 33 32 29 00 00 00 00 05 00 [1.1.B1(32)......]
  | | | | |        3f049: 00 00 00 00 00 00 a4 cd 59 00 00 00 00 00 00 00 [........Y.......]
  | | | | |        3f059: 03 80 00 00 00 00 00 00 00 00 00 00 00 00 00 00 [................]
  | | | | |        3f069: 00 00 00 00 00 00 00 00 00 00 00 00 00 00 00 00 [................]
  | | | | |        3f079: 00 00 00 8e 00 00 00 64 00 00 00 64 00 00 00 00 [.......d...d....]
  | | | | |        3f089: 00 00 00 65 17 00 00 00 00 00 00 64 00 00 00 65 [...e.......d...e]
  | | | | |        3f099: 00 00 00 64 00 00 00 08 00 00 00 08 00 00 00 08 [...d............]
  | | | | |        3f0a9: 00 00 00 08 00 00 00 01 00 00 00 00 00 00 00 00 [................]
  | | | | |        3f0b9: 00 00 00 00 00 00 00 00 00 00 00 00 00 00 00 00 [................]
  | | | | |        3f0c9: 00 00 00 00 00 00 00 00 00 00 00 f4 01 00 04 00 [................]
  | | | | |        3f0d9: 04 74 02 00 00 00 00 00 00 00 00 00 00 00 00 00 [.t..............]
  | | | | |        3f0e9: 00 00 00 00 00 00 00 00 00 00 00 00 00 00 00 00 [................]
  | | | | |        3f0f9: 00 00 00 00 00 00 00 f4 01 00 04 00 04 74 02 00 [.............t..]
  | | | | |        3f109: 00 00 00 00 00 00 00 00 00 00 00 00 00 00 00 00 [................]
  | | | | |        3f119: 00 00 00 00 00 00 00 00 00 00 00 00 00 00 00 00 [................]
  | | | | |        3f129: 00 00 00 f4 01 00 04 00 04 74 02 00 00 00 00 00 [.........t......]
  | | | | |        3f139: 00 00 00 00 00 00 00 00 00 00 00 00 00 00 00 00 [................]
  | | | | |        3f149: 00 00 00 00 00 00 00 00 00 00 00 00 00 00 00 f4 [................]
  | | | | |        3f159: 01 00 04 00 04 74 02 00 00 00 00 00 00 00 00 00 [.....t..........]
  | | | | |        3f169: 00 00 00 00 00 00 00 00 00 00 00 00 00 00 00 00 [................]
  | | | | |        3f179: 00 00 00 00 00 00 00 00 00 00 00 f4 01 00 04 00 [................]
  | | | | |        3f189: 04 74 02 00 00 00 00 00 00 00 00 01 00 00 00 00 [.t..............]
  | | | | |        3f199: 00 00 00 00 00 00 00 00 00 00 00 01 00 00 00 00 [................]
  | | | | |        3f1a9: 00 00 00 03 00 00 00 00 00 00 00 00 00 00 00 ef [................]
  | | | | |        3f1b9: be ad de ef be ad de 00 00 00 00 02 00 00 00 00 [................]
  | | | | |        3f1c9: 00 00 00 00 00 00 00 ef be ad de ef be ad de 00 [................]
  | | | | |        3f1d9: 00 00 00 04 00 00 00 00 00 00 00 00 00 00 00 ef [................]
  | | | | |        3f1e9: be ad de ef be ad de 00 00 00 00 00 00 00 00 00 [................]
  | | | | |        3f1f9: 00 00 00 00 00 00 00 ef be ad de ef be ad de 00 [................]
  | | | | |        3f209: 00 00 00 00 00 00 00 00 00 00 00 00 00 00 00 ef [................]
  | | | | |        3f219: be ad de ef be ad de 00 00 00 00 03 00 00 00 ef [................]
  | | | | |        3f229: be ad de ef be ad de 00 00 00 00 00 00 00 00 00 [................]
  | | | | |        3f239: 00 00 00 03 00 00 00 00 00 00 00 00 00 00 00 ef [................]
  | | | | |        3f249: be ad de ef be ad de 00 00 00 00 03 00 00 00 00 [................]
  | | | | |        3f259: 00 00 00 00 00 00 00 00 00 00 00 00 00 00 00 00 [................]
  | | | | |        3f269: 00 00 00 03 00 00 00 00 00 00 00 00 00 00 00 00 [................]
  | | | | |        3f279: 00 00 00 00 00 00 00 00 00 00 00 03 00 00 00 00 [................]
  | | | | |        3f289: 00 00 00 00 00 00 00 00 00 00 00 00 00 00 00 87 [................]
  | | | | |        3f299: 00 87 00 87 00 00 00 ff ff ff ff ff ff ff ff 00 [................]
  | | | | |        3f2a9: 00 00 00 00 00 00 00 00 00 00 00 00 00 00 00 00 [................]
  | | | | |        3f2b9: 00 00 00 00 00 00 00 00 00 00 00 00 00 00 00 00 [................]
  | | | | |        3f2c9: 04 00 04 00 04 00 04 00 00 00 00 00 00 00 00 00 [................]
  | | | | |        3f2d9: 00 00 00 00 00 00 00 00 00 00 00 00 00 00 00 00 [................]
  | | | | |        3f2e9: 00 00 00 00 00 00 00 00 04 00 04 00 04 00 04 00 [................]
  | | | | |        3f2f9: 00 00 00 00 00 00 00 00 00 00 00 00 00 00 00 00 [................]
  | | | | |        3f309: 00 00 00 00 00 00 00 00 00 00 00 00 00 00 00 00 [................]
  | | | | |        3f319: 04 00 04 00 04 00 04 00 00 00 00 00 00 00 00 00 [................]
  | | | | |        3f329: 00 00 00 00 00 00 00 00 00 00 00 00 00 00 00 00 [................]
  | | | | |        3f339: 00 00 00 00 00 00 00 00 04 00 04 00 04 00 04 00 [................]
  | | | | |        3f349: 00 00 00 00 00 00 00 00 00 00 00 00 00 00 00 00 [................]
  | | | | |        3f359: 00 00 00 00 00 00 00 00 00 00 00 00 00 00 00 00 [................]
  | | | | |        3f369: 04 00 04 00 04 00 04 00 00 00 00 00 00 00 00 28 [...............(]
  | | | | |        3f379: 75 1a 56 02 00 00 00 04 00 00 00 00 00 00 00 04 [u.V.............]
  | | | | |        3f389: 00 00 00 00 00 00 00 04 00 00 00 00 00 00 00 00 [................]
  | | | | |        3f399: 00 00 10 00 00 00 00 00 00 00 00 00 00 00 00 00 [................]
  | | | | |        3f3a9: 37 00 00 d8 3a 01 00 00 00 00 00 00 00 00 00 00 [7...:...........]
  | | | | |        3f3b9: 00 00 00 03 00 00 00 53 00 00 00 58 00 03 80 00 [.......S...X....]
  | | | | |        3f3c9: 00 00 00 03 00 00 00 4d 00 00 00 4e 00 00 00 00 [.......M...N....]
  | | | | | + [BinaryData directory, 1536 bytes, Little-endian]
  | | | | | | FNumber = 34
  | | | | | | - Tag 0x0003 (1 bytes, int8u[1]):
  | | | | | |    3eddc: 22                                              ["]
  | | | | | | ExposureTime = 104
  | | | | | | - Tag 0x0004 (1 bytes, int8u[1]):
  | | | | | |    3eddd: 68                                              [h]
  | | | | | | ISO = 88
  | | | | | | - Tag 0x0006 (1 bytes, int8u[1]):
  | | | | | |    3eddf: 58                                              [X]
  | | | | | | CameraTemperature = 149
  | | | | | | - Tag 0x001b (1 bytes, int8u[1]):
  | | | | | |    3edf4: 95                                              [.]
  | | | | | | FocalLength = 50
  | | | | | | - Tag 0x0023 (2 bytes, int16uRev[1]):
  | | | | | |    3edfc: 00 32                                           [.2]
  | | | | | | CameraOrientation = 0
  | | | | | | - Tag 0x0084 (1 bytes, int8u[1]):
  | | | | | |    3ee5d: 00                                              [.]
  | | | | | | FocusDistanceUpper = 87
  | | | | | | - Tag 0x0093 (2 bytes, int16uRev[1]):
  | | | | | |    3ee6c: 00 57                                           [.W]
  | | | | | | FocusDistanceLower = 73
  | | | | | | - Tag 0x0095 (2 bytes, int16uRev[1]):
  | | | | | |    3ee6e: 00 49                                           [.I]
  | | | | | | ColorTemperature = 5200
  | | | | | | - Tag 0x00c7 (2 bytes, int16u[1]):
  | | | | | |    3eea0: 50 14                                           [P.]
  | | | | | | LensType = 4156
  | | | | | | - Tag 0x0166 (2 bytes, int16uRev[1]):
  | | | | | |    3ef3f: 10 3c                                           [.<]
  | | | | | | MinFocalLength = 50
  | | | | | | - Tag 0x0168 (2 bytes, int16uRev[1]):
  | | | | | |    3ef41: 00 32                                           [.2]
  | | | | | | MaxFocalLength = 50
  | | | | | | - Tag 0x016a (2 bytes, int16uRev[1]):
  | | | | | |    3ef43: 00 32                                           [.2]
  | | | | | | FirmwareVersion = 1.1.1
  | | | | | | - Tag 0x025e (6 bytes, string[6]):
  | | | | | |    3f037: 31 2e 31 2e 31 00                               [1.1.1.]
  | | | | | | FileIndex = 5989
  | | | | | | - Tag 0x02b3 (4 bytes, int32u[1]):
  | | | | | |    3f08c: 65 17 00 00                                     [e...]
  | | | | | | DirectoryIndex = 101
  | | | | | | - Tag 0x02bf (4 bytes, int32u[1]):
  | | | | | |    3f098: 65 00 00 00                                     [e...]
  | | | | | | PictureStyleInfo (SubDirectory) -->
  | | | | | | - Tag 0x03cf (561 bytes, int8u[1]):
  | | | | | |    3f1a8: 00 00 00 00 03 00 00 00 00 00 00 00 00 00 00 00 [................]
  | | | | | |    3f1b8: ef be ad de ef be ad de 00 00 00 00 02 00 00 00 [................]
  | | | | | |    3f1c8: 00 00 00 00 00 00 00 00 ef be ad de ef be ad de [................]
  | | | | | |    3f1d8: 00 00 00 00 04 00 00 00 00 00 00 00 00 00 00 00 [................]
  | | | | | |    3f1e8: ef be ad de ef be ad de 00 00 00 00 00 00 00 00 [................]
  | | | | | |    3f1f8: 00 00 00 00 00 00 00 00 ef be ad de ef be ad de [................]
  | | | | | |    3f208: 00 00 00 00 00 00 00 00 00 00 00 00 00 00 00 00 [................]
  | | | | | |    3f218: ef be ad de ef be ad de 00 00 00 00 03 00 00 00 [................]
  | | | | | |    3f228: ef be ad de ef be ad de 00 00 00 00 00 00 00 00 [................]
  | | | | | |    3f238: 00 00 00 00 03 00 00 00 00 00 00 00 00 00 00 00 [................]
  | | | | | |    3f248: ef be ad de ef be ad de 00 00 00 00 03 00 00 00 [................]
  | | | | | |    3f258: 00 00 00 00 00 00 00 00 00 00 00 00 00 00 00 00 [................]
  | | | | | |    3f268: 00 00 00 00 03 00 00 00 00 00 00 00 00 00 00 00 [................]
  | | | | | |    3f278: 00 00 00 00 00 00 00 00 00 00 00 00 03 00 00 00 [................]
  | | | | | |    3f288: 00 00 00 00 00 00 00 00 00 00 00 00 00 00 00 00 [................]
  | | | | | |    3f298: 87 00 87 00 87 00 00 00 ff ff ff ff ff ff ff ff [................]
  | | | | | |    3f2a8: 00 00 00 00 00 00 00 00 00 00 00 00 00 00 00 00 [................]
  | | | | | |    3f2b8: 00 00 00 00 00 00 00 00 00 00 00 00 00 00 00 00 [................]
  | | | | | |    3f2c8: 00 04 00 04 00 04 00 04 00 00 00 00 00 00 00 00 [................]
  | | | | | |    3f2d8: 00 00 00 00 00 00 00 00 00 00 00 00 00 00 00 00 [................]
  | | | | | |    3f2e8: 00 00 00 00 00 00 00 00 00 04 00 04 00 04 00 04 [................]
  | | | | | |    3f2f8: 00 00 00 00 00 00 00 00 00 00 00 00 00 00 00 00 [................]
  | | | | | |    3f308: 00 00 00 00 00 00 00 00 00 00 00 00 00 00 00 00 [................]
  | | | | | |    3f318: 00 04 00 04 00 04 00 04 00 00 00 00 00 00 00 00 [................]
  | | | | | |    3f328: 00 00 00 00 00 00 00 00 00 00 00 00 00 00 00 00 [................]
  | | | | | |    3f338: 00 00 00 00 00 00 00 00 00 04 00 04 00 04 00 04 [................]
  | | | | | |    3f348: 00 00 00 00 00 00 00 00 00 00 00 00 00 00 00 00 [................]
  | | | | | |    3f358: 00 00 00 00 00 00 00 00 00 00 00 00 00 00 00 00 [................]
  | | | | | |    3f368: 00 04 00 04 00 04 00 04 00 00 00 00 00 00 00 00 [................]
  | | | | | |    3f378: 28 75 1a 56 02 00 00 00 04 00 00 00 00 00 00 00 [(u.V............]
  | | | | | |    3f388: 04 00 00 00 00 00 00 00 04 00 00 00 00 00 00 00 [................]
  | | | | | |    3f398: 00 00 00 10 00 00 00 00 00 00 00 00 00 00 00 00 [................]
  | | | | | |    3f3a8: 00 37 00 00 d8 3a 01 00 00 00 00 00 00 00 00 00 [.7...:..........]
  | | | | | |    3f3b8: 00 00 00 00 03 00 00 00 53 00 00 00 58 00 03 80 [........S...X...]
  | | | | | |    3f3c8: 00 00 00 00 03 00 00 00 4d 00 00 00 4e 00 00 00 [........M...N...]
  | | | | | |    3f3d8: 00                                              [.]
  | | | | | | + [BinaryData directory, 561 bytes, Little-endian]
  | | | | | | | ContrastStandard = 0
  | | | | | | | - Tag 0x0000 (4 bytes, int32s[1]):
  | | | | | | |    3f1a8: 00 00 00 00                                     [....]
  | | | | | | | SharpnessStandard = 3
  | | | | | | | - Tag 0x0004 (4 bytes, int32s[1]):
  | | | | | | |    3f1ac: 03 00 00 00                                     [....]
  | | | | | | | SaturationStandard = 0
  | | | | | | | - Tag 0x0008 (4 bytes, int32s[1]):
  | | | | | | |    3f1b0: 00 00 00 00                                     [....]
  | | | | | | | ColorToneStandard = 0
  | | | | | | | - Tag 0x000c (4 bytes, int32s[1]):
  | | | | | | |    3f1b4: 00 00 00 00                                     [....]
  | | | | | | | FilterEffectStandard = -559038737
  | | | | | | | - Tag 0x0010 (4 bytes, int32s[1]):
  | | | | | | |    3f1b8: ef be ad de                                     [....]
  | | | | | | | ToningEffectStandard = -559038737
  | | | | | | | - Tag 0x0014 (4 bytes, int32s[1]):
  | | | | | | |    3f1bc: ef be ad de                                     [....]
  | | | | | | | ContrastPortrait = 0
  | | | | | | | - Tag 0x0018 (4 bytes, int32s[1]):
  | | | | | | |    3f1c0: 00 00 00 00                                     [....]
  | | | | | | | SharpnessPortrait = 2
  | | | | | | | - Tag 0x001c (4 bytes, int32s[1]):
  | | | | | | |    3f1c4: 02 00 00 00                                     [....]
  | | | | | | | SaturationPortrait = 0
  | | | | | | | - Tag 0x0020 (4 bytes, int32s[1]):
  | | | | | | |    3f1c8: 00 00 00 00                                     [....]
  | | | | | | | ColorTonePortrait = 0
  | | | | | | | - Tag 0x0024 (4 bytes, int32s[1]):
  | | | | | | |    3f1cc: 00 00 00 00                                     [....]
  | | | | | | | FilterEffectPortrait = -559038737
  | | | | | | | - Tag 0x0028 (4 bytes, int32s[1]):
  | | | | | | |    3f1d0: ef be ad de                                     [....]
  | | | | | | | ToningEffectPortrait = -559038737
  | | | | | | | - Tag 0x002c (4 bytes, int32s[1]):
  | | | | | | |    3f1d4: ef be ad de                                     [....]
  | | | | | | | ContrastLandscape = 0
  | | | | | | | - Tag 0x0030 (4 bytes, int32s[1]):
  | | | | | | |    3f1d8: 00 00 00 00                                     [....]
  | | | | | | | SharpnessLandscape = 4
  | | | | | | | - Tag 0x0034 (4 bytes, int32s[1]):
  | | | | | | |    3f1dc: 04 00 00 00                                     [....]
  | | | | | | | SaturationLandscape = 0
  | | | | | | | - Tag 0x0038 (4 bytes, int32s[1]):
  | | | | | | |    3f1e0: 00 00 00 00                                     [....]
  | | | | | | | ColorToneLandscape = 0
  | | | | | | | - Tag 0x003c (4 bytes, int32s[1]):
  | | | | | | |    3f1e4: 00 00 00 00                                     [....]
  | | | | | | | FilterEffectLandscape = -559038737
  | | | | | | | - Tag 0x0040 (4 bytes, int32s[1]):
  | | | | | | |    3f1e8: ef be ad de                                     [....]
  | | | | | | | ToningEffectLandscape = -559038737
  | | | | | | | - Tag 0x0044 (4 bytes, int32s[1]):
  | | | | | | |    3f1ec: ef be ad de                                     [....]
  | | | | | | | ContrastNeutral = 0
  | | | | | | | - Tag 0x0048 (4 bytes, int32s[1]):
  | | | | | | |    3f1f0: 00 00 00 00                                     [....]
  | | | | | | | SharpnessNeutral = 0
  | | | | | | | - Tag 0x004c (4 bytes, int32s[1]):
  | | | | | | |    3f1f4: 00 00 00 00                                     [....]
  | | | | | | | SaturationNeutral = 0
  | | | | | | | - Tag 0x0050 (4 bytes, int32s[1]):
  | | | | | | |    3f1f8: 00 00 00 00                                     [....]
  | | | | | | | ColorToneNeutral = 0
  | | | | | | | - Tag 0x0054 (4 bytes, int32s[1]):
  | | | | | | |    3f1fc: 00 00 00 00                                     [....]
  | | | | | | | FilterEffectNeutral = -559038737
  | | | | | | | - Tag 0x0058 (4 bytes, int32s[1]):
  | | | | | | |    3f200: ef be ad de                                     [....]
  | | | | | | | ToningEffectNeutral = -559038737
  | | | | | | | - Tag 0x005c (4 bytes, int32s[1]):
  | | | | | | |    3f204: ef be ad de                                     [....]
  | | | | | | | ContrastFaithful = 0
  | | | | | | | - Tag 0x0060 (4 bytes, int32s[1]):
  | | | | | | |    3f208: 00 00 00 00                                     [....]
  | | | | | | | SharpnessFaithful = 0
  | | | | | | | - Tag 0x0064 (4 bytes, int32s[1]):
  | | | | | | |    3f20c: 00 00 00 00                                     [....]
  | | | | | | | SaturationFaithful = 0
  | | | | | | | - Tag 0x0068 (4 bytes, int32s[1]):
  | | | | | | |    3f210: 00 00 00 00                                     [....]
  | | | | | | | ColorToneFaithful = 0
  | | | | | | | - Tag 0x006c (4 bytes, int32s[1]):
  | | | | | | |    3f214: 00 00 00 00                                     [....]
  | | | | | | | FilterEffectFaithful = -559038737
  | | | | | | | - Tag 0x0070 (4 bytes, int32s[1]):
  | | | | | | |    3f218: ef be ad de                                     [....]
  | | | | | | | ToningEffectFaithful = -559038737
  | | | | | | | - Tag 0x0074 (4 bytes, int32s[1]):
  | | | | | | |    3f21c: ef be ad de                                     [....]
  | | | | | | | ContrastMonochrome = 0
  | | | | | | | - Tag 0x0078 (4 bytes, int32s[1]):
  | | | | | | |    3f220: 00 00 00 00                                     [....]
  | | | | | | | SharpnessMonochrome = 3
  | | | | | | | - Tag 0x007c (4 bytes, int32s[1]):
  | | | | | | |    3f224: 03 00 00 00                                     [....]
  | | | | | | | SaturationMonochrome = -559038737
  | | | | | | | - Tag 0x0080 (4 bytes, int32s[1]):
  | | | | | | |    3f228: ef be ad de                                     [....]
  | | | | | | | ColorToneMonochrome = -559038737
  | | | | | | | - Tag 0x0084 (4 bytes, int32s[1]):
  | | | | | | |    3f22c: ef be ad de                                     [....]
  | | | | | | | FilterEffectMonochrome = 0
  | | | | | | | - Tag 0x0088 (4 bytes, int32s[1]):
  | | | | | | |    3f230: 00 00 00 00                                     [....]
  | | | | | | | ToningEffectMonochrome = 0
  | | | | | | | - Tag 0x008c (4 bytes, int32s[1]):
  | | | | | | |    3f234: 00 00 00 00                                     [....]
  | | | | | | | ContrastAuto = 0
  | | | | | | | - Tag 0x0090 (4 bytes, int32s[1]):
  | | | | | | |    3f238: 00 00 00 00                                     [....]
  | | | | | | | SharpnessAuto = 3
  | | | | | | | - Tag 0x0094 (4 bytes, int32s[1]):
  | | | | | | |    3f23c: 03 00 00 00                                     [....]
  | | | | | | | SaturationAuto = 0
  | | | | | | | - Tag 0x0098 (4 bytes, int32s[1]):
  | | | | | | |    3f240: 00 00 00 00                                     [....]
  | | | | | | | ColorToneAuto = 0
  | | | | | | | - Tag 0x009c (4 bytes, int32s[1]):
  | | | | | | |    3f244: 00 00 00 00                                     [....]
  | | | | | | | FilterEffectAuto = -559038737
  | | | | | | | - Tag 0x00a0 (4 bytes, int32s[1]):
  | | | | | | |    3f248: ef be ad de                                     [....]
  | | | | | | | ToningEffectAuto = -559038737
  | | | | | | | - Tag 0x00a4 (4 bytes, int32s[1]):
  | | | | | | |    3f24c: ef be ad de                                     [....]
  | | | | | | | ContrastUserDef1 = 0
  | | | | | | | - Tag 0x00a8 (4 bytes, int32s[1]):
  | | | | | | |    3f250: 00 00 00 00                                     [....]
  | | | | | | | SharpnessUserDef1 = 3
  | | | | | | | - Tag 0x00ac (4 bytes, int32s[1]):
  | | | | | | |    3f254: 03 00 00 00                                     [....]
  | | | | | | | SaturationUserDef1 = 0
  | | | | | | | - Tag 0x00b0 (4 bytes, int32s[1]):
  | | | | | | |    3f258: 00 00 00 00                                     [....]
  | | | | | | | ColorToneUserDef1 = 0
  | | | | | | | - Tag 0x00b4 (4 bytes, int32s[1]):
  | | | | | | |    3f25c: 00 00 00 00                                     [....]
  | | | | | | | FilterEffectUserDef1 = 0
  | | | | | | | - Tag 0x00b8 (4 bytes, int32s[1]):
  | | | | | | |    3f260: 00 00 00 00                                     [....]
  | | | | | | | ToningEffectUserDef1 = 0
  | | | | | | | - Tag 0x00bc (4 bytes, int32s[1]):
  | | | | | | |    3f264: 00 00 00 00                                     [....]
  | | | | | | | ContrastUserDef2 = 0
  | | | | | | | - Tag 0x00c0 (4 bytes, int32s[1]):
  | | | | | | |    3f268: 00 00 00 00                                     [....]
  | | | | | | | SharpnessUserDef2 = 3
  | | | | | | | - Tag 0x00c4 (4 bytes, int32s[1]):
  | | | | | | |    3f26c: 03 00 00 00                                     [....]
  | | | | | | | SaturationUserDef2 = 0
  | | | | | | | - Tag 0x00c8 (4 bytes, int32s[1]):
  | | | | | | |    3f270: 00 00 00 00                                     [....]
  | | | | | | | ColorToneUserDef2 = 0
  | | | | | | | - Tag 0x00cc (4 bytes, int32s[1]):
  | | | | | | |    3f274: 00 00 00 00                                     [....]
  | | | | | | | FilterEffectUserDef2 = 0
  | | | | | | | - Tag 0x00d0 (4 bytes, int32s[1]):
  | | | | | | |    3f278: 00 00 00 00                                     [....]
  | | | | | | | ToningEffectUserDef2 = 0
  | | | | | | | - Tag 0x00d4 (4 bytes, int32s[1]):
  | | | | | | |    3f27c: 00 00 00 00                                     [....]
  | | | | | | | ContrastUserDef3 = 0
  | | | | | | | - Tag 0x00d8 (4 bytes, int32s[1]):
  | | | | | | |    3f280: 00 00 00 00                                     [....]
  | | | | | | | SharpnessUserDef3 = 3
  | | | | | | | - Tag 0x00dc (4 bytes, int32s[1]):
  | | | | | | |    3f284: 03 00 00 00                                     [....]
  | | | | | | | SaturationUserDef3 = 0
  | | | | | | | - Tag 0x00e0 (4 bytes, int32s[1]):
  | | | | | | |    3f288: 00 00 00 00                                     [....]
  | | | | | | | ColorToneUserDef3 = 0
  | | | | | | | - Tag 0x00e4 (4 bytes, int32s[1]):
  | | | | | | |    3f28c: 00 00 00 00                                     [....]
  | | | | | | | FilterEffectUserDef3 = 0
  | | | | | | | - Tag 0x00e8 (4 bytes, int32s[1]):
  | | | | | | |    3f290: 00 00 00 00                                     [....]
  | | | | | | | ToningEffectUserDef3 = 0
  | | | | | | | - Tag 0x00ec (4 bytes, int32s[1]):
  | | | | | | |    3f294: 00 00 00 00                                     [....]
  | | | | | | | UserDef1PictureStyle = 135
  | | | | | | | - Tag 0x00f0 (2 bytes, int16u[1]):
  | | | | | | |    3f298: 87 00                                           [..]
  | | | | | | | UserDef2PictureStyle = 135
  | | | | | | | - Tag 0x00f2 (2 bytes, int16u[1]):
  | | | | | | |    3f29a: 87 00                                           [..]
  | | | | | | | UserDef3PictureStyle = 135
  | | | | | | | - Tag 0x00f4 (2 bytes, int16u[1]):
  | | | | | | |    3f29c: 87 00                                           [..]
  | | | | | 8)  CanonModelID = 2147484453
  | | | | |     - Tag 0x0010 (4 bytes, int32u[1]):
  | | | | |        3eb55: 25 03 00 80                                     [%...]
  | | | | | 9)  ThumbnailImageValidArea = 0 159 7 112
  | | | | |     - Tag 0x0013 (8 bytes, int16u[4]):
  | | | | |        3f3d9: 00 00 9f 00 07 00 70 00                         [......p.]
  | | | | | 10) Canon_0x0019 = 1
  | | | | |     - Tag 0x0019 (2 bytes, int16u[1]):
  | | | | |        3eb6d: 01 00                                           [..]
  | | | | | 11) CanonAFInfo2 (SubDirectory) -->
  | | | | |     - Tag 0x0026 (278 bytes, int16u[139] read as undef[278]):
  | | | | |        3f3e1: 16 01 04 00 1f 00 13 00 60 15 40 0e 60 15 40 0e [........`.@.`.@.]
  | | | | |        3f3f1: e5 00 e5 00 e5 00 e5 00 e5 00 e5 00 e5 00 e5 00 [................]
  | | | | |        3f401: e5 00 e5 00 e5 00 e5 00 e5 00 e5 00 e5 00 e5 00 [................]
  | | | | |        3f411: e5 00 e5 00 e5 00 00 00 00 00 00 00 00 00 00 00 [................]
  | | | | |        3f421: 00 00 00 00 00 00 00 00 00 00 00 00 00 00 15 01 [................]
  | | | | |        3f431: 15 01 15 01 15 01 15 01 15 01 15 01 15 01 15 01 [................]
  | | | | |        3f441: 15 01 15 01 15 01 15 01 15 01 15 01 15 01 15 01 [................]
  | | | | |        3f451: 15 01 15 01 00 00 00 00 00 00 00 00 00 00 00 00 [................]
  | | | | |        3f461: 00 00 00 00 00 00 00 00 00 00 00 00 8d fa 7f fc [................]
  | | | | |        3f471: 7f fc 7f fc 71 fe 71 fe 71 fe 00 00 00 00 00 00 [....q.q.q.......]
  | | | | |        3f481: 00 00 00 00 8f 01 8f 01 8f 01 81 03 81 03 81 03 [................]
  | | | | |        3f491: 73 05 00 00 00 00 00 00 00 00 00 00 00 00 00 00 [s...............]
  | | | | |        3f4a1: 00 00 00 00 00 00 00 00 00 00 00 00 91 01 00 00 [................]
  | | | | |        3f4b1: 6f fe 91 01 00 00 6f fe f3 02 91 01 00 00 6f fe [o.....o.......o.]
  | | | | |        3f4c1: 0d fd 91 01 00 00 6f fe 91 01 00 00 6f fe 00 00 [......o.....o...]
  | | | | |        3f4d1: 00 00 00 00 00 00 00 00 00 00 00 00 00 00 00 00 [................]
  | | | | |        3f4e1: 00 00 00 00 00 00 00 00 00 00 04 00 ff ff 07 00 [................]
  | | | | |        3f4f1: 00 00 00 00 ff ff                               [......]
  | | | | | + [SerialData directory, 278 bytes]
  | | | | | | 0)  AFInfoSize = 278
  | | | | | |     - Tag 0x0000 (2 bytes, int16u[1]):
  | | | | | |        3f3e1: 16 01                                           [..]
  | | | | | | 1)  AFAreaMode = 4
  | | | | | |     - Tag 0x0001 (2 bytes, int16u[1]):
  | | | | | |        3f3e3: 04 00                                           [..]
  | | | | | | 2)  NumAFPoints = 31
  | | | | | |     - Tag 0x0002 (2 bytes, int16u[1]):
  | | | | | |        3f3e5: 1f 00                                           [..]
  | | | | | | 3)  ValidAFPoints = 19
  | | | | | |     - Tag 0x0003 (2 bytes, int16u[1]):
  | | | | | |        3f3e7: 13 00                                           [..]
  | | | | | | 4)  CanonImageWidth = 5472
  | | | | | |     - Tag 0x0004 (2 bytes, int16u[1]):
  | | | | | |        3f3e9: 60 15                                           [`.]
  | | | | | | 5)  CanonImageHeight = 3648
  | | | | | |     - Tag 0x0005 (2 bytes, int16u[1]):
  | | | | | |        3f3eb: 40 0e                                           [@.]
  | | | | | | 6)  AFImageWidth = 5472
  | | | | | |     - Tag 0x0006 (2 bytes, int16u[1]):
  | | | | | |        3f3ed: 60 15                                           [`.]
  | | | | | | 7)  AFImageHeight = 3648
  | | | | | |     - Tag 0x0007 (2 bytes, int16u[1]):
  | | | | | |        3f3ef: 40 0e                                           [@.]
  | | | | | | 8)  AFAreaWidths = 229 229 229 229 229 229 229 229 229 229 229 229 229 229 229 229 229 229 229 0 0 0 0 0 0 0 0 0 0 0 0
  | | | | | |     - Tag 0x0008 (62 bytes, int16s[31]):
  | | | | | |        3f3f1: e5 00 e5 00 e5 00 e5 00 e5 00 e5 00 e5 00 e5 00 [................]
  | | | | | |        3f401: e5 00 e5 00 e5 00 e5 00 e5 00 e5 00 e5 00 e5 00 [................]
  | | | | | |        3f411: e5 00 e5 00 e5 00 00 00 00 00 00 00 00 00 00 00 [................]
  | | | | | |        3f421: 00 00 00 00 00 00 00 00 00 00 00 00 00 00       [..............]
  | | | | | | 9)  AFAreaHeights = 277 277 277 277 277 277 277 277 277 277 277 277 277 277 277 277 277 277 277 0 0 0 0 0 0 0 0 0 0 0 0
  | | | | | |     - Tag 0x0009 (62 bytes, int16s[31]):
  | | | | | |        3f42f: 15 01 15 01 15 01 15 01 15 01 15 01 15 01 15 01 [................]
  | | | | | |        3f43f: 15 01 15 01 15 01 15 01 15 01 15 01 15 01 15 01 [................]
  | | | | | |        3f44f: 15 01 15 01 15 01 00 00 00 00 00 00 00 00 00 00 [................]
  | | | | | |        3f45f: 00 00 00 00 00 00 00 00 00 00 00 00 00 00       [..............]
  | | | | | | 10) AFAreaXPositions = -1395 -897 -897 -897 -399 -399 -399 0 0 0 0 0 399 399 399 897 897 897 1395 0 0 0 0 0 0 0 0 0 0 0 0
  | | | | | |     - Tag 0x000a (62 bytes, int16s[31]):
  | | | | | |        3f46d: 8d fa 7f fc 7f fc 7f fc 71 fe 71 fe 71 fe 00 00 [........q.q.q...]
  | | | | | |        3f47d: 00 00 00 00 00 00 00 00 8f 01 8f 01 8f 01 81 03 [................]
  | | | | | |        3f48d: 81 03 81 03 73 05 00 00 00 00 00 00 00 00 00 00 [....s...........]
  | | | | | |        3f49d: 00 00 00 00 00 00 00 00 00 00 00 00 00 00       [..............]
  | | | | | | 11) AFAreaYPositions = 0 401 0 -401 401 0 -401 755 401 0 -401 -755 401 0 -401 401 0 -401 0 0 0 0 0 0 0 0 0 0 0 0 0
  | | | | | |     - Tag 0x000b (62 bytes, int16s[31]):
  | | | | | |        3f4ab: 00 00 91 01 00 00 6f fe 91 01 00 00 6f fe f3 02 [......o.....o...]
  | | | | | |        3f4bb: 91 01 00 00 6f fe 0d fd 91 01 00 00 6f fe 91 01 [....o.......o...]
  | | | | | |        3f4cb: 00 00 6f fe 00 00 00 00 00 00 00 00 00 00 00 00 [..o.............]
  | | | | | |        3f4db: 00 00 00 00 00 00 00 00 00 00 00 00 00 00       [..............]
  | | | | | | 12) AFPointsInFocus = 0 4
  | | | | | |     - Tag 0x000c (4 bytes, int16s[2]):
  | | | | | |        3f4e9: 00 00 04 00                                     [....]
  | | | | | | 13) AFPointsSelected = -1 7
  | | | | | |     - Tag 0x000d (4 bytes, int16s[2]):
  | | | | | |        3f4ed: ff ff 07 00                                     [....]
  | | | | | 12) TimeInfo (SubDirectory) -->
  | | | | |     - Tag 0x0035 (16 bytes, int32u[4] read as undef[16]):
  | | | | |        3f4f7: 10 00 00 00 00 00 00 00 14 00 00 00 00 00 00 00 [................]
  | | | | | + [BinaryData directory, 16 bytes, Little-endian]
  | | | | | | TimeZone = 0
  | | | | | | - Tag 0x0001 (4 bytes, int32s[1]):
  | | | | | |    3f4fb: 00 00 00 00                                     [....]
  | | | | | | TimeZoneCity = 20
  | | | | | | - Tag 0x0002 (4 bytes, int32s[1]):
  | | | | | |    3f4ff: 14 00 00 00                                     [....]
  | | | | | | DaylightSavings = 0
  | | | | | | - Tag 0x0003 (4 bytes, int32s[1]):
  | | | | | |    3f503: 00 00 00 00                                     [....]
  | | | | | 13) CanonFileInfo (SubDirectory) -->
  | | | | |     - Tag 0x0093 (64 bytes, int16u[32] read as undef[64]):
  | | | | |        3f507: 40 00 00 00 00 00 00 00 00 00 00 00 00 00 00 00 [@...............]
  | | | | |        3f517: ff ff 00 00 00 00 00 00 00 00 00 00 ff ff ff ff [................]
  | | | | |        3f527: a6 00 ff ff 00 00 00 00 57 00 49 00 00 00 00 00 [........W.I.....]
  | | | | |        3f537: 00 00 00 00 ff ff 00 00 00 00 00 00 ff ff ff ff [................]
  | | | | | + [BinaryData directory, 64 bytes, Little-endian]
  | | | | | | BracketMode = 0
  | | | | | | - Tag 0x0003 (2 bytes, int16s[1]):
  | | | | | |    3f50d: 00 00                                           [..]
  | | | | | | BracketValue = 0
  | | | | | | - Tag 0x0004 (2 bytes, int16s[1]):
  | | | | | |    3f50f: 00 00                                           [..]
  | | | | | | BracketShotNumber = 0
  | | | | | | - Tag 0x0005 (2 bytes, int16s[1]):
  | | | | | |    3f511: 00 00                                           [..]
  | | | | | | RawJpgQuality = 0
  | | | | | | - Tag 0x0006 (2 bytes, int16s[1]):
  | | | | | |    3f513: 00 00                                           [..]
  | | | | | | RawJpgSize = 0
  | | | | | | - Tag 0x0007 (2 bytes, int16s[1]):
  | | | | | |    3f515: 00 00                                           [..]
  | | | | | | LongExposureNoiseReduction2 = -1
  | | | | | | - Tag 0x0008 (2 bytes, int16s[1]):
  | | | | | |    3f517: ff ff                                           [..]
  | | | | | | WBBracketMode = 0
  | | | | | | - Tag 0x0009 (2 bytes, int16s[1]):
  | | | | | |    3f519: 00 00                                           [..]
  | | | | | | WBBracketValueAB = 0
  | | | | | | - Tag 0x000c (2 bytes, int16s[1]):
  | | | | | |    3f51f: 00 00                                           [..]
  | | | | | | WBBracketValueGM = 0
  | | | | | | - Tag 0x000d (2 bytes, int16s[1]):
  | | | | | |    3f521: 00 00                                           [..]
  | | | | | | FilterEffect = -1
  | | | | | | - Tag 0x000e (2 bytes, int16s[1]):
  | | | | | |    3f523: ff ff                                           [..]
  | | | | | | ToningEffect = -1
  | | | | | | - Tag 0x000f (2 bytes, int16s[1]):
  | | | | | |    3f525: ff ff                                           [..]
  | | | | | | LiveViewShooting = 0
  | | | | | | - Tag 0x0013 (2 bytes, int16s[1]):
  | | | | | |    3f52d: 00 00                                           [..]
  | | | | | | FocusDistanceUpper = 87
  | | | | | | - Tag 0x0014 (2 bytes, int16u[1]):
  | | | | | |    3f52f: 57 00                                           [W.]
  | | | | | | FocusDistanceLower = 73
  | | | | | | - Tag 0x0015 (2 bytes, int16u[1]):
  | | | | | |    3f531: 49 00                                           [I.]
  | | | | | | ShutterMode = 0
  | | | | | | - Tag 0x0017 (2 bytes, int16s[1]):
  | | | | | |    3f535: 00 00                                           [..]
  | | | | | | FlashExposureLock = 0
  | | | | | | - Tag 0x0019 (2 bytes, int16s[1]):
  | | | | | |    3f539: 00 00                                           [..]
  | | | | | 14) LensModel = EF50mm f/1.8 STM
  | | | | |     - Tag 0x0095 (74 bytes, string[74]):
  | | | | |        3f547: 45 46 35 30 6d 6d 20 66 2f 31 2e 38 20 53 54 4d [EF50mm f/1.8 STM]
  | | | | |        3f557: 00 2d 35 2e 36 20 49 53 20 53 54 4d 00 00 00 00 [.-5.6 IS STM....]
  | | | | |        3f567: 00 00 00 00 00 00 00 00 00 00 00 00 00 00 00 00 [................]
  | | | | |        3f577: 00 00 00 00 00 00 00 00 00 00 00 00 00 00 00 00 [................]
  | | | | |        3f587: 00 00 00 00 00 00 55 55 64 17                   [......UUd.]
  | | | | | 15) InternalSerialNumber = FA0381304
  | | | | |     - Tag 0x0096 (16 bytes, string[16]):
  | | | | |        3f591: 46 41 30 33 38 31 33 30 34 00 00 00 00 00 00 00 [FA0381304.......]
  | | | | | 16) DustRemovalData = 
  | | | | |     - Tag 0x0097 (1024 bytes, undef[1024]):
  | | | | |        3f5a1: 00 00 00 00 00 00 00 00 00 00 00 00 00 00 00 00 [................]
  | | | | |        3f5b1: 00 00 00 00 00 00 00 00 00 00 00 00 00 00 00 00 [................]
  | | | | |        3f5c1: 00 00 00 00 00 00 00 00 00 00 00 00 00 00 00 00 [................]
  | | | | |        3f5d1: 00 00 00 00 00 00 00 00 00 00 00 00 00 00 00 00 [................]
  | | | | |        3f5e1: 00 00 00 00 00 00 00 00 00 00 00 00 00 00 00 00 [................]
  | | | | |        3f5f1: 00 00 00 00 00 00 00 00 00 00 00 00 00 00 00 00 [................]
  | | | | |        3f601: 00 00 00 00 00 00 00 00 00 00 00 00 00 00 00 00 [................]
  | | | | |        3f611: 00 00 00 00 00 00 00 00 00 00 00 00 00 00 00 00 [................]
  | | | | |        3f621: 00 00 00 00 00 00 00 00 00 00 00 00 00 00 00 00 [................]
  | | | | |        3f631: 00 00 00 00 00 00 00 00 00 00 00 00 00 00 00 00 [................]
  | | | | |        3f641: 00 00 00 00 00 00 00 00 00 00 00 00 00 00 00 00 [................]
  | | | | |        3f651: 00 00 00 00 00 00 00 00 00 00 00 00 00 00 00 00 [................]
  | | | | |        3f661: 00 00 00 00 00 00 00 00 00 00 00 00 00 00 00 00 [................]
  | | | | |        3f671: 00 00 00 00 00 00 00 00 00 00 00 00 00 00 00 00 [................]
  | | | | |        3f681: 00 00 00 00 00 00 00 00 00 00 00 00 00 00 00 00 [................]
  | | | | |        3f691: 00 00 00 00 00 00 00 00 00 00 00 00 00 00 00 00 [................]
  | | | | |        3f6a1: 00 00 00 00 00 00 00 00 00 00 00 00 00 00 00 00 [................]
  | | | | |        3f6b1: 00 00 00 00 00 00 00 00 00 00 00 00 00 00 00 00 [................]
  | | | | |        3f6c1: 00 00 00 00 00 00 00 00 00 00 00 00 00 00 00 00 [................]
  | | | | |        3f6d1: 00 00 00 00 00 00 00 00 00 00 00 00 00 00 00 00 [................]
  | | | | |        3f6e1: 00 00 00 00 00 00 00 00 00 00 00 00 00 00 00 00 [................]
  | | | | |        3f6f1: 00 00 00 00 00 00 00 00 00 00 00 00 00 00 00 00 [................]
  | | | | |        3f701: 00 00 00 00 00 00 00 00 00 00 00 00 00 00 00 00 [................]
  | | | | |        3f711: 00 00 00 00 00 00 00 00 00 00 00 00 00 00 00 00 [................]
  | | | | |        3f721: 00 00 00 00 00 00 00 00 00 00 00 00 00 00 00 00 [................]
  | | | | |        3f731: 00 00 00 00 00 00 00 00 00 00 00 00 00 00 00 00 [................]
  | | | | |        3f741: 00 00 00 00 00 00 00 00 00 00 00 00 00 00 00 00 [................]
  | | | | |        3f751: 00 00 00 00 00 00 00 00 00 00 00 00 00 00 00 00 [................]
  | | | | |        3f761: 00 00 00 00 00 00 00 00 00 00 00 00 00 00 00 00 [................]
  | | | | |        3f771: 00 00 00 00 00 00 00 00 00 00 00 00 00 00 00 00 [................]
  | | | | |        3f781: 00 00 00 00 00 00 00 00 00 00 00 00 00 00 00 00 [................]
  | | | | |        3f791: 00 00 00 00 00 00 00 00 00 00 00 00 00 00 00 00 [................]
  | | | | |        3f7a1: 00 00 00 00 00 00 00 00 00 00 00 00 00 00 00 00 [................]
  | | | | |        3f7b1: 00 00 00 00 00 00 00 00 00 00 00 00 00 00 00 00 [................]
  | | | | |        3f7c1: 00 00 00 00 00 00 00 00 00 00 00 00 00 00 00 00 [................]
  | | | | |        3f7d1: 00 00 00 00 00 00 00 00 00 00 00 00 00 00 00 00 [................]
  | | | | |        3f7e1: 00 00 00 00 00 00 00 00 00 00 00 00 00 00 00 00 [................]
  | | | | |        3f7f1: 00 00 00 00 00 00 00 00 00 00 00 00 00 00 00 00 [................]
  | | | | |        3f801: 00 00 00 00 00 00 00 00 00 00 00 00 00 00 00 00 [................]
  | | | | |        3f811: 00 00 00 00 00 00 00 00 00 00 00 00 00 00 00 00 [................]
  | | | | |        3f821: 00 00 00 00 00 00 00 00 00 00 00 00 00 00 00 00 [................]
  | | | | |        3f831: 00 00 00 00 00 00 00 00 00 00 00 00 00 00 00 00 [................]
  | | | | |        3f841: 00 00 00 00 00 00 00 00 00 00 00 00 00 00 00 00 [................]
  | | | | |        3f851: 00 00 00 00 00 00 00 00 00 00 00 00 00 00 00 00 [................]
  | | | | |        3f861: 00 00 00 00 00 00 00 00 00 00 00 00 00 00 00 00 [................]
  | | | | |        3f871: 00 00 00 00 00 00 00 00 00 00 00 00 00 00 00 00 [................]
  | | | | |        3f881: 00 00 00 00 00 00 00 00 00 00 00 00 00 00 00 00 [................]
  | | | | |        3f891: 00 00 00 00 00 00 00 00 00 00 00 00 00 00 00 00 [................]
  | | | | |        3f8a1: 00 00 00 00 00 00 00 00 00 00 00 00 00 00 00 00 [................]
  | | | | |        3f8b1: 00 00 00 00 00 00 00 00 00 00 00 00 00 00 00 00 [................]
  | | | | |        3f8c1: 00 00 00 00 00 00 00 00 00 00 00 00 00 00 00 00 [................]
  | | | | |        3f8d1: 00 00 00 00 00 00 00 00 00 00 00 00 00 00 00 00 [................]
  | | | | |        3f8e1: 00 00 00 00 00 00 00 00 00 00 00 00 00 00 00 00 [................]
  | | | | |        3f8f1: 00 00 00 00 00 00 00 00 00 00 00 00 00 00 00 00 [................]
  | | | | |        3f901: 00 00 00 00 00 00 00 00 00 00 00 00 00 00 00 00 [................]
  | | | | |        3f911: 00 00 00 00 00 00 00 00 00 00 00 00 00 00 00 00 [................]
  | | | | |        3f921: 00 00 00 00 00 00 00 00 00 00 00 00 00 00 00 00 [................]
  | | | | |        3f931: 00 00 00 00 00 00 00 00 00 00 00 00 00 00 00 00 [................]
  | | | | |        3f941: 00 00 00 00 00 00 00 00 00 00 00 00 00 00 00 00 [................]
  | | | | |        3f951: 00 00 00 00 00 00 00 00 00 00 00 00 00 00 00 00 [................]
  | | | | |        3f961: 00 00 00 00 00 00 00 00 00 00 00 00 00 00 00 00 [................]
  | | | | |        3f971: 00 00 00 00 00 00 00 00 00 00 00 00 00 00 00 00 [................]
  | | | | |        3f981: 00 00 00 00 00 00 00 00 00 00 00 00 00 00 00 00 [................]
  | | | | |        3f991: 00 00 00 00 00 00 00 00 00 00 00 00 00 00 00 00 [................]
  | | | | | 17) CropInfo (SubDirectory) -->
  | | | | |     - Tag 0x0098 (8 bytes, int16u[4] read as undef[8]):
  | | | | |        3f9a1: 00 00 00 00 00 00 00 00                         [........]
  | | | | | + [BinaryData directory, 8 bytes, Little-endian]
  | | | | | | CropLeftMargin = 0
  | | | | | | - Tag 0x0000 (2 bytes, int16u[1]):
  | | | | | |    3f9a1: 00 00                                           [..]
  | | | | | | CropRightMargin = 0
  | | | | | | - Tag 0x0001 (2 bytes, int16u[1]):
  | | | | | |    3f9a3: 00 00                                           [..]
  | | | | | | CropTopMargin = 0
  | | | | | | - Tag 0x0002 (2 bytes, int16u[1]):
  | | | | | |    3f9a5: 00 00                                           [..]
  | | | | | | CropBottomMargin = 0
  | | | | | | - Tag 0x0003 (2 bytes, int16u[1]):
  | | | | | |    3f9a7: 00 00                                           [..]
  | | | | | 18) CustomFunctions2 (SubDirectory) -->
  | | | | |     - Tag 0x0099 (464 bytes, int32u[116] read as undef[464]):
  | | | | |        3f9a9: d0 01 00 00 03 00 00 00 01 00 00 00 54 00 00 00 [............T...]
  | | | | |        3f9b9: 06 00 00 00 01 01 00 00 01 00 00 00 00 00 00 00 [................]
  | | | | |        3f9c9: 02 01 00 00 01 00 00 00 00 00 00 00 04 01 00 00 [................]
  | | | | |        3f9d9: 01 00 00 00 00 00 00 00 05 01 00 00 01 00 00 00 [................]
  | | | | |        3f9e9: 00 00 00 00 06 01 00 00 02 00 00 00 03 00 00 00 [................]
  | | | | |        3f9f9: 00 00 00 00 08 01 00 00 01 00 00 00 00 00 00 00 [................]
  | | | | |        3fa09: 03 00 00 00 e4 00 00 00 0d 00 00 00 02 05 00 00 [................]
  | | | | |        3fa19: 01 00 00 00 00 00 00 00 18 05 00 00 01 00 00 00 [................]
  | | | | |        3fa29: 00 00 00 00 19 05 00 00 01 00 00 00 00 00 00 00 [................]
  | | | | |        3fa39: 1a 05 00 00 01 00 00 00 00 00 00 00 0e 05 00 00 [................]
  | | | | |        3fa49: 01 00 00 00 00 00 00 00 05 05 00 00 01 00 00 00 [................]
  | | | | |        3fa59: 00 00 00 00 12 05 00 00 02 00 00 00 00 00 00 00 [................]
  | | | | |        3fa69: 07 00 00 00 1b 05 00 00 01 00 00 00 00 00 00 00 [................]
  | | | | |        3fa79: 16 05 00 00 01 00 00 00 00 00 00 00 13 05 00 00 [................]
  | | | | |        3fa89: 01 00 00 00 00 00 00 00 0c 05 00 00 01 00 00 00 [................]
  | | | | |        3fa99: 00 00 00 00 10 05 00 00 01 00 00 00 00 00 00 00 [................]
  | | | | |        3faa9: 07 05 00 00 10 00 00 00 00 00 00 00 00 00 00 00 [................]
  | | | | |        3fab9: 00 00 00 00 00 00 00 00 00 00 00 00 00 00 00 00 [................]
  | | | | |        3fac9: 00 00 00 00 00 00 00 00 00 00 00 00 00 00 00 00 [................]
  | | | | |        3fad9: 00 00 00 00 00 00 00 00 00 00 00 00 00 00 00 00 [................]
  | | | | |        3fae9: 00 00 00 00 00 00 00 00 04 00 00 00 84 00 00 00 [................]
  | | | | |        3faf9: 04 00 00 00 06 07 00 00 01 00 00 00 00 00 00 00 [................]
  | | | | |        3fb09: 0f 07 00 00 02 00 00 00 00 00 00 00 02 00 00 00 [................]
  | | | | |        3fb19: 0a 04 00 00 01 00 00 00 03 00 00 00 0c 07 00 00 [................]
  | | | | |        3fb29: 13 00 00 00 00 00 00 00 00 00 00 00 00 00 00 00 [................]
  | | | | |        3fb39: 00 00 00 00 00 00 00 00 00 00 00 00 00 00 00 00 [................]
  | | | | |        3fb49: 00 00 00 00 00 00 00 00 00 00 00 00 00 00 00 00 [................]
  | | | | |        3fb59: 00 00 00 00 00 00 00 00 00 00 00 00 00 00 00 00 [................]
  | | | | |        3fb69: 00 00 00 00 00 00 00 00 00 00 00 00 00 00 00 00 [................]
  | | | | | + [CanonCustom2 directory with 3 entries, 464 bytes]
  | | | | | + [CanonCustom2 group 1 directory with 6 entries, 84 bytes]
  | | | | | | 0)  ExposureLevelIncrements = 0
  | | | | | |     - Tag 0x0101 (4 bytes, int32u[1])
  | | | | | | 1)  ISOSpeedIncrements = 0
  | | | | | |     - Tag 0x0102 (4 bytes, int32u[1])
  | | | | | | 2)  AEBAutoCancel = 0
  | | | | | |     - Tag 0x0104 (4 bytes, int32u[1])
  | | | | | | 3)  AEBSequence = 0
  | | | | | |     - Tag 0x0105 (4 bytes, int32u[1])
  | | | | | | 4)  AEBShotCount = 3 0
  | | | | | |     - Tag 0x0106 (8 bytes, int32u[2])
  | | | | | | 5)  SafetyShift = 0
  | | | | | |     - Tag 0x0108 (4 bytes, int32u[1])
  | | | | | + [CanonCustom2 group 3 directory with 13 entries, 228 bytes]
  | | | | | | 0)  AIServoTrackingSensitivity = 0
  | | | | | |     - Tag 0x0502 (4 bytes, int32u[1])
  | | | | | | 1)  AccelerationTracking = 0
  | | | | | |     - Tag 0x0518 (4 bytes, int32u[1])
  | | | | | | 2)  AIServoFirstImagePriority = 0
  | | | | | |     - Tag 0x0519 (4 bytes, int32u[1])
  | | | | | | 3)  AIServoSecondImagePriority = 0
  | | | | | |     - Tag 0x051a (4 bytes, int32u[1])
  | | | | | | 4)  AFAssistBeam = 0
  | | | | | |     - Tag 0x050e (4 bytes, int32u[1])
  | | | | | | 5)  LensDriveNoAF = 0
  | | | | | |     - Tag 0x0505 (4 bytes, int32u[1])
  | | | | | | 6)  SelectAFAreaSelectMode = 0 7
  | | | | | |     - Tag 0x0512 (8 bytes, int32u[2])
  | | | | | | 7)  AFAreaSelectMethod = 0
  | | | | | |     - Tag 0x051b (4 bytes, int32u[1])
  | | | | | | 8)  OrientationLinkedAFPoint = 0
  | | | | | |     - Tag 0x0516 (4 bytes, int32u[1])
  | | | | | | 9)  ManualAFPointSelectPattern = 0
  | | | | | |     - Tag 0x0513 (4 bytes, int32u[1])
  | | | | | | 10) AFPointDisplayDuringFocus = 0
  | | | | | |     - Tag 0x050c (4 bytes, int32u[1])
  | | | | | | 11) SuperimposedDisplay = 0
  | | | | | |     - Tag 0x0510 (4 bytes, int32u[1])
  | | | | | | 12) AFMicroadjustment = 0 0 0 0 0 0 0 0 0 0 0 0 0 0 0 0
  | | | | | |     - Tag 0x0507 (64 bytes, int32u[16])
  | | | | | + [CanonCustom2 group 4 directory with 4 entries, 132 bytes]
  | | | | | | 0)  DialDirectionTvAv = 0
  | | | | | |     - Tag 0x0706 (4 bytes, int32u[1])
  | | | | | | 1)  MultiFunctionLock = 0 2
  | | | | | |     - Tag 0x070f (8 bytes, int32u[2])
  | | | | | | 2)  ViewfinderWarnings = 3
  | | | | | |     - Tag 0x040a (4 bytes, int32u[1])
  | | | | | | 3)  CustomControls = 0 0 0 0 0 0 0 0 0 0 0 0 0 0 0 0 0 0 0
  | | | | | |     - Tag 0x070c (76 bytes, int32u[19])
  | | | | | 19) AspectInfo (SubDirectory) -->
  | | | | |     - Tag 0x009a (20 bytes, int32u[5] read as undef[20]):
  | | | | |        3fb79: 00 00 00 00 60 15 00 00 40 0e 00 00 00 00 00 00 [....`...@.......]
  | | | | |        3fb89: 00 00 00 00                                     [....]
  | | | | | + [BinaryData directory, 20 bytes, Little-endian]
  | | | | | | AspectRatio = 0
  | | | | | | - Tag 0x0000 (4 bytes, int32u[1]):
  | | | | | |    3fb79: 00 00 00 00                                     [....]
  | | | | | | CroppedImageWidth = 5472
  | | | | | | - Tag 0x0001 (4 bytes, int32u[1]):
  | | | | | |    3fb7d: 60 15 00 00                                     [`...]
  | | | | | | CroppedImageHeight = 3648
  | | | | | | - Tag 0x0002 (4 bytes, int32u[1]):
  | | | | | |    3fb81: 40 0e 00 00                                     [@...]
  | | | | | | CroppedImageLeft = 0
  | | | | | | - Tag 0x0003 (4 bytes, int32u[1]):
  | | | | | |    3fb85: 00 00 00 00                                     [....]
  | | | | | | CroppedImageTop = 0
  | | | | | | - Tag 0x0004 (4 bytes, int32u[1]):
  | | | | | |    3fb89: 00 00 00 00                                     [....]
  | | | | | 20) ProcessingInfo (SubDirectory) -->
  | | | | |     - Tag 0x00a0 (28 bytes, int16u[14] read as undef[28]):
  | | | | |        3fb8d: 1c 00 00 00 03 00 00 00 00 00 00 00 00 00 00 00 [................]
  | | | | |        3fb9d: ff ff 50 14 87 00 00 00 00 00 00 00             [..P.........]
  | | | | | + [BinaryData directory, 28 bytes, Little-endian]
  | | | | | | ToneCurve = 0
  | | | | | | - Tag 0x0001 (2 bytes, int16s[1]):
  | | | | | |    3fb8f: 00 00                                           [..]
  | | | | | | Sharpness = 3
  | | | | | | - Tag 0x0002 (2 bytes, int16s[1]):
  | | | | | |    3fb91: 03 00                                           [..]
  | | | | | | SharpnessFrequency = 0
  | | | | | | - Tag 0x0003 (2 bytes, int16s[1]):
  | | | | | |    3fb93: 00 00                                           [..]
  | | | | | | SensorRedLevel = 0
  | | | | | | - Tag 0x0004 (2 bytes, int16s[1]):
  | | | | | |    3fb95: 00 00                                           [..]
  | | | | | | SensorBlueLevel = 0
  | | | | | | - Tag 0x0005 (2 bytes, int16s[1]):
  | | | | | |    3fb97: 00 00                                           [..]
  | | | | | | WhiteBalanceRed = 0
  | | | | | | - Tag 0x0006 (2 bytes, int16s[1]):
  | | | | | |    3fb99: 00 00                                           [..]
  | | | | | | WhiteBalanceBlue = 0
  | | | | | | - Tag 0x0007 (2 bytes, int16s[1]):
  | | | | | |    3fb9b: 00 00                                           [..]
  | | | | | | WhiteBalance = -1
  | | | | | | - Tag 0x0008 (2 bytes, int16s[1]):
  | | | | | |    3fb9d: ff ff                                           [..]
  | | | | | | ColorTemperature = 5200
  | | | | | | - Tag 0x0009 (2 bytes, int16s[1]):
  | | | | | |    3fb9f: 50 14                                           [P.]
  | | | | | | PictureStyle = 135
  | | | | | | - Tag 0x000a (2 bytes, int16s[1]):
  | | | | | |    3fba1: 87 00                                           [..]
  | | | | | | DigitalGain = 0
  | | | | | | - Tag 0x000b (2 bytes, int16s[1]):
  | | | | | |    3fba3: 00 00                                           [..]
  | | | | | | WBShiftAB = 0
  | | | | | | - Tag 0x000c (2 bytes, int16s[1]):
  | | | | | |    3fba5: 00 00                                           [..]
  | | | | | | WBShiftGM = 0
  | | | | | | - Tag 0x000d (2 bytes, int16s[1]):
  | | | | | |    3fba7: 00 00                                           [..]
  | | | | | 21) MeasuredColor (SubDirectory) -->
  | | | | |     - Tag 0x00aa (12 bytes, int16u[6] read as undef[12]):
  | | | | |        3fba9: 0c 00 53 02 00 04 00 04 03 02 00 00             [..S.........]
  | | | | | + [BinaryData directory, 12 bytes, Little-endian]
  | | | | | | MeasuredRGGB = 595 1024 1024 515
  | | | | | | - Tag 0x0001 (8 bytes, int16u[4]):
  | | | | | |    3fbab: 53 02 00 04 00 04 03 02                         [S.......]
  | | | | | 22) ColorSpace = 1
  | | | | |     - Tag 0x00b4 (2 bytes, int16u[1]):
  | | | | |        3ebfd: 01 00                                           [..]
  | | | | | 23) VRDOffset = 0
  | | | | |     - Tag 0x00d0 (4 bytes, int32u[1]):
  | | | | |        3ec09: 00 00 00 00                                     [....]
  | | | | | 24) SensorInfo (SubDirectory) -->
  | | | | |     - Tag 0x00e0 (34 bytes, int16u[17] read as undef[34]):
  | | | | |        3fbb5: 22 00 c0 15 7c 0e 01 00 01 00 54 00 32 00 b3 15 ["...|.....T.2...]
  | | | | |        3fbc5: 71 0e 00 00 00 00 00 00 00 00 00 00 00 00 00 00 [q...............]
  | | | | |        3fbd5: 00 00                                           [..]
  | | | | | + [BinaryData directory, 34 bytes, Little-endian]
  | | | | | | SensorWidth = 5568
  | | | | | | - Tag 0x0001 (2 bytes, int16s[1]):
  | | | | | |    3fbb7: c0 15                                           [..]
  | | | | | | SensorHeight = 3708
  | | | | | | - Tag 0x0002 (2 bytes, int16s[1]):
  | | | | | |    3fbb9: 7c 0e                                           [|.]
  | | | | | | SensorLeftBorder = 84
  | | | | | | - Tag 0x0005 (2 bytes, int16s[1]):
  | | | | | |    3fbbf: 54 00                                           [T.]
  | | | | | | SensorTopBorder = 50
  | | | | | | - Tag 0x0006 (2 bytes, int16s[1]):
  | | | | | |    3fbc1: 32 00                                           [2.]
  | | | | | | SensorRightBorder = 5555
  | | | | | | - Tag 0x0007 (2 bytes, int16s[1]):
  | | | | | |    3fbc3: b3 15                                           [..]
  | | | | | | SensorBottomBorder = 3697
  | | | | | | - Tag 0x0008 (2 bytes, int16s[1]):
  | | | | | |    3fbc5: 71 0e                                           [q.]
  | | | | | | BlackMaskLeftBorder = 0
  | | | | | | - Tag 0x0009 (2 bytes, int16s[1]):
  | | | | | |    3fbc7: 00 00                                           [..]
  | | | | | | BlackMaskTopBorder = 0
  | | | | | | - Tag 0x000a (2 bytes, int16s[1]):
  | | | | | |    3fbc9: 00 00                                           [..]
  | | | | | | BlackMaskRightBorder = 0
  | | | | | | - Tag 0x000b (2 bytes, int16s[1]):
  | | | | | |    3fbcb: 00 00                                           [..]
  | | | | | | BlackMaskBottomBorder = 0
  | | | | | | - Tag 0x000c (2 bytes, int16s[1]):
  | | | | | |    3fbcd: 00 00                                           [..]
  | | | | | 25) ColorData7 (SubDirectory) -->
  | | | | |     - Tag 0x4001 (2626 bytes, int16u[1313] read as undef[2626]):
  | | | | |        3fbd7: 0a 00 1d 03 00 04 00 04 89 01 2e 02 00 04 00 04 [................]
  | | | | |        3fbe7: 04 02 8f 01 00 04 00 04 aa 02 5d 07 78 09 75 09 [..........].x.u.]
  | | | | |        3fbf7: 9f 03 04 07 e9 0c ec 0c 7d 06 63 03 ab 08 b2 08 [........}.c.....]
  | | | | |        3fc07: c5 05 ff ff 00 00 fd 00 fd 00 fd 00 00 00 6f 06 [..............o.]
  | | | | |        3fc17: 51 0d 46 0d a2 07 d9 02 e0 00 e6 00 26 00 77 00 [Q.F.........&.w.]
  | | | | |        3fc27: f3 02 f3 02 50 04 37 06 6d 0a 64 0a 32 02 c1 06 [....P.7.m.d.2...]
  | | | | |        3fc37: df 0d e4 0d cc 07 00 03 e8 00 e5 00 27 00 82 00 [............'...]
  | | | | |        3fc47: fe 02 07 03 4d 04 77 06 b4 0a b6 0a 30 02 c2 07 [....M.w.....0...]
  | | | | |        3fc57: 00 04 00 04 6c 07 9d 11 c2 07 00 04 00 04 6c 07 [....l.........l.]
  | | | | |        3fc67: 9d 11 c2 07 00 04 00 04 6c 07 9d 11 c2 07 00 04 [........l.......]
  | | | | |        3fc77: 00 04 6c 07 9d 11 00 04 00 04 00 04 00 04 0b 11 [..l.............]
  | | | | |        3fc87: 00 04 00 04 00 04 00 04 0b 11 c2 07 00 04 00 04 [................]
  | | | | |        3fc97: 6c 07 9d 11 c2 07 00 04 00 04 6c 07 9d 11 c2 07 [l.........l.....]
  | | | | |        3fca7: 00 04 00 04 6c 07 9d 11 c6 07 00 04 00 04 6c 07 [....l.........l.]
  | | | | |        3fcb7: 9d 11 0d 07 00 04 00 04 b3 07 fc 0f 0b 07 04 04 [................]
  | | | | |        3fcc7: fb 03 b1 07 fc 0f 00 00 00 00 00 00 00 00 00 00 [................]
  | | | | |        3fcd7: 2d 08 00 04 00 04 88 06 50 14 76 09 00 04 00 04 [-.......P.v.....]
  | | | | |        3fce7: a2 05 58 1b ca 08 00 04 00 04 0d 06 70 17 c1 05 [..X.........p...]
  | | | | |        3fcf7: 00 04 00 04 76 09 80 0c 20 07 00 04 00 04 f6 08 [....v... .......]
  | | | | |        3fd07: 95 0e 2d 08 00 04 00 04 88 06 44 14 06 09 00 04 [..-.......D.....]
  | | | | |        3fd17: 00 04 0b 06 1c 18 2d 08 00 04 00 04 88 06 44 14 [......-.......D.]
  | | | | |        3fd27: 2d 08 00 04 00 04 88 06 44 14 2d 08 00 04 00 04 [-.......D.-.....]
  | | | | |        3fd37: 88 06 44 14 2d 08 00 04 00 04 88 06 44 14 2d 08 [..D.-.......D.-.]
  | | | | |        3fd47: 00 04 00 04 88 06 44 14 e1 03 00 04 00 04 01 04 [......D.........]
  | | | | |        3fd57: 71 10 e1 03 00 04 00 04 01 04 71 10 e1 03 00 04 [q.........q.....]
  | | | | |        3fd67: 00 04 01 04 71 10 e1 03 00 04 00 04 01 04 71 10 [....q.........q.]
  | | | | |        3fd77: e1 03 00 04 00 04 01 04 71 10 e1 fe 7d 01 48 03 [........q...}.H.]
  | | | | |        3fd87: 94 2a f4 fe 86 01 30 03 10 27 1c ff 9a 01 03 03 [.*....0..'......]
  | | | | |        3fd97: 6c 20 45 ff b1 01 d7 02 58 1b 79 ff d2 01 a5 02 [l E.....X.y.....]
  | | | | |        3fda7: 70 17 92 ff e2 01 8d 02 e0 15 ae ff f5 01 73 02 [p.............s.]
  | | | | |        3fdb7: 50 14 db ff 10 02 4a 02 5c 12 12 00 39 02 1e 02 [P.....J.\...9...]
  | | | | |        3fdc7: 68 10 46 00 63 02 f8 01 d8 0e 78 00 8f 02 d7 01 [h.F.c.....x.....]
  | | | | |        3fdd7: ac 0d b3 00 c8 02 b1 01 80 0c e2 00 f4 02 92 01 [................]
  | | | | |        3fde7: b8 0b 0f 01 29 03 7d 01 f0 0a 80 01 b8 03 48 01 [....).}.......H.]
  | | | | |        3fdf7: 60 09 f4 01 10 08 1d 08 01 08 01 08 01 08 01 08 [`...............]
  | | | | |        3fe07: 00 00 00 00 00 00 00 00 00 00 00 00 00 00 00 00 [................]
  | | | | |        3fe17: 00 00 00 00 00 00 00 00 00 00 00 00 00 00 00 00 [................]
  | | | | |        3fe27: 00 00 00 00 00 00 00 00 00 00 00 00 00 00 00 00 [................]
  | | | | |        3fe37: 00 00 00 00 00 00 00 00 00 00 00 00 00 00 00 00 [................]
  | | | | |        3fe47: 00 00 00 00 00 00 00 00 00 00 00 00 00 00 00 00 [................]
  | | | | |        3fe57: 00 00 00 00 00 00 00 00 00 00 00 00 00 00 00 00 [................]
  | | | | |        3fe67: 00 00 00 00 00 00 00 00 00 00 00 00 00 00 00 00 [................]
  | | | | |        3fe77: 00 00 00 00 00 00 00 00 00 00 00 00 00 00 00 00 [................]
  | | | | |        3fe87: 00 00 00 00 00 00 01 00 00 00 01 00 03 00 01 00 [................]
  | | | | |        3fe97: 06 00 09 00 07 00 02 00 05 00 04 00 18 00 00 00 [................]
  | | | | |        3fea7: 00 00 00 00 04 00 45 00 2c 00 43 00 e1 00 66 01 [......E.,.C...f.]
  | | | | |        3feb7: a1 18 de 19 9b 13 7c 06 34 03 9d 02 49 07 0d 00 [......|.4...I...]
  | | | | |        3fec7: 00 00 00 00 02 00 2b 00 25 00 52 00 30 01 b9 01 [......+.%.R.0...]
  | | | | |        3fed7: bd 0f 7e 05 f4 13 c4 03 66 01 17 01 9c 02 02 00 [..~.....f.......]
  | | | | |        3fee7: 15 00 10 00 37 00 21 03 1b 02 25 04 86 0b e3 0d [....7.!...%.....]
  | | | | |        3fef7: f4 4f f2 2b 98 49 bd 10 5e 05 e0 03 6a 0d 4e 00 [.O.+.I..^...j.N.]
  | | | | |        3ff07: 00 00 00 00 00 00 00 80 00 00 00 04 00 04 00 04 [................]
  | | | | |        3ff17: 2e 0b 22 10 44 1b 76 10 a2 00 00 00 00 10 8e 0f [..".D.v.........]
  | | | | |        3ff27: 62 ff 00 00 00 10 00 00 00 01 01 00 3c 68 02 00 [b...........<h..]
  | | | | |        3ff37: 7e 6b 02 00 7b 6d 01 00 68 37 00 04 00 04 00 04 [~k..{m..h7......]
  | | | | |        3ff47: 00 00 00 00 00 00 fd ff 00 00 ff 1f 00 01 00 00 [................]
  | | | | |        3ff57: 00 00 00 04 c8 02 b2 01 f4 01 74 02 9b 01 f9 02 [..........t.....]
  | | | | |        3ff67: 00 00 00 00 00 00 00 00 00 00 1f 00 3f 00 5f 00 [............?._.]
  | | | | |        3ff77: 7f 00 9f 00 bf 00 df 00 ff 00 00 00 1f 00 41 00 [..............A.]
  | | | | |        3ff87: 62 00 82 00 a1 00 c0 00 df 00 ff 00 01 00 00 00 [b...............]
  | | | | |        3ff97: 66 00 00 00 10 00 20 00 40 00 60 00 80 00 c0 00 [f..... .@.`.....]
  | | | | |        3ffa7: 00 00 00 00 00 00 00 00 00 00 00 00 00 00 e8 03 [................]
  | | | | |        3ffb7: e8 03 e8 03 e8 03 e8 03 e8 03 e8 03 88 04 00 00 [................]
  | | | | |        3ffc7: 01 08 01 08 01 08 01 08 f4 38 f4 3a 10 27 00 00 [.........8.:.'..]
  | | | | |        3ffd7: dd 00 83 00 71 00 02 00 00 00 c6 07 40 08 70 10 [....q.......@.p.]
  | | | | |        3ffe7: f8 10 c6 07 40 08 38 0d c0 0d c6 07 40 08 d0 0e [....@.8.....@...]
  | | | | |        3fff7: 58 0f 7c 00 b6 00 ce 00 00 00 00 00 00 00 00 00 [X.|.............]
  | | | | |        40007: 00 00 00 00 00 00 00 00 00 00 00 00 00 00 00 00 [................]
  | | | | |        40017: 00 00 00 00 00 00 00 00 00 00 00 00 00 00 00 00 [................]
  | | | | |        40027: 00 00 00 00 00 00 00 00 00 00 00 00 00 00 00 00 [................]
  | | | | |        40037: 00 00 00 00 00 00 00 00 00 00 00 00 00 00 00 00 [................]
  | | | | |        40047: 00 00 00 00 00 00 00 00 00 00 00 00 00 00 00 00 [................]
  | | | | |        40057: 00 00 00 00 00 00 00 00 00 00 00 00 00 00 00 00 [................]
  | | | | |        40067: 00 00 00 00 00 00 00 00 00 00 00 00 00 00 00 00 [................]
  | | | | |        40077: 00 00 00 00 00 00 00 00 00 00 00 00 00 00 00 00 [................]
  | | | | |        40087: 00 00 00 00 00 00 00 00 00 00 00 00 00 00 00 00 [................]
  | | | | |        40097: 00 00 00 00 00 00 00 00 00 00 00 00 00 00 00 00 [................]
  | | | | |        400a7: 00 00 00 00 00 00 00 00 00 00 00 00 00 00 00 00 [................]
  | | | | |        400b7: 00 00 00 00 00 00 00 00 00 00 00 00 00 00 00 00 [................]
  | | | | |        400c7: 00 00 00 00 00 00 00 00 00 00 00 00 00 00 00 00 [................]
  | | | | |        400d7: 00 00 00 00 00 00 00 00 00 00 00 00 00 00 00 00 [................]
  | | | | |        400e7: 00 00 00 00 00 00 00 00 00 00 00 00 00 00 00 00 [................]
  | | | | |        400f7: 00 00 00 00 00 00 00 00 00 00 00 00 00 00 00 00 [................]
  | | | | |        40107: 00 00 00 00 00 00 00 00 00 00 00 00 00 00 00 00 [................]
  | | | | |        40117: 00 00 00 00 00 00 00 00 00 00 00 00 00 00 00 00 [................]
  | | | | |        40127: 00 00 00 00 00 00 00 00 00 00 00 00 00 00 00 00 [................]
  | | | | |        40137: 00 00 00 00 00 00 00 00 00 00 00 00 00 00 00 00 [................]
  | | | | |        40147: 00 00 00 00 00 00 00 00 00 00 00 00 00 00 00 00 [................]
  | | | | |        40157: 00 00 00 00 00 00 00 00 00 00 00 00 00 00 00 00 [................]
  | | | | |        40167: 00 00 00 00 00 00 00 00 00 00 00 00 00 00 00 00 [................]
  | | | | |        40177: 00 00 00 00 00 00 00 00 00 00 00 00 00 00 00 00 [................]
  | | | | |        40187: 00 00 00 00 00 00 00 00 00 00 00 00 00 00 00 00 [................]
  | | | | |        40197: 00 00 00 00 00 00 00 00 00 00 00 00 00 00 00 00 [................]
  | | | | |        401a7: 00 00 00 00 00 00 00 00 00 00 00 00 00 00 00 00 [................]
  | | | | |        401b7: 00 00 00 00 00 00 00 00 00 00 00 00 00 00 00 00 [................]
  | | | | |        401c7: 00 00 00 00 00 00 00 00 00 00 00 00 00 00 00 00 [................]
  | | | | |        401d7: 00 00 00 00 00 00 00 00 00 00 00 00 00 00 00 00 [................]
  | | | | |        401e7: 00 00 00 00 00 00 00 00 00 00 00 00 00 00 00 00 [................]
  | | | | |        401f7: 00 00 00 00 00 00 00 00 00 00 00 00 00 00 00 00 [................]
  | | | | |        40207: 00 00 00 00 00 00 00 00 00 00 00 00 00 00 00 00 [................]
  | | | | |        40217: 00 00 00 00 00 00 00 00 00 00 00 00 00 00 00 00 [................]
  | | | | |        40227: 00 00 00 00 00 00 00 00 00 00 00 00 00 00 00 00 [................]
  | | | | |        40237: 00 00 00 00 00 00 00 00 00 00 00 00 00 00 00 00 [................]
  | | | | |        40247: 00 00 00 00 00 00 00 00 00 00 00 00 00 00 00 00 [................]
  | | | | |        40257: 00 00 00 00 00 00 00 00 00 00 00 00 00 00 00 00 [................]
  | | | | |        40267: 00 00 00 00 00 00 00 00 00 00 00 00 00 00 00 00 [................]
  | | | | |        40277: 00 00 00 00 00 00 00 00 00 00 00 00 00 00 00 00 [................]
  | | | | |        40287: 00 00 00 00 00 00 00 00 00 00 00 00 00 00 00 00 [................]
  | | | | |        40297: 00 00 00 00 00 00 00 00 00 00 00 00 00 00 00 00 [................]
  | | | | |        402a7: 00 00 00 00 00 00 00 00 00 00 00 00 00 00 00 00 [................]
  | | | | |        402b7: 00 00 00 00 00 00 00 00 00 00 00 00 00 00 00 00 [................]
  | | | | |        402c7: 00 00 00 00 00 00 00 00 00 00 00 00 00 00 00 00 [................]
  | | | | |        402d7: 00 00 00 00 00 00 00 00 00 00 00 00 00 00 00 00 [................]
  | | | | |        402e7: 00 00 00 00 00 00 00 00 00 00 00 00 00 00 00 00 [................]
  | | | | |        402f7: aa aa 00 00 20 00 40 00 80 00 e0 00 00 01 00 01 [.... .@.........]
  | | | | |        40307: 00 01 00 01 00 00 20 00 40 00 80 00 e0 00 00 01 [...... .@.......]
  | | | | |        40317: 00 01 00 01 00 01 51 00 6f 00 76 00 1a 00 18 00 [......Q.o.v.....]
  | | | | |        40327: d7 00 d7 00 04 00 47 00 a8 00 b5 00 ff 00 00 00 [......G.........]
  | | | | |        40337: 00 00 00 00 00 00 00 00 00 00 00 00 00 00 00 00 [................]
  | | | | |        40347: 00 00 00 00 00 00 00 00 00 00 00 00 00 00 00 00 [................]
  | | | | |        40357: 00 00 00 00 00 00 00 00 00 00 00 00 00 00 00 00 [................]
  | | | | |        40367: 00 00 00 00 8f 00 a9 00 f3 00 00 00 00 00 00 00 [................]
  | | | | |        40377: 00 00 00 00 00 00 00 00 00 00 00 00 00 00 00 00 [................]
  | | | | |        40387: 00 00 00 00 00 00 00 00 00 00 00 00 00 00 00 00 [................]
  | | | | |        40397: 00 00 00 00 00 00 00 00 00 00 00 00 00 00 00 00 [................]
  | | | | |        403a7: 00 00 00 00 00 00 00 00 00 00 64 00 00 00 00 00 [..........d.....]
  | | | | |        403b7: 00 00 a6 13 ca 05 00 04 3e 03 a7 02 00 04 d6 01 [........>.......]
  | | | | |         [snip 594 bytes]
  | | | | | + [BinaryData directory, 2626 bytes, Little-endian]
  | | | | | | ColorDataVersion = 10
  | | | | | | - Tag 0x0000 (2 bytes, int16s[1]):
  | | | | | |    3fbd7: 0a 00                                           [..]
  | | | | | | WB_RGGBLevelsAsShot = 1986 1024 1024 1900
  | | | | | | - Tag 0x003f (8 bytes, int16s[4]):
  | | | | | |    3fc55: c2 07 00 04 00 04 6c 07                         [......l.]
  | | | | | | ColorTempAsShot = 4509
  | | | | | | - Tag 0x0043 (2 bytes, int16s[1]):
  | | | | | |    3fc5d: 9d 11                                           [..]
  | | | | | | WB_RGGBLevelsAuto = 1986 1024 1024 1900
  | | | | | | - Tag 0x0044 (8 bytes, int16s[4]):
  | | | | | |    3fc5f: c2 07 00 04 00 04 6c 07                         [......l.]
  | | | | | | ColorTempAuto = 4509
  | | | | | | - Tag 0x0048 (2 bytes, int16s[1]):
  | | | | | |    3fc67: 9d 11                                           [..]
  | | | | | | WB_RGGBLevelsMeasured = 1986 1024 1024 1900
  | | | | | | - Tag 0x0049 (8 bytes, int16s[4]):
  | | | | | |    3fc69: c2 07 00 04 00 04 6c 07                         [......l.]
  | | | | | | ColorTempMeasured = 4509
  | | | | | | - Tag 0x004d (2 bytes, int16s[1]):
  | | | | | |    3fc71: 9d 11                                           [..]
  | | | | | | WB_RGGBLevelsUnknown = 1986 1024 1024 1900
  | | | | | | - Tag 0x004e (8 bytes, int16s[4]):
  | | | | | |    3fc73: c2 07 00 04 00 04 6c 07                         [......l.]
  | | | | | | ColorTempUnknown = 4509
  | | | | | | - Tag 0x0052 (2 bytes, int16s[1]):
  | | | | | |    3fc7b: 9d 11                                           [..]
  | | | | | | WB_RGGBLevelsUnknown2 = 1024 1024 1024 1024
  | | | | | | - Tag 0x0053 (8 bytes, int16s[4]):
  | | | | | |    3fc7d: 00 04 00 04 00 04 00 04                         [........]
  | | | | | | ColorTempUnknown2 = 4363
  | | | | | | - Tag 0x0057 (2 bytes, int16s[1]):
  | | | | | |    3fc85: 0b 11                                           [..]
  | | | | | | WB_RGGBLevelsUnknown3 = 1024 1024 1024 1024
  | | | | | | - Tag 0x0058 (8 bytes, int16s[4]):
  | | | | | |    3fc87: 00 04 00 04 00 04 00 04                         [........]
  | | | | | | ColorTempUnknown3 = 4363
  | | | | | | - Tag 0x005c (2 bytes, int16s[1]):
  | | | | | |    3fc8f: 0b 11                                           [..]
  | | | | | | WB_RGGBLevelsUnknown4 = 1986 1024 1024 1900
  | | | | | | - Tag 0x005d (8 bytes, int16s[4]):
  | | | | | |    3fc91: c2 07 00 04 00 04 6c 07                         [......l.]
  | | | | | | ColorTempUnknown4 = 4509
  | | | | | | - Tag 0x0061 (2 bytes, int16s[1]):
  | | | | | |    3fc99: 9d 11                                           [..]
  | | | | | | WB_RGGBLevelsUnknown5 = 1986 1024 1024 1900
  | | | | | | - Tag 0x0062 (8 bytes, int16s[4]):
  | | | | | |    3fc9b: c2 07 00 04 00 04 6c 07                         [......l.]
  | | | | | | ColorTempUnknown5 = 4509
  | | | | | | - Tag 0x0066 (2 bytes, int16s[1]):
  | | | | | |    3fca3: 9d 11                                           [..]
  | | | | | | WB_RGGBLevelsUnknown6 = 1986 1024 1024 1900
  | | | | | | - Tag 0x0067 (8 bytes, int16s[4]):
  | | | | | |    3fca5: c2 07 00 04 00 04 6c 07                         [......l.]
  | | | | | | ColorTempUnknown6 = 4509
  | | | | | | - Tag 0x006b (2 bytes, int16s[1]):
  | | | | | |    3fcad: 9d 11                                           [..]
  | | | | | | WB_RGGBLevelsUnknown7 = 1990 1024 1024 1900
  | | | | | | - Tag 0x006c (8 bytes, int16s[4]):
  | | | | | |    3fcaf: c6 07 00 04 00 04 6c 07                         [......l.]
  | | | | | | ColorTempUnknown7 = 4509
  | | | | | | - Tag 0x0070 (2 bytes, int16s[1]):
  | | | | | |    3fcb7: 9d 11                                           [..]
  | | | | | | WB_RGGBLevelsUnknown8 = 1805 1024 1024 1971
  | | | | | | - Tag 0x0071 (8 bytes, int16s[4]):
  | | | | | |    3fcb9: 0d 07 00 04 00 04 b3 07                         [........]
  | | | | | | ColorTempUnknown8 = 4092
  | | | | | | - Tag 0x0075 (2 bytes, int16s[1]):
  | | | | | |    3fcc1: fc 0f                                           [..]
  | | | | | | WB_RGGBLevelsUnknown9 = 1803 1028 1019 1969
  | | | | | | - Tag 0x0076 (8 bytes, int16s[4]):
  | | | | | |    3fcc3: 0b 07 04 04 fb 03 b1 07                         [........]
  | | | | | | ColorTempUnknown9 = 4092
  | | | | | | - Tag 0x007a (2 bytes, int16s[1]):
  | | | | | |    3fccb: fc 0f                                           [..]
  | | | | | | WB_RGGBLevelsUnknown10 = 0 0 0 0
  | | | | | | - Tag 0x007b (8 bytes, int16s[4]):
  | | | | | |    3fccd: 00 00 00 00 00 00 00 00                         [........]
  | | | | | | ColorTempUnknown10 = 0
  | | | | | | - Tag 0x007f (2 bytes, int16s[1]):
  | | | | | |    3fcd5: 00 00                                           [..]
  | | | | | | WB_RGGBLevelsDaylight = 2093 1024 1024 1672
  | | | | | | - Tag 0x0080 (8 bytes, int16s[4]):
  | | | | | |    3fcd7: 2d 08 00 04 00 04 88 06                         [-.......]
  | | | | | | ColorTempDaylight = 5200
  | | | | | | - Tag 0x0084 (2 bytes, int16s[1]):
  | | | | | |    3fcdf: 50 14                                           [P.]
  | | | | | | WB_RGGBLevelsShade = 2422 1024 1024 1442
  | | | | | | - Tag 0x0085 (8 bytes, int16s[4]):
  | | | | | |    3fce1: 76 09 00 04 00 04 a2 05                         [v.......]
  | | | | | | ColorTempShade = 7000
  | | | | | | - Tag 0x0089 (2 bytes, int16s[1]):
  | | | | | |    3fce9: 58 1b                                           [X.]
  | | | | | | WB_RGGBLevelsCloudy = 2250 1024 1024 1549
  | | | | | | - Tag 0x008a (8 bytes, int16s[4]):
  | | | | | |    3fceb: ca 08 00 04 00 04 0d 06                         [........]
  | | | | | | ColorTempCloudy = 6000
  | | | | | | - Tag 0x008e (2 bytes, int16s[1]):
  | | | | | |    3fcf3: 70 17                                           [p.]
  | | | | | | WB_RGGBLevelsTungsten = 1473 1024 1024 2422
  | | | | | | - Tag 0x008f (8 bytes, int16s[4]):
  | | | | | |    3fcf5: c1 05 00 04 00 04 76 09                         [......v.]
  | | | | | | ColorTempTungsten = 3200
  | | | | | | - Tag 0x0093 (2 bytes, int16s[1]):
  | | | | | |    3fcfd: 80 0c                                           [..]
  | | | | | | WB_RGGBLevelsFluorescent = 1824 1024 1024 2294
  | | | | | | - Tag 0x0094 (8 bytes, int16s[4]):
  | | | | | |    3fcff: 20 07 00 04 00 04 f6 08                         [ .......]
  | | | | | | ColorTempFluorescent = 3733
  | | | | | | - Tag 0x0098 (2 bytes, int16s[1]):
  | | | | | |    3fd07: 95 0e                                           [..]
  | | | | | | WB_RGGBLevelsKelvin = 2093 1024 1024 1672
  | | | | | | - Tag 0x0099 (8 bytes, int16s[4]):
  | | | | | |    3fd09: 2d 08 00 04 00 04 88 06                         [-.......]
  | | | | | | ColorTempKelvin = 5188
  | | | | | | - Tag 0x009d (2 bytes, int16s[1]):
  | | | | | |    3fd11: 44 14                                           [D.]
  | | | | | | WB_RGGBLevelsFlash = 2310 1024 1024 1547
  | | | | | | - Tag 0x009e (8 bytes, int16s[4]):
  | | | | | |    3fd13: 06 09 00 04 00 04 0b 06                         [........]
  | | | | | | ColorTempFlash = 6172
  | | | | | | - Tag 0x00a2 (2 bytes, int16s[1]):
  | | | | | |    3fd1b: 1c 18                                           [..]
  | | | | | | WB_RGGBLevelsUnknown11 = 2093 1024 1024 1672
  | | | | | | - Tag 0x00a3 (8 bytes, int16s[4]):
  | | | | | |    3fd1d: 2d 08 00 04 00 04 88 06                         [-.......]
  | | | | | | ColorTempUnknown11 = 5188
  | | | | | | - Tag 0x00a7 (2 bytes, int16s[1]):
  | | | | | |    3fd25: 44 14                                           [D.]
  | | | | | | WB_RGGBLevelsUnknown12 = 2093 1024 1024 1672
  | | | | | | - Tag 0x00a8 (8 bytes, int16s[4]):
  | | | | | |    3fd27: 2d 08 00 04 00 04 88 06                         [-.......]
  | | | | | | ColorTempUnknown12 = 5188
  | | | | | | - Tag 0x00ac (2 bytes, int16s[1]):
  | | | | | |    3fd2f: 44 14                                           [D.]
  | | | | | | WB_RGGBLevelsUnknown13 = 2093 1024 1024 1672
  | | | | | | - Tag 0x00ad (8 bytes, int16s[4]):
  | | | | | |    3fd31: 2d 08 00 04 00 04 88 06                         [-.......]
  | | | | | | ColorTempUnknown13 = 5188
  | | | | | | - Tag 0x00b1 (2 bytes, int16s[1]):
  | | | | | |    3fd39: 44 14                                           [D.]
  | | | | | | WB_RGGBLevelsUnknown14 = 2093 1024 1024 1672
  | | | | | | - Tag 0x00b2 (8 bytes, int16s[4]):
  | | | | | |    3fd3b: 2d 08 00 04 00 04 88 06                         [-.......]
  | | | | | | ColorTempUnknown14 = 5188
  | | | | | | - Tag 0x00b6 (2 bytes, int16s[1]):
  | | | | | |    3fd43: 44 14                                           [D.]
  | | | | | | WB_RGGBLevelsUnknown15 = 2093 1024 1024 1672
  | | | | | | - Tag 0x00b7 (8 bytes, int16s[4]):
  | | | | | |    3fd45: 2d 08 00 04 00 04 88 06                         [-.......]
  | | | | | | ColorTempUnknown15 = 5188
  | | | | | | - Tag 0x00bb (2 bytes, int16s[1]):
  | | | | | |    3fd4d: 44 14                                           [D.]
  | | | | | | WB_RGGBLevelsUnknown16 = 993 1024 1024 1025
  | | | | | | - Tag 0x00bc (8 bytes, int16s[4]):
  | | | | | |    3fd4f: e1 03 00 04 00 04 01 04                         [........]
  | | | | | | ColorTempUnknown16 = 4209
  | | | | | | - Tag 0x00c0 (2 bytes, int16s[1]):
  | | | | | |    3fd57: 71 10                                           [q.]
  | | | | | | WB_RGGBLevelsUnknown17 = 993 1024 1024 1025
  | | | | | | - Tag 0x00c1 (8 bytes, int16s[4]):
  | | | | | |    3fd59: e1 03 00 04 00 04 01 04                         [........]
  | | | | | | ColorTempUnknown17 = 4209
  | | | | | | - Tag 0x00c5 (2 bytes, int16s[1]):
  | | | | | |    3fd61: 71 10                                           [q.]
  | | | | | | WB_RGGBLevelsUnknown18 = 993 1024 1024 1025
  | | | | | | - Tag 0x00c6 (8 bytes, int16s[4]):
  | | | | | |    3fd63: e1 03 00 04 00 04 01 04                         [........]
  | | | | | | ColorTempUnknown18 = 4209
  | | | | | | - Tag 0x00ca (2 bytes, int16s[1]):
  | | | | | |    3fd6b: 71 10                                           [q.]
  | | | | | | WB_RGGBLevelsUnknown19 = 993 1024 1024 1025
  | | | | | | - Tag 0x00cb (8 bytes, int16s[4]):
  | | | | | |    3fd6d: e1 03 00 04 00 04 01 04                         [........]
  | | | | | | ColorTempUnknown19 = 4209
  | | | | | | - Tag 0x00cf (2 bytes, int16s[1]):
  | | | | | |    3fd75: 71 10                                           [q.]
  | | | | | | WB_RGGBLevelsUnknown20 = 993 1024 1024 1025
  | | | | | | - Tag 0x00d0 (8 bytes, int16s[4]):
  | | | | | |    3fd77: e1 03 00 04 00 04 01 04                         [........]
  | | | | | | ColorTempUnknown20 = 4209
  | | | | | | - Tag 0x00d4 (2 bytes, int16s[1]):
  | | | | | |    3fd7f: 71 10                                           [q.]
  | | | | | | ColorCalib (SubDirectory) -->
  | | | | | | - Tag 0x00d5 (120 bytes, undef[120]):
  | | | | | |    3fd81: e1 fe 7d 01 48 03 94 2a f4 fe 86 01 30 03 10 27 [..}.H..*....0..']
  | | | | | |    3fd91: 1c ff 9a 01 03 03 6c 20 45 ff b1 01 d7 02 58 1b [......l E.....X.]
  | | | | | |    3fda1: 79 ff d2 01 a5 02 70 17 92 ff e2 01 8d 02 e0 15 [y.....p.........]
  | | | | | |    3fdb1: ae ff f5 01 73 02 50 14 db ff 10 02 4a 02 5c 12 [....s.P.....J.\.]
  | | | | | |    3fdc1: 12 00 39 02 1e 02 68 10 46 00 63 02 f8 01 d8 0e [..9...h.F.c.....]
  | | | | | |    3fdd1: 78 00 8f 02 d7 01 ac 0d b3 00 c8 02 b1 01 80 0c [x...............]
  | | | | | |    3fde1: e2 00 f4 02 92 01 b8 0b 0f 01 29 03 7d 01 f0 0a [..........).}...]
  | | | | | |    3fdf1: 80 01 b8 03 48 01 60 09                         [....H.`.]
  | | | | | | + [BinaryData directory, 120 bytes, Little-endian]
  | | | | | | | CameraColorCalibration01 = -287 381 840 10900
  | | | | | | | - Tag 0x0000 (8 bytes, int16s[4]):
  | | | | | | |    3fd81: e1 fe 7d 01 48 03 94 2a                         [..}.H..*]
  | | | | | | | CameraColorCalibration02 = -268 390 816 10000
  | | | | | | | - Tag 0x0004 (8 bytes, int16s[4]):
  | | | | | | |    3fd89: f4 fe 86 01 30 03 10 27                         [....0..']
  | | | | | | | CameraColorCalibration03 = -228 410 771 8300
  | | | | | | | - Tag 0x0008 (8 bytes, int16s[4]):
  | | | | | | |    3fd91: 1c ff 9a 01 03 03 6c 20                         [......l ]
  | | | | | | | CameraColorCalibration04 = -187 433 727 7000
  | | | | | | | - Tag 0x000c (8 bytes, int16s[4]):
  | | | | | | |    3fd99: 45 ff b1 01 d7 02 58 1b                         [E.....X.]
  | | | | | | | CameraColorCalibration05 = -135 466 677 6000
  | | | | | | | - Tag 0x0010 (8 bytes, int16s[4]):
  | | | | | | |    3fda1: 79 ff d2 01 a5 02 70 17                         [y.....p.]
  | | | | | | | CameraColorCalibration06 = -110 482 653 5600
  | | | | | | | - Tag 0x0014 (8 bytes, int16s[4]):
  | | | | | | |    3fda9: 92 ff e2 01 8d 02 e0 15                         [........]
  | | | | | | | CameraColorCalibration07 = -82 501 627 5200
  | | | | | | | - Tag 0x0018 (8 bytes, int16s[4]):
  | | | | | | |    3fdb1: ae ff f5 01 73 02 50 14                         [....s.P.]
  | | | | | | | CameraColorCalibration08 = -37 528 586 4700
  | | | | | | | - Tag 0x001c (8 bytes, int16s[4]):
  | | | | | | |    3fdb9: db ff 10 02 4a 02 5c 12                         [....J.\.]
  | | | | | | | CameraColorCalibration09 = 18 569 542 4200
  | | | | | | | - Tag 0x0020 (8 bytes, int16s[4]):
  | | | | | | |    3fdc1: 12 00 39 02 1e 02 68 10                         [..9...h.]
  | | | | | | | CameraColorCalibration10 = 70 611 504 3800
  | | | | | | | - Tag 0x0024 (8 bytes, int16s[4]):
  | | | | | | |    3fdc9: 46 00 63 02 f8 01 d8 0e                         [F.c.....]
  | | | | | | | CameraColorCalibration11 = 120 655 471 3500
  | | | | | | | - Tag 0x0028 (8 bytes, int16s[4]):
  | | | | | | |    3fdd1: 78 00 8f 02 d7 01 ac 0d                         [x.......]
  | | | | | | | CameraColorCalibration12 = 179 712 433 3200
  | | | | | | | - Tag 0x002c (8 bytes, int16s[4]):
  | | | | | | |    3fdd9: b3 00 c8 02 b1 01 80 0c                         [........]
  | | | | | | | CameraColorCalibration13 = 226 756 402 3000
  | | | | | | | - Tag 0x0030 (8 bytes, int16s[4]):
  | | | | | | |    3fde1: e2 00 f4 02 92 01 b8 0b                         [........]
  | | | | | | | CameraColorCalibration14 = 271 809 381 2800
  | | | | | | | - Tag 0x0034 (8 bytes, int16s[4]):
  | | | | | | |    3fde9: 0f 01 29 03 7d 01 f0 0a                         [..).}...]
  | | | | | | | CameraColorCalibration15 = 384 952 328 2400
  | | | | | | | - Tag 0x0038 (8 bytes, int16s[4]):
  | | | | | | |    3fdf1: 80 01 b8 03 48 01 60 09                         [....H.`.]
  | | | | | | AverageBlackLevel = 2049 2049 2049 2049
  | | | | | | - Tag 0x0114 (8 bytes, int16u[4]):
  | | | | | |    3fdff: 01 08 01 08 01 08 01 08                         [........]
  | | | | | | FlashOutput = 0
  | | | | | | - Tag 0x0198 (2 bytes, int16s[1]):
  | | | | | |    3ff07: 00 00                                           [..]
  | | | | | | FlashBatteryLevel = 0
  | | | | | | - Tag 0x0199 (2 bytes, int16s[1]):
  | | | | | |    3ff09: 00 00                                           [..]
  | | | | | | RawMeasuredRGGB = 1748762625 1803419650 1836777474 929562625
  | | | | | | - Tag 0x01ad (16 bytes, int32u[4]):
  | | | | | |    3ff31: 01 00 3c 68 02 00 7e 6b 02 00 7b 6d 01 00 68 37 [..<h..~k..{m..h7]
  | | | | | | PerChannelBlackLevel = 2049 2049 2049 2049
  | | | | | | - Tag 0x01f8 (8 bytes, int16u[4]):
  | | | | | |    3ffc7: 01 08 01 08 01 08 01 08                         [........]
  | | | | | | NormalWhiteLevel = 14580
  | | | | | | - Tag 0x01fc (2 bytes, int16u[1]):
  | | | | | |    3ffcf: f4 38                                           [.8]
  | | | | | | SpecularWhiteLevel = 15092
  | | | | | | - Tag 0x01fd (2 bytes, int16u[1]):
  | | | | | |    3ffd1: f4 3a                                           [.:]
  | | | | | | LinearityUpperMargin = 10000
  | | | | | | - Tag 0x01fe (2 bytes, int16u[1]):
  | | | | | |    3ffd3: 10 27                                           [.']
  | | | | | 26) PictureStyleUserDef = 135 135 135
  | | | | |     - Tag 0x4008 (6 bytes, int16u[3]):
  | | | | |        40619: 87 00 87 00 87 00                               [......]
  | | | | | 27) PictureStylePC = 0 0 0
  | | | | |     - Tag 0x4009 (6 bytes, int16u[3]):
  | | | | |        4061f: 00 00 00 00 00 00                               [......]
  | | | | | 28) CustomPictureStyleFileName = 
  | | | | |     - Tag 0x4010 (32 bytes, string[32]):
  | | | | |        40625: 00 00 00 00 00 00 00 00 00 00 00 00 00 00 00 00 [................]
  | | | | |        40635: 00 00 00 00 00 00 00 00 00 00 00 00 00 00 00 00 [................]
  | | | | | 29) Canon_0x4011 = 
  | | | | |     - Tag 0x4011 (252 bytes, undef[252]):
  | | | | |        40645: 00 00 00 00 00 00 00 00 00 00 00 00 00 00 00 00 [................]
  | | | | |        40655: 00 00 00 00 00 00 00 00 00 00 00 00 00 00 00 00 [................]
  | | | | |        40665: 00 00 00 00 00 00 00 00 00 00 00 00 00 00 00 00 [................]
  | | | | |        40675: 00 00 00 00 00 00 00 00 00 00 00 00 00 00 00 00 [................]
  | | | | |        40685: 00 00 00 00 00 00 00 00 00 00 00 00 00 00 00 00 [................]
  | | | | |        40695: 00 00 00 00 00 00 00 00 00 00 00 00 00 00 00 00 [................]
  | | | | |        406a5: 00 00 00 00 00 00 00 00 00 00 00 00 00 00 00 00 [................]
  | | | | |        406b5: 00 00 00 00 00 00 00 00 00 00 00 00 00 00 00 00 [................]
  | | | | |        406c5: 00 00 00 00 00 00 00 00 00 00 00 00 00 00 00 00 [................]
  | | | | |        406d5: 00 00 00 00 00 00 00 00 00 00 00 00 00 00 00 00 [................]
  | | | | |        406e5: 00 00 00 00 00 00 00 00 00 00 00 00 00 00 00 00 [................]
  | | | | |        406f5: 00 00 00 00 00 00 00 00 00 00 00 00 00 00 00 00 [................]
  | | | | |        40705: 00 00 00 00 00 00 00 00 00 00 00 00 00 00 00 00 [................]
  | | | | |        40715: 00 00 00 00 00 00 00 00 00 00 00 00 00 00 00 00 [................]
  | | | | |        40725: 00 00 00 00 00 00 00 00 00 00 00 00 00 00 00 00 [................]
  | | | | |        40735: 00 00 00 00 00 00 00 00 00 00 00 00             [............]
  | | | | | 30) Canon_0x4012 = 
  | | | | |     - Tag 0x4012 (32 bytes, string[32]):
  | | | | |        40741: 00 00 00 00 00 00 00 00 00 00 00 00 00 00 00 00 [................]
  | | | | |        40751: 00 00 00 00 00 00 00 00 00 00 00 00 00 00 00 00 [................]
  | | | | | 31) AFMicroAdj (SubDirectory) -->
  | | | | |     - Tag 0x4013 (44 bytes, int32u[11] read as undef[44]):
  | | | | |        40761: 2c 00 00 00 00 00 00 00 00 00 00 00 0a 00 00 00 [,...............]
  | | | | |        40771: ff ff ff ff 00 00 00 00 0a 00 00 00 00 00 00 00 [................]
  | | | | |        40781: 0a 00 00 00 00 00 00 00 0a 00 00 00             [............]
  | | | | | + [BinaryData directory, 44 bytes, Little-endian]
  | | | | | | AFMicroAdjMode = 0
  | | | | | | - Tag 0x0001 (4 bytes, int32s[1]):
  | | | | | |    40765: 00 00 00 00                                     [....]
  | | | | | | AFMicroAdjValue = 0
  | | | | | | - Tag 0x0002 (8 bytes, rational64s[1]):
  | | | | | |    40769: 00 00 00 00 0a 00 00 00                         [........]
  | | | | | 32) VignettingCorr (SubDirectory) -->
  | | | | |     - Tag 0x4015 (456 bytes, undef[456]):
  | | | | |        4078d: 00 21 c8 01 00 00 00 00 00 00 00 00 00 00 00 00 [.!..............]
  | | | | |        4079d: 00 00 00 00 04 10 60 15 40 0e ff 1f d1 1e 3f 1d [......`.@.....?.]
  | | | | |        407ad: f9 1b 8f 1a 5c 18 00 00 b2 03 ea 05 65 07 df 08 [....\.......e...]
  | | | | |        407bd: 1a 0a 00 40 81 40 be 40 dc 40 d6 40 cf 40 00 40 [...@.@.@.@.@.@.@]
  | | | | |        407cd: ea 3f fc 3f 47 40 a6 40 cf 40 00 00 b2 03 ea 05 [.?.?G@.@.@......]
  | | | | |        407dd: 22 08 9d 09 1a 0a e4 3f cf 3f b2 3f 93 3f 84 3f ["......?.?.?.?.?]
  | | | | |        407ed: 81 3f 00 00 b2 03 ea 05 22 08 9d 09 1a 0a 00 00 [.?......".......]
  | | | | |        407fd: 00 00 00 00 00 00 00 00 00 00 00 00 00 00 00 00 [................]
  | | | | |        4080d: 00 00 00 00 00 00 00 00 00 00 00 00 00 00 00 00 [................]
  | | | | |        4081d: 00 00 00 00 00 00 00 00 00 00 00 00 00 00 00 00 [................]
  | | | | |        4082d: 00 00 00 00 00 00 00 00 00 00 00 00 00 00 00 00 [................]
  | | | | |        4083d: 00 00 00 00 00 00 00 00 00 00 00 00 00 00 00 00 [................]
  | | | | |        4084d: 00 00 00 00 00 00 00 00 00 00 00 00 00 00 00 00 [................]
  | | | | |        4085d: 00 00 00 00 00 00 00 00 00 00 00 00 00 00 00 00 [................]
  | | | | |        4086d: 00 00 00 00 00 00 00 00 00 00 00 00 00 00 00 00 [................]
  | | | | |        4087d: 00 00 00 00 00 00 00 00 00 00 00 00 00 00 00 00 [................]
  | | | | |        4088d: 00 00 00 00 00 00 00 00 00 00 00 00 00 00 00 00 [................]
  | | | | |        4089d: 00 00 00 00 00 00 00 00 00 00 00 00 00 00 00 00 [................]
  | | | | |        408ad: 00 00 00 00 00 00 00 00 00 00 00 00 00 00 00 00 [................]
  | | | | |        408bd: 00 00 00 00 00 00 00 00 00 00 00 00 00 00 00 00 [................]
  | | | | |        408cd: 00 00 00 00 00 00 00 00 00 00 00 00 00 00 00 00 [................]
  | | | | |        408dd: 00 00 00 00 00 00 00 00 00 00 00 00 00 00 00 00 [................]
  | | | | |        408ed: 00 00 00 00 00 00 00 00 00 00 00 00 00 00 00 00 [................]
  | | | | |        408fd: 00 00 00 00 00 00 00 00 00 00 00 00 00 00 00 00 [................]
  | | | | |        4090d: 00 00 00 00 00 00 00 00 00 00 00 00 00 00 00 00 [................]
  | | | | |        4091d: 00 00 00 00 00 00 00 00 00 00 00 00 00 00 00 00 [................]
  | | | | |        4092d: 00 00 00 00 00 00 00 00 00 00 00 00 00 00 00 00 [................]
  | | | | |        4093d: 00 00 00 00 00 00 00 00 00 00 00 00 00 00 00 00 [................]
  | | | | |        4094d: 00 00 00 00 32 00 00 00                         [....2...]
  | | | | | + [BinaryData directory, 456 bytes, Little-endian]
  | | | | | | PeripheralLighting = 0
  | | | | | | - Tag 0x0002 (2 bytes, int16s[1]):
  | | | | | |    40791: 00 00                                           [..]
  | | | | | | DistortionCorrection = 0
  | | | | | | - Tag 0x0003 (2 bytes, int16s[1]):
  | | | | | |    40793: 00 00                                           [..]
  | | | | | | ChromaticAberrationCorr = 0
  | | | | | | - Tag 0x0004 (2 bytes, int16s[1]):
  | | | | | |    40795: 00 00                                           [..]
  | | | | | | ChromaticAberrationCorr = 0
  | | | | | | - Tag 0x0005 (2 bytes, int16s[1]):
  | | | | | |    40797: 00 00                                           [..]
  | | | | | | PeripheralLightingValue = 0
  | | | | | | - Tag 0x0006 (2 bytes, int16s[1]):
  | | | | | |    40799: 00 00                                           [..]
  | | | | | | DistortionCorrectionValue = 0
  | | | | | | - Tag 0x0009 (2 bytes, int16s[1]):
  | | | | | |    4079f: 00 00                                           [..]
  | | | | | | OriginalImageWidth = 5472
  | | | | | | - Tag 0x000b (2 bytes, int16s[1]):
  | | | | | |    407a3: 60 15                                           [`.]
  | | | | | | OriginalImageHeight = 3648
  | | | | | | - Tag 0x000c (2 bytes, int16s[1]):
  | | | | | |    407a5: 40 0e                                           [@.]
  | | | | | 33) VignettingCorr2 (SubDirectory) -->
  | | | | |     - Tag 0x4016 (28 bytes, int32u[7] read as undef[28]):
  | | | | |        40955: 1c 00 00 00 00 00 00 00 01 00 00 00 00 00 00 00 [................]
  | | | | |        40965: 01 00 00 00 00 00 00 00 00 00 00 00             [............]
  | | | | | + [BinaryData directory, 28 bytes, Little-endian]
  | | | | | | PeripheralLightingSetting = 0
  | | | | | | - Tag 0x0005 (4 bytes, int32s[1]):
  | | | | | |    40969: 00 00 00 00                                     [....]
  | | | | | | ChromaticAberrationSetting = 0
  | | | | | | - Tag 0x0006 (4 bytes, int32s[1]):
  | | | | | |    4096d: 00 00 00 00                                     [....]
  | | | | | 34) LightingOpt (SubDirectory) -->
  | | | | |     - Tag 0x4018 (28 bytes, int32u[7] read as undef[28]):
  | | | | |        40971: 1c 00 00 00 00 00 00 00 00 00 00 00 00 00 00 00 [................]
  | | | | |        40981: 00 00 00 00 00 00 00 00 01 00 00 00             [............]
  | | | | | + [BinaryData directory, 28 bytes, Little-endian]
  | | | | | | PeripheralIlluminationCorr = 0
  | | | | | | - Tag 0x0001 (4 bytes, int32s[1]):
  | | | | | |    40975: 00 00 00 00                                     [....]
  | | | | | | AutoLightingOptimizer = 0
  | | | | | | - Tag 0x0002 (4 bytes, int32s[1]):
  | | | | | |    40979: 00 00 00 00                                     [....]
  | | | | | | HighlightTonePriority = 0
  | | | | | | - Tag 0x0003 (4 bytes, int32s[1]):
  | | | | | |    4097d: 00 00 00 00                                     [....]
  | | | | | | LongExposureNoiseReduction = 0
  | | | | | | - Tag 0x0004 (4 bytes, int32s[1]):
  | | | | | |    40981: 00 00 00 00                                     [....]
  | | | | | | HighISONoiseReduction = 0
  | | | | | | - Tag 0x0005 (4 bytes, int32s[1]):
  | | | | | |    40985: 00 00 00 00                                     [....]
  | | | | | 35) LensInfo (SubDirectory) -->
  | | | | |     - Tag 0x4019 (30 bytes, undef[30]):
  | | | | |        4098d: 00 00 21 4e 1c 00 00 00 00 00 00 00 00 00 00 00 [..!N............]
  | | | | |        4099d: 00 00 00 00 00 00 00 00 00 00 00 00 00 00       [..............]
  | | | | | + [BinaryData directory, 30 bytes, Little-endian]
  | | | | | | LensSerialNumber = !N.
  | | | | | | - Tag 0x0000 (5 bytes, undef[5]):
  | | | | | |    4098d: 00 00 21 4e 1c                                  [..!N.]
  | | | | | 36) AmbienceInfo (SubDirectory) -->
  | | | | |     - Tag 0x4020 (28 bytes, int32u[7] read as undef[28]):
  | | | | |        409ab: 1c 00 00 00 00 00 00 00 00 00 00 00 00 00 00 00 [................]
  | | | | |        409bb: 00 00 00 00 ff ff ff 7f 00 00 00 00             [............]
  | | | | | + [BinaryData directory, 28 bytes, Little-endian]
  | | | | | | AmbienceSelection = 0
  | | | | | | - Tag 0x0001 (4 bytes, int32s[1]):
  | | | | | |    409af: 00 00 00 00                                     [....]
  | | | | | 37) MultiExp (SubDirectory) -->
  | | | | |     - Tag 0x4021 (20 bytes, int32u[5] read as undef[20]):
  | | | | |        409c7: 14 00 00 00 00 00 00 00 00 00 00 00 00 00 00 00 [................]
  | | | | |        409d7: 01 00 00 00                                     [....]
  | | | | | + [BinaryData directory, 20 bytes, Little-endian]
  | | | | | | MultiExposure = 0
  | | | | | | - Tag 0x0001 (4 bytes, int32s[1]):
  | | | | | |    409cb: 00 00 00 00                                     [....]
  | | | | | | MultiExposureControl = 0
  | | | | | | - Tag 0x0002 (4 bytes, int32s[1]):
  | | | | | |    409cf: 00 00 00 00                                     [....]
  | | | | | | MultiExposureShots = 0
  | | | | | | - Tag 0x0003 (4 bytes, int32s[1]):
  | | | | | |    409d3: 00 00 00 00                                     [....]
  | | | | | 38) FilterInfo (SubDirectory) -->
  | | | | |     - Tag 0x4024 (212 bytes, int32u[53] read as undef[212]):
  | | | | |        409db: d4 00 00 00 07 00 00 00 01 00 00 00 14 00 00 00 [................]
  | | | | |        409eb: 01 00 00 00 01 01 00 00 01 00 00 00 ff ff ff ff [................]
  | | | | |        409fb: 02 00 00 00 14 00 00 00 01 00 00 00 01 02 00 00 [................]
  | | | | |        40a0b: 01 00 00 00 ff ff ff ff 03 00 00 00 14 00 00 00 [................]
  | | | | |        40a1b: 01 00 00 00 01 03 00 00 01 00 00 00 ff ff ff ff [................]
  | | | | |        40a2b: 04 00 00 00 38 00 00 00 04 00 00 00 01 04 00 00 [....8...........]
  | | | | |        40a3b: 01 00 00 00 ff ff ff ff 02 04 00 00 01 00 00 00 [................]
  | | | | |        40a4b: 00 00 00 00 03 04 00 00 01 00 00 00 00 00 00 00 [................]
  | | | | |        40a5b: 04 04 00 00 01 00 00 00 00 00 00 00 05 00 00 00 [................]
  | | | | |        40a6b: 14 00 00 00 01 00 00 00 01 05 00 00 01 00 00 00 [................]
  | | | | |        40a7b: ff ff ff ff 06 00 00 00 14 00 00 00 01 00 00 00 [................]
  | | | | |        40a8b: 01 06 00 00 01 00 00 00 ff ff ff ff 07 00 00 00 [................]
  | | | | |        40a9b: 14 00 00 00 01 00 00 00 01 07 00 00 01 00 00 00 [................]
  | | | | |        40aab: ff ff ff ff                                     [....]
  | | | | | + [Creative Filter directory with 7 entries]
  | | | | | + [Filter 1 directory with 1 entries, 20 bytes]
  | | | | | | GrainyBWFilter = -1
  | | | | | | - Tag 0x0101 (4 bytes):
  | | | | | |     2208: ff ff ff ff                                     [....]
  | | | | | + [Filter 2 directory with 1 entries, 20 bytes]
  | | | | | | SoftFocusFilter = -1
  | | | | | | - Tag 0x0201 (4 bytes):
  | | | | | |     2220: ff ff ff ff                                     [....]
  | | | | | + [Filter 3 directory with 1 entries, 20 bytes]
  | | | | | | ToyCameraFilter = -1
  | | | | | | - Tag 0x0301 (4 bytes):
  | | | | | |     2238: ff ff ff ff                                     [....]
  | | | | | + [Filter 4 directory with 4 entries, 56 bytes]
  | | | | | | MiniatureFilter = -1
  | | | | | | - Tag 0x0401 (4 bytes):
  | | | | | |     2250: ff ff ff ff                                     [....]
  | | | | | | MiniatureFilterOrientation = 0
  | | | | | | - Tag 0x0402 (4 bytes):
  | | | | | |     225c: 00 00 00 00                                     [....]
  | | | | | | MiniatureFilterPosition = 0
  | | | | | | - Tag 0x0403 (4 bytes):
  | | | | | |     2268: 00 00 00 00                                     [....]
  | | | | | | MiniatureFilterParameter = 0
  | | | | | | - Tag 0x0404 (4 bytes):
  | | | | | |     2274: 00 00 00 00                                     [....]
  | | | | | + [Filter 5 directory with 1 entries, 20 bytes]
  | | | | | | FisheyeFilter = -1
  | | | | | | - Tag 0x0501 (4 bytes):
  | | | | | |     228c: ff ff ff ff                                     [....]
  | | | | | + [Filter 6 directory with 1 entries, 20 bytes]
  | | | | | | PaintingFilter = -1
  | | | | | | - Tag 0x0601 (4 bytes):
  | | | | | |     22a4: ff ff ff ff                                     [....]
  | | | | | + [Filter 7 directory with 1 entries, 20 bytes]
  | | | | | | WatercolorFilter = -1
  | | | | | | - Tag 0x0701 (4 bytes):
  | | | | | |     22bc: ff ff ff ff                                     [....]
  | | | | | 39) HDRInfo (SubDirectory) -->
  | | | | |     - Tag 0x4025 (36 bytes, int32u[9] read as undef[36]):
  | | | | |        40aaf: 24 00 00 00 00 00 00 00 00 00 00 00 00 00 00 00 [$...............]
  | | | | |        40abf: 00 00 00 00 00 00 00 00 00 00 00 00 00 00 00 00 [................]
  | | | | |        40acf: 00 00 00 00                                     [....]
  | | | | | + [BinaryData directory, 36 bytes, Little-endian]
  | | | | | | HDR = 0
  | | | | | | - Tag 0x0001 (4 bytes, int32s[1]):
  | | | | | |    40ab3: 00 00 00 00                                     [....]
  | | | | | | HDREffect = 0
  | | | | | | - Tag 0x0002 (4 bytes, int32s[1]):
  | | | | | |    40ab7: 00 00 00 00                                     [....]
  | | | | | 40) Canon_0x4027 = 24 524546 2969567282 134217728 13684944 65539
  | | | | |     - Tag 0x4027 (24 bytes, int32u[6]):
  | | | | |        40ad3: 18 00 00 00 02 01 08 00 32 00 00 b1 00 00 00 08 [........2.......]
  | | | | |        40ae3: d0 d0 d0 00 03 00 01 00                         [........]
  | | | | 17) UserComment = 
  | | | |     - Tag 0x9286 (264 bytes, undef[264]):
  | | | |        40af3: 00 00 00 00 00 00 00 00 00 00 00 00 00 00 00 00 [................]
  | | | |        40b03: 00 00 00 00 00 00 00 00 00 00 00 00 00 00 00 00 [................]
  | | | |        40b13: 00 00 00 00 00 00 00 00 00 00 00 00 00 00 00 00 [................]
  | | | |        40b23: 00 00 00 00 00 00 00 00 00 00 00 00 00 00 00 00 [................]
  | | | |        40b33: 00 00 00 00 00 00 00 00 00 00 00 00 00 00 00 00 [................]
  | | | |        40b43: 00 00 00 00 00 00 00 00 00 00 00 00 00 00 00 00 [................]
  | | | |        40b53: 00 00 00 00 00 00 00 00 00 00 00 00 00 00 00 00 [................]
  | | | |        40b63: 00 00 00 00 00 00 00 00 00 00 00 00 00 00 00 00 [................]
  | | | |        40b73: 00 00 00 00 00 00 00 00 00 00 00 00 00 00 00 00 [................]
  | | | |        40b83: 00 00 00 00 00 00 00 00 00 00 00 00 00 00 00 00 [................]
  | | | |        40b93: 00 00 00 00 00 00 00 00 00 00 00 00 00 00 00 00 [................]
  | | | |        40ba3: 00 00 00 00 00 00 00 00 00 00 00 00 00 00 00 00 [................]
  | | | |        40bb3: 00 00 00 00 00 00 00 00 00 00 00 00 00 00 00 00 [................]
  | | | |        40bc3: 00 00 00 00 00 00 00 00 00 00 00 00 00 00 00 00 [................]
  | | | |        40bd3: 00 00 00 00 00 00 00 00 00 00 00 00 00 00 00 00 [................]
  | | | |        40be3: 00 00 00 00 00 00 00 00 00 00 00 00 00 00 00 00 [................]
  | | | |        40bf3: 00 00 00 00 00 00 00 00                         [........]
  | | | | 18) SubSecTime = 00
  | | | |     - Tag 0x9290 (3 bytes, string[3]):
  | | | |        3e9a7: 30 30 00                                        [00.]
  | | | | 19) SubSecTimeOriginal = 00
  | | | |     - Tag 0x9291 (3 bytes, string[3]):
  | | | |        3e9b3: 30 30 00                                        [00.]
  | | | | 20) SubSecTimeDigitized = 00
  | | | |     - Tag 0x9292 (3 bytes, string[3]):
  | | | |        3e9bf: 30 30 00                                        [00.]
  | | | | 21) FlashpixVersion = 0100
  | | | |     - Tag 0xa000 (4 bytes, undef[4]):
  | | | |        3e9cb: 30 31 30 30                                     [0100]
  | | | | 22) ColorSpace = 1
  | | | |     - Tag 0xa001 (2 bytes, int16u[1]):
  | | | |        3e9d7: 01 00                                           [..]
  | | | | 23) ExifImageWidth = 5472
  | | | |     - Tag 0xa002 (2 bytes, int16u[1]):
  | | | |        3e9e3: 60 15                                           [`.]
  | | | | 24) ExifImageHeight = 3648
  | | | |     - Tag 0xa003 (2 bytes, int16u[1]):
  | | | |        3e9ef: 40 0e                                           [@.]
  | | | | 25) InteropOffset (SubDirectory) -->
  | | | |     - Tag 0xa005 (4 bytes, int32u[1]):
  | | | |        3e9fb: 68 24 00 00                                     [h$..]
  | | | | + [InteropIFD directory with 2 entries, Little-endian]
  | | | | | 0)  InteropIndex = R98
  | | | | |     - Tag 0x0001 (4 bytes, string[4]):
  | | | | |        40c61: 52 39 38 00                                     [R98.]
  | | | | | 1)  InteropVersion = 0100
  | | | | |     - Tag 0x0002 (4 bytes, undef[4]):
  | | | | |        40c6d: 30 31 30 30                                     [0100]
  | | | | 26) FocalPlaneXResolution = 6086.76307 (5472000/899)
  | | | |     - Tag 0xa20e (8 bytes, rational64u[1]):
  | | | |        40bfb: 00 7f 53 00 83 03 00 00                         [..S.....]
  | | | | 27) FocalPlaneYResolution = 6090.15025 (3648000/599)
  | | | |     - Tag 0xa20f (8 bytes, rational64u[1]):
  | | | |        40c03: 00 aa 37 00 57 02 00 00                         [..7.W...]
  | | | | 28) FocalPlaneResolutionUnit = 2
  | | | |     - Tag 0xa210 (2 bytes, int16u[1]):
  | | | |        3ea1f: 02 00                                           [..]
  | | | | 29) CustomRendered = 0
  | | | |     - Tag 0xa401 (2 bytes, int16u[1]):
  | | | |        3ea2b: 00 00                                           [..]
  | | | | 30) ExposureMode = 0
  | | | |     - Tag 0xa402 (2 bytes, int16u[1]):
  | | | |        3ea37: 00 00                                           [..]
  | | | | 31) WhiteBalance = 0
  | | | |     - Tag 0xa403 (2 bytes, int16u[1]):
  | | | |        3ea43: 00 00                                           [..]
  | | | | 32) SceneCaptureType = 0
  | | | |     - Tag 0xa406 (2 bytes, int16u[1]):
  | | | |        3ea4f: 00 00                                           [..]
  | | | | 33) OwnerName = 
  | | | |     - Tag 0xa430 (1 bytes, string[1]):
  | | | |        3ea5b: 00                                              [.]
  | | | | 34) SerialNumber = 053022005903
  | | | |     - Tag 0xa431 (13 bytes, string[13]):
  | | | |        40c0b: 30 35 33 30 32 32 30 30 35 39 30 33 00          [053022005903.]
  | | | | 35) LensInfo = 50 50 0 0 (50/1 50/1 0/1 0/1)
  | | | |     - Tag 0xa432 (32 bytes, rational64u[4]):
  | | | |        40c19: 32 00 00 00 01 00 00 00 32 00 00 00 01 00 00 00 [2.......2.......]
  | | | |        40c29: 00 00 00 00 01 00 00 00 00 00 00 00 01 00 00 00 [................]
  | | | | 36) LensModel = EF50mm f/1.8 STM
  | | | |     - Tag 0xa434 (17 bytes, string[17]):
  | | | |        40c39: 45 46 35 30 6d 6d 20 66 2f 31 2e 38 20 53 54 4d [EF50mm f/1.8 STM]
  | | | |        40c49: 00                                              [.]
  | | | | 37) LensSerialNumber = 0000214e1c
  | | | |     - Tag 0xa435 (11 bytes, string[11]):
  | | | |        40c4b: 30 30 30 30 32 31 34 65 31 63 00                [0000214e1c.]
  | | | 11) GPSInfo (SubDirectory) -->
  | | |     - Tag 0x8825 (4 bytes, int32u[1]):
  | | |        3e885: 86 24 00 00                                     [.$..]
  | | | + [GPS directory with 1 entries, Little-endian]
  | | | | 0)  GPSVersionID = 2 3 0 0
  | | | |     - Tag 0x0000 (4 bytes, int8u[4]):
  | | | |        40c7f: 02 03 00 00                                     [....]
  | | + [IFD1 directory with 6 entries, Little-endian]
  | | | 0)  Compression = 6
  | | |     - Tag 0x0103 (2 bytes, int16u[1]):
  | | |        40c91: 06 00                                           [..]
  | | | 1)  XResolution = 72 (72/1)
  | | |     - Tag 0x011a (8 bytes, rational64u[1]):
  | | |        40cd5: 48 00 00 00 01 00 00 00                         [H.......]
  | | | 2)  YResolution = 72 (72/1)
  | | |     - Tag 0x011b (8 bytes, rational64u[1]):
  | | |        40cdd: 48 00 00 00 01 00 00 00                         [H.......]
  | | | 3)  ResolutionUnit = 2
  | | |     - Tag 0x0128 (2 bytes, int16u[1]):
  | | |        40cb5: 02 00                                           [..]
  | | | 4)  ThumbnailOffset = 9462
  | | |     - Tag 0x0201 (4 bytes, int32u[1]):
  | | |        40cc1: f6 24 00 00                                     [.$..]
  | | | 5)  ThumbnailLength = 8567
  | | |     - Tag 0x0202 (4 bytes, int32u[1]):
  | | |        40ccd: 77 21 00 00                                     [w!..]
  | Item 3) 'application/rdf+xml' (2781 bytes)
  |    42e5d: 3c 3f 78 70 61 63 6b 65 74 20 62 65 67 69 6e 3d [<?xpacket begin=]
  |    42e6d: 27 ef bb bf 27 20 69 64 3d 27 57 35 4d 30 4d 70 ['...' id='W5M0Mp]
  |    42e7d: 43 65 68 69 48 7a 72 65 53 7a 4e 54 63 7a 6b 63 [CehiHzreSzNTczkc]
  |    42e8d: 39 64 27 3f 3e 0a 3c 78 3a 78 6d 70 6d 65 74 61 [9d'?>.<x:xmpmeta]
  |    42e9d: 20 78 6d 6c 6e 73 3a 78 3d 27 61 64 6f 62 65 3a [ xmlns:x='adobe:]
  |    42ead: 6e 73 3a 6d 65 74 61 2f 27 20 78 3a 78 6d 70 74 [ns:meta/' x:xmpt]
  |    42ebd: 6b 3d 27 49 6d 61 67 65 3a 3a 45 78 69 66 54 6f [k='Image::ExifTo]
  |    42ecd: 6f 6c 20 31 32 2e 32 37 27 3e 0a 3c 72 64 66 3a [ol 12.27'>.<rdf:]
  |    42edd: 52 44 46 20 78 6d 6c 6e 73 3a 72 64 66 3d 27 68 [RDF xmlns:rdf='h]
  |    42eed: 74 74 70 3a 2f 2f 77 77 77 2e 77 33 2e 6f 72 67 [ttp://www.w3.org]
  |    42efd: 2f 31 39 39 39 2f 30 32 2f 32 32 2d 72 64 66 2d [/1999/02/22-rdf-]
  |    42f0d: 73 79 6e 74 61 78 2d 6e 73 23 27 3e 0a 0a 20 3c [syntax-ns#'>.. <]
  |    42f1d: 72 64 66 3a 44 65 73 63 72 69 70 74 69 6f 6e 20 [rdf:Description ]
  |    42f2d: 72 64 66 3a 61 62 6f 75 74 3d 27 27 0a 20 20 78 [rdf:about=''.  x]
  |    42f3d: 6d 6c 6e 73 3a 78 6d 70 3d 27 68 74 74 70 3a 2f [mlns:xmp='http:/]
  |    42f4d: 2f 6e 73 2e 61 64 6f 62 65 2e 63 6f 6d 2f 78 61 [/ns.adobe.com/xa]
  |    42f5d: 70 2f 31 2e 30 2f 27 3e 0a 20 20 3c 78 6d 70 3a [p/1.0/'>.  <xmp:]
  |    42f6d: 52 61 74 69 6e 67 3e 30 3c 2f 78 6d 70 3a 52 61 [Rating>0</xmp:Ra]
  |    42f7d: 74 69 6e 67 3e 0a 20 3c 2f 72 64 66 3a 44 65 73 [ting>. </rdf:Des]
  |    42f8d: 63 72 69 70 74 69 6f 6e 3e 0a 3c 2f 72 64 66 3a [cription>.</rdf:]
  |    42f9d: 52 44 46 3e 0a 3c 2f 78 3a 78 6d 70 6d 65 74 61 [RDF>.</x:xmpmeta]
  |    42fad: 3e 0a 20 20 20 20 20 20 20 20 20 20 20 20 20 20 [>.              ]
  |    42fbd: 20 20 20 20 20 20 20 20 20 20 20 20 20 20 20 20 [                ]
  |    42fcd: 20 20 20 20 20 20 20 20 20 20 20 20 20 20 20 20 [                ]
  |    42fdd: 20 20 20 20 20 20 20 20 20 20 20 20 20 20 20 20 [                ]
  |    42fed: 20 20 20 20 20 20 20 20 20 20 20 20 20 20 20 20 [                ]
  |    42ffd: 20 20 20 20 20 20 20 20 20 20 20 20 20 20 20 20 [                ]
  |    4300d: 20 20 20 20 20 20 0a 20 20 20 20 20 20 20 20 20 [      .         ]
  |    4301d: 20 20 20 20 20 20 20 20 20 20 20 20 20 20 20 20 [                ]
  |    4302d: 20 20 20 20 20 20 20 20 20 20 20 20 20 20 20 20 [                ]
  |    4303d: 20 20 20 20 20 20 20 20 20 20 20 20 20 20 20 20 [                ]
  |    4304d: 20 20 20 20 20 20 20 20 20 20 20 20 20 20 20 20 [                ]
  |    4305d: 20 20 20 20 20 20 20 20 20 20 20 20 20 20 20 20 [                ]
  |    4306d: 20 20 20 20 20 20 20 20 20 20 20 0a 20 20 20 20 [           .    ]
  |    4307d: 20 20 20 20 20 20 20 20 20 20 20 20 20 20 20 20 [                ]
  |    4308d: 20 20 20 20 20 20 20 20 20 20 20 20 20 20 20 20 [                ]
  |    4309d: 20 20 20 20 20 20 20 20 20 20 20 20 20 20 20 20 [                ]
  |    430ad: 20 20 20 20 20 20 20 20 20 20 20 20 20 20 20 20 [                ]
  |    430bd: 20 20 20 20 20 20 20 20 20 20 20 20 20 20 20 20 [                ]
  |    430cd: 20 20 20 20 20 20 20 20 20 20 20 20 20 20 20 20 [                ]
  |    430dd: 0a 20 20 20 20 20 20 20 20 20 20 20 20 20 20 20 [.               ]
  |    430ed: 20 20 20 20 20 20 20 20 20 20 20 20 20 20 20 20 [                ]
  |    430fd: 20 20 20 20 20 20 20 20 20 20 20 20 20 20 20 20 [                ]
  |    4310d: 20 20 20 20 20 20 20 20 20 20 20 20 20 20 20 20 [                ]
  |    4311d: 20 20 20 20 20 20 20 20 20 20 20 20 20 20 20 20 [                ]
  |    4312d: 20 20 20 20 20 20 20 20 20 20 20 20 20 20 20 20 [                ]
  |    4313d: 20 20 20 20 20 0a 20 20 20 20 20 20 20 20 20 20 [     .          ]
  |    4314d: 20 20 20 20 20 20 20 20 20 20 20 20 20 20 20 20 [                ]
  |    4315d: 20 20 20 20 20 20 20 20 20 20 20 20 20 20 20 20 [                ]
  |    4316d: 20 20 20 20 20 20 20 20 20 20 20 20 20 20 20 20 [                ]
  |    4317d: 20 20 20 20 20 20 20 20 20 20 20 20 20 20 20 20 [                ]
  |    4318d: 20 20 20 20 20 20 20 20 20 20 20 20 20 20 20 20 [                ]
  |    4319d: 20 20 20 20 20 20 20 20 20 20 0a 20 20 20 20 20 [          .     ]
  |    431ad: 20 20 20 20 20 20 20 20 20 20 20 20 20 20 20 20 [                ]
  |    431bd: 20 20 20 20 20 20 20 20 20 20 20 20 20 20 20 20 [                ]
  |    431cd: 20 20 20 20 20 20 20 20 20 20 20 20 20 20 20 20 [                ]
  |    431dd: 20 20 20 20 20 20 20 20 20 20 20 20 20 20 20 20 [                ]
  |    431ed: 20 20 20 20 20 20 20 20 20 20 20 20 20 20 20 20 [                ]
  |    431fd: 20 20 20 20 20 20 20 20 20 20 20 20 20 20 20 0a [               .]
  |    4320d: 20 20 20 20 20 20 20 20 20 20 20 20 20 20 20 20 [                ]
  |    4321d: 20 20 20 20 20 20 20 20 20 20 20 20 20 20 20 20 [                ]
  |    4322d: 20 20 20 20 20 20 20 20 20 20 20 20 20 20 20 20 [                ]
  |    4323d: 20 20 20 20 20 20 20 20 20 20 20 20 20 20 20 20 [                ]
  |    4324d: 20 20 20 20 20 20 20 20 20 20 20 20 20 20 20 20 [                ]
  |    4325d: 20 20 20 20 20 20 20 20 20 20 20 20 20 20 20 20 [                ]
  |    4326d: 20 20 20 20 0a 20 20 20 20 20 20 20 20 20 20 20 [    .           ]
  |    4327d: 20 20 20 20 20 20 20 20 20 20 20 20 20 20 20 20 [                ]
  |    4328d: 20 20 20 20 20 20 20 20 20 20 20 20 20 20 20 20 [                ]
  |    4329d: 20 20 20 20 20 20 20 20 20 20 20 20 20 20 20 20 [                ]
  |    432ad: 20 20 20 20 20 20 20 20 20 20 20 20 20 20 20 20 [                ]
  |    432bd: 20 20 20 20 20 20 20 20 20 20 20 20 20 20 20 20 [                ]
  |    432cd: 20 20 20 20 20 20 20 20 20 0a 20 20 20 20 20 20 [         .      ]
  |    432dd: 20 20 20 20 20 20 20 20 20 20 20 20 20 20 20 20 [                ]
  |    432ed: 20 20 20 20 20 20 20 20 20 20 20 20 20 20 20 20 [                ]
  |    432fd: 20 20 20 20 20 20 20 20 20 20 20 20 20 20 20 20 [                ]
  |    4330d: 20 20 20 20 20 20 20 20 20 20 20 20 20 20 20 20 [                ]
  |    4331d: 20 20 20 20 20 20 20 20 20 20 20 20 20 20 20 20 [                ]
  |    4332d: 20 20 20 20 20 20 20 20 20 20 20 20 20 20 0a 20 [              . ]
  |    4333d: 20 20 20 20 20 20 20 20 20 20 20 20 20 20 20 20 [                ]
  |    4334d: 20 20 20 20 20 20 20 20 20 20 20 20 20 20 20 20 [                ]
  |    4335d: 20 20 20 20 20 20 20 20 20 20 20 20 20 20 20 20 [                ]
  |    4336d: 20 20 20 20 20 20 20 20 20 20 20 20 20 20 20 20 [                ]
  |    4337d: 20 20 20 20 20 20 20 20 20 20 20 20 20 20 20 20 [                ]
  |    4338d: 20 20 20 20 20 20 20 20 20 20 20 20 20 20 20 20 [                ]
  |    4339d: 20 20 20 0a 20 20 20 20 20 20 20 20 20 20 20 20 [   .            ]
  |    433ad: 20 20 20 20 20 20 20 20 20 20 20 20 20 20 20 20 [                ]
  |    433bd: 20 20 20 20 20 20 20 20 20 20 20 20 20 20 20 20 [                ]
  |    433cd: 20 20 20 20 20 20 20 20 20 20 20 20 20 20 20 20 [                ]
  |    433dd: 20 20 20 20 20 20 20 20 20 20 20 20 20 20 20 20 [                ]
  |    433ed: 20 20 20 20 20 20 20 20 20 20 20 20 20 20 20 20 [                ]
  |    433fd: 20 20 20 20 20 20 20 20 0a 20 20 20 20 20 20 20 [        .       ]
  |    4340d: 20 20 20 20 20 20 20 20 20 20 20 20 20 20 20 20 [                ]
  |    4341d: 20 20 20 20 20 20 20 20 20 20 20 20 20 20 20 20 [                ]
  |    4342d: 20 20 20 20 20 20 20 20 20 20 20 20 20 20 20 20 [                ]
  |    4343d: 20 20 20 20 20 20 20 20 20 20 20 20 20 20 20 20 [                ]
  |    4344d: 20 20 20 20 20 20 20 20 20 20 20 20 20 20 20 20 [                ]
  |    4345d: 20 20 20 20 20 20 20 20 20 20 20 20 20 0a 20 20 [             .  ]
  |    4346d: 20 20 20 20 20 20 20 20 20 20 20 20 20 20 20 20 [                ]
  |    4347d: 20 20 20 20 20 20 20 20 20 20 20 20 20 20 20 20 [                ]
  |    4348d: 20 20 20 20 20 20 20 20 20 20 20 20 20 20 20 20 [                ]
  |    4349d: 20 20 20 20 20 20 20 20 20 20 20 20 20 20 20 20 [                ]
  |    434ad: 20 20 20 20 20 20 20 20 20 20 20 20 20 20 20 20 [                ]
  |    434bd: 20 20 20 20 20 20 20 20 20 20 20 20 20 20 20 20 [                ]
  |    434cd: 20 20 0a 20 20 20 20 20 20 20 20 20 20 20 20 20 [  .             ]
  |    434dd: 20 20 20 20 20 20 20 20 20 20 20 20 20 20 20 20 [                ]
  |    434ed: 20 20 20 20 20 20 20 20 20 20 20 20 20 20 20 20 [                ]
  |    434fd: 20 20 20 20 20 20 20 20 20 20 20 20 20 20 20 20 [                ]
  |    4350d: 20 20 20 20 20 20 20 20 20 20 20 20 20 20 20 20 [                ]
  |    4351d: 20 20 20 20 20 20 20 20 20 20 20 20 20 20 20 20 [                ]
  |    4352d: 20 20 20 20 20 20 20 0a 20 20 20 20 20 20 20 20 [       .        ]
  |    4353d: 20 20 20 20 20 20 20 20 20 20 20 20 20 20 20 20 [                ]
  |    4354d: 20 20 20 20 20 20 20 20 20 20 20 20 20 20 20 20 [                ]
  |    4355d: 20 20 20 20 20 20 20 20 20 20 20 20 20 20 20 20 [                ]
  |    4356d: 20 20 20 20 20 20 20 20 20 20 20 20 20 20 20 20 [                ]
  |    4357d: 20 20 20 20 20 20 20 20 20 20 20 20 20 20 20 20 [                ]
  |    4358d: 20 20 20 20 20 20 20 20 20 20 20 20 0a 20 20 20 [            .   ]
  |    4359d: 20 20 20 20 20 20 20 20 20 20 20 20 20 20 20 20 [                ]
  |    435ad: 20 20 20 20 20 20 20 20 20 20 20 20 20 20 20 20 [                ]
  |    435bd: 20 20 20 20 20 20 20 20 20 20 20 20 20 20 20 20 [                ]
  |    435cd: 20 20 20 20 20 20 20 20 20 20 20 20 20 20 20 20 [                ]
  |    435dd: 20 20 20 20 20 20 20 20 20 20 20 20 20 20 20 20 [                ]
  |    435ed: 20 20 20 20 20 20 20 20 20 20 20 20 20 20 20 20 [                ]
  |    435fd: 20 0a 20 20 20 20 20 20 20 20 20 20 20 20 20 20 [ .              ]
  |    4360d: 20 20 20 20 20 20 20 20 20 20 20 20 20 20 20 20 [                ]
  |    4361d: 20 20 20 20 20 20 20 20 20 20 20 20 20 20 20 20 [                ]
  |    4362d: 20 20 20 20 20 20 20 20 20 20 20 20 20 20 20 20 [                ]
  |    4363d: 20 20 20 20 20 20 20 20 20 20 20 20 20 20 20 20 [                ]
  |    4364d: 20 20 20 20 20 20 20 20 20 20 20 20 20 20 20 20 [                ]
  |     [snip 733 bytes]
  | + [XMP directory, 2781 bytes]
  | | XMPToolkit = Image::ExifTool 12.27
  | | Rating = 0
  | | - Tag 'x:xmpmeta/rdf:RDF/rdf:Description/xmp:Rating'
  | + [ItemPropertyContainer directory]
  | | 1)  ColorRepresentation (SubDirectory) -->
  | |     - Tag 'colr' (11 bytes):
  | |         0117: 6e 63 6c 78 00 01 00 0d 00 06 80                [nclx.......]
  | | + [BinaryData directory, 11 bytes, Big-endian]
  | | | ColorProfiles = nclx
  | | | - Tag 0x0000 (4 bytes, undef[4]):
  | | |     0117: 6e 63 6c 78                                     [nclx]
  | | | ColorPrimaries = 1
  | | | - Tag 0x0004 (2 bytes, int16u[1]):
  | | |     011b: 00 01                                           [..]
  | | | TransferCharacteristics = 13
  | | | - Tag 0x0006 (2 bytes, int16u[1]):
  | | |     011d: 00 0d                                           [..]
  | | | MatrixCoefficients = 6
  | | | - Tag 0x0008 (2 bytes, int16u[1]):
  | | |     011f: 00 06                                           [..]
  | | | VideoFullRangeFlag = 1
  | | | - Tag 0x000a, mask 0x80 (1 bytes, int8u[1]):
  | | |     0121: 80                                              [.]
  | | 2)  AV1Configuration (SubDirectory) -->
  | |     - Tag 'av1C' (4 bytes):
  | |         012a: 81 10 0c 00                                     [....]
  | | + [BinaryData directory, 4 bytes, Big-endian]
  | | | AV1ConfigurationVersion = 1
  | | | - Tag 0x0000, mask 0x7f (1 bytes, int8u[1]):
  | | |     012a: 81                                              [.]
  | | | SeqProfile = 0
  | | | - Tag 0x0001, mask 0xe0 (1 bytes, int8u[1]):
  | | |     012b: 10                                              [.]
  | | | SeqTier0 = 0
  | | | - Tag 0x0002, mask 0x80 (1 bytes, int8u[1]):
  | | |     012c: 0c                                              [.]
  | | | ChromaFormat = 3
  | | | - Tag '2.3', mask 0x1c (1 bytes, int8u[1]):
  | | |     012c: 0c                                              [.]
  | | | ChromaSamplePosition = 0
  | | | - Tag '2.4', mask 0x03 (1 bytes, int8u[1]):
  | | |     012c: 0c                                              [.]
  | | | InitialDelaySamples = 0
  | | | - Tag 0x0003 (1 bytes, int8u[1]):
  | | |     012d: 00                                              [.]
  | | 3)  ImageSpatialExtent = .`.@
  | |     - Tag 'ispe' (12 bytes):
  | |         0136: 00 00 00 00 00 00 15 60 00 00 0e 40             [.......`...@]
  | | ImageWidth = 5472
  | | ImageHeight = 3648
  | | 4)  ImagePixelDepth = ....
  | |     - Tag 'pixi' (8 bytes):
  | |         014a: 00 00 00 00 03 08 08 08                         [........]
  MediaDataSize = 276385
  MediaDataOffset = 409
  MediaData = ....2.......h@2.....(...r.....M......O.......j#.KJ....Gj...#.....-l....:G..`...y.1.\....<.?.".8....K...\5.1...Q.!.J...DK.0.a..{..O@...W.....)..w.......56....1.M!p.%..#......c.~."......-..'v.......&@.C..K..$_1.../..1B....@.q..^.W...?R...G...6r..!.D..I.+{N.<..$..`...oA...........98\....]J...C...}..bE[.PJ..6."q.+.Og....]o......."(...y..d.g...f...N.4...aB.x....P...)...2U." W....Ci...m...+}YY.).O..@.^{..p...#..R..$.@...v.Z.4.T.s..A....s-..4....2.&0...E.u.i..{.6lu..&........U.<J1.....Q.....Oif"..|.K..Cc....=.9J...+XR.2..:7....Q.o.....d.g....e-.T.....6Y.x.......}..P..r..:.^@P.PS@.Qp.,.CBT(...OU(u&.N&.w8......f..-o....cV.U.Y..r..E..H.$s7i...p].Y.....1x...z .U8....E_NI .B.ei.\.Eh.z.:......../a'i.;/...l?........h..Q.o^.Eq+V.z..`...j.C.'.q....M.FyV60.y.)...M..U.../....K.i.&.0..US:F....m...}$.."Na4...]kn.xE.y.D...b...h....Ku.9&.(..]....".y7....y..g.v.[*.,.....s2.NG...5... .c.#.&......[.q-.2.*.z..J....r.zH.)....g."...'.\5%..U..5......XE..*.WJ.-7>n.?..Z.oA...-.5W.S=.....e<D-8..3....e..o.5.L...aM.........$!3.._&......>.^F....i.K.lP>.b..2..x@....&wd_$.+.x..x.....*...!..<........u..4~.=^......-W2....6Y.s............*..........:..W..14.W[!...<...........l.....H....N}5F...O&ZA9.-.;..{6>..=..dK.[..d..F......u....z.i.F.A.3..7R#M.K.i..4y!w...~.%.#B.U.M......Qe....aj$'.v.e*.....H..q..@k.x..o.{.....8...3%..#..lN............%....&.es-E0(...1OV.....R)...."gp.3...U3.n./..M...].F.a.{N....A..3..S.o#.j..h.8.:.|....g..W......1.MuJ.&..=.f.....p..s...*<... L...t....U~._..Wv*..FtC."...]...u.....D..c,.....J.Q.......b.#....;..:.9.1..]..LG...V.,@...Y...].....u.l......y..8..q(......d.j.9....8.L.......p.li<.U.j...;0.-...h.u.d/..g.....-...]..Ua#.b9.'..;.....V..2.;....Oc..]..cfN........M....$..;.Y........y............$.X..&;.L..p...l...!i.Aw..6O/. ..Z...d5.....;............#.t......x:=.....u..eq.......b.n..J.&...sN.+....b....+Q.....".....#7#.b,.f..f.......LS.l.4]..g.!.I...{.:~8.7`?W2%..l.*,F.U.67G.^y.-O.d..wt.ScAX.......s.N...t.Vd.D.}k....w<..yi.C88.........<p.2M....D....Q.....8.....Y.Y^...k.....6 ..#.FAa..\=Bb.nX.....ma.N......Y..6.........F..O_+[snip]
  - Tag 'mdat' (276385 bytes):
      0199: 12 00 0a 0b 1c 32 ea bf c7 fc 10 10 d0 68 40 32 [.....2.......h@2]
      01a9: b9 cc 0f 11 a0 00 28 a2 8a 14 00 72 0a 00 f4 c0 [......(....r....]
      01b9: c7 d4 4d f4 ad 18 c7 e1 ca 4f 8b 99 99 8a ec 10 [..M......O......]
      01c9: 0f 6a 23 a7 4b 4a aa 1a ec b2 47 6a f7 a6 96 23 [.j#.KJ....Gj...#]
      01d9: ae 1e e7 80 02 2d 6c 9f c7 b0 08 3a 47 92 97 60 [.....-l....:G..`]
      01e9: cc dd 1a 79 8f 31 cd 5c a1 99 b5 bb 3c f9 3f 11 [...y.1.\....<.?.]
      01f9: 22 d1 38 94 d4 e7 03 4b 8b 90 1d 5c 35 84 31 1a [".8....K...\5.1.]
      0209: e1 08 51 1d 21 f3 4a 19 05 a0 44 4b 8c 30 14 61 [..Q.!.J...DK.0.a]
      0219: ae c4 7b c7 f4 4f 40 f8 bc c6 57 b4 a6 04 dd 8c [..{..O@...W.....]
      0229: 29 cb eb 77 a4 16 b3 09 f1 e7 b5 35 36 b6 d0 06 [)..w.......56...]
      0239: e1 31 18 4d 21 70 b1 25 e8 83 23 00 e2 e9 ed 0d [.1.M!p.%..#.....]
      0249: 9f c7 63 99 7e e5 22 98 0b a0 95 9d eb 2d f3 1d [..c.~."......-..]
      0259: 27 76 eb a5 cd 90 06 bc 0e 26 40 11 43 08 d9 4b ['v.......&@.C..K]
      0269: 19 9e 24 5f 31 d7 9e a0 2f 93 fc 31 42 a2 b8 a3 [..$_1.../..1B...]
      0279: f8 40 be 71 a1 1e 5e 9b 57 1b c1 c9 3f 52 e3 c5 [.@.q..^.W...?R..]
      0289: b6 47 cc ea db 36 72 2e d9 21 bc 44 b7 bd 49 d2 [.G...6r..!.D..I.]
      0299: 2b 7b 4e ba 3c 15 09 24 b4 90 60 f0 cb c2 6f 41 [+{N.<..$..`...oA]
      02a9: 1b c3 01 02 07 a5 b2 cc dc 13 a7 39 38 5c f6 d0 [...........98\..]
      02b9: df 0e 5d 4a 85 e8 c8 43 92 9b 00 f3 7d a4 11 62 [..]J...C....}..b]
      02c9: 45 5b 96 50 4a fc c8 36 85 22 71 ab 2b de 4f 67 [E[.PJ..6."q.+.Og]
      02d9: 16 89 f6 12 5d 6f 9b f5 b6 ea 89 81 da 22 28 dd [....]o......."(.]
      02e9: 11 f5 79 ac 12 64 af 67 f8 ae bf 66 7f 0c b7 4e [..y..d.g...f...N]
      02f9: 99 34 ec c9 03 61 42 8e 78 da e7 13 08 50 a9 9a [.4...aB.x....P..]
      0309: 0d 29 ea a5 9f 32 55 96 22 20 57 09 ec dc 15 43 [.)...2U." W....C]
      0319: 69 8b 95 2e 6d fd f8 01 2b 7d 59 59 e9 29 ac 4f [i...m...+}YY.).O]
      0329: f4 c2 40 08 5e 7b b3 dd 70 ea b4 aa 23 d5 d5 52 [..@.^{..p...#..R]
      0339: fc a5 24 f3 40 ba 9a fa 76 0d 5a 14 34 d6 54 07 [..$.@...v.Z.4.T.]
      0349: 73 85 7f 41 b5 d3 e8 10 73 2d f0 a0 34 8d 9a ea [s..A....s-..4...]
      0359: a8 32 df 26 30 b0 95 8d 45 1a 75 c1 69 9d ac 7b [.2.&0...E.u.i..{]
      0369: e2 36 6c 75 c3 18 26 9c 06 90 06 7f d9 8f e0 55 [.6lu..&........U]
      0379: 90 3c 4a 31 cf e4 bc f5 94 51 0e cf 0e dc 03 4f [.<J1.....Q.....O]
      0389: 69 66 22 9a fa 7c 02 4b a3 c3 43 63 a2 c0 14 99 [if"..|.K..Cc....]
      0399: 3d b5 39 4a c7 dc 9f 2b 58 52 02 32 c2 d4 3a 37 [=.9J...+XR.2..:7]
      03a9: 1f cd c0 97 51 83 6f df ed 18 ff 90 64 ba 67 e8 [....Q.o.....d.g.]
      03b9: d1 a7 c7 65 2d fd 54 98 b9 a5 b1 d0 36 59 fc 78 [...e-.T.....6Y.x]
      03c9: a5 e9 ac ac 2e a9 cb 7d ad 0a 50 fe 97 72 8d 9b [.......}..P..r..]
      03d9: 3a 15 5e 40 50 94 50 53 40 d0 51 70 e2 2c 2e 43 [:.^@P.PS@.Qp.,.C]
      03e9: 42 54 28 af c6 ae 4f 55 28 75 26 9f 4e 26 93 77 [BT(...OU(u&.N&.w]
      03f9: 38 f2 c6 f6 c2 91 85 66 03 16 2d 6f c6 8e 80 80 [8......f..-o....]
      0409: 63 56 bc 55 03 59 cb dd 72 95 e2 45 09 eb 48 9d [cV.U.Y..r..E..H.]
      0419: 24 73 37 69 d6 f2 1b 70 5d cb 59 88 b9 17 85 db [$s7i...p].Y.....]
      0429: 31 78 f0 81 01 7a 20 dc 55 38 9e 97 90 0f 45 5f [1x...z .U8....E_]
      0439: 4e 49 20 cb 42 e9 65 69 fd 5c 0f 45 68 93 7a d7 [NI .B.ei.\.Eh.z.]
      0449: 3a 81 ec c1 ba df d6 e1 e6 2f 61 27 69 8d 3b 2f [:......../a'i.;/]
      0459: 90 04 f3 6c 3f 10 d7 81 0c 81 1f d8 93 68 ea 84 [...l?........h..]
      0469: 51 07 6f 5e b5 45 71 2b 56 b8 7a a6 e1 60 06 9e [Q.o^.Eq+V.z..`..]
      0479: d0 6a ef 43 a2 27 89 71 d0 0e 0e d0 4d f6 46 79 [.j.C.'.q....M.Fy]
      0489: 56 36 30 e0 79 c2 29 fc d2 bf 4d fb fd 55 9b c1 [V60.y.)...M..U..]
      0499: c8 2f a3 bc 06 ae 4b 01 69 d3 26 0a 30 fb e2 55 [./....K.i.&.0..U]
      04a9: 53 3a 46 9d f7 0d c2 6d e0 de fa 7d 24 f1 82 22 [S:F....m...}$.."]
      04b9: 4e 61 34 a5 1f 1a 5d 6b 6e 88 78 45 87 79 bb 44 [Na4...]kn.xE.y.D]
      04c9: db 91 ee 62 95 e9 c9 68 96 b5 9e 06 4b 75 b3 39 [...b...h....Ku.9]
      04d9: 26 95 28 ed cd 5d 02 85 a7 9a 22 f6 79 37 f8 ee [&.(..]....".y7..]
      04e9: bf e4 79 c7 10 67 a1 76 8a 5b 2a 06 2c 18 bf 85 [..y..g.v.[*.,...]
      04f9: ca 06 73 32 05 4e 47 00 c9 7f df 35 e1 9b 9d 20 [..s2.NG....5... ]
      0509: dd 63 cd 23 eb 26 92 9b cf c0 8b d0 5b f7 71 2d [.c.#.&......[.q-]
      0519: b5 32 91 2a a6 7a 15 86 4a 15 ae 0f 2e 72 86 7a [.2.*.z..J....r.z]
      0529: 48 a1 29 cc 1f e6 0b 67 ae 22 e2 a9 c8 27 b9 5c [H.)....g."...'.\]
      0539: 35 25 82 e2 55 e9 1c 35 d5 ae 8b 06 ee a4 58 45 [5%..U..5......XE]
      0549: b5 c8 2a 82 57 4a 1d 2d 37 3e 6e b7 3f 95 c7 5a [..*.WJ.-7>n.?..Z]
      0559: b1 6f 41 b9 14 88 2d a3 35 57 c5 53 3d 98 c1 0a [.oA...-.5W.S=...]
      0569: d5 c6 65 3c 44 2d 38 a5 e1 33 ff 15 9e 07 65 d7 [..e<D-8..3....e.]
      0579: d0 6f b9 35 c2 4c 92 9e a2 61 4d f5 f2 9c fe f4 [.o.5.L...aM.....]
      0589: 09 e4 ff f6 24 21 33 de c1 5f 26 81 8c e2 cb 0a [....$!3.._&.....]
      0599: 80 3e af 5e 46 f4 06 f7 f8 69 f5 4b fa 6c 50 3e [.>.^F....i.K.lP>]
      05a9: dc 62 f8 bb 32 b6 e5 78 40 af bd e2 c3 26 77 64 [.b..2..x@....&wd]
      05b9: 5f 24 b6 2b 08 78 16 14 78 d0 e2 a5 17 c2 2a a7 [_$.+.x..x.....*.]
      05c9: b7 f8 21 90 0f 3c 04 c6 d8 a1 bf 9f db 95 75 1f [..!..<........u.]
      05d9: 1f 34 7e f3 3d 5e 0b 12 c5 cf a2 f5 2d 57 32 7f [.4~.=^......-W2.]
      05e9: 10 c9 dd 36 59 f1 73 0b b2 e1 bb ed c0 b1 9d ac [...6Y.s.........]
      05f9: c7 7f a7 2a c5 ec d3 9d fe 03 9e 07 01 ac 3a e3 [...*..........:.]
      0609: 10 57 d4 e7 31 34 11 57 5b 21 10 10 ab 3c bd 81 [.W..14.W[!...<..]
      0619: 0e d5 cc d8 ec 1b e0 98 bb 6c b9 cb 1f e4 ec 48 [.........l.....H]
      0629: f6 91 16 a1 4e 7d 35 46 bf 02 d4 4f 26 5a 41 39 [....N}5F...O&ZA9]
      0639: 14 2d b1 3b 19 e0 7b 36 3e d2 a1 3d 94 df 64 4b [.-.;..{6>..=..dK]
      0649: fe 5b ea a0 64 ee 9a 46 ae d5 b1 1f cc c9 75 b1 [.[..d..F......u.]
      0659: ec c3 ae 7a b1 69 af 46 88 41 c2 33 af fe 37 52 [...z.i.F.A.3..7R]
      0669: 23 4d 80 4b e8 69 c1 91 34 79 21 77 bb f0 9f 7e [#M.K.i..4y!w...~]
      0679: c2 25 f1 23 42 8b 55 88 4d e6 b3 af b0 1d 1b 51 [.%.#B.U.M......Q]
      0689: 65 8f bf 03 af 61 6a 24 27 1f 76 0c 65 2a 85 ce [e....aj$'.v.e*..]
      0699: e2 f6 07 48 9a 04 71 94 ce 40 6b 15 78 16 9a 6f [...H..q..@k.x..o]
      06a9: b8 7b aa 12 bd f4 0b 38 96 b8 9f 33 25 92 13 23 [.{.....8...3%..#]
      06b9: b3 83 6c 4e ca fe 16 d7 dd 15 19 0d be a3 17 03 [..lN............]
      06c9: 25 ae 04 d1 1e 26 fb 65 73 2d 45 30 28 03 15 88 [%....&.es-E0(...]
      06d9: 31 4f 56 cf 16 e1 90 ff 52 29 8d bb 01 d6 22 67 [1OV.....R)...."g]
      06e9: 70 cd 33 00 d5 d8 b0 55 33 07 6e c5 2f 11 11 4d [p.3....U3.n./..M]
      06f9: 17 da a6 5d 90 46 ee 61 10 7b 4e bf db 0c 86 41 [...].F.a.{N....A]
      0709: b0 1e 33 f7 d4 53 92 6f 23 e5 6a c7 0a 68 b2 38 [..3..S.o#.j..h.8]
      0719: 8a 3a 96 7c c7 09 a9 9c 67 b7 02 57 df e9 dd b9 [.:.|....g..W....]
      0729: d5 85 31 d3 4d 75 4a 97 26 ec bb 3d d2 66 9e f5 [..1.MuJ.&..=.f..]
      0739: cb 1a c2 70 c9 e2 73 cd 84 fe 2a 3c da ac 0b 20 [...p..s...*<... ]
      0749: 4c a4 97 15 74 c5 0a 07 c9 55 7e a8 5f 96 db 57 [L...t....U~._..W]
      0759: 76 2a be f8 46 74 43 95 22 08 d4 b0 5d a5 b2 cd [v*..FtC."...]...]
      0769: 75 8f 17 15 c2 86 44 80 a7 63 2c bf cd 05 ff 84 [u.....D..c,.....]
      0779: 4a fe 51 08 e9 d3 cd 0b e3 f4 62 ef 23 0a e6 81 [J.Q.......b.#...]
      0789: e4 3b bc 11 3a 88 39 f8 31 0a 9d 5d 86 18 4c 47 [.;..:.9.1..]..LG]
      0799: b0 0b 1c 56 fe 2c 40 de e5 bc 59 ac c0 17 5d 87 [...V.,@...Y...].]
      07a9: ba 80 f0 0e 75 af 6c b2 f3 92 b3 be b7 79 db 93 [....u.l......y..]
      07b9: 38 00 f3 e5 71 28 84 ee e1 9e c6 ca 64 16 6a 0f [8...q(......d.j.]
      07c9: 39 eb ff 80 e8 38 d0 4c f9 d2 0c c7 d7 ec b9 70 [9....8.L.......p]
      07d9: e4 6c 69 3c bf 55 8b 6a 0b eb dd 3b 30 ea 2d 8b [.li<.U.j...;0.-.]
      07e9: e9 e8 68 c2 75 ef 64 2f 95 c2 67 0d bc ba da 86 [..h.u.d/..g.....]
      07f9: 2d b1 b0 1d 5d 86 f9 55 61 23 a8 62 39 fd 27 0f [-...]..Ua#.b9.'.]
      0809: 83 3b 1d ec 04 f2 f1 56 cf 92 32 12 3b fa dd fb [.;.....V..2.;...]
      0819: ca 4f 63 ac ad 5d bb e3 63 66 4e 8c 14 ed 98 e2 [.Oc..]..cfN.....]
      0829: 1c 97 c9 4d dc e3 e7 bf 24 f6 8d 3b 14 59 9b e5 [...M....$..;.Y..]
      0839: 95 f9 8c 1b a9 fb 79 db e7 0e e6 f8 af c1 0b e7 [......y.........]
      0849: 11 98 02 24 81 58 be f1 26 3b b0 4c d4 d9 70 f9 [...$.X..&;.L..p.]
      0859: 0b bd 6c 98 9b 12 21 69 e5 41 77 aa a5 36 4f 2f [..l...!i.Aw..6O/]
      0869: 1a 20 80 a9 5a 12 c3 89 64 35 f7 0c 85 b5 fa 3b [. ..Z...d5.....;]
      0879: e9 df b8 f7 93 99 0f a5 a3 bc 8d ee 23 0b 74 d1 [............#.t.]
      0889: c8 c1 f6 9d 1b 78 3a 3d d8 f7 c1 0a 17 75 9e fb [.....x:=.....u..]
      0899: 65 71 1f 06 ab 1d e3 aa 86 62 f2 6e 94 dd 4a b2 [eq.......b.n..J.]
      08a9: 26 b9 81 15 73 4e fe 2b 11 f9 b7 1e 62 8c e1 af [&...sN.+....b...]
      08b9: b7 2b 51 fc f7 d2 bc 83 22 cb cf 08 9f 03 23 37 [.+Q.....".....#7]
      08c9: 23 a7 62 2c 8b 66 d9 04 66 d7 8f ce 08 fa 92 e4 [#.b,.f..f.......]
      08d9: 4c 53 b9 6c ba 34 5d 0f fa 67 f4 21 94 49 e3 8b [LS.l.4]..g.!.I..]
      08e9: b5 7b 1c 3a 7e 38 b9 37 60 3f 57 32 25 cd 0b 6c [.{.:~8.7`?W2%..l]
      08f9: c0 2a 2c 46 02 55 17 36 37 47 8f 5e 79 91 2d 4f [.*,F.U.67G.^y.-O]
      0909: b5 64 08 1f 77 74 de 53 63 41 58 ee b8 e2 c4 ec [.d..wt.ScAX.....]
      0919: ce 0b 73 d1 4e 8b b9 d2 74 df 56 64 ec 44 13 7d [..s.N...t.Vd.D.}]
      0929: 6b b9 e9 c2 04 77 3c b2 f5 79 69 9c 43 38 38 18 [k....w<..yi.C88.]
      0939: cd db 9c e8 b9 ad 9e 99 3c 70 c4 32 4d 9d 93 2e [........<p.2M...]
      0949: 90 44 c4 e5 02 0f 51 f1 96 12 c0 d8 38 a0 e4 f6 [.D....Q.....8...]
      0959: b6 14 59 0f 59 5e bf 05 ba 6b c8 a8 f5 c1 7f 36 [..Y.Y^...k.....6]
      0969: 20 8f c0 23 96 46 41 61 e1 c1 5c 3d 42 62 eb 6e [ ..#.FAa..\=Bb.n]
      0979: 58 fe e3 ae 99 9f 6d 61 13 4e ef 88 8e f2 c5 08 [X.....ma.N......]
      [snip 274353 bytes]
