  ExifToolVersion = 13.59
  FileName = media_38.jpg
  Directory = C:/Users/micro/IdeaProjects/kim/src/commonTest/resources/de/stefan_oltmann/kim/testdata/full
  FileSize = 1356767
  FileModifyDate = 1776264339.12806
  FileAccessDate = 1786601300.06793
  FileCreateDate = 1776264339.12406
  FilePermissions = 33206
  FileType = JPEG
  FileTypeExtension = JPG
  MIMEType = image/jpeg
JPEG APP1 (11986 bytes):
      0006: 45 78 69 66 00 00 49 49 2a 00 08 00 00 00 0e 00 [Exif..II*.......]
      0016: 00 01 03 00 01 00 00 00 85 12 00 00 01 01 03 00 [................]
      0026: 01 00 00 00 58 0c 00 00 02 01 03 00 03 00 00 00 [....X...........]
      0036: b6 00 00 00 06 01 03 00 01 00 00 00 02 00 00 00 [................]
      0046: 0f 01 02 00 06 00 00 00 bc 00 00 00 10 01 02 00 [................]
      0056: 0f 00 00 00 c2 00 00 00 12 01 03 00 01 00 00 00 [................]
      0066: 01 00 00 00 15 01 03 00 01 00 00 00 03 00 00 00 [................]
      [snip 11874 bytes]
  ExifByteOrder = II
  + [IFD0 directory with 14 entries, Little-endian]
  | 0)  ImageWidth = 4741
  |     - Tag 0x0100 (2 bytes, int16u[1]):
  |         001e: 85 12                                           [..]
  | 1)  ImageHeight = 3160
  |     - Tag 0x0101 (2 bytes, int16u[1]):
  |         002a: 58 0c                                           [X.]
  | 2)  BitsPerSample = 8 8 8
  |     - Tag 0x0102 (6 bytes, int16u[3]):
  |         00c2: 08 00 08 00 08 00                               [......]
  | 3)  PhotometricInterpretation = 2
  |     - Tag 0x0106 (2 bytes, int16u[1]):
  |         0042: 02 00                                           [..]
  | 4)  Make = Canon
  |     - Tag 0x010f (6 bytes, string[6]):
  |         00c8: 43 61 6e 6f 6e 00                               [Canon.]
  | 5)  Model = Canon EOS 550D
  |     - Tag 0x0110 (15 bytes, string[15]):
  |         00ce: 43 61 6e 6f 6e 20 45 4f 53 20 35 35 30 44 00    [Canon EOS 550D.]
  | 6)  Orientation = 1
  |     - Tag 0x0112 (2 bytes, int16u[1]):
  |         0066: 01 00                                           [..]
  | 7)  SamplesPerPixel = 3
  |     - Tag 0x0115 (2 bytes, int16u[1]):
  |         0072: 03 00                                           [..]
  | 8)  XResolution = 300 (3000000/10000)
  |     - Tag 0x011a (8 bytes, rational64u[1]):
  |         00de: c0 c6 2d 00 10 27 00 00                         [..-..'..]
  | 9)  YResolution = 300 (3000000/10000)
  |     - Tag 0x011b (8 bytes, rational64u[1]):
  |         00e6: c0 c6 2d 00 10 27 00 00                         [..-..'..]
  | 10) ResolutionUnit = 2
  |     - Tag 0x0128 (2 bytes, int16u[1]):
  |         0096: 02 00                                           [..]
  | 11) Software = Adobe Photoshop CS6 (Macintosh)
  |     - Tag 0x0131 (32 bytes, string[32]):
  |         00ee: 41 64 6f 62 65 20 50 68 6f 74 6f 73 68 6f 70 20 [Adobe Photoshop ]
  |         00fe: 43 53 36 20 28 4d 61 63 69 6e 74 6f 73 68 29 00 [CS6 (Macintosh).]
  | 12) ModifyDate = 2014:05:06 20:29:10
  |     - Tag 0x0132 (20 bytes, string[20]):
  |         010e: 32 30 31 34 3a 30 35 3a 30 36 20 32 30 3a 32 39 [2014:05:06 20:29]
  |         011e: 3a 31 30 00                                     [:10.]
  | 13) ExifOffset (SubDirectory) -->
  |     - Tag 0x8769 (4 bytes, int32u[1]):
  |         00ba: 16 01 00 00                                     [....]
  | + [ExifIFD directory with 30 entries, Little-endian]
  | | 0)  ExposureTime = 0.0008 (1/1250)
  | |     - Tag 0x829a (8 bytes, rational64u[1]):
  | |         0290: 01 00 00 00 e2 04 00 00                         [........]
  | | 1)  FNumber = 4 (4/1)
  | |     - Tag 0x829d (8 bytes, rational64u[1]):
  | |         0298: 04 00 00 00 01 00 00 00                         [........]
  | | 2)  ExposureProgram = 6
  | |     - Tag 0x8822 (2 bytes, int16u[1]):
  | |         0144: 06 00                                           [..]
  | | 3)  ISO = 400
  | |     - Tag 0x8827 (2 bytes, int16u[1]):
  | |         0150: 90 01                                           [..]
  | | 4)  ExifVersion = 0221
  | |     - Tag 0x9000 (4 bytes, undef[4]):
  | |         015c: 30 32 32 31                                     [0221]
  | | 5)  DateTimeOriginal = 2014:05:05 16:49:26
  | |     - Tag 0x9003 (20 bytes, string[20]):
  | |         02a0: 32 30 31 34 3a 30 35 3a 30 35 20 31 36 3a 34 39 [2014:05:05 16:49]
  | |         02b0: 3a 32 36 00                                     [:26.]
  | | 6)  CreateDate = 2014:05:05 16:49:26
  | |     - Tag 0x9004 (20 bytes, string[20]):
  | |         02b4: 32 30 31 34 3a 30 35 3a 30 35 20 31 36 3a 34 39 [2014:05:05 16:49]
  | |         02c4: 3a 32 36 00                                     [:26.]
  | | 7)  ShutterSpeedValue = 10.287712 (10287712/1000000)
  | |     - Tag 0x9201 (8 bytes, rational64s[1]):
  | |         02c8: 60 fa 9c 00 40 42 0f 00                         [`...@B..]
  | | 8)  ApertureValue = 4 (4/1)
  | |     - Tag 0x9202 (8 bytes, rational64u[1]):
  | |         02d0: 04 00 00 00 01 00 00 00                         [........]
  | | 9)  ExposureCompensation = 0 (0/1)
  | |     - Tag 0x9204 (8 bytes, rational64s[1]):
  | |         02d8: 00 00 00 00 01 00 00 00                         [........]
  | | 10) MaxApertureValue = 4 (4/1)
  | |     - Tag 0x9205 (8 bytes, rational64u[1]):
  | |         02e0: 04 00 00 00 01 00 00 00                         [........]
  | | 11) MeteringMode = 5
  | |     - Tag 0x9207 (2 bytes, int16u[1]):
  | |         01b0: 05 00                                           [..]
  | | 12) Flash = 16
  | |     - Tag 0x9209 (2 bytes, int16u[1]):
  | |         01bc: 10 00                                           [..]
  | | 13) FocalLength = 154 (154/1)
  | |     - Tag 0x920a (8 bytes, rational64u[1]):
  | |         02e8: 9a 00 00 00 01 00 00 00                         [........]
  | | 14) SubSecTime = 76
  | |     - Tag 0x9290 (3 bytes, string[3]):
  | |         01d4: 37 36 00                                        [76.]
  | | 15) SubSecTimeOriginal = 76
  | |     - Tag 0x9291 (3 bytes, string[3]):
  | |         01e0: 37 36 00                                        [76.]
  | | 16) SubSecTimeDigitized = 76
  | |     - Tag 0x9292 (3 bytes, string[3]):
  | |         01ec: 37 36 00                                        [76.]
  | | 17) ColorSpace = 65535
  | |     - Tag 0xa001 (2 bytes, int16u[1]):
  | |         01f8: ff ff                                           [..]
  | | 18) ExifImageWidth = 2371
  | |     - Tag 0xa002 (4 bytes, int32u[1]):
  | |         0204: 43 09 00 00                                     [C...]
  | | 19) ExifImageHeight = 1580
  | |     - Tag 0xa003 (4 bytes, int32u[1]):
  | |         0210: 2c 06 00 00                                     [,...]
  | | 20) FocalPlaneXResolution = 5728.176796 (5184000/905)
  | |     - Tag 0xa20e (8 bytes, rational64u[1]):
  | |         02f0: 00 1a 4f 00 89 03 00 00                         [..O.....]
  | | 21) FocalPlaneYResolution = 5808.403361 (3456000/595)
  | |     - Tag 0xa20f (8 bytes, rational64u[1]):
  | |         02f8: 00 bc 34 00 53 02 00 00                         [..4.S...]
  | | 22) FocalPlaneResolutionUnit = 2
  | |     - Tag 0xa210 (2 bytes, int16u[1]):
  | |         0234: 02 00                                           [..]
  | | 23) CustomRendered = 0
  | |     - Tag 0xa401 (2 bytes, int16u[1]):
  | |         0240: 00 00                                           [..]
  | | 24) ExposureMode = 0
  | |     - Tag 0xa402 (2 bytes, int16u[1]):
  | |         024c: 00 00                                           [..]
  | | 25) WhiteBalance = 0
  | |     - Tag 0xa403 (2 bytes, int16u[1]):
  | |         0258: 00 00                                           [..]
  | | 26) SceneCaptureType = 0
  | |     - Tag 0xa406 (2 bytes, int16u[1]):
  | |         0264: 00 00                                           [..]
  | | 27) SerialNumber = 1835918691
  | |     - Tag 0xa431 (11 bytes, string[11]):
  | |         0300: 31 38 33 35 39 31 38 36 39 31 00                [1835918691.]
  | | 28) LensInfo = 70 200 undef undef (70/1 200/1 0/0 0/0)
  | |     - Tag 0xa432 (32 bytes, rational64u[4]):
  | |         030c: 46 00 00 00 01 00 00 00 c8 00 00 00 01 00 00 00 [F...............]
  | |         031c: 00 00 00 00 00 00 00 00 00 00 00 00 00 00 00 00 [................]
  | | 29) LensModel = EF70-200mm f/4L USM
  | |     - Tag 0xa434 (20 bytes, string[20]):
  | |         032c: 45 46 37 30 2d 32 30 30 6d 6d 20 66 2f 34 4c 20 [EF70-200mm f/4L ]
  | |         033c: 55 53 4d 00                                     [USM.]
  + [IFD1 directory with 6 entries, Little-endian]
  | 0)  Compression = 6
  |     - Tag 0x0103 (2 bytes, int16u[1]):
  |         034a: 06 00                                           [..]
  | 1)  XResolution = 72 (72/1)
  |     - Tag 0x011a (8 bytes, rational64u[1]):
  |         038e: 48 00 00 00 01 00 00 00                         [H.......]
  | 2)  YResolution = 72 (72/1)
  |     - Tag 0x011b (8 bytes, rational64u[1]):
  |         0396: 48 00 00 00 01 00 00 00                         [H.......]
  | 3)  ResolutionUnit = 2
  |     - Tag 0x0128 (2 bytes, int16u[1]):
  |         036e: 02 00                                           [..]
  | 4)  ThumbnailOffset = 914
  |     - Tag 0x0201 (4 bytes, int32u[1]):
  |         037a: 92 03 00 00                                     [....]
  | 5)  ThumbnailLength = 11065
  |     - Tag 0x0202 (4 bytes, int32u[1]):
  |         0386: 39 2b 00 00                                     [9+..]
JPEG APP13 (13480 bytes):
      2edc: 50 68 6f 74 6f 73 68 6f 70 20 33 2e 30 00 38 42 [Photoshop 3.0.8B]
      2eec: 49 4d 04 04 00 00 00 00 00 54 1c 01 5a 00 03 1b [IM.......T..Z...]
      2efc: 25 47 1c 01 5a 00 03 1b 25 47 1c 01 00 00 02 00 [%G..Z...%G......]
      2f0c: 04 1c 02 00 00 02 00 00 1c 02 37 00 08 32 30 31 [..........7..201]
      2f1c: 34 30 35 30 35 1c 02 3c 00 0b 31 36 34 39 32 36 [40505..<..164926]
      2f2c: 2b 30 30 30 30 1c 02 78 00 0b 62 72 6f 77 6e 20 [+0000..x..brown ]
      2f3c: 68 6f 72 73 65 1c 02 19 00 04 66 6f 61 6c 38 42 [horse.....foal8B]
      [snip 13368 bytes]
  + [Photoshop directory, 13466 bytes]
  | IPTCData (SubDirectory) -->
  | - Tag 0x0404 (84 bytes):
  |     2ef6: 1c 01 5a 00 03 1b 25 47 1c 01 5a 00 03 1b 25 47 [..Z...%G..Z...%G]
  |     2f06: 1c 01 00 00 02 00 04 1c 02 00 00 02 00 00 1c 02 [................]
  |     2f16: 37 00 08 32 30 31 34 30 35 30 35 1c 02 3c 00 0b [7..20140505..<..]
  |     2f26: 31 36 34 39 32 36 2b 30 30 30 30 1c 02 78 00 0b [164926+0000..x..]
  |     2f36: 62 72 6f 77 6e 20 68 6f 72 73 65 1c 02 19 00 04 [brown horse.....]
  |     2f46: 66 6f 61 6c                                     [foal]
  | + [IPTC directory, 84 bytes]
  | | CurrentIPTCDigest = ....:..rQ...N..
  | | -- IPTCEnvelope record --
  | | CodedCharacterSet = .%G
  | | - Tag 0x005a, IPTCEnvelope record (3 bytes, string[0,32]):
  | |     2efb: 1b 25 47                                        [.%G]
  | | CodedCharacterSet = .%G
  | | - Tag 0x005a, IPTCEnvelope record (3 bytes, string[0,32]):
  | |     2f03: 1b 25 47                                        [.%G]
  | | EnvelopeRecordVersion = 4
  | | - Tag 0x0000, IPTCEnvelope record (2 bytes, int16u):
  | |     2f0b: 00 04                                           [..]
  | | -- IPTCApplication record --
  | | ApplicationRecordVersion = 0
  | | - Tag 0x0000, IPTCApplication record (2 bytes, int16u):
  | |     2f12: 00 00                                           [..]
  | | DateCreated = 20140505
  | | - Tag 0x0037, IPTCApplication record (8 bytes, digits[8]):
  | |     2f19: 32 30 31 34 30 35 30 35                         [20140505]
  | | TimeCreated = 164926+0000
  | | - Tag 0x003c, IPTCApplication record (11 bytes, string[11]):
  | |     2f26: 31 36 34 39 32 36 2b 30 30 30 30                [164926+0000]
  | | Caption-Abstract = brown horse
  | | - Tag 0x0078, IPTCApplication record (11 bytes, string[0,2000]):
  | |     2f36: 62 72 6f 77 6e 20 68 6f 72 73 65                [brown horse]
  | | Keywords = foal
  | | - Tag 0x0019, IPTCApplication record (4 bytes, string[0,64]):
  | |     2f46: 66 6f 61 6c                                     [foal]
  | IPTCDigest = ...A..s...h...C.
  | - Tag 0x0425 (16 bytes):
  |     2f56: 2e bd ea 41 18 af 73 0a a9 d1 68 07 c7 94 43 b6 [...A..s...h...C.]
  | PrintInfo2 = ...printOutput.PstSbool.InteenumInteClrm.printSixteenBitbool.printerNameTEXT..printProofSetupObjc.Nastaven. n.tisku.proofSetup.Bltnenum.builtinProof.proofCMYK
  | - Tag 0x043a (241 bytes):
  |     2f72: 00 00 00 10 00 00 00 01 00 00 00 00 00 0b 70 72 [..............pr]
  |     2f82: 69 6e 74 4f 75 74 70 75 74 00 00 00 05 00 00 00 [intOutput.......]
  |     2f92: 00 50 73 74 53 62 6f 6f 6c 01 00 00 00 00 49 6e [.PstSbool.....In]
  |     2fa2: 74 65 65 6e 75 6d 00 00 00 00 49 6e 74 65 00 00 [teenum....Inte..]
  |     2fb2: 00 00 43 6c 72 6d 00 00 00 0f 70 72 69 6e 74 53 [..Clrm....printS]
  |     2fc2: 69 78 74 65 65 6e 42 69 74 62 6f 6f 6c 00 00 00 [ixteenBitbool...]
  |     2fd2: 00 0b 70 72 69 6e 74 65 72 4e 61 6d 65 54 45 58 [..printerNameTEX]
  |     2fe2: 54 00 00 00 01 00 00 00 00 00 0f 70 72 69 6e 74 [T..........print]
  |     2ff2: 50 72 6f 6f 66 53 65 74 75 70 4f 62 6a 63 00 00 [ProofSetupObjc..]
  |     3002: 00 12 00 4e 00 61 00 73 00 74 00 61 00 76 00 65 [...N.a.s.t.a.v.e]
  |     3012: 00 6e 00 ed 00 20 00 6e 00 e1 00 74 00 69 00 73 [.n... .n...t.i.s]
  |     3022: 00 6b 00 75 00 00 00 00 00 0a 70 72 6f 6f 66 53 [.k.u......proofS]
  |     3032: 65 74 75 70 00 00 00 01 00 00 00 00 42 6c 74 6e [etup........Bltn]
  |     3042: 65 6e 75 6d 00 00 00 0c 62 75 69 6c 74 69 6e 50 [enum....builtinP]
  |     3052: 72 6f 6f 66 00 00 00 09 70 72 6f 6f 66 43 4d 59 [roof....proofCMY]
  |     3062: 4b                                              [K]
  | PrintStyle = ...printOutputOptions.CptnboolClbrboolRgsMboolCrnCboolCntCboolLblsboolNgtvboolEmlDboolIntrboolBckgObjc.RGBC.Rd  doub@o.Grn doub@o.Bl  doub@o.BrdTUntF#RltBld UntF#RltRsltUntF#Pxl@r..vectorDatabool.PgPsenumPgPsPgPCLeftUntF#RltTop UntF#RltScl UntF#Prc@Y.cropWhenPrintingbool.cropRectBottomlong.cropRectLeftlong.cropRectRightlong.cropRectToplong
  | - Tag 0x043b (557 bytes):
  |     3070: 00 00 00 10 00 00 00 01 00 00 00 00 00 12 70 72 [..............pr]
  |     3080: 69 6e 74 4f 75 74 70 75 74 4f 70 74 69 6f 6e 73 [intOutputOptions]
  |     3090: 00 00 00 17 00 00 00 00 43 70 74 6e 62 6f 6f 6c [........Cptnbool]
  |     30a0: 00 00 00 00 00 43 6c 62 72 62 6f 6f 6c 00 00 00 [.....Clbrbool...]
  |     30b0: 00 00 52 67 73 4d 62 6f 6f 6c 00 00 00 00 00 43 [..RgsMbool.....C]
  |     30c0: 72 6e 43 62 6f 6f 6c 00 00 00 00 00 43 6e 74 43 [rnCbool.....CntC]
  |     30d0: 62 6f 6f 6c 00 00 00 00 00 4c 62 6c 73 62 6f 6f [bool.....Lblsboo]
  |     30e0: 6c 00 00 00 00 00 4e 67 74 76 62 6f 6f 6c 00 00 [l.....Ngtvbool..]
  |     30f0: 00 00 00 45 6d 6c 44 62 6f 6f 6c 00 00 00 00 00 [...EmlDbool.....]
  |     3100: 49 6e 74 72 62 6f 6f 6c 00 00 00 00 00 42 63 6b [Intrbool.....Bck]
  |     3110: 67 4f 62 6a 63 00 00 00 01 00 00 00 00 00 00 52 [gObjc..........R]
  |     3120: 47 42 43 00 00 00 03 00 00 00 00 52 64 20 20 64 [GBC........Rd  d]
  |     3130: 6f 75 62 40 6f e0 00 00 00 00 00 00 00 00 00 47 [oub@o..........G]
  |     3140: 72 6e 20 64 6f 75 62 40 6f e0 00 00 00 00 00 00 [rn doub@o.......]
  |     3150: 00 00 00 42 6c 20 20 64 6f 75 62 40 6f e0 00 00 [...Bl  doub@o...]
  |     3160: 00 00 00 00 00 00 00 42 72 64 54 55 6e 74 46 23 [.......BrdTUntF#]
  |     3170: 52 6c 74 00 00 00 00 00 00 00 00 00 00 00 00 42 [Rlt............B]
  |     3180: 6c 64 20 55 6e 74 46 23 52 6c 74 00 00 00 00 00 [ld UntF#Rlt.....]
  |     3190: 00 00 00 00 00 00 00 52 73 6c 74 55 6e 74 46 23 [.......RsltUntF#]
  |     31a0: 50 78 6c 40 72 c0 00 00 00 00 00 00 00 00 0a 76 [Pxl@r..........v]
  |     31b0: 65 63 74 6f 72 44 61 74 61 62 6f 6f 6c 01 00 00 [ectorDatabool...]
  |     31c0: 00 00 50 67 50 73 65 6e 75 6d 00 00 00 00 50 67 [..PgPsenum....Pg]
  |     31d0: 50 73 00 00 00 00 50 67 50 43 00 00 00 00 4c 65 [Ps....PgPC....Le]
  |     31e0: 66 74 55 6e 74 46 23 52 6c 74 00 00 00 00 00 00 [ftUntF#Rlt......]
  |     31f0: 00 00 00 00 00 00 54 6f 70 20 55 6e 74 46 23 52 [......Top UntF#R]
  |     3200: 6c 74 00 00 00 00 00 00 00 00 00 00 00 00 53 63 [lt............Sc]
  |     3210: 6c 20 55 6e 74 46 23 50 72 63 40 59 00 00 00 00 [l UntF#Prc@Y....]
  |     3220: 00 00 00 00 00 10 63 72 6f 70 57 68 65 6e 50 72 [......cropWhenPr]
  |     3230: 69 6e 74 69 6e 67 62 6f 6f 6c 00 00 00 00 0e 63 [intingbool.....c]
  |     3240: 72 6f 70 52 65 63 74 42 6f 74 74 6f 6d 6c 6f 6e [ropRectBottomlon]
  |     3250: 67 00 00 00 00 00 00 00 0c 63 72 6f 70 52 65 63 [g........cropRec]
  |     3260: 74 4c 65 66 74 6c 6f 6e 67 00 00 00 00 00 00 00 [tLeftlong.......]
  |     3270: 0d 63 72 6f 70 52 65 63 74 52 69 67 68 74 6c 6f [.cropRectRightlo]
  |     3280: 6e 67 00 00 00 00 00 00 00 0b 63 72 6f 70 52 65 [ng........cropRe]
  |     3290: 63 74 54 6f 70 6c 6f 6e 67 00 00 00 00          [ctToplong....]
  | ResolutionInfo (SubDirectory) -->
  | - Tag 0x03ed (16 bytes):
  |     32aa: 01 2c 00 00 00 01 00 02 01 2c 00 00 00 01 00 02 [.,.......,......]
  | + [BinaryData directory, 16 bytes, Big-endian]
  | | XResolution = 19660800
  | | - Tag 0x0000 (4 bytes, int32u[1]):
  | |     32aa: 01 2c 00 00                                     [.,..]
  | | DisplayedUnitsX = 1
  | | - Tag 0x0002 (2 bytes, int16u[1]):
  | |     32ae: 00 01                                           [..]
  | | YResolution = 19660800
  | | - Tag 0x0004 (4 bytes, int32u[1]):
  | |     32b2: 01 2c 00 00                                     [.,..]
  | | DisplayedUnitsY = 1
  | | - Tag 0x0006 (2 bytes, int16u[1]):
  | |     32b6: 00 01                                           [..]
  | PrintScaleInfo (SubDirectory) -->
  | - Tag 0x0426 (14 bytes):
  |     32c6: 00 00 00 00 00 00 00 00 00 00 3f 80 00 00       [..........?...]
  | + [BinaryData directory, 14 bytes, Big-endian]
  | | PrintStyle = 0
  | | - Tag 0x0000 (2 bytes, int16u[1]):
  | |     32c6: 00 00                                           [..]
  | | PrintPosition = 0 0
  | | - Tag 0x0002 (8 bytes, float[2]):
  | |     32c8: 00 00 00 00 00 00 00 00                         [........]
  | | PrintScale = 1
  | | - Tag 0x000a (4 bytes, float[1]):
  | |     32d0: 3f 80 00 00                                     [?...]
  | BackgroundColor = ......
  | - Tag 0x03f2 (10 bytes):
  |     32e0: 00 00 ff ff ff ff ff ff 00 00                   [..........]
  | GlobalAngle = .
  | - Tag 0x040d (4 bytes):
  |     32f6: 00 00 00 1e                                     [....]
  | GlobalAltitude = .
  | - Tag 0x0419 (4 bytes):
  |     3306: 00 00 00 1e                                     [....]
  | PrintFlags = 0 0 0 0 0 0 0 0 1
  | - Tag 0x03f3 (9 bytes, int8u[9]):
  |     3316: 00 00 00 00 00 00 00 00 01                      [.........]
  | PrintFlagsInfo = ..
  | - Tag 0x2710 (10 bytes):
  |     332c: 00 01 00 00 00 00 00 00 00 02                   [..........]
  | ColorHalftoningInfo = /ff.lff../ff......2.Z..5.-..
  | - Tag 0x03f5 (72 bytes):
  |     3342: 00 2f 66 66 00 01 00 6c 66 66 00 06 00 00 00 00 [./ff...lff......]
  |     3352: 00 01 00 2f 66 66 00 01 00 a1 99 9a 00 06 00 00 [.../ff..........]
  |     3362: 00 00 00 01 00 32 00 00 00 01 00 5a 00 00 00 06 [.....2.....Z....]
  |     3372: 00 00 00 00 00 01 00 35 00 00 00 01 00 2d 00 00 [.......5.....-..]
  |     3382: 00 06 00 00 00 00 00 01                         [........]
  | ColorTransferFuncs = ................................................................................................
  | - Tag 0x03f8 (112 bytes):
  |     3396: 00 00 ff ff ff ff ff ff ff ff ff ff ff ff ff ff [................]
  |     33a6: ff ff ff ff ff ff ff ff 03 e8 00 00 00 00 ff ff [................]
  |     33b6: ff ff ff ff ff ff ff ff ff ff ff ff ff ff ff ff [................]
  |     33c6: ff ff ff ff 03 e8 00 00 00 00 ff ff ff ff ff ff [................]
  |     33d6: ff ff ff ff ff ff ff ff ff ff ff ff ff ff ff ff [................]
  |     33e6: 03 e8 00 00 00 00 ff ff ff ff ff ff ff ff ff ff [................]
  |     33f6: ff ff ff ff ff ff ff ff ff ff ff ff 03 e8 00 00 [................]
  | GridGuidesInfo = ..@.@
  | - Tag 0x0408 (16 bytes):
  |     3412: 00 00 00 01 00 00 02 40 00 00 02 40 00 00 00 00 [.......@...@....]
  | URL_List = 
  | - Tag 0x041e (4 bytes):
  |     342e: 00 00 00 00                                     [....]
  | SliceInfo (SubDirectory) -->
  | - Tag 0x041a (837 bytes):
  |     343e: 00 00 00 06 00 00 00 00 00 00 00 00 00 00 06 2c [...............,]
  |     344e: 00 00 09 43 00 00 00 08 00 49 00 4d 00 47 00 5f [...C.....I.M.G._]
  |     345e: 00 34 00 36 00 34 00 39 00 00 00 01 00 00 00 00 [.4.6.4.9........]
  |     346e: 00 00 00 00 00 00 00 00 00 00 00 00 00 00 00 01 [................]
  |     347e: 00 00 00 00 00 00 00 00 00 00 09 43 00 00 06 2c [...........C...,]
  |     348e: 00 00 00 00 00 00 00 00 00 00 00 00 00 00 00 00 [................]
  |     349e: 01 00 00 00 00 00 00 00 00 00 00 00 00 00 00 00 [................]
  |     34ae: 00 00 00 00 10 00 00 00 01 00 00 00 00 00 00 6e [...............n]
  |     34be: 75 6c 6c 00 00 00 02 00 00 00 06 62 6f 75 6e 64 [ull........bound]
  |     34ce: 73 4f 62 6a 63 00 00 00 01 00 00 00 00 00 00 52 [sObjc..........R]
  |     34de: 63 74 31 00 00 00 04 00 00 00 00 54 6f 70 20 6c [ct1........Top l]
  |     34ee: 6f 6e 67 00 00 00 00 00 00 00 00 4c 65 66 74 6c [ong........Leftl]
  |     34fe: 6f 6e 67 00 00 00 00 00 00 00 00 42 74 6f 6d 6c [ong........Btoml]
  |     350e: 6f 6e 67 00 00 06 2c 00 00 00 00 52 67 68 74 6c [ong...,....Rghtl]
  |     351e: 6f 6e 67 00 00 09 43 00 00 00 06 73 6c 69 63 65 [ong...C....slice]
  |     352e: 73 56 6c 4c 73 00 00 00 01 4f 62 6a 63 00 00 00 [sVlLs....Objc...]
  |     353e: 01 00 00 00 00 00 05 73 6c 69 63 65 00 00 00 12 [.......slice....]
  |     354e: 00 00 00 07 73 6c 69 63 65 49 44 6c 6f 6e 67 00 [....sliceIDlong.]
  |     355e: 00 00 00 00 00 00 07 67 72 6f 75 70 49 44 6c 6f [.......groupIDlo]
  |     356e: 6e 67 00 00 00 00 00 00 00 06 6f 72 69 67 69 6e [ng........origin]
  |     357e: 65 6e 75 6d 00 00 00 0c 45 53 6c 69 63 65 4f 72 [enum....ESliceOr]
  |     358e: 69 67 69 6e 00 00 00 0d 61 75 74 6f 47 65 6e 65 [igin....autoGene]
  |     359e: 72 61 74 65 64 00 00 00 00 54 79 70 65 65 6e 75 [rated....Typeenu]
  |     35ae: 6d 00 00 00 0a 45 53 6c 69 63 65 54 79 70 65 00 [m....ESliceType.]
  |     35be: 00 00 00 49 6d 67 20 00 00 00 06 62 6f 75 6e 64 [...Img ....bound]
  |     35ce: 73 4f 62 6a 63 00 00 00 01 00 00 00 00 00 00 52 [sObjc..........R]
  |     35de: 63 74 31 00 00 00 04 00 00 00 00 54 6f 70 20 6c [ct1........Top l]
  |     35ee: 6f 6e 67 00 00 00 00 00 00 00 00 4c 65 66 74 6c [ong........Leftl]
  |     35fe: 6f 6e 67 00 00 00 00 00 00 00 00 42 74 6f 6d 6c [ong........Btoml]
  |     360e: 6f 6e 67 00 00 06 2c 00 00 00 00 52 67 68 74 6c [ong...,....Rghtl]
  |     361e: 6f 6e 67 00 00 09 43 00 00 00 03 75 72 6c 54 45 [ong...C....urlTE]
  |     362e: 58 54 00 00 00 01 00 00 00 00 00 00 6e 75 6c 6c [XT..........null]
  |     363e: 54 45 58 54 00 00 00 01 00 00 00 00 00 00 4d 73 [TEXT..........Ms]
  |     364e: 67 65 54 45 58 54 00 00 00 01 00 00 00 00 00 06 [geTEXT..........]
  |     365e: 61 6c 74 54 61 67 54 45 58 54 00 00 00 01 00 00 [altTagTEXT......]
  |     366e: 00 00 00 0e 63 65 6c 6c 54 65 78 74 49 73 48 54 [....cellTextIsHT]
  |     367e: 4d 4c 62 6f 6f 6c 01 00 00 00 08 63 65 6c 6c 54 [MLbool.....cellT]
  |     368e: 65 78 74 54 45 58 54 00 00 00 01 00 00 00 00 00 [extTEXT.........]
  |     369e: 09 68 6f 72 7a 41 6c 69 67 6e 65 6e 75 6d 00 00 [.horzAlignenum..]
  |     36ae: 00 0f 45 53 6c 69 63 65 48 6f 72 7a 41 6c 69 67 [..ESliceHorzAlig]
  |     36be: 6e 00 00 00 07 64 65 66 61 75 6c 74 00 00 00 09 [n....default....]
  |     36ce: 76 65 72 74 41 6c 69 67 6e 65 6e 75 6d 00 00 00 [vertAlignenum...]
  |     36de: 0f 45 53 6c 69 63 65 56 65 72 74 41 6c 69 67 6e [.ESliceVertAlign]
  |     36ee: 00 00 00 07 64 65 66 61 75 6c 74 00 00 00 0b 62 [....default....b]
  |     36fe: 67 43 6f 6c 6f 72 54 79 70 65 65 6e 75 6d 00 00 [gColorTypeenum..]
  |     370e: 00 11 45 53 6c 69 63 65 42 47 43 6f 6c 6f 72 54 [..ESliceBGColorT]
  |     371e: 79 70 65 00 00 00 00 4e 6f 6e 65 00 00 00 09 74 [ype....None....t]
  |     372e: 6f 70 4f 75 74 73 65 74 6c 6f 6e 67 00 00 00 00 [opOutsetlong....]
  |     373e: 00 00 00 0a 6c 65 66 74 4f 75 74 73 65 74 6c 6f [....leftOutsetlo]
  |     374e: 6e 67 00 00 00 00 00 00 00 0c 62 6f 74 74 6f 6d [ng........bottom]
  |     375e: 4f 75 74 73 65 74 6c 6f 6e 67 00 00 00 00 00 00 [Outsetlong......]
  |     376e: 00 0b 72 69 67 68 74 4f 75 74 73 65 74 6c 6f 6e [..rightOutsetlon]
  |     377e: 67 00 00 00 00                                  [g....]
  | + [BinaryData directory, 837 bytes, Big-endian]
  | | SlicesGroupName = IMG_4649
  | | - Tag 0x0014 (16 bytes, ustr32[16]):
  | |     3456: 00 49 00 4d 00 47 00 5f 00 34 00 36 00 34 00 39 [.I.M.G._.4.6.4.9]
  | | NumSlices = 1
  | | - Tag 0x0018 (4 bytes, int32u[1]):
  | |     3466: 00 00 00 01                                     [....]
  | PixelInfo (SubDirectory) -->
  | - Tag 0x0428 (12 bytes):
  |     3790: 00 00 00 02 3f f0 00 00 00 00 00 00             [....?.......]
  | + [BinaryData directory, 12 bytes, Big-endian]
  | | PixelAspectRatio = 1
  | | - Tag 0x0004 (8 bytes, double[1]):
  | |     3794: 3f f0 00 00 00 00 00 00                         [?.......]
  | IDsBaseValue = 64
  | - Tag 0x0414 (4 bytes, int32u[1]):
  |     37a8: 00 00 00 40                                     [...@]
  | PhotoshopThumbnail = ..k....+9.......XICC_PROFILE...HLino..mntrRGB XYZ .....1acspMSFTIEC sRGB....-HP  .cprt.P3desc..lwtpt...bkpt...rXYZ...gXYZ.,.bXYZ.@.dmnd.Tpdmdd...vued.L.view..$lumi...meas..$tech.0.rTRC.<..gTRC.<..bTRC.<..textCopyright (c) 1998 Hewlett-Packard Companydesc.sRGB IEC61966-2.1.sRGB IEC61966-2.1XYZ .Q....XYZ XYZ o.8...XYZ b.....XYZ $.....desc.IEC http://www.iec.ch.IEC http://www.iec.chdesc.IEC 61966-2.1 Default RGB colour space - sRGB.IEC 61966-2.1 Default RGB colour space - sRGBdesc,Reference Viewing Condition in IEC61966-2.1,Reference Viewing Condition in IEC61966-2.1view...._...........\..XYZ L.VPW..meas....sig CRT curv.......#(-27;@EJOTY^chmrw|......................................%.+.2.8.>.E.L.R.Y.`.g.n.u.|.........................................&./.8.A.K.T.].g.q.z..............................!.-.8.C.O.Z.f.r.~......................... .-.;.H.U.c.q.~.......................+.:.I.X.g.w.....................'.7.H.Y.j.{...................+.=.O.a.t...................2.F.Z.n.................%.:.O.d.y...............'.=.T.j...............".9.Q.i...............*.C.\.u.............&.@.Z.t...............I.d.............%.A.^.z...........&.C.a.~...........1.O.m...........&.E.d...........#.C.c...........'.I.j...........4.V.x.........&.I.l...........A.e...........@.e......... .E.k.........*.Q.w.........;.c.........*.R.{.........G.p.........@.j.........>.i...... . A l . . .!.!H!u!.!.!."'"U".".".#.#8#f#.#.#.$.$M$|$.$.%.%8%h%.%.%.&'&W&.&.&.'.'I'z'.'.(.(?(q(.(.).)8)k).).*.*5*h*.*.+.+6+i+.+.,.,9,n,.,.-.-A-v-.-....L....../$/Z/././.050l0.0.1.1J1.1.1.2*2c2.2.3.3F3.3.3.4+4e4.4.5.5M5.5.5.676r6.6.7$7`7.7.8.8P8.8.9.9B9.9.9.:6:t:.:.;-;k;.;.<'<e<.<.="=a=.=.> >`>.>.?!?a?.?.@#@d@.@.A)AjA.A.B0BrB.B.C:C}C.D.DGD.D.E.EUE.E.F"FgF.F.G5G{G.H.HKH.H.I.IcI.I.J7J}J.K.KSK.K.L*LrL.M.MJM.M.N%NnN.OOIO.O.P'PqP.Q.QPQ.Q.R1R|R.S.S_S.S.TBT.T.U(UuU.V.V\V.V.WDW.W.X/X}X.Y.YiY.Z.ZVZ.Z.[E[.[.\5\.\.]']x].^.^l^._._a_.`.`W`.`.aOa.a.bIb.b.cCc.c.d@d.d.e=e.e.f=f.f.g=g.g.h?h.h.iCi.i.jHj.j.kOk.k.lWl.m.m`m.n.nkn.o.oxo.p+p.p.q:q.q.rKr.s.s]s.t.tpt.u(u.u.v>v.v.wVw.x.xnx.y*y[snip]
  | - Tag 0x040c (11093 bytes):
  |     37b8: 00 00 00 01 00 00 00 a0 00 00 00 6b 00 00 01 e0 [...........k....]
  |     37c8: 00 00 c8 a0 00 00 2b 39 00 18 00 01 ff d8 ff e2 [......+9........]
  |     37d8: 0c 58 49 43 43 5f 50 52 4f 46 49 4c 45 00 01 01 [.XICC_PROFILE...]
  |     37e8: 00 00 0c 48 4c 69 6e 6f 02 10 00 00 6d 6e 74 72 [...HLino....mntr]
  |     37f8: 52 47 42 20 58 59 5a 20 07 ce 00 02 00 09 00 06 [RGB XYZ ........]
  |     3808: 00 31 00 00 61 63 73 70 4d 53 46 54 00 00 00 00 [.1..acspMSFT....]
  |     3818: 49 45 43 20 73 52 47 42 00 00 00 00 00 00 00 00 [IEC sRGB........]
  |     3828: 00 00 00 00 00 00 f6 d6 00 01 00 00 00 00 d3 2d [...............-]
  |     3838: 48 50 20 20 00 00 00 00 00 00 00 00 00 00 00 00 [HP  ............]
  |     3848: 00 00 00 00 00 00 00 00 00 00 00 00 00 00 00 00 [................]
  |     3858: 00 00 00 00 00 00 00 00 00 00 00 00 00 00 00 00 [................]
  |     3868: 00 00 00 11 63 70 72 74 00 00 01 50 00 00 00 33 [....cprt...P...3]
  |     3878: 64 65 73 63 00 00 01 84 00 00 00 6c 77 74 70 74 [desc.......lwtpt]
  |     3888: 00 00 01 f0 00 00 00 14 62 6b 70 74 00 00 02 04 [........bkpt....]
  |     3898: 00 00 00 14 72 58 59 5a 00 00 02 18 00 00 00 14 [....rXYZ........]
  |     38a8: 67 58 59 5a 00 00 02 2c 00 00 00 14 62 58 59 5a [gXYZ...,....bXYZ]
  |     38b8: 00 00 02 40 00 00 00 14 64 6d 6e 64 00 00 02 54 [...@....dmnd...T]
  |     38c8: 00 00 00 70 64 6d 64 64 00 00 02 c4 00 00 00 88 [...pdmdd........]
  |     38d8: 76 75 65 64 00 00 03 4c 00 00 00 86 76 69 65 77 [vued...L....view]
  |     38e8: 00 00 03 d4 00 00 00 24 6c 75 6d 69 00 00 03 f8 [.......$lumi....]
  |     38f8: 00 00 00 14 6d 65 61 73 00 00 04 0c 00 00 00 24 [....meas.......$]
  |     3908: 74 65 63 68 00 00 04 30 00 00 00 0c 72 54 52 43 [tech...0....rTRC]
  |     3918: 00 00 04 3c 00 00 08 0c 67 54 52 43 00 00 04 3c [...<....gTRC...<]
  |     3928: 00 00 08 0c 62 54 52 43 00 00 04 3c 00 00 08 0c [....bTRC...<....]
  |     3938: 74 65 78 74 00 00 00 00 43 6f 70 79 72 69 67 68 [text....Copyrigh]
  |     3948: 74 20 28 63 29 20 31 39 39 38 20 48 65 77 6c 65 [t (c) 1998 Hewle]
  |     3958: 74 74 2d 50 61 63 6b 61 72 64 20 43 6f 6d 70 61 [tt-Packard Compa]
  |     3968: 6e 79 00 00 64 65 73 63 00 00 00 00 00 00 00 12 [ny..desc........]
  |     3978: 73 52 47 42 20 49 45 43 36 31 39 36 36 2d 32 2e [sRGB IEC61966-2.]
  |     3988: 31 00 00 00 00 00 00 00 00 00 00 00 12 73 52 47 [1............sRG]
  |     3998: 42 20 49 45 43 36 31 39 36 36 2d 32 2e 31 00 00 [B IEC61966-2.1..]
  |     39a8: 00 00 00 00 00 00 00 00 00 00 00 00 00 00 00 00 [................]
  |     39b8: 00 00 00 00 00 00 00 00 00 00 00 00 00 00 00 00 [................]
  |     39c8: 00 00 00 00 00 00 00 00 00 00 00 00 00 00 00 00 [................]
  |     39d8: 58 59 5a 20 00 00 00 00 00 00 f3 51 00 01 00 00 [XYZ .......Q....]
  |     39e8: 00 01 16 cc 58 59 5a 20 00 00 00 00 00 00 00 00 [....XYZ ........]
  |     39f8: 00 00 00 00 00 00 00 00 58 59 5a 20 00 00 00 00 [........XYZ ....]
  |     3a08: 00 00 6f a2 00 00 38 f5 00 00 03 90 58 59 5a 20 [..o...8.....XYZ ]
  |     3a18: 00 00 00 00 00 00 62 99 00 00 b7 85 00 00 18 da [......b.........]
  |     3a28: 58 59 5a 20 00 00 00 00 00 00 24 a0 00 00 0f 84 [XYZ ......$.....]
  |     3a38: 00 00 b6 cf 64 65 73 63 00 00 00 00 00 00 00 16 [....desc........]
  |     3a48: 49 45 43 20 68 74 74 70 3a 2f 2f 77 77 77 2e 69 [IEC http://www.i]
  |     3a58: 65 63 2e 63 68 00 00 00 00 00 00 00 00 00 00 00 [ec.ch...........]
  |     3a68: 16 49 45 43 20 68 74 74 70 3a 2f 2f 77 77 77 2e [.IEC http://www.]
  |     3a78: 69 65 63 2e 63 68 00 00 00 00 00 00 00 00 00 00 [iec.ch..........]
  |     3a88: 00 00 00 00 00 00 00 00 00 00 00 00 00 00 00 00 [................]
  |     3a98: 00 00 00 00 00 00 00 00 00 00 00 00 00 00 00 00 [................]
  |     3aa8: 00 00 00 00 64 65 73 63 00 00 00 00 00 00 00 2e [....desc........]
  |     3ab8: 49 45 43 20 36 31 39 36 36 2d 32 2e 31 20 44 65 [IEC 61966-2.1 De]
  |     3ac8: 66 61 75 6c 74 20 52 47 42 20 63 6f 6c 6f 75 72 [fault RGB colour]
  |     3ad8: 20 73 70 61 63 65 20 2d 20 73 52 47 42 00 00 00 [ space - sRGB...]
  |     3ae8: 00 00 00 00 00 00 00 00 2e 49 45 43 20 36 31 39 [.........IEC 619]
  |     3af8: 36 36 2d 32 2e 31 20 44 65 66 61 75 6c 74 20 52 [66-2.1 Default R]
  |     3b08: 47 42 20 63 6f 6c 6f 75 72 20 73 70 61 63 65 20 [GB colour space ]
  |     3b18: 2d 20 73 52 47 42 00 00 00 00 00 00 00 00 00 00 [- sRGB..........]
  |     3b28: 00 00 00 00 00 00 00 00 00 00 00 00 64 65 73 63 [............desc]
  |     3b38: 00 00 00 00 00 00 00 2c 52 65 66 65 72 65 6e 63 [.......,Referenc]
  |     3b48: 65 20 56 69 65 77 69 6e 67 20 43 6f 6e 64 69 74 [e Viewing Condit]
  |     3b58: 69 6f 6e 20 69 6e 20 49 45 43 36 31 39 36 36 2d [ion in IEC61966-]
  |     3b68: 32 2e 31 00 00 00 00 00 00 00 00 00 00 00 2c 52 [2.1...........,R]
  |     3b78: 65 66 65 72 65 6e 63 65 20 56 69 65 77 69 6e 67 [eference Viewing]
  |     3b88: 20 43 6f 6e 64 69 74 69 6f 6e 20 69 6e 20 49 45 [ Condition in IE]
  |     3b98: 43 36 31 39 36 36 2d 32 2e 31 00 00 00 00 00 00 [C61966-2.1......]
  |     3ba8: 00 00 00 00 00 00 00 00 00 00 00 00 00 00 00 00 [................]
  |     3bb8: 00 00 00 00 76 69 65 77 00 00 00 00 00 13 a4 fe [....view........]
  |     3bc8: 00 14 5f 2e 00 10 cf 14 00 03 ed cc 00 04 13 0b [.._.............]
  |     3bd8: 00 03 5c 9e 00 00 00 01 58 59 5a 20 00 00 00 00 [..\.....XYZ ....]
  |     3be8: 00 4c 09 56 00 50 00 00 00 57 1f e7 6d 65 61 73 [.L.V.P...W..meas]
  |     3bf8: 00 00 00 00 00 00 00 01 00 00 00 00 00 00 00 00 [................]
  |     3c08: 00 00 00 00 00 00 00 00 00 00 02 8f 00 00 00 02 [................]
  |     3c18: 73 69 67 20 00 00 00 00 43 52 54 20 63 75 72 76 [sig ....CRT curv]
  |     3c28: 00 00 00 00 00 00 04 00 00 00 00 05 00 0a 00 0f [................]
  |     3c38: 00 14 00 19 00 1e 00 23 00 28 00 2d 00 32 00 37 [.......#.(.-.2.7]
  |     3c48: 00 3b 00 40 00 45 00 4a 00 4f 00 54 00 59 00 5e [.;.@.E.J.O.T.Y.^]
  |     3c58: 00 63 00 68 00 6d 00 72 00 77 00 7c 00 81 00 86 [.c.h.m.r.w.|....]
  |     3c68: 00 8b 00 90 00 95 00 9a 00 9f 00 a4 00 a9 00 ae [................]
  |     3c78: 00 b2 00 b7 00 bc 00 c1 00 c6 00 cb 00 d0 00 d5 [................]
  |     3c88: 00 db 00 e0 00 e5 00 eb 00 f0 00 f6 00 fb 01 01 [................]
  |     3c98: 01 07 01 0d 01 13 01 19 01 1f 01 25 01 2b 01 32 [...........%.+.2]
  |     3ca8: 01 38 01 3e 01 45 01 4c 01 52 01 59 01 60 01 67 [.8.>.E.L.R.Y.`.g]
  |     3cb8: 01 6e 01 75 01 7c 01 83 01 8b 01 92 01 9a 01 a1 [.n.u.|..........]
  |     3cc8: 01 a9 01 b1 01 b9 01 c1 01 c9 01 d1 01 d9 01 e1 [................]
  |     3cd8: 01 e9 01 f2 01 fa 02 03 02 0c 02 14 02 1d 02 26 [...............&]
  |     3ce8: 02 2f 02 38 02 41 02 4b 02 54 02 5d 02 67 02 71 [./.8.A.K.T.].g.q]
  |     3cf8: 02 7a 02 84 02 8e 02 98 02 a2 02 ac 02 b6 02 c1 [.z..............]
  |     3d08: 02 cb 02 d5 02 e0 02 eb 02 f5 03 00 03 0b 03 16 [................]
  |     3d18: 03 21 03 2d 03 38 03 43 03 4f 03 5a 03 66 03 72 [.!.-.8.C.O.Z.f.r]
  |     3d28: 03 7e 03 8a 03 96 03 a2 03 ae 03 ba 03 c7 03 d3 [.~..............]
  |     3d38: 03 e0 03 ec 03 f9 04 06 04 13 04 20 04 2d 04 3b [........... .-.;]
  |     3d48: 04 48 04 55 04 63 04 71 04 7e 04 8c 04 9a 04 a8 [.H.U.c.q.~......]
  |     3d58: 04 b6 04 c4 04 d3 04 e1 04 f0 04 fe 05 0d 05 1c [................]
  |     3d68: 05 2b 05 3a 05 49 05 58 05 67 05 77 05 86 05 96 [.+.:.I.X.g.w....]
  |     3d78: 05 a6 05 b5 05 c5 05 d5 05 e5 05 f6 06 06 06 16 [................]
  |     3d88: 06 27 06 37 06 48 06 59 06 6a 06 7b 06 8c 06 9d [.'.7.H.Y.j.{....]
  |     3d98: 06 af 06 c0 06 d1 06 e3 06 f5 07 07 07 19 07 2b [...............+]
  |     3da8: 07 3d 07 4f 07 61 07 74 07 86 07 99 07 ac 07 bf [.=.O.a.t........]
  |     3db8: 07 d2 07 e5 07 f8 08 0b 08 1f 08 32 08 46 08 5a [...........2.F.Z]
  |     3dc8: 08 6e 08 82 08 96 08 aa 08 be 08 d2 08 e7 08 fb [.n..............]
  |     3dd8: 09 10 09 25 09 3a 09 4f 09 64 09 79 09 8f 09 a4 [...%.:.O.d.y....]
  |     3de8: 09 ba 09 cf 09 e5 09 fb 0a 11 0a 27 0a 3d 0a 54 [...........'.=.T]
  |     3df8: 0a 6a 0a 81 0a 98 0a ae 0a c5 0a dc 0a f3 0b 0b [.j..............]
  |     3e08: 0b 22 0b 39 0b 51 0b 69 0b 80 0b 98 0b b0 0b c8 [.".9.Q.i........]
  |     3e18: 0b e1 0b f9 0c 12 0c 2a 0c 43 0c 5c 0c 75 0c 8e [.......*.C.\.u..]
  |     3e28: 0c a7 0c c0 0c d9 0c f3 0d 0d 0d 26 0d 40 0d 5a [...........&.@.Z]
  |     3e38: 0d 74 0d 8e 0d a9 0d c3 0d de 0d f8 0e 13 0e 2e [.t..............]
  |     3e48: 0e 49 0e 64 0e 7f 0e 9b 0e b6 0e d2 0e ee 0f 09 [.I.d............]
  |     3e58: 0f 25 0f 41 0f 5e 0f 7a 0f 96 0f b3 0f cf 0f ec [.%.A.^.z........]
  |     3e68: 10 09 10 26 10 43 10 61 10 7e 10 9b 10 b9 10 d7 [...&.C.a.~......]
  |     3e78: 10 f5 11 13 11 31 11 4f 11 6d 11 8c 11 aa 11 c9 [.....1.O.m......]
  |     3e88: 11 e8 12 07 12 26 12 45 12 64 12 84 12 a3 12 c3 [.....&.E.d......]
  |     3e98: 12 e3 13 03 13 23 13 43 13 63 13 83 13 a4 13 c5 [.....#.C.c......]
  |     3ea8: 13 e5 14 06 14 27 14 49 14 6a 14 8b 14 ad 14 ce [.....'.I.j......]
  |     3eb8: 14 f0 15 12 15 34 15 56 15 78 15 9b 15 bd 15 e0 [.....4.V.x......]
  |     3ec8: 16 03 16 26 16 49 16 6c 16 8f 16 b2 16 d6 16 fa [...&.I.l........]
  |     3ed8: 17 1d 17 41 17 65 17 89 17 ae 17 d2 17 f7 18 1b [...A.e..........]
  |     3ee8: 18 40 18 65 18 8a 18 af 18 d5 18 fa 19 20 19 45 [.@.e......... .E]
  |     3ef8: 19 6b 19 91 19 b7 19 dd 1a 04 1a 2a 1a 51 1a 77 [.k.........*.Q.w]
  |     3f08: 1a 9e 1a c5 1a ec 1b 14 1b 3b 1b 63 1b 8a 1b b2 [.........;.c....]
  |     3f18: 1b da 1c 02 1c 2a 1c 52 1c 7b 1c a3 1c cc 1c f5 [.....*.R.{......]
  |     3f28: 1d 1e 1d 47 1d 70 1d 99 1d c3 1d ec 1e 16 1e 40 [...G.p.........@]
  |     3f38: 1e 6a 1e 94 1e be 1e e9 1f 13 1f 3e 1f 69 1f 94 [.j.........>.i..]
  |     3f48: 1f bf 1f ea 20 15 20 41 20 6c 20 98 20 c4 20 f0 [.... . A l . . .]
  |     3f58: 21 1c 21 48 21 75 21 a1 21 ce 21 fb 22 27 22 55 [!.!H!u!.!.!."'"U]
  |     3f68: 22 82 22 af 22 dd 23 0a 23 38 23 66 23 94 23 c2 [".".".#.#8#f#.#.]
  |     3f78: 23 f0 24 1f 24 4d 24 7c 24 ab 24 da 25 09 25 38 [#.$.$M$|$.$.%.%8]
  |     3f88: 25 68 25 97 25 c7 25 f7 26 27 26 57 26 87 26 b7 [%h%.%.%.&'&W&.&.]
  |     3f98: 26 e8 27 18 27 49 27 7a 27 ab 27 dc 28 0d 28 3f [&.'.'I'z'.'.(.(?]
  |     [snip 9061 bytes]
  | VersionInfo (SubDirectory) -->
  | - Tag 0x0421 (85 bytes):
  |     631a: 00 00 00 01 01 00 00 00 0f 00 41 00 64 00 6f 00 [..........A.d.o.]
  |     632a: 62 00 65 00 20 00 50 00 68 00 6f 00 74 00 6f 00 [b.e. .P.h.o.t.o.]
  |     633a: 73 00 68 00 6f 00 70 00 00 00 13 00 41 00 64 00 [s.h.o.p.....A.d.]
  |     634a: 6f 00 62 00 65 00 20 00 50 00 68 00 6f 00 74 00 [o.b.e. .P.h.o.t.]
  |     635a: 6f 00 73 00 68 00 6f 00 70 00 20 00 43 00 53 00 [o.s.h.o.p. .C.S.]
  |     636a: 36 00 00 00 01                                  [6....]
  | + [BinaryData directory, 85 bytes, Big-endian]
  | | HasRealMergedData = 1
  | | - Tag 0x0004 (1 bytes, int8u[1]):
  | |     631e: 01                                              [.]
  | | WriterName = Adobe Photoshop
  | | - Tag 0x0005 (30 bytes, ustr32[30]):
  | |     6323: 00 41 00 64 00 6f 00 62 00 65 00 20 00 50 00 68 [.A.d.o.b.e. .P.h]
  | |     6333: 00 6f 00 74 00 6f 00 73 00 68 00 6f 00 70       [.o.t.o.s.h.o.p]
  | | ReaderName = Adobe Photoshop CS6
  | | - Tag 0x0009 (38 bytes, ustr32[38]):
  | |     6345: 00 41 00 64 00 6f 00 62 00 65 00 20 00 50 00 68 [.A.d.o.b.e. .P.h]
  | |     6355: 00 6f 00 74 00 6f 00 73 00 68 00 6f 00 70 00 20 [.o.t.o.s.h.o.p. ]
  | |     6365: 00 43 00 53 00 36                               [.C.S.6]
  | JPEG_Quality (SubDirectory) -->
  | - Tag 0x0406 (7 bytes):
  |     637c: 00 08 01 01 00 01 01                            [.......]
  | + [BinaryData directory, 7 bytes, Big-endian]
  | | PhotoshopQuality = 8
  | | - Tag 0x0000 (2 bytes, int16s[1]):
  | |     637c: 00 08                                           [..]
  | | PhotoshopFormat = 257
  | | - Tag 0x0001 (2 bytes, int16s[1]):
  | |     637e: 01 01                                           [..]
  | | ProgressiveScans = 1
  | | - Tag 0x0002 (2 bytes, int16s[1]):
  | |     6380: 00 01                                           [..]
  | Warning = IPTCDigest is not current. XMP may be out of sync
JPEG APP1 (13069 bytes):
      6388: 68 74 74 70 3a 2f 2f 6e 73 2e 61 64 6f 62 65 2e [http://ns.adobe.]
      6398: 63 6f 6d 2f 78 61 70 2f 31 2e 30 2f 00 3c 3f 78 [com/xap/1.0/.<?x]
      63a8: 70 61 63 6b 65 74 20 62 65 67 69 6e 3d 27 ef bb [packet begin='..]
      63b8: bf 27 20 69 64 3d 27 57 35 4d 30 4d 70 43 65 68 [.' id='W5M0MpCeh]
      63c8: 69 48 7a 72 65 53 7a 4e 54 63 7a 6b 63 39 64 27 [iHzreSzNTczkc9d']
      63d8: 3f 3e 0a 3c 78 3a 78 6d 70 6d 65 74 61 20 78 6d [?>.<x:xmpmeta xm]
      63e8: 6c 6e 73 3a 78 3d 27 61 64 6f 62 65 3a 6e 73 3a [lns:x='adobe:ns:]
      [snip 12957 bytes]
  + [XMP directory, 13040 bytes]
  | XMPToolkit = Image::ExifTool 12.27
  | ApproximateFocusDistance = 191/10
  | - Tag 'x:xmpmeta/rdf:RDF/rdf:Description/aux:ApproximateFocusDistance'
  | Firmware = 1.0.9
  | - Tag 'x:xmpmeta/rdf:RDF/rdf:Description/aux:Firmware'
  | FlashCompensation = 0/1
  | - Tag 'x:xmpmeta/rdf:RDF/rdf:Description/aux:FlashCompensation'
  | ImageNumber = 0
  | - Tag 'x:xmpmeta/rdf:RDF/rdf:Description/aux:ImageNumber'
  | Lens = EF70-200mm f/4L USM
  | - Tag 'x:xmpmeta/rdf:RDF/rdf:Description/aux:Lens'
  | LensID = 186
  | - Tag 'x:xmpmeta/rdf:RDF/rdf:Description/aux:LensID'
  | LensInfo = 70/1 200/1 0/0 0/0
  | - Tag 'x:xmpmeta/rdf:RDF/rdf:Description/aux:LensInfo'
  | SerialNumber = 1835918691
  | - Tag 'x:xmpmeta/rdf:RDF/rdf:Description/aux:SerialNumber'
  | Format = image/jpeg
  | - Tag 'x:xmpmeta/rdf:RDF/rdf:Description/dc:format'
  | ColorMode = 3
  | - Tag 'x:xmpmeta/rdf:RDF/rdf:Description/photoshop:ColorMode'
  | DateCreated = 2014-05-05T16:49:26.076
  | - Tag 'x:xmpmeta/rdf:RDF/rdf:Description/photoshop:DateCreated'
  | DocumentAncestors = xmp.did:75ec9faa-8342-484d-a220-f7a57201ba42
  | - Tag 'x:xmpmeta/rdf:RDF/rdf:Description/photoshop:DocumentAncestors/rdf:Bag/rdf:li 10'
  | ICCProfileName = Adobe RGB (1998)
  | - Tag 'x:xmpmeta/rdf:RDF/rdf:Description/photoshop:ICCProfile'
  | LegacyIPTCDigest = 9E9754291B9BEB9C7AF35F23AFE3A4B4
  | - Tag 'x:xmpmeta/rdf:RDF/rdf:Description/photoshop:LegacyIPTCDigest'
  | CreateDate = 2014-05-05T16:49:26
  | - Tag 'x:xmpmeta/rdf:RDF/rdf:Description/xmp:CreateDate'
  | CreatorTool = Adobe Photoshop CS6 (Macintosh)
  | - Tag 'x:xmpmeta/rdf:RDF/rdf:Description/xmp:CreatorTool'
  | MetadataDate = 2014-05-06T20:29:10+01:00
  | - Tag 'x:xmpmeta/rdf:RDF/rdf:Description/xmp:MetadataDate'
  | ModifyDate = 2014-05-06T20:29:10+01:00
  | - Tag 'x:xmpmeta/rdf:RDF/rdf:Description/xmp:ModifyDate'
  | Rating = 2
  | - Tag 'x:xmpmeta/rdf:RDF/rdf:Description/xmp:Rating'
  | DerivedFromDocumentID = xmp.did:75ec9faa-8342-484d-a220-f7a57201ba42
  | - Tag 'x:xmpmeta/rdf:RDF/rdf:Description/xmpMM:DerivedFrom/stRef:documentID'
  | DerivedFromInstanceID = xmp.iid:23629CF50A2068118083AEA048548252
  | - Tag 'x:xmpmeta/rdf:RDF/rdf:Description/xmpMM:DerivedFrom/stRef:instanceID'
  | DerivedFromOriginalDocumentID = 645AA7AC084369EBCFB438EB793F7F16
  | - Tag 'x:xmpmeta/rdf:RDF/rdf:Description/xmpMM:DerivedFrom/stRef:originalDocumentID'
  | DocumentID = xmp.did:75ec9faa-8342-484d-a220-f7a57201ba42
  | - Tag 'x:xmpmeta/rdf:RDF/rdf:Description/xmpMM:DocumentID'
  | HistoryAction = derived
  | - Tag 'x:xmpmeta/rdf:RDF/rdf:Description/xmpMM:History/rdf:Seq/rdf:li 10/stEvt:action'
  | HistoryParameters = converted from image/x-canon-cr2 to image/tiff
  | - Tag 'x:xmpmeta/rdf:RDF/rdf:Description/xmpMM:History/rdf:Seq/rdf:li 10/stEvt:parameters'
  | HistoryAction = saved
  | - Tag 'x:xmpmeta/rdf:RDF/rdf:Description/xmpMM:History/rdf:Seq/rdf:li 11/stEvt:action'
  | HistoryChanged = /
  | - Tag 'x:xmpmeta/rdf:RDF/rdf:Description/xmpMM:History/rdf:Seq/rdf:li 11/stEvt:changed'
  | HistoryInstanceID = xmp.iid:75ec9faa-8342-484d-a220-f7a57201ba42
  | - Tag 'x:xmpmeta/rdf:RDF/rdf:Description/xmpMM:History/rdf:Seq/rdf:li 11/stEvt:instanceID'
  | HistorySoftwareAgent = Adobe Photoshop Camera Raw 8.2 (Macintosh)
  | - Tag 'x:xmpmeta/rdf:RDF/rdf:Description/xmpMM:History/rdf:Seq/rdf:li 11/stEvt:softwareAgent'
  | HistoryWhen = 2014-05-06T20:19:57+01:00
  | - Tag 'x:xmpmeta/rdf:RDF/rdf:Description/xmpMM:History/rdf:Seq/rdf:li 11/stEvt:when'
  | HistoryAction = saved
  | - Tag 'x:xmpmeta/rdf:RDF/rdf:Description/xmpMM:History/rdf:Seq/rdf:li 12/stEvt:action'
  | HistoryChanged = /
  | - Tag 'x:xmpmeta/rdf:RDF/rdf:Description/xmpMM:History/rdf:Seq/rdf:li 12/stEvt:changed'
  | HistoryInstanceID = xmp.iid:23629CF50A2068118083AEA048548252
  | - Tag 'x:xmpmeta/rdf:RDF/rdf:Description/xmpMM:History/rdf:Seq/rdf:li 12/stEvt:instanceID'
  | HistorySoftwareAgent = Adobe Photoshop CS6 (Macintosh)
  | - Tag 'x:xmpmeta/rdf:RDF/rdf:Description/xmpMM:History/rdf:Seq/rdf:li 12/stEvt:softwareAgent'
  | HistoryWhen = 2014-05-06T20:24:48+01:00
  | - Tag 'x:xmpmeta/rdf:RDF/rdf:Description/xmpMM:History/rdf:Seq/rdf:li 12/stEvt:when'
  | HistoryAction = converted
  | - Tag 'x:xmpmeta/rdf:RDF/rdf:Description/xmpMM:History/rdf:Seq/rdf:li 13/stEvt:action'
  | HistoryParameters = from image/tiff to image/jpeg
  | - Tag 'x:xmpmeta/rdf:RDF/rdf:Description/xmpMM:History/rdf:Seq/rdf:li 13/stEvt:parameters'
  | HistoryAction = derived
  | - Tag 'x:xmpmeta/rdf:RDF/rdf:Description/xmpMM:History/rdf:Seq/rdf:li 14/stEvt:action'
  | HistoryParameters = converted from image/tiff to image/jpeg
  | - Tag 'x:xmpmeta/rdf:RDF/rdf:Description/xmpMM:History/rdf:Seq/rdf:li 14/stEvt:parameters'
  | HistoryAction = saved
  | - Tag 'x:xmpmeta/rdf:RDF/rdf:Description/xmpMM:History/rdf:Seq/rdf:li 15/stEvt:action'
  | HistoryChanged = /
  | - Tag 'x:xmpmeta/rdf:RDF/rdf:Description/xmpMM:History/rdf:Seq/rdf:li 15/stEvt:changed'
  | HistoryInstanceID = xmp.iid:24629CF50A2068118083AEA048548252
  | - Tag 'x:xmpmeta/rdf:RDF/rdf:Description/xmpMM:History/rdf:Seq/rdf:li 15/stEvt:instanceID'
  | HistorySoftwareAgent = Adobe Photoshop CS6 (Macintosh)
  | - Tag 'x:xmpmeta/rdf:RDF/rdf:Description/xmpMM:History/rdf:Seq/rdf:li 15/stEvt:softwareAgent'
  | HistoryWhen = 2014-05-06T20:24:48+01:00
  | - Tag 'x:xmpmeta/rdf:RDF/rdf:Description/xmpMM:History/rdf:Seq/rdf:li 15/stEvt:when'
  | HistoryAction = saved
  | - Tag 'x:xmpmeta/rdf:RDF/rdf:Description/xmpMM:History/rdf:Seq/rdf:li 16/stEvt:action'
  | HistoryChanged = /
  | - Tag 'x:xmpmeta/rdf:RDF/rdf:Description/xmpMM:History/rdf:Seq/rdf:li 16/stEvt:changed'
  | HistoryInstanceID = xmp.iid:25629CF50A2068118083AEA048548252
  | - Tag 'x:xmpmeta/rdf:RDF/rdf:Description/xmpMM:History/rdf:Seq/rdf:li 16/stEvt:instanceID'
  | HistorySoftwareAgent = Adobe Photoshop CS6 (Macintosh)
  | - Tag 'x:xmpmeta/rdf:RDF/rdf:Description/xmpMM:History/rdf:Seq/rdf:li 16/stEvt:softwareAgent'
  | HistoryWhen = 2014-05-06T20:29:10+01:00
  | - Tag 'x:xmpmeta/rdf:RDF/rdf:Description/xmpMM:History/rdf:Seq/rdf:li 16/stEvt:when'
  | InstanceID = xmp.iid:25629CF50A2068118083AEA048548252
  | - Tag 'x:xmpmeta/rdf:RDF/rdf:Description/xmpMM:InstanceID'
  | OriginalDocumentID = 645AA7AC084369EBCFB438EB793F7F16
  | - Tag 'x:xmpmeta/rdf:RDF/rdf:Description/xmpMM:OriginalDocumentID'
  | AlreadyApplied = True
  | - Tag 'x:xmpmeta/rdf:RDF/rdf:Description/crs:AlreadyApplied'
  | AutoLateralCA = 0
  | - Tag 'x:xmpmeta/rdf:RDF/rdf:Description/crs:AutoLateralCA'
  | AutoWhiteVersion = 134348800
  | - Tag 'x:xmpmeta/rdf:RDF/rdf:Description/crs:AutoWhiteVersion'
  | Blacks2012 = 0
  | - Tag 'x:xmpmeta/rdf:RDF/rdf:Description/crs:Blacks2012'
  | BlueHue = 0
  | - Tag 'x:xmpmeta/rdf:RDF/rdf:Description/crs:BlueHue'
  | BlueSaturation = 0
  | - Tag 'x:xmpmeta/rdf:RDF/rdf:Description/crs:BlueSaturation'
  | CameraProfile = Adobe Standard
  | - Tag 'x:xmpmeta/rdf:RDF/rdf:Description/crs:CameraProfile'
  | CameraProfileDigest = 6B3E0C3051986B79DFB60C923C3DC656
  | - Tag 'x:xmpmeta/rdf:RDF/rdf:Description/crs:CameraProfileDigest'
  | Clarity2012 = 0
  | - Tag 'x:xmpmeta/rdf:RDF/rdf:Description/crs:Clarity2012'
  | ColorNoiseReduction = 25
  | - Tag 'x:xmpmeta/rdf:RDF/rdf:Description/crs:ColorNoiseReduction'
  | ColorNoiseReductionDetail = 50
  | - Tag 'x:xmpmeta/rdf:RDF/rdf:Description/crs:ColorNoiseReductionDetail'
  | ColorNoiseReductionSmoothness = 50
  | - Tag 'x:xmpmeta/rdf:RDF/rdf:Description/crs:ColorNoiseReductionSmoothness'
  | Contrast2012 = 0
  | - Tag 'x:xmpmeta/rdf:RDF/rdf:Description/crs:Contrast2012'
  | ConvertToGrayscale = False
  | - Tag 'x:xmpmeta/rdf:RDF/rdf:Description/crs:ConvertToGrayscale'
  | DefringeGreenAmount = 0
  | - Tag 'x:xmpmeta/rdf:RDF/rdf:Description/crs:DefringeGreenAmount'
  | DefringeGreenHueHi = 60
  | - Tag 'x:xmpmeta/rdf:RDF/rdf:Description/crs:DefringeGreenHueHi'
  | DefringeGreenHueLo = 40
  | - Tag 'x:xmpmeta/rdf:RDF/rdf:Description/crs:DefringeGreenHueLo'
  | DefringePurpleAmount = 0
  | - Tag 'x:xmpmeta/rdf:RDF/rdf:Description/crs:DefringePurpleAmount'
  | DefringePurpleHueHi = 70
  | - Tag 'x:xmpmeta/rdf:RDF/rdf:Description/crs:DefringePurpleHueHi'
  | DefringePurpleHueLo = 30
  | - Tag 'x:xmpmeta/rdf:RDF/rdf:Description/crs:DefringePurpleHueLo'
  | Exposure2012 = 0.00
  | - Tag 'x:xmpmeta/rdf:RDF/rdf:Description/crs:Exposure2012'
  | GrainAmount = 0
  | - Tag 'x:xmpmeta/rdf:RDF/rdf:Description/crs:GrainAmount'
  | GreenHue = 0
  | - Tag 'x:xmpmeta/rdf:RDF/rdf:Description/crs:GreenHue'
  | GreenSaturation = 0
  | - Tag 'x:xmpmeta/rdf:RDF/rdf:Description/crs:GreenSaturation'
  | HasCrop = False
  | - Tag 'x:xmpmeta/rdf:RDF/rdf:Description/crs:HasCrop'
  | HasSettings = True
  | - Tag 'x:xmpmeta/rdf:RDF/rdf:Description/crs:HasSettings'
  | Highlights2012 = 0
  | - Tag 'x:xmpmeta/rdf:RDF/rdf:Description/crs:Highlights2012'
  | HueAdjustmentAqua = 0
  | - Tag 'x:xmpmeta/rdf:RDF/rdf:Description/crs:HueAdjustmentAqua'
  | HueAdjustmentBlue = 0
  | - Tag 'x:xmpmeta/rdf:RDF/rdf:Description/crs:HueAdjustmentBlue'
  | HueAdjustmentGreen = 0
  | - Tag 'x:xmpmeta/rdf:RDF/rdf:Description/crs:HueAdjustmentGreen'
  | HueAdjustmentMagenta = 0
  | - Tag 'x:xmpmeta/rdf:RDF/rdf:Description/crs:HueAdjustmentMagenta'
  | HueAdjustmentOrange = 0
  | - Tag 'x:xmpmeta/rdf:RDF/rdf:Description/crs:HueAdjustmentOrange'
  | HueAdjustmentPurple = 0
  | - Tag 'x:xmpmeta/rdf:RDF/rdf:Description/crs:HueAdjustmentPurple'
  | HueAdjustmentRed = 0
  | - Tag 'x:xmpmeta/rdf:RDF/rdf:Description/crs:HueAdjustmentRed'
  | HueAdjustmentYellow = 0
  | - Tag 'x:xmpmeta/rdf:RDF/rdf:Description/crs:HueAdjustmentYellow'
  | LensManualDistortionAmount = 0
  | - Tag 'x:xmpmeta/rdf:RDF/rdf:Description/crs:LensManualDistortionAmount'
  | LensProfileEnable = 0
  | - Tag 'x:xmpmeta/rdf:RDF/rdf:Description/crs:LensProfileEnable'
  | LensProfileSetup = LensDefaults
  | - Tag 'x:xmpmeta/rdf:RDF/rdf:Description/crs:LensProfileSetup'
  | LuminanceAdjustmentAqua = 0
  | - Tag 'x:xmpmeta/rdf:RDF/rdf:Description/crs:LuminanceAdjustmentAqua'
  | LuminanceAdjustmentBlue = 0
  | - Tag 'x:xmpmeta/rdf:RDF/rdf:Description/crs:LuminanceAdjustmentBlue'
  | LuminanceAdjustmentGreen = 0
  | - Tag 'x:xmpmeta/rdf:RDF/rdf:Description/crs:LuminanceAdjustmentGreen'
  | LuminanceAdjustmentMagenta = 0
  | - Tag 'x:xmpmeta/rdf:RDF/rdf:Description/crs:LuminanceAdjustmentMagenta'
  | LuminanceAdjustmentOrange = 0
  | - Tag 'x:xmpmeta/rdf:RDF/rdf:Description/crs:LuminanceAdjustmentOrange'
  | LuminanceAdjustmentPurple = 0
  | - Tag 'x:xmpmeta/rdf:RDF/rdf:Description/crs:LuminanceAdjustmentPurple'
  | LuminanceAdjustmentRed = 0
  | - Tag 'x:xmpmeta/rdf:RDF/rdf:Description/crs:LuminanceAdjustmentRed'
  | LuminanceAdjustmentYellow = 0
  | - Tag 'x:xmpmeta/rdf:RDF/rdf:Description/crs:LuminanceAdjustmentYellow'
  | LuminanceSmoothing = 0
  | - Tag 'x:xmpmeta/rdf:RDF/rdf:Description/crs:LuminanceSmoothing'
  | ParametricDarks = 0
  | - Tag 'x:xmpmeta/rdf:RDF/rdf:Description/crs:ParametricDarks'
  | ParametricHighlightSplit = 75
  | - Tag 'x:xmpmeta/rdf:RDF/rdf:Description/crs:ParametricHighlightSplit'
  | ParametricHighlights = 0
  | - Tag 'x:xmpmeta/rdf:RDF/rdf:Description/crs:ParametricHighlights'
  | ParametricLights = 0
  | - Tag 'x:xmpmeta/rdf:RDF/rdf:Description/crs:ParametricLights'
  | ParametricMidtoneSplit = 50
  | - Tag 'x:xmpmeta/rdf:RDF/rdf:Description/crs:ParametricMidtoneSplit'
  | ParametricShadowSplit = 25
  | - Tag 'x:xmpmeta/rdf:RDF/rdf:Description/crs:ParametricShadowSplit'
  | ParametricShadows = 0
  | - Tag 'x:xmpmeta/rdf:RDF/rdf:Description/crs:ParametricShadows'
  | PerspectiveAspect = 0
  | - Tag 'x:xmpmeta/rdf:RDF/rdf:Description/crs:PerspectiveAspect'
  | PerspectiveHorizontal = 0
  | - Tag 'x:xmpmeta/rdf:RDF/rdf:Description/crs:PerspectiveHorizontal'
  | PerspectiveRotate = 0.0
  | - Tag 'x:xmpmeta/rdf:RDF/rdf:Description/crs:PerspectiveRotate'
  | PerspectiveScale = 100
  | - Tag 'x:xmpmeta/rdf:RDF/rdf:Description/crs:PerspectiveScale'
  | PerspectiveUpright = 0
  | - Tag 'x:xmpmeta/rdf:RDF/rdf:Description/crs:PerspectiveUpright'
  | PerspectiveVertical = 0
  | - Tag 'x:xmpmeta/rdf:RDF/rdf:Description/crs:PerspectiveVertical'
  | PostCropVignetteAmount = 0
  | - Tag 'x:xmpmeta/rdf:RDF/rdf:Description/crs:PostCropVignetteAmount'
  | ProcessVersion = 6.7
  | - Tag 'x:xmpmeta/rdf:RDF/rdf:Description/crs:ProcessVersion'
  | RawFileName = IMG_4649.CR2
  | - Tag 'x:xmpmeta/rdf:RDF/rdf:Description/crs:RawFileName'
  | RedHue = 0
  | - Tag 'x:xmpmeta/rdf:RDF/rdf:Description/crs:RedHue'
  | RedSaturation = 0
  | - Tag 'x:xmpmeta/rdf:RDF/rdf:Description/crs:RedSaturation'
  | Saturation = 0
  | - Tag 'x:xmpmeta/rdf:RDF/rdf:Description/crs:Saturation'
  | SaturationAdjustmentAqua = 0
  | - Tag 'x:xmpmeta/rdf:RDF/rdf:Description/crs:SaturationAdjustmentAqua'
  | SaturationAdjustmentBlue = 0
  | - Tag 'x:xmpmeta/rdf:RDF/rdf:Description/crs:SaturationAdjustmentBlue'
  | SaturationAdjustmentGreen = 0
  | - Tag 'x:xmpmeta/rdf:RDF/rdf:Description/crs:SaturationAdjustmentGreen'
  | SaturationAdjustmentMagenta = 0
  | - Tag 'x:xmpmeta/rdf:RDF/rdf:Description/crs:SaturationAdjustmentMagenta'
  | SaturationAdjustmentOrange = 0
  | - Tag 'x:xmpmeta/rdf:RDF/rdf:Description/crs:SaturationAdjustmentOrange'
  | SaturationAdjustmentPurple = 0
  | - Tag 'x:xmpmeta/rdf:RDF/rdf:Description/crs:SaturationAdjustmentPurple'
  | SaturationAdjustmentRed = 0
  | - Tag 'x:xmpmeta/rdf:RDF/rdf:Description/crs:SaturationAdjustmentRed'
  | SaturationAdjustmentYellow = 0
  | - Tag 'x:xmpmeta/rdf:RDF/rdf:Description/crs:SaturationAdjustmentYellow'
  | ShadowTint = 0
  | - Tag 'x:xmpmeta/rdf:RDF/rdf:Description/crs:ShadowTint'
  | Shadows2012 = 0
  | - Tag 'x:xmpmeta/rdf:RDF/rdf:Description/crs:Shadows2012'
  | SharpenDetail = 25
  | - Tag 'x:xmpmeta/rdf:RDF/rdf:Description/crs:SharpenDetail'
  | SharpenEdgeMasking = 0
  | - Tag 'x:xmpmeta/rdf:RDF/rdf:Description/crs:SharpenEdgeMasking'
  | SharpenRadius = +1.0
  | - Tag 'x:xmpmeta/rdf:RDF/rdf:Description/crs:SharpenRadius'
  | Sharpness = 25
  | - Tag 'x:xmpmeta/rdf:RDF/rdf:Description/crs:Sharpness'
  | SplitToningBalance = 0
  | - Tag 'x:xmpmeta/rdf:RDF/rdf:Description/crs:SplitToningBalance'
  | SplitToningHighlightHue = 0
  | - Tag 'x:xmpmeta/rdf:RDF/rdf:Description/crs:SplitToningHighlightHue'
  | SplitToningHighlightSaturation = 0
  | - Tag 'x:xmpmeta/rdf:RDF/rdf:Description/crs:SplitToningHighlightSaturation'
  | SplitToningShadowHue = 0
  | - Tag 'x:xmpmeta/rdf:RDF/rdf:Description/crs:SplitToningShadowHue'
  | SplitToningShadowSaturation = 0
  | - Tag 'x:xmpmeta/rdf:RDF/rdf:Description/crs:SplitToningShadowSaturation'
  | ColorTemperature = 4850
  | - Tag 'x:xmpmeta/rdf:RDF/rdf:Description/crs:Temperature'
  | Tint = +13
  | - Tag 'x:xmpmeta/rdf:RDF/rdf:Description/crs:Tint'
  | ToneCurveName2012 = Linear
  | - Tag 'x:xmpmeta/rdf:RDF/rdf:Description/crs:ToneCurveName2012'
  | ToneCurvePV2012 = 0, 0
  | - Tag 'x:xmpmeta/rdf:RDF/rdf:Description/crs:ToneCurvePV2012/rdf:Seq/rdf:li 10'
  | ToneCurvePV2012 = 255, 255
  | - Tag 'x:xmpmeta/rdf:RDF/rdf:Description/crs:ToneCurvePV2012/rdf:Seq/rdf:li 11'
  | ToneCurvePV2012Blue = 0, 0
  | - Tag 'x:xmpmeta/rdf:RDF/rdf:Description/crs:ToneCurvePV2012Blue/rdf:Seq/rdf:li 10'
  | ToneCurvePV2012Blue = 255, 255
  | - Tag 'x:xmpmeta/rdf:RDF/rdf:Description/crs:ToneCurvePV2012Blue/rdf:Seq/rdf:li 11'
  | ToneCurvePV2012Green = 0, 0
  | - Tag 'x:xmpmeta/rdf:RDF/rdf:Description/crs:ToneCurvePV2012Green/rdf:Seq/rdf:li 10'
  | ToneCurvePV2012Green = 255, 255
  | - Tag 'x:xmpmeta/rdf:RDF/rdf:Description/crs:ToneCurvePV2012Green/rdf:Seq/rdf:li 11'
  | ToneCurvePV2012Red = 0, 0
  | - Tag 'x:xmpmeta/rdf:RDF/rdf:Description/crs:ToneCurvePV2012Red/rdf:Seq/rdf:li 10'
  | ToneCurvePV2012Red = 255, 255
  | - Tag 'x:xmpmeta/rdf:RDF/rdf:Description/crs:ToneCurvePV2012Red/rdf:Seq/rdf:li 11'
  | UprightCenterMode = 0
  | - Tag 'x:xmpmeta/rdf:RDF/rdf:Description/crs:UprightCenterMode'
  | UprightCenterNormX = 0.5
  | - Tag 'x:xmpmeta/rdf:RDF/rdf:Description/crs:UprightCenterNormX'
  | UprightCenterNormY = 0.5
  | - Tag 'x:xmpmeta/rdf:RDF/rdf:Description/crs:UprightCenterNormY'
  | UprightFocalLength35mm = 35
  | - Tag 'x:xmpmeta/rdf:RDF/rdf:Description/crs:UprightFocalLength35mm'
  | UprightFocalMode = 0
  | - Tag 'x:xmpmeta/rdf:RDF/rdf:Description/crs:UprightFocalMode'
  | UprightPreview = False
  | - Tag 'x:xmpmeta/rdf:RDF/rdf:Description/crs:UprightPreview'
  | UprightTransformCount = 0
  | - Tag 'x:xmpmeta/rdf:RDF/rdf:Description/crs:UprightTransformCount'
  | UprightVersion = 134217728
  | - Tag 'x:xmpmeta/rdf:RDF/rdf:Description/crs:UprightVersion'
  | Version = 8.2
  | - Tag 'x:xmpmeta/rdf:RDF/rdf:Description/crs:Version'
  | Vibrance = 0
  | - Tag 'x:xmpmeta/rdf:RDF/rdf:Description/crs:Vibrance'
  | VignetteAmount = 0
  | - Tag 'x:xmpmeta/rdf:RDF/rdf:Description/crs:VignetteAmount'
  | WhiteBalance = As Shot
  | - Tag 'x:xmpmeta/rdf:RDF/rdf:Description/crs:WhiteBalance'
  | Whites2012 = 0
  | - Tag 'x:xmpmeta/rdf:RDF/rdf:Description/crs:Whites2012'
JPEG APP2 (574 bytes):
      9699: 49 43 43 5f 50 52 4f 46 49 4c 45 00 01 01 00 00 [ICC_PROFILE.....]
      96a9: 02 30 41 44 42 45 02 10 00 00 6d 6e 74 72 52 47 [.0ADBE....mntrRG]
      96b9: 42 20 58 59 5a 20 07 cf 00 06 00 03 00 00 00 00 [B XYZ ..........]
      96c9: 00 00 61 63 73 70 41 50 50 4c 00 00 00 00 6e 6f [..acspAPPL....no]
      96d9: 6e 65 00 00 00 00 00 00 00 00 00 00 00 00 00 00 [ne..............]
      96e9: 00 00 00 00 f6 d6 00 01 00 00 00 00 d3 2d 41 44 [.............-AD]
      96f9: 42 45 00 00 00 00 00 00 00 00 00 00 00 00 00 00 [BE..............]
      [snip 462 bytes]
ICC_Profile chunk 1 of 1
  + [ICC_Profile directory with 10 entries, 560 bytes]
  | ProfileHeader (SubDirectory) -->
  | + [BinaryData directory, 128 bytes, Big-endian]
  | | ProfileCMMType = ADBE
  | | - Tag 0x0004 (4 bytes, string[4]):
  | |     0004: 41 44 42 45                                     [ADBE]
  | | ProfileVersion = 528
  | | - Tag 0x0008 (2 bytes, int16s[1]):
  | |     0008: 02 10                                           [..]
  | | ProfileClass = mntr
  | | - Tag 0x000c (4 bytes, string[4]):
  | |     000c: 6d 6e 74 72                                     [mntr]
  | | ColorSpaceData = RGB 
  | | - Tag 0x0010 (4 bytes, string[4]):
  | |     0010: 52 47 42 20                                     [RGB ]
  | | ProfileConnectionSpace = XYZ 
  | | - Tag 0x0014 (4 bytes, string[4]):
  | |     0014: 58 59 5a 20                                     [XYZ ]
  | | ProfileDateTime = 1999 6 3 0 0 0
  | | - Tag 0x0018 (12 bytes, int16u[6]):
  | |     0018: 07 cf 00 06 00 03 00 00 00 00 00 00             [............]
  | | ProfileFileSignature = acsp
  | | - Tag 0x0024 (4 bytes, string[4]):
  | |     0024: 61 63 73 70                                     [acsp]
  | | PrimaryPlatform = APPL
  | | - Tag 0x0028 (4 bytes, string[4]):
  | |     0028: 41 50 50 4c                                     [APPL]
  | | CMMFlags = 0
  | | - Tag 0x002c (4 bytes, int32u[1]):
  | |     002c: 00 00 00 00                                     [....]
  | | DeviceManufacturer = none
  | | - Tag 0x0030 (4 bytes, string[4]):
  | |     0030: 6e 6f 6e 65                                     [none]
  | | DeviceModel = 
  | | - Tag 0x0034 (4 bytes, string[4]):
  | |     0034: 00 00 00 00                                     [....]
  | | DeviceAttributes = 0 0
  | | - Tag 0x0038 (8 bytes, int32u[2]):
  | |     0038: 00 00 00 00 00 00 00 00                         [........]
  | | RenderingIntent = 0
  | | - Tag 0x0040 (4 bytes, int32u[1]):
  | |     0040: 00 00 00 00                                     [....]
  | | ConnectionSpaceIlluminant = 0.9642 1 0.82491
  | | - Tag 0x0044 (12 bytes, fixed32s[3]):
  | |     0044: 00 00 f6 d6 00 01 00 00 00 00 d3 2d             [...........-]
  | | ProfileCreator = ADBE
  | | - Tag 0x0050 (4 bytes, string[4]):
  | |     0050: 41 44 42 45                                     [ADBE]
  | | ProfileID = 0 0 0 0 0 0 0 0 0 0 0 0 0 0 0 0
  | | - Tag 0x0054 (16 bytes, int8u[16]):
  | |     0054: 00 00 00 00 00 00 00 00 00 00 00 00 00 00 00 00 [................]
  | 0)  ProfileCopyright = Copyright 1999 Adobe Systems Incorporated
  |     - Tag 'cprt' (50 bytes, type 'text'):
  |         00fc: 74 65 78 74 00 00 00 00 43 6f 70 79 72 69 67 68 [text....Copyrigh]
  |         010c: 74 20 31 39 39 39 20 41 64 6f 62 65 20 53 79 73 [t 1999 Adobe Sys]
  |         011c: 74 65 6d 73 20 49 6e 63 6f 72 70 6f 72 61 74 65 [tems Incorporate]
  |         012c: 64 00                                           [d.]
  | 1)  ProfileDescription = Adobe RGB (1998)
  |     - Tag 'desc' (107 bytes, type 'desc'):
  |         0130: 64 65 73 63 00 00 00 00 00 00 00 11 41 64 6f 62 [desc........Adob]
  |         0140: 65 20 52 47 42 20 28 31 39 39 38 29 00 00 00 00 [e RGB (1998)....]
  |         0150: 00 00 00 00 00 00 00 00 00 00 00 00 00 00 00 00 [................]
  |         0160: 00 00 00 00 00 00 00 00 00 00 00 00 00 00 00 00 [................]
  |         0170: 00 00 00 00 00 00 00 00 00 00 00 00 00 00 00 00 [................]
  |         0180: 00 00 00 00 00 00 00 00 00 00 00 00 00 00 00 00 [................]
  |         0190: 00 00 00 00 00 00 00 00 00 00 00                [...........]
  | 2)  MediaWhitePoint = 0.95045 1 1.08905
  |     - Tag 'wtpt' (20 bytes, type 'XYZ '):
  |         019c: 58 59 5a 20 00 00 00 00 00 00 f3 51 00 01 00 00 [XYZ .......Q....]
  |         01ac: 00 01 16 cc                                     [....]
  | 3)  MediaBlackPoint = 0 0 0
  |     - Tag 'bkpt' (20 bytes, type 'XYZ '):
  |         01b0: 58 59 5a 20 00 00 00 00 00 00 00 00 00 00 00 00 [XYZ ............]
  |         01c0: 00 00 00 00                                     [....]
  | 4)  RedTRC = curv..3
  |     - Tag 'rTRC' (14 bytes, type 'curv'):
  |         01c4: 63 75 72 76 00 00 00 00 00 00 00 01 02 33       [curv.........3]
  | 5)  GreenTRC = curv..3
  |     - Tag 'gTRC' (14 bytes, type 'curv'):
  |         01d4: 63 75 72 76 00 00 00 00 00 00 00 01 02 33       [curv.........3]
  | 6)  BlueTRC = curv..3
  |     - Tag 'bTRC' (14 bytes, type 'curv'):
  |         01e4: 63 75 72 76 00 00 00 00 00 00 00 01 02 33       [curv.........3]
  | 7)  RedMatrixColumn = 0.60974 0.31111 0.01947
  |     - Tag 'rXYZ' (20 bytes, type 'XYZ '):
  |         01f4: 58 59 5a 20 00 00 00 00 00 00 9c 18 00 00 4f a5 [XYZ ..........O.]
  |         0204: 00 00 04 fc                                     [....]
  | 8)  GreenMatrixColumn = 0.20528 0.62567 0.06087
  |     - Tag 'gXYZ' (20 bytes, type 'XYZ '):
  |         0208: 58 59 5a 20 00 00 00 00 00 00 34 8d 00 00 a0 2c [XYZ ......4....,]
  |         0218: 00 00 0f 95                                     [....]
  | 9)  BlueMatrixColumn = 0.14919 0.06322 0.74457
  |     - Tag 'bXYZ' (20 bytes, type 'XYZ '):
  |         021c: 58 59 5a 20 00 00 00 00 00 00 26 31 00 00 10 2f [XYZ ......&1.../]
  |         022c: 00 00 be 9c                                     [....]
JPEG APP14 (31 bytes):
      98db: 41 64 6f 62 65 00 64 40 00 00 00 01 03 00 10 03 [Adobe.d@........]
      98eb: 02 03 06 00 00 00 00 00 00 00 00 00 00 00 00    [...............]
  + [BinaryData directory, 26 bytes, Big-endian]
  | DCTEncodeVersion = 100
  | - Tag 0x0000 (2 bytes, int16u[1]):
  |     98e0: 00 64                                           [.d]
  | APP14Flags0 = 16384
  | - Tag 0x0001 (2 bytes, int16u[1]):
  |     98e2: 40 00                                           [@.]
  | APP14Flags1 = 0
  | - Tag 0x0002 (2 bytes, int16u[1]):
  |     98e4: 00 00                                           [..]
  | ColorTransform = 1
  | - Tag 0x0003 (1 bytes, int8u[1]):
  |     98e6: 01                                              [.]
JPEG DQT (65 bytes):
      98fe: 00 01 01 01 01 01 01 01 01 01 01 03 03 01 03 03 [................]
      990e: 05 03 03 03 03 03 06 04 05 04 05 07 06 08 07 07 [................]
      991e: 06 07 07 08 09 0b 0a 08 09 0b 09 07 07 0a 0d 0a [................]
      992e: 0b 0c 0d 0d 0d 0d 09 0a 0e 0f 0e 0d 0f 0c 0d 0d [................]
      993e: 0d                                              [.]
JPEG DQT (65 bytes):
      9943: 01 03 03 03 03 03 03 06 03 03 06 0d 09 07 09 0d [................]
      9953: 0d 0d 0d 0d 0d 0d 0d 0d 0d 0d 0d 0d 0d 0d 0d 0d [................]
      9963: 0d 0d 0d 0d 0d 0d 0d 0d 0d 0d 0d 0d 0d 0d 0d 0d [................]
      9973: 0d 0d 0d 0d 0d 0d 0d 0d 0d 0d 0d 0d 0d 0d 0d 0d [................]
      9983: 0d                                              [.]
JPEG SOF2 (15 bytes):
      9988: 08 06 2c 09 43 03 01 11 00 02 11 01 03 11 01    [..,.C..........]
  ImageWidth = 2371
  ImageHeight = 1580
  EncodingProcess = 2
  BitsPerSample = 8
  ColorComponents = 3
  YCbCrSubSampling = 1 1
JPEG DHT (28 bytes):
      999b: 00 00 01 04 03 01 01 01 00 00 00 00 00 00 00 00 [................]
      99ab: 00 06 03 04 05 07 01 02 08 00 09 0a             [............]
JPEG DHT (25 bytes):
      99bb: 01 00 03 01 01 01 01 01 00 00 00 00 00 00 00 00 [................]
      99cb: 00 00 01 02 03 04 05 06 07                      [.........]
JPEG SOS
JPEG DHT (57 bytes):
     24e3f: 10 00 02 02 02 02 02 02 02 01 03 03 02 06 01 01 [................]
     24e4f: 09 02 03 01 04 00 05 11 12 06 13 14 21 07 22 15 [............!.".]
     24e5f: 10 23 31 16 24 32 20 41 08 30 33 40 42 50 25 60 [.#1.$2 A.03@BP%`]
     24e6f: 17 34 43 70 18 26 27 35 36                      [.4Cp.&'56]
JPEG SOS
JPEG DHT (45 bytes):
     4d3bc: 11 00 02 02 01 04 02 02 01 04 02 03 00 03 01 01 [................]
     4d3cc: 00 00 01 02 11 10 12 20 21 31 03 30 40 41 13 22 [....... !1.0@A."]
     4d3dc: 32 50 51 04 61 60 70 71 14 42 80 23 52          [2PQ.a`pq.B.#R]
JPEG SOS
JPEG DHT (49 bytes):
     54338: 11 00 02 02 01 04 01 04 01 03 03 04 03 01 00 03 [................]
     54348: 00 00 01 02 11 10 03 12 20 21 31 04 13 30 41 22 [........ !1..0A"]
     54358: 32 40 51 05 50 61 14 23 42 71 33 70 80 60 06 34 [2@Q.Pa.#Bq3p.`.4]
     54368: 81                                              [.]
JPEG SOS
JPEG DHT (83 bytes):
     5f229: 10 00 01 03 02 04 04 03 05 06 04 04 04 03 05 01 [................]
     5f239: 11 01 00 02 11 03 21 04 12 22 31 13 41 51 61 05 [......!.."1.AQa.]
     5f249: 32 71 14 23 42 81 91 06 10 33 52 a1 b1 24 62 c1 [2q.#B....3R..$b.]
     5f259: d1 15 43 e1 f0 20 34 72 f1 53 82 92 07 25 30 40 [..C.. 4r.S...%0@]
     5f269: 50 63 16 60 a2 b2 35 44 70 73 c2 d2 26 54 80 e2 [Pc.`..5Dps..&T..]
     5f279: 45 64 93                                        [Ed.]
JPEG SOS
JPEG DHT (38 bytes):
     9a8e7: 10 00 02 02 02 02 02 01 04 03 01 01 01 00 00 00 [................]
     9a8f7: 00 01 11 00 21 31 41 51 61 71 81 91 a1 b1 c1 f0 [....!1AQaq......]
     9a907: 10 d1 e1 f1 20 30                               [.... 0]
JPEG SOS
JPEG SOS
JPEG DHT (38 bytes):
     e45ac: 11 01 01 01 01 00 03 01 01 01 01 00 02 03 00 02 [................]
     e45bc: 03 01 00 11 21 10 31 41 51 61 20 71 30 40 50 81 [....!.1AQa q0@P.]
     e45cc: 91 60 a1 b1 f0 c1                               [.`....]
JPEG SOS
JPEG DHT (41 bytes):
     f4bc2: 11 01 01 01 01 00 03 01 01 01 01 00 02 01 04 01 [................]
     f4bd2: 05 01 00 11 21 10 31 41 51 61 20 71 30 40 81 50 [....!.1AQa q0@.P]
     f4be2: 91 a1 b1 f0 c1 d1 e1 60 f1                      [.......`.]
JPEG SOS
JPEG DHT (40 bytes):
    105e1a: 10 00 01 03 03 03 04 03 01 01 01 01 01 01 00 00 [................]
    105e2a: 00 01 00 11 21 31 41 51 61 71 81 91 a1 b1 f0 c1 [....!1AQaq......]
    105e3a: d1 e1 10 f1 20 30 40 50                         [.... 0@P]
JPEG SOS
JPEG EOI
