  ExifToolVersion = 13.59
  FileName = media_28.jpg
  Directory = C:/Users/micro/IdeaProjects/kim/src/commonTest/resources/de/stefan_oltmann/kim/testdata/full
  FileSize = 289789
  FileModifyDate = 1776264339.09655
  FileAccessDate = 1786601298.05588
  FileCreateDate = 1776264339.09555
  FilePermissions = 33206
  FileType = JPEG
  FileTypeExtension = JPG
  MIMEType = image/jpeg
JPEG APP1 (22204 bytes):
      0006: 45 78 69 66 00 00 49 49 2a 00 08 00 00 00 0d 00 [Exif..II*.......]
      0016: 0e 01 02 00 20 00 00 00 aa 00 00 00 0f 01 02 00 [.... ...........]
      0026: 06 00 00 00 ca 00 00 00 10 01 02 00 0d 00 00 00 [................]
      0036: d0 00 00 00 12 01 03 00 01 00 00 00 01 00 00 00 [................]
      0046: 1a 01 05 00 01 00 00 00 de 00 00 00 1b 01 05 00 [................]
      0056: 01 00 00 00 e6 00 00 00 28 01 03 00 01 00 00 00 [........(.......]
      0066: 02 00 00 00 32 01 02 00 14 00 00 00 ee 00 00 00 [....2...........]
      [snip 22092 bytes]
  ExifByteOrder = II
  + [IFD0 directory with 13 entries, Little-endian]
  | 0)  ImageDescription =                                
  |     - Tag 0x010e (32 bytes, string[32]):
  |         00b6: 20 20 20 20 20 20 20 20 20 20 20 20 20 20 20 20 [                ]
  |         00c6: 20 20 20 20 20 20 20 20 20 20 20 20 20 20 20 00 [               .]
  | 1)  Make = Canon
  |     - Tag 0x010f (6 bytes, string[6]):
  |         00d6: 43 61 6e 6f 6e 00                               [Canon.]
  | 2)  Model = Canon EOS M3
  |     - Tag 0x0110 (13 bytes, string[13]):
  |         00dc: 43 61 6e 6f 6e 20 45 4f 53 20 4d 33 00          [Canon EOS M3.]
  | 3)  Orientation = 1
  |     - Tag 0x0112 (2 bytes, int16u[1]):
  |         0042: 01 00                                           [..]
  | 4)  XResolution = 180 (180/1)
  |     - Tag 0x011a (8 bytes, rational64u[1]):
  |         00ea: b4 00 00 00 01 00 00 00                         [........]
  | 5)  YResolution = 180 (180/1)
  |     - Tag 0x011b (8 bytes, rational64u[1]):
  |         00f2: b4 00 00 00 01 00 00 00                         [........]
  | 6)  ResolutionUnit = 2
  |     - Tag 0x0128 (2 bytes, int16u[1]):
  |         0066: 02 00                                           [..]
  | 7)  ModifyDate = 2017:11:12 22:26:16
  |     - Tag 0x0132 (20 bytes, string[20]):
  |         00fa: 32 30 31 37 3a 31 31 3a 31 32 20 32 32 3a 32 36 [2017:11:12 22:26]
  |         010a: 3a 31 36 00                                     [:16.]
  | 8)  Artist = 
  |     - Tag 0x013b (1 bytes, string[1]):
  |         007e: 00                                              [.]
  | 9)  YCbCrPositioning = 2
  |     - Tag 0x0213 (2 bytes, int16u[1]):
  |         008a: 02 00                                           [..]
  | 10) Copyright = 
  |     - Tag 0x8298 (1 bytes, string[1] read as undef[1]):
  |         0096: 00                                              [.]
  | 11) ExifOffset (SubDirectory) -->
  |     - Tag 0x8769 (4 bytes, int32u[1]):
  |         00a2: 02 01 00 00                                     [....]
  | + [ExifIFD directory with 42 entries, Little-endian]
  | | 0)  ExposureTime = 0.00025 (1/4000)
  | |     - Tag 0x829a (8 bytes, rational64u[1]):
  | |         030c: 01 00 00 00 a0 0f 00 00                         [........]
  | | 1)  FNumber = 5.6 (56/10)
  | |     - Tag 0x829d (8 bytes, rational64u[1]):
  | |         0314: 38 00 00 00 0a 00 00 00                         [8.......]
  | | 2)  ExposureProgram = 4
  | |     - Tag 0x8822 (2 bytes, int16u[1]):
  | |         0130: 04 00                                           [..]
  | | 3)  ISO = 3200
  | |     - Tag 0x8827 (2 bytes, int16u[1]):
  | |         013c: 80 0c                                           [..]
  | | 4)  SensitivityType = 2
  | |     - Tag 0x8830 (2 bytes, int16u[1]):
  | |         0148: 02 00                                           [..]
  | | 5)  RecommendedExposureIndex = 3200
  | |     - Tag 0x8832 (4 bytes, int32u[1]):
  | |         0154: 80 0c 00 00                                     [....]
  | | 6)  ExifVersion = 0230
  | |     - Tag 0x9000 (4 bytes, undef[4]):
  | |         0160: 30 32 33 30                                     [0230]
  | | 7)  DateTimeOriginal = 2017:11:12 21:41:48
  | |     - Tag 0x9003 (20 bytes, string[20]):
  | |         031c: 32 30 31 37 3a 31 31 3a 31 32 20 32 31 3a 34 31 [2017:11:12 21:41]
  | |         032c: 3a 34 38 00                                     [:48.]
  | | 8)  CreateDate = 2017:11:12 21:41:48
  | |     - Tag 0x9004 (20 bytes, string[20]):
  | |         0330: 32 30 31 37 3a 31 31 3a 31 32 20 32 31 3a 34 31 [2017:11:12 21:41]
  | |         0340: 3a 34 38 00                                     [:48.]
  | | 9)  ComponentsConfiguration = 1 2 3 0
  | |     - Tag 0x9101 (4 bytes, undef[4] read as int8u[4]):
  | |         0184: 01 02 03 00                                     [....]
  | | 10) CompressedBitsPerPixel = 3 (3/1)
  | |     - Tag 0x9102 (8 bytes, rational64u[1]):
  | |         0344: 03 00 00 00 01 00 00 00                         [........]
  | | 11) ShutterSpeedValue = 11.96875 (383/32)
  | |     - Tag 0x9201 (8 bytes, rational64s[1]):
  | |         034c: 7f 01 00 00 20 00 00 00                         [.... ...]
  | | 12) ApertureValue = 4.96875 (159/32)
  | |     - Tag 0x9202 (8 bytes, rational64u[1]):
  | |         0354: 9f 00 00 00 20 00 00 00                         [.... ...]
  | | 13) ExposureCompensation = 0 (0/3)
  | |     - Tag 0x9204 (8 bytes, rational64s[1]):
  | |         035c: 00 00 00 00 03 00 00 00                         [........]
  | | 14) MeteringMode = 5
  | |     - Tag 0x9207 (2 bytes, int16u[1]):
  | |         01c0: 05 00                                           [..]
  | | 15) Flash = 16
  | |     - Tag 0x9209 (2 bytes, int16u[1]):
  | |         01cc: 10 00                                           [..]
  | | 16) FocalLength = 55 (55/1)
  | |     - Tag 0x920a (8 bytes, rational64u[1]):
  | |         0364: 37 00 00 00 01 00 00 00                         [7.......]
  | | 17) MakerNoteCanon (SubDirectory) -->
  | |     - Tag 0x927c (17582 bytes, undef[17582]):
  | |         036c: 2e 00 01 00 03 00 32 00 00 00 8e 05 00 00 03 00 [......2.........]
  | |         037c: 03 00 04 00 00 00 f2 05 00 00 04 00 03 00 22 00 [..............".]
  | |         038c: 00 00 fa 05 00 00 06 00 02 00 10 00 00 00 3e 06 [..............>.]
  | |         039c: 00 00 07 00 02 00 16 00 00 00 4e 06 00 00 08 00 [..........N.....]
  | |         03ac: 04 00 01 00 00 00 78 e1 12 00 0d 00 04 00 64 0e [......x.......d.]
  | |         03bc: 00 00 64 06 00 00 10 00 04 00 01 00 00 00 00 00 [..d.............]
  | |         03cc: 74 03 13 00 03 00 04 00 00 00 f4 3f 00 00 18 00 [t..........?....]
  | |         03dc: 01 00 00 01 00 00 fc 3f 00 00 19 00 03 00 01 00 [.......?........]
  | |         03ec: 00 00 01 00 00 00 1c 00 03 00 01 00 00 00 00 00 [................]
  | |         03fc: 00 00 1e 00 04 00 01 00 00 00 00 01 01 01 22 00 [..............".]
  | |         040c: 03 00 d0 00 00 00 fc 40 00 00 23 00 04 00 02 00 [.......@..#.....]
  | |         041c: 00 00 9c 42 00 00 27 00 03 00 15 00 00 00 a4 42 [...B..'........B]
  | |         042c: 00 00 28 00 01 00 10 00 00 00 ce 42 00 00 2d 00 [..(........B..-.]
  | |         043c: 04 00 01 00 00 00 00 00 00 00 2e 00 03 00 1b 00 [................]
  | |         044c: 00 00 de 42 00 00 2f 00 03 00 11 00 00 00 14 43 [...B../........C]
  | |         045c: 00 00 31 00 03 00 06 00 00 00 36 43 00 00 33 00 [..1.......6C..3.]
  | |         046c: 04 00 04 00 00 00 42 43 00 00 35 00 04 00 04 00 [......BC..5.....]
  | |         047c: 00 00 52 43 00 00 37 00 04 00 02 00 00 00 62 43 [..RC..7.......bC]
  | |         048c: 00 00 38 00 07 00 08 00 00 00 6a 43 00 00 3c 00 [..8.......jC..<.]
  | |         049c: 03 00 da 00 00 00 72 43 00 00 3d 00 04 00 08 00 [......rC..=.....]
  | |         04ac: 00 00 26 45 00 00 3f 00 04 00 01 00 00 00 01 00 [..&E..?.........]
  | |         04bc: 00 00 93 00 03 00 21 00 00 00 46 45 00 00 96 00 [......!...FE....]
  | |         04cc: 02 00 0a 00 00 00 88 45 00 00 99 00 04 00 22 00 [.......E......".]
  | |         04dc: 00 00 92 45 00 00 9a 00 04 00 05 00 00 00 1a 46 [...E...........F]
  | |         04ec: 00 00 a0 00 03 00 0e 00 00 00 2e 46 00 00 aa 00 [...........F....]
  | |         04fc: 03 00 06 00 00 00 4a 46 00 00 d0 00 04 00 01 00 [......JF........]
  | |         050c: 00 00 00 00 00 00 08 40 03 00 03 00 00 00 56 46 [.......@......VF]
  | |         051c: 00 00 09 40 03 00 03 00 00 00 5c 46 00 00 10 40 [...@......\F...@]
  | |         052c: 02 00 20 00 00 00 62 46 00 00 12 40 02 00 20 00 [.. ...bF...@.. .]
  | |         053c: 00 00 82 46 00 00 16 40 04 00 08 00 00 00 a2 46 [...F...@.......F]
  | |         054c: 00 00 18 40 04 00 09 00 00 00 c2 46 00 00 20 40 [...@.......F.. @]
  | |         055c: 04 00 07 00 00 00 e6 46 00 00 23 40 04 00 04 00 [.......F..#@....]
  | |         056c: 00 00 02 47 00 00 24 40 04 00 35 00 00 00 12 47 [...G..$@..5....G]
  | |         057c: 00 00 2b 40 04 00 06 00 00 00 e6 47 00 00 2c 40 [..+@.......G..,@]
  | |         058c: 04 00 02 00 00 00 fe 47 00 00 00 00 00 00 64 00 [.......G......d.]
  | |         059c: 02 00 00 00 03 00 00 00 00 00 00 00 00 01 ff ff [................]
  | |         05ac: 01 00 0f 00 01 00 00 00 00 00 00 00 ff 7f 0f 00 [................]
  | |         05bc: 03 00 01 00 05 20 02 00 ff 7f 2f 10 37 00 12 00 [..... ..../.7...]
  | |         05cc: 01 00 9f 00 4b 01 00 00 00 00 00 00 00 00 01 00 [....K...........]
  | |         05dc: ff ff 01 01 9f 00 70 17 70 17 00 00 00 00 ff ff [......p.p.......]
  | |         05ec: 00 00 00 00 ff 7f 01 00 00 00 ff ff 28 00 ff ff [............(...]
  | |         05fc: ff ff 00 00 00 00 00 00 00 00 44 00 81 00 c0 00 [..........D.....]
  | |         060c: c8 00 9f 00 7f 01 00 00 06 00 00 00 00 00 00 00 [................]
  | |         061c: 00 00 00 00 00 00 00 00 00 00 00 00 00 00 01 00 [................]
  | |         062c: 00 00 00 00 9f 00 80 01 00 00 00 00 ff ff fa 00 [................]
  | |         063c: 00 00 ff ff 00 00 00 00 00 00 00 00 00 00 49 4d [..............IM]
  | |         064c: 47 3a 45 4f 53 20 4d 33 20 4a 50 45 47 00 46 69 [G:EOS M3 JPEG.Fi]
  | |         065c: 72 6d 77 61 72 65 20 56 65 72 73 69 6f 6e 20 31 [rmware Version 1]
  | |         066c: 2e 30 31 00 90 39 00 00 14 00 00 00 0f 00 00 00 [.01..9..........]
  | |         067c: 02 00 00 00 04 00 00 00 38 01 00 00 a4 00 00 00 [........8.......]
  | |         068c: 01 00 00 00 03 00 00 00 04 00 00 00 dc 01 00 00 [................]
  | |         069c: 24 00 00 00 01 00 00 00 04 00 00 00 04 00 00 00 [$...............]
  | |         06ac: 00 02 00 00 ec 00 00 00 01 00 00 00 05 00 00 00 [................]
  | |         06bc: 04 00 00 00 ec 02 00 00 c8 04 00 00 02 00 00 00 [................]
  | |         06cc: 06 00 00 00 04 00 00 00 b4 07 00 00 54 05 00 00 [............T...]
  | |         06dc: 01 00 00 00 07 00 00 00 04 00 00 00 08 0d 00 00 [................]
  | |         06ec: 20 00 00 00 01 00 00 00 08 00 00 00 04 00 00 00 [ ...............]
  | |         06fc: 28 0d 00 00 3c 00 00 00 01 00 00 00 09 00 00 00 [(...<...........]
  | |         070c: 04 00 00 00 64 0d 00 00 14 01 00 00 01 00 00 00 [....d...........]
  | |         071c: 0c 00 00 00 03 00 00 00 78 0e 00 00 2c 05 00 00 [........x...,...]
  | |         072c: 01 00 00 00 0d 00 00 00 03 00 00 00 a4 13 00 00 [................]
  | |         073c: 5a 00 00 00 02 00 00 00 0e 00 00 00 04 00 00 00 [Z...............]
  | |         074c: 00 14 00 00 28 00 00 00 01 00 00 00 0f 00 00 00 [....(...........]
  | |         075c: 07 00 00 00 28 14 00 00 08 24 00 00 01 00 00 00 [....(....$......]
  | |         076c: 0a 00 00 00 04 00 00 00 30 38 00 00 94 00 00 00 [........08......]
  | |         077c: 01 00 00 00 0b 00 00 00 04 00 00 00 c4 38 00 00 [.............8..]
  | |         078c: a0 00 00 00 01 00 00 00 01 00 00 00 04 00 00 00 [................]
  | |         079c: 64 39 00 00 2c 00 00 00 01 00 00 00 c5 03 00 00 [d9..,...........]
  | |         07ac: 40 02 00 00 00 00 00 00 00 00 00 00 00 00 00 00 [@...............]
  | |         07bc: e0 01 00 00 80 04 00 00 85 01 00 00 00 00 00 00 [................]
  | |         07cc: 00 00 00 00 00 00 00 00 00 00 00 00 e0 01 00 00 [................]
  | |         07dc: 6e 02 00 00 a0 ff ff ff 00 00 00 00 00 00 00 00 [n...............]
  | |         07ec: 2d 00 00 00 bf ff ff ff 00 00 00 00 f6 ff ff ff [-...............]
  | |         07fc: fd ff ff ff 00 00 00 00 00 00 00 00 03 00 00 00 [................]
  | |         080c: 0a 00 00 00 5a 02 00 00 9b 02 00 00 5a 02 00 00 [....Z.......Z...]
  | |         081c: 00 f4 ff ff 00 f4 ff ff 00 f4 ff ff 00 f4 ff ff [................]
  | |         082c: 00 f4 ff ff 9b 02 00 00 5a 02 00 00 00 00 00 00 [........Z.......]
  | |         083c: 00 00 00 00 01 00 00 00 02 00 00 00 0a 00 00 00 [................]
  | |         084c: 00 00 00 00 00 00 00 00 00 00 00 00 00 00 00 00 [................]
  | |         085c: 00 00 00 00 00 00 00 00 00 00 00 00 00 00 00 00 [................]
  | |         086c: 00 00 00 00 39 00 00 00 00 00 00 00 00 00 00 00 [....9...........]
  | |         087c: 00 00 00 00 00 00 00 00 00 00 00 00 00 00 00 00 [................]
  | |         088c: 00 00 00 00 00 00 00 00 00 00 00 00 01 f0 ff ff [................]
  | |         089c: 01 f0 ff ff 58 ff ff ff a6 00 00 00 58 ff ff ff [....X.......X...]
  | |         08ac: 01 f0 ff ff 00 00 00 00 00 00 00 00 5a ff ff ff [............Z...]
  | |         08bc: a6 00 00 00 00 00 00 00 00 00 00 00 00 00 00 00 [................]
  | |         08cc: 00 00 00 00 00 00 00 00 00 00 00 00 00 04 00 00 [................]
  | |         08dc: fc 03 00 00 04 04 00 00 05 05 00 00 08 00 00 00 [................]
  | |         08ec: 13 fe ff ff 71 00 00 00 5d 00 00 00 4f 03 00 00 [....q...]...O...]
  | |         08fc: 50 08 00 00 25 05 00 00 4f 03 00 00 00 00 00 00 [P...%...O.......]
  | |         090c: 00 00 00 00 00 00 00 00 00 00 00 00 00 00 00 00 [................]
  | |         091c: 00 00 00 00 00 00 00 00 00 00 00 00 00 00 00 00 [................]
  | |         092c: 00 00 00 00 00 00 00 00 00 00 00 00 00 00 00 00 [................]
  | |         093c: 00 00 00 00 00 00 00 00 00 00 00 00 00 00 00 00 [................]
  | |         094c: 00 00 00 00 00 00 00 00 00 00 00 00 00 00 00 00 [................]
  | |         095c: 00 00 00 00 e0 01 00 00 e5 02 00 00 e5 02 00 00 [................]
  | |         096c: 00 00 00 00 a0 ff ff ff 00 00 00 00 00 00 00 00 [................]
  | |         097c: 00 00 00 00 00 00 00 00 00 00 00 00 00 00 00 00 [................]
  | |         098c: 00 00 00 00 00 00 00 00 00 00 00 00 00 00 00 00 [................]
  | |         099c: 00 00 00 00 00 00 00 00 00 00 00 00 00 00 00 00 [................]
  | |         09ac: 00 00 00 00 00 00 00 00 00 00 00 00 00 00 00 00 [................]
  | |         09bc: 00 00 00 00 00 00 00 00 00 00 00 00 00 00 00 00 [................]
  | |         09cc: 00 00 00 00 00 00 00 00 00 00 00 00 00 00 00 00 [................]
  | |         09dc: 00 00 00 00 00 00 00 00 00 00 00 00 00 00 00 00 [................]
  | |         09ec: 00 00 00 00 00 00 00 00 00 00 00 00 00 00 00 00 [................]
  | |         09fc: 00 00 00 00 00 00 00 00 00 00 00 00 00 00 00 00 [................]
  | |         0a0c: 00 00 00 00 00 00 00 00 00 00 00 00 00 00 00 00 [................]
  | |         0a1c: 00 00 00 00 00 00 00 00 00 00 00 00 00 00 00 00 [................]
  | |         0a2c: 00 00 00 00 00 00 00 00 00 00 00 00 00 00 00 00 [................]
  | |         0a3c: 00 00 00 00 00 00 00 00 00 00 00 00 00 00 00 00 [................]
  | |         0a4c: 00 00 00 00 00 00 00 00 00 00 00 00 00 00 00 00 [................]
  | |         0a5c: 00 00 00 00 00 00 00 00 00 00 00 00 00 00 00 00 [................]
  | |         0a6c: 00 00 00 00 00 00 00 00 00 00 00 00 00 00 00 00 [................]
  | |         0a7c: 00 00 00 00 00 00 00 00 00 00 00 00 00 00 00 00 [................]
  | |         0a8c: 00 00 00 00 00 00 00 00 00 00 00 00 00 00 00 00 [................]
  | |         0a9c: 00 00 00 00 00 00 00 00 00 00 00 00 00 00 00 00 [................]
  | |         0aac: 00 00 00 00 00 00 00 00 00 00 00 00 00 00 00 00 [................]
  | |         0abc: 00 00 00 00 00 00 00 00 00 00 00 00 00 00 00 00 [................]
  | |         0acc: 00 00 00 00 00 00 00 00 00 00 00 00 00 00 00 00 [................]
  | |         0adc: 00 00 00 00 00 00 00 00 00 00 00 00 00 00 00 00 [................]
  | |         0aec: 00 00 00 00 00 00 00 00 00 00 00 00 00 00 00 00 [................]
  | |         0afc: 00 00 00 00 00 00 00 00 00 00 00 00 00 00 00 00 [................]
  | |         0b0c: 00 00 00 00 00 00 00 00 00 00 00 00 00 00 00 00 [................]
  | |         0b1c: 00 00 00 00 00 00 00 00 00 00 00 00 00 00 00 00 [................]
  | |         0b2c: 00 00 00 00 00 00 00 00 00 00 00 00 00 00 00 00 [................]
  | |         0b3c: 00 00 00 00 00 00 00 00 00 00 00 00 00 00 00 00 [................]
  | |         0b4c: 00 00 00 00 00 00 00 00 00 00 00 00 00 00 00 00 [................]
  | |         [snip 15550 bytes]
  | | + [MakerNotes directory with 46 entries, Little-endian]
  | | | 0)  CanonCameraSettings (SubDirectory) -->
  | | |     - Tag 0x0001 (100 bytes, int16u[50] read as undef[100]):
  | | |         059a: 64 00 02 00 00 00 03 00 00 00 00 00 00 00 00 01 [d...............]
  | | |         05aa: ff ff 01 00 0f 00 01 00 00 00 00 00 00 00 ff 7f [................]
  | | |         05ba: 0f 00 03 00 01 00 05 20 02 00 ff 7f 2f 10 37 00 [....... ..../.7.]
  | | |         05ca: 12 00 01 00 9f 00 4b 01 00 00 00 00 00 00 00 00 [......K.........]
  | | |         05da: 01 00 ff ff 01 01 9f 00 70 17 70 17 00 00 00 00 [........p.p.....]
  | | |         05ea: ff ff 00 00 00 00 ff 7f 01 00 00 00 ff ff 28 00 [..............(.]
  | | |         05fa: ff ff ff ff                                     [....]
  | | | + [BinaryData directory, 100 bytes, Little-endian]
  | | | | MacroMode = 2
  | | | | - Tag 0x0001 (2 bytes, int16s[1]):
  | | | |     059c: 02 00                                           [..]
  | | | | SelfTimer = 0
  | | | | - Tag 0x0002 (2 bytes, int16s[1]):
  | | | |     059e: 00 00                                           [..]
  | | | | Quality = 3
  | | | | - Tag 0x0003 (2 bytes, int16s[1]):
  | | | |     05a0: 03 00                                           [..]
  | | | | CanonFlashMode = 0
  | | | | - Tag 0x0004 (2 bytes, int16s[1]):
  | | | |     05a2: 00 00                                           [..]
  | | | | ContinuousDrive = 0
  | | | | - Tag 0x0005 (2 bytes, int16s[1]):
  | | | |     05a4: 00 00                                           [..]
  | | | | FocusMode = 256
  | | | | - Tag 0x0007 (2 bytes, int16s[1]):
  | | | |     05a8: 00 01                                           [..]
  | | | | RecordMode = 1
  | | | | - Tag 0x0009 (2 bytes, int16s[1]):
  | | | |     05ac: 01 00                                           [..]
  | | | | CanonImageSize = 15
  | | | | - Tag 0x000a (2 bytes, int16s[1]):
  | | | |     05ae: 0f 00                                           [..]
  | | | | EasyMode = 1
  | | | | - Tag 0x000b (2 bytes, int16s[1]):
  | | | |     05b0: 01 00                                           [..]
  | | | | DigitalZoom = 0
  | | | | - Tag 0x000c (2 bytes, int16s[1]):
  | | | |     05b2: 00 00                                           [..]
  | | | | Contrast = 0
  | | | | - Tag 0x000d (2 bytes, int16s[1]):
  | | | |     05b4: 00 00                                           [..]
  | | | | Saturation = 0
  | | | | - Tag 0x000e (2 bytes, int16s[1]):
  | | | |     05b6: 00 00                                           [..]
  | | | | Sharpness = 32767
  | | | | - Tag 0x000f (2 bytes, int16s[1]):
  | | | |     05b8: ff 7f                                           [..]
  | | | | CameraISO = 15
  | | | | - Tag 0x0010 (2 bytes, int16s[1]):
  | | | |     05ba: 0f 00                                           [..]
  | | | | MeteringMode = 3
  | | | | - Tag 0x0011 (2 bytes, int16s[1]):
  | | | |     05bc: 03 00                                           [..]
  | | | | FocusRange = 1
  | | | | - Tag 0x0012 (2 bytes, int16s[1]):
  | | | |     05be: 01 00                                           [..]
  | | | | AFPoint = 8197
  | | | | - Tag 0x0013 (2 bytes, int16s[1]):
  | | | |     05c0: 05 20                                           [. ]
  | | | | CanonExposureMode = 2
  | | | | - Tag 0x0014 (2 bytes, int16s[1]):
  | | | |     05c2: 02 00                                           [..]
  | | | | LensType = 4143
  | | | | - Tag 0x0016 (2 bytes, int16u[1]):
  | | | |     05c6: 2f 10                                           [/.]
  | | | | MaxFocalLength = 55
  | | | | - Tag 0x0017 (2 bytes, int16u[1]):
  | | | |     05c8: 37 00                                           [7.]
  | | | | MinFocalLength = 18
  | | | | - Tag 0x0018 (2 bytes, int16u[1]):
  | | | |     05ca: 12 00                                           [..]
  | | | | FocalUnits = 1
  | | | | - Tag 0x0019 (2 bytes, int16s[1]):
  | | | |     05cc: 01 00                                           [..]
  | | | | MaxAperture = 159
  | | | | - Tag 0x001a (2 bytes, int16s[1]):
  | | | |     05ce: 9f 00                                           [..]
  | | | | MinAperture = 331
  | | | | - Tag 0x001b (2 bytes, int16s[1]):
  | | | |     05d0: 4b 01                                           [K.]
  | | | | FlashModel = 0
  | | | | - Tag 0x001c, mask 0x7f (2 bytes, int16s[1]):
  | | | |     05d2: 00 00                                           [..]
  | | | | FlashBits = 0
  | | | | - Tag 0x001d (2 bytes, int16s[1]):
  | | | |     05d4: 00 00                                           [..]
  | | | | FocusContinuous = 1
  | | | | - Tag 0x0020 (2 bytes, int16s[1]):
  | | | |     05da: 01 00                                           [..]
  | | | | AESetting = -1
  | | | | - Tag 0x0021 (2 bytes, int16s[1]):
  | | | |     05dc: ff ff                                           [..]
  | | | | ImageStabilization = 257
  | | | | - Tag 0x0022 (2 bytes, int16s[1]):
  | | | |     05de: 01 01                                           [..]
  | | | | DisplayAperture = 159
  | | | | - Tag 0x0023 (2 bytes, int16s[1]):
  | | | |     05e0: 9f 00                                           [..]
  | | | | ZoomSourceWidth = 6000
  | | | | - Tag 0x0024 (2 bytes, int16s[1]):
  | | | |     05e2: 70 17                                           [p.]
  | | | | ZoomTargetWidth = 6000
  | | | | - Tag 0x0025 (2 bytes, int16s[1]):
  | | | |     05e4: 70 17                                           [p.]
  | | | | SpotMeteringMode = 0
  | | | | - Tag 0x0027 (2 bytes, int16s[1]):
  | | | |     05e8: 00 00                                           [..]
  | | | | PhotoEffect = -1
  | | | | - Tag 0x0028 (2 bytes, int16s[1]):
  | | | |     05ea: ff ff                                           [..]
  | | | | ManualFlashOutput = 0
  | | | | - Tag 0x0029 (2 bytes, int16s[1]):
  | | | |     05ec: 00 00                                           [..]
  | | | | ColorTone = 0
  | | | | - Tag 0x002a (2 bytes, int16s[1]):
  | | | |     05ee: 00 00                                           [..]
  | | | | SRAWQuality = -1
  | | | | - Tag 0x002e (2 bytes, int16s[1]):
  | | | |     05f6: ff ff                                           [..]
  | | | 1)  CanonFlashInfo = 0 0 0 0
  | | |     - Tag 0x0003 (8 bytes, int16u[4]):
  | | |         05fe: 00 00 00 00 00 00 00 00                         [........]
  | | | 2)  CanonShotInfo (SubDirectory) -->
  | | |     - Tag 0x0004 (68 bytes, int16u[34] read as undef[68]):
  | | |         0606: 44 00 81 00 c0 00 c8 00 9f 00 7f 01 00 00 06 00 [D...............]
  | | |         0616: 00 00 00 00 00 00 00 00 00 00 00 00 00 00 00 00 [................]
  | | |         0626: 00 00 00 00 01 00 00 00 00 00 9f 00 80 01 00 00 [................]
  | | |         0636: 00 00 ff ff fa 00 00 00 ff ff 00 00 00 00 00 00 [................]
  | | |         0646: 00 00 00 00                                     [....]
  | | | + [BinaryData directory, 68 bytes, Little-endian]
  | | | | AutoISO = 129
  | | | | - Tag 0x0001 (2 bytes, int16s[1]):
  | | | |     0608: 81 00                                           [..]
  | | | | BaseISO = 192
  | | | | - Tag 0x0002 (2 bytes, int16s[1]):
  | | | |     060a: c0 00                                           [..]
  | | | | MeasuredEV = 200
  | | | | - Tag 0x0003 (2 bytes, int16s[1]):
  | | | |     060c: c8 00                                           [..]
  | | | | TargetAperture = 159
  | | | | - Tag 0x0004 (2 bytes, int16s[1]):
  | | | |     060e: 9f 00                                           [..]
  | | | | TargetExposureTime = 383
  | | | | - Tag 0x0005 (2 bytes, int16s[1]):
  | | | |     0610: 7f 01                                           [..]
  | | | | ExposureCompensation = 0
  | | | | - Tag 0x0006 (2 bytes, int16s[1]):
  | | | |     0612: 00 00                                           [..]
  | | | | WhiteBalance = 6
  | | | | - Tag 0x0007 (2 bytes, int16s[1]):
  | | | |     0614: 06 00                                           [..]
  | | | | SlowShutter = 0
  | | | | - Tag 0x0008 (2 bytes, int16s[1]):
  | | | |     0616: 00 00                                           [..]
  | | | | SequenceNumber = 0
  | | | | - Tag 0x0009 (2 bytes, int16s[1]):
  | | | |     0618: 00 00                                           [..]
  | | | | OpticalZoomCode = 0
  | | | | - Tag 0x000a (2 bytes, int16s[1]):
  | | | |     061a: 00 00                                           [..]
  | | | | CameraTemperature = 0
  | | | | - Tag 0x000c (2 bytes, int16s[1]):
  | | | |     061e: 00 00                                           [..]
  | | | | FlashGuideNumber = 0
  | | | | - Tag 0x000d (2 bytes, int16s[1]):
  | | | |     0620: 00 00                                           [..]
  | | | | AFPointsInFocus = 0
  | | | | - Tag 0x000e (2 bytes, int16s[1]):
  | | | |     0622: 00 00                                           [..]
  | | | | FlashExposureComp = 0
  | | | | - Tag 0x000f (2 bytes, int16s[1]):
  | | | |     0624: 00 00                                           [..]
  | | | | AutoExposureBracketing = 0
  | | | | - Tag 0x0010 (2 bytes, int16s[1]):
  | | | |     0626: 00 00                                           [..]
  | | | | AEBBracketValue = 0
  | | | | - Tag 0x0011 (2 bytes, int16s[1]):
  | | | |     0628: 00 00                                           [..]
  | | | | ControlMode = 1
  | | | | - Tag 0x0012 (2 bytes, int16s[1]):
  | | | |     062a: 01 00                                           [..]
  | | | | FocusDistanceUpper = 0
  | | | | - Tag 0x0013 (2 bytes, int16u[1]):
  | | | |     062c: 00 00                                           [..]
  | | | | FNumber = 159
  | | | | - Tag 0x0015 (2 bytes, int16s[1]):
  | | | |     0630: 9f 00                                           [..]
  | | | | ExposureTime = 384
  | | | | - Tag 0x0016 (2 bytes, int16s[1]):
  | | | |     0632: 80 01                                           [..]
  | | | | MeasuredEV2 = 0
  | | | | - Tag 0x0017 (2 bytes, int16s[1]):
  | | | |     0634: 00 00                                           [..]
  | | | | BulbDuration = 0
  | | | | - Tag 0x0018 (2 bytes, int16s[1]):
  | | | |     0636: 00 00                                           [..]
  | | | | CameraType = 250
  | | | | - Tag 0x001a (2 bytes, int16s[1]):
  | | | |     063a: fa 00                                           [..]
  | | | | AutoRotate = 0
  | | | | - Tag 0x001b (2 bytes, int16s[1]):
  | | | |     063c: 00 00                                           [..]
  | | | | NDFilter = -1
  | | | | - Tag 0x001c (2 bytes, int16s[1]):
  | | | |     063e: ff ff                                           [..]
  | | | | SelfTimer2 = 0
  | | | | - Tag 0x001d (2 bytes, int16s[1]):
  | | | |     0640: 00 00                                           [..]
  | | | | FlashOutput = 0
  | | | | - Tag 0x0021 (2 bytes, int16s[1]):
  | | | |     0648: 00 00                                           [..]
  | | | 3)  CanonImageType = IMG:EOS M3 JPEG
  | | |     - Tag 0x0006 (16 bytes, string[16]):
  | | |         064a: 49 4d 47 3a 45 4f 53 20 4d 33 20 4a 50 45 47 00 [IMG:EOS M3 JPEG.]
  | | | 4)  CanonFirmwareVersion = Firmware Version 1.01
  | | |     - Tag 0x0007 (22 bytes, string[22]):
  | | |         065a: 46 69 72 6d 77 61 72 65 20 56 65 72 73 69 6f 6e [Firmware Version]
  | | |         066a: 20 31 2e 30 31 00                               [ 1.01.]
  | | | 5)  FileNumber = 1237368
  | | |     - Tag 0x0008 (4 bytes, int32u[1]):
  | | |         03b2: 78 e1 12 00                                     [x...]
  | | | 6)  CanonCameraInfoUnknown32 (SubDirectory) -->
  | | |     - Tag 0x000d (14736 bytes, int32u[3684] read as undef[14736]):
  | | |         0670: 90 39 00 00 14 00 00 00 0f 00 00 00 02 00 00 00 [.9..............]
  | | |         0680: 04 00 00 00 38 01 00 00 a4 00 00 00 01 00 00 00 [....8...........]
  | | |         0690: 03 00 00 00 04 00 00 00 dc 01 00 00 24 00 00 00 [............$...]
  | | |         06a0: 01 00 00 00 04 00 00 00 04 00 00 00 00 02 00 00 [................]
  | | |         06b0: ec 00 00 00 01 00 00 00 05 00 00 00 04 00 00 00 [................]
  | | |         06c0: ec 02 00 00 c8 04 00 00 02 00 00 00 06 00 00 00 [................]
  | | |         06d0: 04 00 00 00 b4 07 00 00 54 05 00 00 01 00 00 00 [........T.......]
  | | |         06e0: 07 00 00 00 04 00 00 00 08 0d 00 00 20 00 00 00 [............ ...]
  | | |         06f0: 01 00 00 00 08 00 00 00 04 00 00 00 28 0d 00 00 [............(...]
  | | |         0700: 3c 00 00 00 01 00 00 00 09 00 00 00 04 00 00 00 [<...............]
  | | |         0710: 64 0d 00 00 14 01 00 00 01 00 00 00 0c 00 00 00 [d...............]
  | | |         0720: 03 00 00 00 78 0e 00 00 2c 05 00 00 01 00 00 00 [....x...,.......]
  | | |         0730: 0d 00 00 00 03 00 00 00 a4 13 00 00 5a 00 00 00 [............Z...]
  | | |         0740: 02 00 00 00 0e 00 00 00 04 00 00 00 00 14 00 00 [................]
  | | |         0750: 28 00 00 00 01 00 00 00 0f 00 00 00 07 00 00 00 [(...............]
  | | |         0760: 28 14 00 00 08 24 00 00 01 00 00 00 0a 00 00 00 [(....$..........]
  | | |         0770: 04 00 00 00 30 38 00 00 94 00 00 00 01 00 00 00 [....08..........]
  | | |         0780: 0b 00 00 00 04 00 00 00 c4 38 00 00 a0 00 00 00 [.........8......]
  | | |         0790: 01 00 00 00 01 00 00 00 04 00 00 00 64 39 00 00 [............d9..]
  | | |         07a0: 2c 00 00 00 01 00 00 00 c5 03 00 00 40 02 00 00 [,...........@...]
  | | |         07b0: 00 00 00 00 00 00 00 00 00 00 00 00 e0 01 00 00 [................]
  | | |         07c0: 80 04 00 00 85 01 00 00 00 00 00 00 00 00 00 00 [................]
  | | |         07d0: 00 00 00 00 00 00 00 00 e0 01 00 00 6e 02 00 00 [............n...]
  | | |         07e0: a0 ff ff ff 00 00 00 00 00 00 00 00 2d 00 00 00 [............-...]
  | | |         07f0: bf ff ff ff 00 00 00 00 f6 ff ff ff fd ff ff ff [................]
  | | |         0800: 00 00 00 00 00 00 00 00 03 00 00 00 0a 00 00 00 [................]
  | | |         0810: 5a 02 00 00 9b 02 00 00 5a 02 00 00 00 f4 ff ff [Z.......Z.......]
  | | |         0820: 00 f4 ff ff 00 f4 ff ff 00 f4 ff ff 00 f4 ff ff [................]
  | | |         0830: 9b 02 00 00 5a 02 00 00 00 00 00 00 00 00 00 00 [....Z...........]
  | | |         0840: 01 00 00 00 02 00 00 00 0a 00 00 00 00 00 00 00 [................]
  | | |         0850: 00 00 00 00 00 00 00 00 00 00 00 00 00 00 00 00 [................]
  | | |         0860: 00 00 00 00 00 00 00 00 00 00 00 00 00 00 00 00 [................]
  | | |         0870: 39 00 00 00 00 00 00 00 00 00 00 00 00 00 00 00 [9...............]
  | | |         0880: 00 00 00 00 00 00 00 00 00 00 00 00 00 00 00 00 [................]
  | | |         0890: 00 00 00 00 00 00 00 00 01 f0 ff ff 01 f0 ff ff [................]
  | | |         08a0: 58 ff ff ff a6 00 00 00 58 ff ff ff 01 f0 ff ff [X.......X.......]
  | | |         08b0: 00 00 00 00 00 00 00 00 5a ff ff ff a6 00 00 00 [........Z.......]
  | | |         08c0: 00 00 00 00 00 00 00 00 00 00 00 00 00 00 00 00 [................]
  | | |         08d0: 00 00 00 00 00 00 00 00 00 04 00 00 fc 03 00 00 [................]
  | | |         08e0: 04 04 00 00 05 05 00 00 08 00 00 00 13 fe ff ff [................]
  | | |         08f0: 71 00 00 00 5d 00 00 00 4f 03 00 00 50 08 00 00 [q...]...O...P...]
  | | |         0900: 25 05 00 00 4f 03 00 00 00 00 00 00 00 00 00 00 [%...O...........]
  | | |         0910: 00 00 00 00 00 00 00 00 00 00 00 00 00 00 00 00 [................]
  | | |         0920: 00 00 00 00 00 00 00 00 00 00 00 00 00 00 00 00 [................]
  | | |         0930: 00 00 00 00 00 00 00 00 00 00 00 00 00 00 00 00 [................]
  | | |         0940: 00 00 00 00 00 00 00 00 00 00 00 00 00 00 00 00 [................]
  | | |         0950: 00 00 00 00 00 00 00 00 00 00 00 00 00 00 00 00 [................]
  | | |         0960: e0 01 00 00 e5 02 00 00 e5 02 00 00 00 00 00 00 [................]
  | | |         0970: a0 ff ff ff 00 00 00 00 00 00 00 00 00 00 00 00 [................]
  | | |         0980: 00 00 00 00 00 00 00 00 00 00 00 00 00 00 00 00 [................]
  | | |         0990: 00 00 00 00 00 00 00 00 00 00 00 00 00 00 00 00 [................]
  | | |         09a0: 00 00 00 00 00 00 00 00 00 00 00 00 00 00 00 00 [................]
  | | |         09b0: 00 00 00 00 00 00 00 00 00 00 00 00 00 00 00 00 [................]
  | | |         09c0: 00 00 00 00 00 00 00 00 00 00 00 00 00 00 00 00 [................]
  | | |         09d0: 00 00 00 00 00 00 00 00 00 00 00 00 00 00 00 00 [................]
  | | |         09e0: 00 00 00 00 00 00 00 00 00 00 00 00 00 00 00 00 [................]
  | | |         09f0: 00 00 00 00 00 00 00 00 00 00 00 00 00 00 00 00 [................]
  | | |         0a00: 00 00 00 00 00 00 00 00 00 00 00 00 00 00 00 00 [................]
  | | |         0a10: 00 00 00 00 00 00 00 00 00 00 00 00 00 00 00 00 [................]
  | | |         0a20: 00 00 00 00 00 00 00 00 00 00 00 00 00 00 00 00 [................]
  | | |         0a30: 00 00 00 00 00 00 00 00 00 00 00 00 00 00 00 00 [................]
  | | |         0a40: 00 00 00 00 00 00 00 00 00 00 00 00 00 00 00 00 [................]
  | | |         0a50: 00 00 00 00 00 00 00 00 00 00 00 00 00 00 00 00 [................]
  | | |         0a60: 00 00 00 00 00 00 00 00 00 00 00 00 00 00 00 00 [................]
  | | |         0a70: 00 00 00 00 00 00 00 00 00 00 00 00 00 00 00 00 [................]
  | | |         0a80: 00 00 00 00 00 00 00 00 00 00 00 00 00 00 00 00 [................]
  | | |         0a90: 00 00 00 00 00 00 00 00 00 00 00 00 00 00 00 00 [................]
  | | |         0aa0: 00 00 00 00 00 00 00 00 00 00 00 00 00 00 00 00 [................]
  | | |         0ab0: 00 00 00 00 00 00 00 00 00 00 00 00 00 00 00 00 [................]
  | | |         0ac0: 00 00 00 00 00 00 00 00 00 00 00 00 00 00 00 00 [................]
  | | |         0ad0: 00 00 00 00 00 00 00 00 00 00 00 00 00 00 00 00 [................]
  | | |         0ae0: 00 00 00 00 00 00 00 00 00 00 00 00 00 00 00 00 [................]
  | | |         0af0: 00 00 00 00 00 00 00 00 00 00 00 00 00 00 00 00 [................]
  | | |         0b00: 00 00 00 00 00 00 00 00 00 00 00 00 00 00 00 00 [................]
  | | |         0b10: 00 00 00 00 00 00 00 00 00 00 00 00 00 00 00 00 [................]
  | | |         0b20: 00 00 00 00 00 00 00 00 00 00 00 00 00 00 00 00 [................]
  | | |         0b30: 00 00 00 00 00 00 00 00 00 00 00 00 00 00 00 00 [................]
  | | |         0b40: 00 00 00 00 00 00 00 00 00 00 00 00 00 00 00 00 [................]
  | | |         0b50: 00 00 00 00 00 00 00 00 00 00 00 00 00 00 00 00 [................]
  | | |         0b60: 00 00 00 00 00 00 00 00 00 00 00 00 00 00 00 00 [................]
  | | |         0b70: 00 00 00 00 00 00 00 00 00 00 00 00 00 00 00 00 [................]
  | | |         0b80: 00 00 00 00 00 00 00 00 00 00 00 00 00 00 00 00 [................]
  | | |         0b90: 00 00 00 00 00 00 00 00 00 00 00 00 00 00 00 00 [................]
  | | |         0ba0: 00 00 00 00 00 00 00 00 00 00 00 00 00 00 00 00 [................]
  | | |         0bb0: 00 00 00 00 00 00 00 00 00 00 00 00 00 00 00 00 [................]
  | | |         0bc0: 00 00 00 00 00 00 00 00 00 00 00 00 00 00 00 00 [................]
  | | |         0bd0: 00 00 00 00 00 00 00 00 00 00 00 00 00 00 00 00 [................]
  | | |         0be0: 00 00 00 00 00 00 00 00 00 00 00 00 00 00 00 00 [................]
  | | |         0bf0: 00 00 00 00 00 00 00 00 00 00 00 00 00 00 00 00 [................]
  | | |         0c00: 00 00 00 00 00 00 00 00 00 00 00 00 00 00 00 00 [................]
  | | |         0c10: 00 00 00 00 00 00 00 00 00 00 00 00 00 00 00 00 [................]
  | | |         0c20: 00 00 00 00 00 00 00 00 00 00 00 00 00 00 00 00 [................]
  | | |         0c30: 00 00 00 00 00 00 00 00 00 00 00 00 00 00 00 00 [................]
  | | |         0c40: 00 00 00 00 00 00 00 00 00 00 00 00 00 00 00 00 [................]
  | | |         0c50: 00 00 00 00 00 00 00 00 00 00 00 00 00 00 00 00 [................]
  | | |         0c60: 00 00 00 00 00 00 00 00 00 00 00 00 00 00 00 00 [................]
  | | |         0c70: 00 00 00 00 00 00 00 00 00 00 00 00 00 00 00 00 [................]
  | | |         0c80: 00 00 00 00 00 00 00 00 00 00 00 00 00 00 00 00 [................]
  | | |         0c90: 00 00 00 00 00 00 00 00 00 00 00 00 00 00 00 00 [................]
  | | |         0ca0: 00 00 00 00 00 00 00 00 00 00 00 00 00 00 00 00 [................]
  | | |         0cb0: 00 00 00 00 00 00 00 00 00 00 00 00 00 00 00 00 [................]
  | | |         0cc0: 00 00 00 00 00 00 00 00 00 00 00 00 00 00 00 00 [................]
  | | |         0cd0: 00 00 00 00 00 00 00 00 00 00 00 00 00 00 00 00 [................]
  | | |         0ce0: 00 00 00 00 00 00 00 00 00 00 00 00 00 00 00 00 [................]
  | | |         0cf0: 00 00 00 00 00 00 00 00 00 00 00 00 00 00 00 00 [................]
  | | |         0d00: 00 00 00 00 00 00 00 00 00 00 00 00 00 00 00 00 [................]
  | | |         0d10: 00 00 00 00 00 00 00 00 00 00 00 00 00 00 00 00 [................]
  | | |         0d20: 00 00 00 00 00 00 00 00 00 00 00 00 00 00 00 00 [................]
  | | |         0d30: 00 00 00 00 00 00 00 00 00 00 00 00 00 00 00 00 [................]
  | | |         0d40: 00 00 00 00 00 00 00 00 00 00 00 00 00 00 00 00 [................]
  | | |         0d50: 00 00 00 00 00 00 00 00 00 00 00 00 00 00 00 00 [................]
  | | |         0d60: 00 00 00 00 00 00 00 00 00 00 00 00 00 00 00 00 [................]
  | | |         0d70: 00 00 00 00 00 00 00 00 00 00 00 00 00 00 00 00 [................]
  | | |         0d80: 00 00 00 00 00 00 00 00 00 00 00 00 00 00 00 00 [................]
  | | |         0d90: 00 00 00 00 00 00 00 00 00 00 00 00 00 00 00 00 [................]
  | | |         0da0: 00 00 00 00 00 00 00 00 00 00 00 00 00 00 00 00 [................]
  | | |         0db0: 00 00 00 00 3f 00 00 00 00 00 00 00 00 00 00 00 [....?...........]
  | | |         0dc0: e2 ff ff ff 00 00 00 00 00 00 00 00 04 00 00 00 [................]
  | | |         0dd0: 00 00 00 00 00 00 00 00 00 00 00 00 00 00 00 00 [................]
  | | |         0de0: 00 00 00 00 00 00 00 00 00 00 00 00 00 00 00 00 [................]
  | | |         0df0: 00 00 00 00 00 00 00 00 00 00 00 00 00 00 00 00 [................]
  | | |         0e00: 00 00 00 00 00 00 00 00 04 00 00 00 00 00 00 00 [................]
  | | |         0e10: 00 00 00 00 00 00 00 00 00 00 00 00 00 00 00 00 [................]
  | | |         0e20: 00 00 00 00 00 00 00 00 00 00 00 00 00 00 00 00 [................]
  | | |         0e30: 00 00 00 00 00 00 00 00 00 00 00 00 00 00 00 00 [................]
  | | |         0e40: 00 00 00 00 00 00 00 00 00 00 00 00 00 00 00 00 [................]
  | | |         0e50: 00 00 00 00 00 00 00 00 00 00 00 00 00 00 00 00 [................]
  | | |         [snip 12704 bytes]
  | | | + [BinaryData directory, 14736 bytes, Little-endian]
  | | | | CameraTemperature = 30
  | | | | - Tag 0x0e61 (4 bytes, int32s[1]):
  | | | |     3ff4: 1e 00 00 00                                     [....]
  | | | 7)  CanonModelID = 57933824
  | | |     - Tag 0x0010 (4 bytes, int32u[1]):
  | | |         03ca: 00 00 74 03                                     [..t.]
  | | | 8)  ThumbnailImageValidArea = 0 159 7 112
  | | |     - Tag 0x0013 (8 bytes, int16u[4]):
  | | |         4000: 00 00 9f 00 07 00 70 00                         [......p.]
  | | | 9)  Canon_0x0018 = 0 0 0 0 0 0 0 0 0 0 0 0 0 0 0 0 0 0 0 0 0 0 0 0 0 0 0 0 0 0 0 0 0 0 0 0 0 0 0 0 0 0 0 0 0 0 0 0 0 0 0 0 0 0 0 0 0 0 0 0 0 0 0 0 0 0 0 0 0 0 0 0 0 0 0 0 0 0 0 0 0 0 0 0 0 0 0 0 0 0 0 0 0 0 0 0 0 0 0 0 0 0 0 0 0 0 0 0 0 0 0 0 0 0 0 0 0 0 0 0 0 0 0 0 0 0 0 0 0 0 0 0 0 0 0 0 0 0 0 0 0 0 0 0 0 0 0 0 0 0 0 0 0 0 0 0 0 0 0 0 0 0 0 0 0 0 0 0 0 0 0 0 0 0 0 0 0 0 0 0 0 0 0 0 0 0 0 0 0 0 0 0 0 0 0 0 0 0 0 0 0 0 0 0 0 0 0 0 0 0 0 0 0 0 0 0 0 0 0 0 0 0 0 0 0 0 0 0 0 0 0 0 0 0 0 0 0 0 0 0 0 0 0 0 0 0 0 0 0 0 0 0 0 0 0 0
  | | |     - Tag 0x0018 (256 bytes, int8u[256]):
  | | |         4008: 00 00 00 00 00 00 00 00 00 00 00 00 00 00 00 00 [................]
  | | |         4018: 00 00 00 00 00 00 00 00 00 00 00 00 00 00 00 00 [................]
  | | |         4028: 00 00 00 00 00 00 00 00 00 00 00 00 00 00 00 00 [................]
  | | |         4038: 00 00 00 00 00 00 00 00 00 00 00 00 00 00 00 00 [................]
  | | |         4048: 00 00 00 00 00 00 00 00 00 00 00 00 00 00 00 00 [................]
  | | |         4058: 00 00 00 00 00 00 00 00 00 00 00 00 00 00 00 00 [................]
  | | |         4068: 00 00 00 00 00 00 00 00 00 00 00 00 00 00 00 00 [................]
  | | |         4078: 00 00 00 00 00 00 00 00 00 00 00 00 00 00 00 00 [................]
  | | |         4088: 00 00 00 00 00 00 00 00 00 00 00 00 00 00 00 00 [................]
  | | |         4098: 00 00 00 00 00 00 00 00 00 00 00 00 00 00 00 00 [................]
  | | |         40a8: 00 00 00 00 00 00 00 00 00 00 00 00 00 00 00 00 [................]
  | | |         40b8: 00 00 00 00 00 00 00 00 00 00 00 00 00 00 00 00 [................]
  | | |         40c8: 00 00 00 00 00 00 00 00 00 00 00 00 00 00 00 00 [................]
  | | |         40d8: 00 00 00 00 00 00 00 00 00 00 00 00 00 00 00 00 [................]
  | | |         40e8: 00 00 00 00 00 00 00 00 00 00 00 00 00 00 00 00 [................]
  | | |         40f8: 00 00 00 00 00 00 00 00 00 00 00 00 00 00 00 00 [................]
  | | | 10) Canon_0x0019 = 1
  | | |     - Tag 0x0019 (2 bytes, int16u[1]):
  | | |         03ee: 01 00                                           [..]
  | | | 11) DateStampMode = 0
  | | |     - Tag 0x001c (2 bytes, int16u[1]):
  | | |         03fa: 00 00                                           [..]
  | | | 12) FirmwareRevision = 16843008
  | | |     - Tag 0x001e (4 bytes, int32u[1]):
  | | |         0406: 00 01 01 01                                     [....]
  | | | 13) Canon_0x0022 = 416 0 0 16 8 1 1 640 480 0 0 0 0 0 8 384 0 0 0 0 0 0 0 0 0 0 0 0 0 0 0 0 0 0 0 0 0 0 0 0 0 0 0 0 0 0 0 0 0 0 0 0 0 0 0 0 0 0 0 0 0 0 0 0 0 0 0 0 0 0 0 0 0 0 0 0 0 0 0 0 0 0 0 0 0 0 0 0 0 0 0 0 0 0 0 0 0 0 0 0 0 0 0 0 0 0 0 0 0 0 0 0 0 0 0 0 0 0 0 0 0 0 0 0 0 0 0 0 0 0 0 0 0 0 0 0 0 0 0 0 0 0 0 0 0 0 0 0 0 0 0 0 0 0 0 0 0 0 0 0 0 0 0 0 0 0 0 0 0 0 0 0 0 0 0 0 0 0 0 0 0 0 0 0 0 0 0 0 0 0 0 0 0 0 0 0 0 0 0 0 0 0 0 0 0 0 0 0
  | | |     - Tag 0x0022 (416 bytes, int16u[208]):
  | | |         4108: a0 01 00 00 00 00 10 00 08 00 01 00 01 00 80 02 [................]
  | | |         4118: e0 01 00 00 00 00 00 00 00 00 00 00 08 00 80 01 [................]
  | | |         4128: 00 00 00 00 00 00 00 00 00 00 00 00 00 00 00 00 [................]
  | | |         4138: 00 00 00 00 00 00 00 00 00 00 00 00 00 00 00 00 [................]
  | | |         4148: 00 00 00 00 00 00 00 00 00 00 00 00 00 00 00 00 [................]
  | | |         4158: 00 00 00 00 00 00 00 00 00 00 00 00 00 00 00 00 [................]
  | | |         4168: 00 00 00 00 00 00 00 00 00 00 00 00 00 00 00 00 [................]
  | | |         4178: 00 00 00 00 00 00 00 00 00 00 00 00 00 00 00 00 [................]
  | | |         4188: 00 00 00 00 00 00 00 00 00 00 00 00 00 00 00 00 [................]
  | | |         4198: 00 00 00 00 00 00 00 00 00 00 00 00 00 00 00 00 [................]
  | | |         41a8: 00 00 00 00 00 00 00 00 00 00 00 00 00 00 00 00 [................]
  | | |         41b8: 00 00 00 00 00 00 00 00 00 00 00 00 00 00 00 00 [................]
  | | |         41c8: 00 00 00 00 00 00 00 00 00 00 00 00 00 00 00 00 [................]
  | | |         41d8: 00 00 00 00 00 00 00 00 00 00 00 00 00 00 00 00 [................]
  | | |         41e8: 00 00 00 00 00 00 00 00 00 00 00 00 00 00 00 00 [................]
  | | |         41f8: 00 00 00 00 00 00 00 00 00 00 00 00 00 00 00 00 [................]
  | | |         4208: 00 00 00 00 00 00 00 00 00 00 00 00 00 00 00 00 [................]
  | | |         4218: 00 00 00 00 00 00 00 00 00 00 00 00 00 00 00 00 [................]
  | | |         4228: 00 00 00 00 00 00 00 00 00 00 00 00 00 00 00 00 [................]
  | | |         4238: 00 00 00 00 00 00 00 00 00 00 00 00 00 00 00 00 [................]
  | | |         4248: 00 00 00 00 00 00 00 00 00 00 00 00 00 00 00 00 [................]
  | | |         4258: 00 00 00 00 00 00 00 00 00 00 00 00 00 00 00 00 [................]
  | | |         4268: 00 00 00 00 00 00 00 00 00 00 00 00 00 00 00 00 [................]
  | | |         4278: 00 00 00 00 00 00 00 00 00 00 00 00 00 00 00 00 [................]
  | | |         4288: 00 00 00 00 00 00 00 00 00 00 00 00 00 00 00 00 [................]
  | | |         4298: 00 00 00 00 00 00 00 00 00 00 00 00 00 00 00 00 [................]
  | | | 14) Categories = 8 0
  | | |     - Tag 0x0023 (8 bytes, int32u[2]):
  | | |         42a8: 08 00 00 00 00 00 00 00                         [........]
  | | | 15) ContrastInfo (SubDirectory) -->
  | | |     - Tag 0x0027 (42 bytes, int16u[21] read as undef[42]):
  | | |         42b0: 0a 00 00 00 ff ff 00 00 ff ff 2a 00 ff ff 00 00 [..........*.....]
  | | |         42c0: 00 00 ff ff ff ff ff ff ff ff ff ff ff ff ff ff [................]
  | | |         42d0: 00 00 ff ff ff ff ff ff ff ff                   [..........]
  | | | + [BinaryData directory, 42 bytes, Little-endian]
  | | | | IntelligentContrast = 65535
  | | | | - Tag 0x0004 (2 bytes, int16u[1]):
  | | | |     42b8: ff ff                                           [..]
  | | | 16) ImageUniqueID = m..3....Z.8.^../
  | | |     - Tag 0x0028 (16 bytes, int8u[16] read as undef[16]):
  | | |         42da: 6d 0c e7 33 af f8 d1 dc 5a eb 38 82 5e 81 04 2f [m..3....Z.8.^../]
  | | | 17) Canon_0x002d = 0
  | | |     - Tag 0x002d (4 bytes, int32u[1]):
  | | |         0442: 00 00 00 00                                     [....]
  | | | 18) Canon_0x002e = 54 32767 32767 65535 65535 32767 32767 32767 0 65535 1 65535 65535 65535 65535 32767 32767 32767 65535 65535 65535 65535 65535 0 0 0 0
  | | |     - Tag 0x002e (54 bytes, int16u[27]):
  | | |         42ea: 36 00 ff 7f ff 7f ff ff ff ff ff 7f ff 7f ff 7f [6...............]
  | | |         42fa: 00 00 ff ff 01 00 ff ff ff ff ff ff ff ff ff 7f [................]
  | | |         430a: ff 7f ff 7f ff ff ff ff ff ff ff ff ff ff 00 00 [................]
  | | |         431a: 00 00 00 00 00 00                               [......]
  | | | 19) FaceDetect3 (SubDirectory) -->
  | | |     - Tag 0x002f (34 bytes, int16u[17] read as undef[34]):
  | | |         4320: 22 00 02 00 ff ff ff ff ff ff ff ff ff ff ff ff ["...............]
  | | |         4330: ff ff ff ff ff ff ff ff ff ff ff ff ff ff ff ff [................]
  | | |         4340: ff ff                                           [..]
  | | | + [BinaryData directory, 34 bytes, Little-endian]
  | | | | FacesDetected = 65535
  | | | | - Tag 0x0003 (2 bytes, int16u[1]):
  | | | |     4326: ff ff                                           [..]
  | | | 20) Canon_0x0031 = 12 1 65535 65535 65535 65535
  | | |     - Tag 0x0031 (12 bytes, int16u[6]):
  | | |         4342: 0c 00 01 00 ff ff ff ff ff ff ff ff             [............]
  | | | 21) Canon_0x0033 = 2801211429 3704704190 2184768346 788824414
  | | |     - Tag 0x0033 (16 bytes, int32u[4]):
  | | |         434e: 25 18 f7 a6 be 4c d1 dc 5a eb 38 82 5e 81 04 2f [%....L..Z.8.^../]
  | | | 22) TimeInfo (SubDirectory) -->
  | | |     - Tag 0x0035 (16 bytes, int32u[4] read as undef[16]):
  | | |         435e: 10 00 00 00 00 00 00 00 fe 7f 00 00 00 00 00 00 [................]
  | | | + [BinaryData directory, 16 bytes, Little-endian]
  | | | | TimeZone = 0
  | | | | - Tag 0x0001 (4 bytes, int32s[1]):
  | | | |     4362: 00 00 00 00                                     [....]
  | | | | TimeZoneCity = 32766
  | | | | - Tag 0x0002 (4 bytes, int32s[1]):
  | | | |     4366: fe 7f 00 00                                     [....]
  | | | | DaylightSavings = 0
  | | | | - Tag 0x0003 (4 bytes, int32s[1]):
  | | | |     436a: 00 00 00 00                                     [....]
  | | | 23) Canon_0x0037 = 8 0
  | | |     - Tag 0x0037 (8 bytes, int32u[2]):
  | | |         436e: 08 00 00 00 00 00 00 00                         [........]
  | | | 24) Canon_0x0038 = .p).{
  | | |     - Tag 0x0038 (8 bytes, undef[8]):
  | | |         4376: 08 00 00 00 70 29 d5 7b                         [....p).{]
  | | | 25) AFInfo3 (SubDirectory) -->
  | | |     - Tag 0x003c (436 bytes, int16u[218] read as undef[436]):
  | | |         437e: b4 01 0d 00 31 00 01 00 00 09 00 06 70 17 a0 0f [....1.......p...]
  | | |         438e: 58 02 9c 00 50 32 00 00 2b 75 14 00 00 00 50 32 [X...P2..+u....P2]
  | | |         439e: 00 00 00 00 50 6b 64 6b 69 f5 ce 00 c8 31 4e 00 [....Pkdki....1N.]
  | | |         43ae: 94 00 30 db 66 06 30 db 0a 00 02 00 30 db 01 01 [..0.f.0.....0...]
  | | |         43be: 00 00 02 00 00 00 01 00 69 f5 61 00 ff ff a2 00 [........i.a.....]
  | | |         43ce: 9c 00 50 32 00 00 2b 75 14 00 00 00 50 32 00 00 [..P2..+u....P2..]
  | | |         43de: c8 31 4e 00 53 00 30 db 0e 06 30 db 0a 00 02 00 [.1N.S.0...0.....]
  | | |         43ee: 30 db 20 03 30 db 6c 06 30 db 0a 00 02 00 30 db [0. .0.l.0.....0.]
  | | |         43fe: 01 01 00 00 02 00 00 00 01 00 69 f5 67 00 ff ff [..........i.g...]
  | | |         440e: ac 00 9c 00 50 32 00 00 2b 75 14 00 00 00 50 32 [....P2..+u....P2]
  | | |         441e: 00 00 00 00 50 6b 64 6b 69 f5 cc 00 c8 31 4e 00 [....Pkdki....1N.]
  | | |         442e: 9c 00 30 db 72 06 30 db 0a 00 02 00 30 db 01 01 [..0.r.0.....0...]
  | | |         443e: 00 00 ff ff e5 20 9c 00 50 32 00 00 2b 75 14 00 [..... ..P2..+u..]
  | | |         444e: 00 00 50 32 00 00 c8 31 4e 00 53 00 30 db 40 06 [..P2...1N.S.0.@.]
  | | |         445e: 30 db 0a 00 02 00 30 db 01 01 00 00 02 00 00 00 [0.....0.........]
  | | |         446e: 01 00 69 f5 73 00 ff ff e5 20 9c 00 50 32 00 00 [..i.s.... ..P2..]
  | | |         447e: 2b 75 14 00 00 00 50 32 00 00 00 00 50 6b 64 6b [+u....P2....Pkdk]
  | | |         448e: 69 f5 ca 00 30 db f8 01 a0 00 48 02 00 00 30 db [i...0.....H...0.]
  | | |         449e: 0a 00 02 00 30 db 01 01 00 00 02 00 00 00 01 00 [....0...........]
  | | |         44ae: 69 f5 63 00 ff ff 00 00 ff ff e5 20 9c 00 50 32 [i.c........ ..P2]
  | | |         44be: 00 00 2b 75 14 00 00 00 50 32 00 00 00 00 50 6b [..+u....P2....Pk]
  | | |         44ce: 64 6b 69 f5 c0 00 c8 31 4e 00 53 00 30 db 5f 06 [dki....1N.S.0._.]
  | | |         44de: 30 db 0a 00 02 00 30 db 01 01 00 00 02 00 00 00 [0.....0.........]
  | | |         44ee: 01 00 69 f5 67 00 50 32 c8 00 9c 32 98 32 4b 74 [..i.g.P2...2.2Kt]
  | | |         44fe: 2b 75 14 00 00 00 50 32 00 00 00 00 50 6b 64 6b [+u....P2....Pkdk]
  | | |         450e: 69 f5 ce 00 c8 31 4e 00 01 00 00 00 00 00 00 00 [i....1N.........]
  | | |         451e: 00 00 00 00 00 00 00 00 00 00 00 00 00 00 00 00 [................]
  | | |         452e: 00 00 fb ff                                     [....]
  | | | + [SerialData directory, 436 bytes]
  | | | | 0)  AFInfoSize = 436
  | | | |     - Tag 0x0000 (2 bytes, int16u[1]):
  | | | |         437e: b4 01                                           [..]
  | | | | 1)  AFAreaMode = 13
  | | | |     - Tag 0x0001 (2 bytes, int16u[1]):
  | | | |         4380: 0d 00                                           [..]
  | | | | 2)  NumAFPoints = 49
  | | | |     - Tag 0x0002 (2 bytes, int16u[1]):
  | | | |         4382: 31 00                                           [1.]
  | | | | 3)  ValidAFPoints = 1
  | | | |     - Tag 0x0003 (2 bytes, int16u[1]):
  | | | |         4384: 01 00                                           [..]
  | | | | 4)  CanonImageWidth = 2304
  | | | |     - Tag 0x0004 (2 bytes, int16u[1]):
  | | | |         4386: 00 09                                           [..]
  | | | | 5)  CanonImageHeight = 1536
  | | | |     - Tag 0x0005 (2 bytes, int16u[1]):
  | | | |         4388: 00 06                                           [..]
  | | | | 6)  AFImageWidth = 6000
  | | | |     - Tag 0x0006 (2 bytes, int16u[1]):
  | | | |         438a: 70 17                                           [p.]
  | | | | 7)  AFImageHeight = 4000
  | | | |     - Tag 0x0007 (2 bytes, int16u[1]):
  | | | |         438c: a0 0f                                           [..]
  | | | | 8)  AFAreaWidths = 600 156 12880 0 29995 20 0 12880 0 0 27472 27492 -2711 206 12744 78 148 -9424 1638 -9424 10 2 -9424 257 0 2 0 1 -2711 97 -1 162 156 12880 0 29995 20 0 12880 0 12744 78 83 -9424 1550 -9424 10 2 -9424
  | | | |     - Tag 0x0008 (98 bytes, int16s[49]):
  | | | |         438e: 58 02 9c 00 50 32 00 00 2b 75 14 00 00 00 50 32 [X...P2..+u....P2]
  | | | |         439e: 00 00 00 00 50 6b 64 6b 69 f5 ce 00 c8 31 4e 00 [....Pkdki....1N.]
  | | | |         43ae: 94 00 30 db 66 06 30 db 0a 00 02 00 30 db 01 01 [..0.f.0.....0...]
  | | | |         43be: 00 00 02 00 00 00 01 00 69 f5 61 00 ff ff a2 00 [........i.a.....]
  | | | |         43ce: 9c 00 50 32 00 00 2b 75 14 00 00 00 50 32 00 00 [..P2..+u....P2..]
  | | | |         43de: c8 31 4e 00 53 00 30 db 0e 06 30 db 0a 00 02 00 [.1N.S.0...0.....]
  | | | |         43ee: 30 db                                           [0.]
  | | | | 9)  AFAreaHeights = 800 -9424 1644 -9424 10 2 -9424 257 0 2 0 1 -2711 103 -1 172 156 12880 0 29995 20 0 12880 0 0 27472 27492 -2711 204 12744 78 156 -9424 1650 -9424 10 2 -9424 257 0 -1 8421 156 12880 0 29995 20 0 12880
  | | | |     - Tag 0x0009 (98 bytes, int16s[49]):
  | | | |         43f0: 20 03 30 db 6c 06 30 db 0a 00 02 00 30 db 01 01 [ .0.l.0.....0...]
  | | | |         4400: 00 00 02 00 00 00 01 00 69 f5 67 00 ff ff ac 00 [........i.g.....]
  | | | |         4410: 9c 00 50 32 00 00 2b 75 14 00 00 00 50 32 00 00 [..P2..+u....P2..]
  | | | |         4420: 00 00 50 6b 64 6b 69 f5 cc 00 c8 31 4e 00 9c 00 [..Pkdki....1N...]
  | | | |         4430: 30 db 72 06 30 db 0a 00 02 00 30 db 01 01 00 00 [0.r.0.....0.....]
  | | | |         4440: ff ff e5 20 9c 00 50 32 00 00 2b 75 14 00 00 00 [... ..P2..+u....]
  | | | |         4450: 50 32                                           [P2]
  | | | | 10) AFAreaXPositions = 0 12744 78 83 -9424 1600 -9424 10 2 -9424 257 0 2 0 1 -2711 115 -1 8421 156 12880 0 29995 20 0 12880 0 0 27472 27492 -2711 202 -9424 504 160 584 0 -9424 10 2 -9424 257 0 2 0 1 -2711 99 -1
  | | | |     - Tag 0x000a (98 bytes, int16s[49]):
  | | | |         4452: 00 00 c8 31 4e 00 53 00 30 db 40 06 30 db 0a 00 [...1N.S.0.@.0...]
  | | | |         4462: 02 00 30 db 01 01 00 00 02 00 00 00 01 00 69 f5 [..0...........i.]
  | | | |         4472: 73 00 ff ff e5 20 9c 00 50 32 00 00 2b 75 14 00 [s.... ..P2..+u..]
  | | | |         4482: 00 00 50 32 00 00 00 00 50 6b 64 6b 69 f5 ca 00 [..P2....Pkdki...]
  | | | |         4492: 30 db f8 01 a0 00 48 02 00 00 30 db 0a 00 02 00 [0.....H...0.....]
  | | | |         44a2: 30 db 01 01 00 00 02 00 00 00 01 00 69 f5 63 00 [0...........i.c.]
  | | | |         44b2: ff ff                                           [..]
  | | | | 11) AFAreaYPositions = 0 -1 8421 156 12880 0 29995 20 0 12880 0 0 27472 27492 -2711 192 12744 78 83 -9424 1631 -9424 10 2 -9424 257 0 2 0 1 -2711 103 12880 200 12956 12952 29771 29995 20 0 12880 0 0 27472 27492 -2711 206 12744 78
  | | | |     - Tag 0x000b (98 bytes, int16s[49]):
  | | | |         44b4: 00 00 ff ff e5 20 9c 00 50 32 00 00 2b 75 14 00 [..... ..P2..+u..]
  | | | |         44c4: 00 00 50 32 00 00 00 00 50 6b 64 6b 69 f5 c0 00 [..P2....Pkdki...]
  | | | |         44d4: c8 31 4e 00 53 00 30 db 5f 06 30 db 0a 00 02 00 [.1N.S.0._.0.....]
  | | | |         44e4: 30 db 01 01 00 00 02 00 00 00 01 00 69 f5 67 00 [0...........i.g.]
  | | | |         44f4: 50 32 c8 00 9c 32 98 32 4b 74 2b 75 14 00 00 00 [P2...2.2Kt+u....]
  | | | |         4504: 50 32 00 00 00 00 50 6b 64 6b 69 f5 ce 00 c8 31 [P2....Pkdki....1]
  | | | |         4514: 4e 00                                           [N.]
  | | | | 12) AFPointsInFocus = 1 0 0 0
  | | | |     - Tag 0x000c (8 bytes, int16s[4]):
  | | | |         4516: 01 00 00 00 00 00 00 00                         [........]
  | | | | 13) AFPointsSelected = 0 0 0 0
  | | | |     - Tag 0x000d (8 bytes, int16s[4]):
  | | | |         451e: 00 00 00 00 00 00 00 00                         [........]
  | | | 26) Canon_0x003d = 32 1 0 0 0 0 0 0
  | | |     - Tag 0x003d (32 bytes, int32u[8]):
  | | |         4532: 20 00 00 00 01 00 00 00 00 00 00 00 00 00 00 00 [ ...............]
  | | |         4542: 00 00 00 00 00 00 00 00 00 00 00 00 00 00 00 00 [................]
  | | | 27) Canon_0x003f = 1
  | | |     - Tag 0x003f (4 bytes, int32u[1]):
  | | |         04ba: 01 00 00 00                                     [....]
  | | | 28) CanonFileInfo (SubDirectory) -->
  | | |     - Tag 0x0093 (66 bytes, int16u[33] read as undef[66]):
  | | |         4552: 42 00 00 00 00 00 00 00 00 00 00 00 03 00 01 00 [B...............]
  | | |         4562: ff ff 00 00 00 00 00 00 00 00 00 00 ff ff ff ff [................]
  | | |         4572: be 00 ff ff 01 00 01 00 73 00 62 00 00 00 01 00 [........s.b.....]
  | | |         4582: 00 00 00 00 ff 00 ff ff 00 00 3f 00 0a 00 1f 00 [..........?.....]
  | | |         4592: 00 00                                           [..]
  | | | + [BinaryData directory, 66 bytes, Little-endian]
  | | | | BracketMode = 0
  | | | | - Tag 0x0003 (2 bytes, int16s[1]):
  | | | |     4558: 00 00                                           [..]
  | | | | BracketValue = 0
  | | | | - Tag 0x0004 (2 bytes, int16s[1]):
  | | | |     455a: 00 00                                           [..]
  | | | | BracketShotNumber = 0
  | | | | - Tag 0x0005 (2 bytes, int16s[1]):
  | | | |     455c: 00 00                                           [..]
  | | | | RawJpgQuality = 3
  | | | | - Tag 0x0006 (2 bytes, int16s[1]):
  | | | |     455e: 03 00                                           [..]
  | | | | RawJpgSize = 1
  | | | | - Tag 0x0007 (2 bytes, int16s[1]):
  | | | |     4560: 01 00                                           [..]
  | | | | LongExposureNoiseReduction2 = -1
  | | | | - Tag 0x0008 (2 bytes, int16s[1]):
  | | | |     4562: ff ff                                           [..]
  | | | | WBBracketMode = 0
  | | | | - Tag 0x0009 (2 bytes, int16s[1]):
  | | | |     4564: 00 00                                           [..]
  | | | | WBBracketValueAB = 0
  | | | | - Tag 0x000c (2 bytes, int16s[1]):
  | | | |     456a: 00 00                                           [..]
  | | | | WBBracketValueGM = 0
  | | | | - Tag 0x000d (2 bytes, int16s[1]):
  | | | |     456c: 00 00                                           [..]
  | | | | FilterEffect = -1
  | | | | - Tag 0x000e (2 bytes, int16s[1]):
  | | | |     456e: ff ff                                           [..]
  | | | | ToningEffect = -1
  | | | | - Tag 0x000f (2 bytes, int16s[1]):
  | | | |     4570: ff ff                                           [..]
  | | | | LiveViewShooting = 1
  | | | | - Tag 0x0013 (2 bytes, int16s[1]):
  | | | |     4578: 01 00                                           [..]
  | | | | FocusDistanceUpper = 115
  | | | | - Tag 0x0014 (2 bytes, int16u[1]):
  | | | |     457a: 73 00                                           [s.]
  | | | | FocusDistanceLower = 98
  | | | | - Tag 0x0015 (2 bytes, int16u[1]):
  | | | |     457c: 62 00                                           [b.]
  | | | | ShutterMode = 1
  | | | | - Tag 0x0017 (2 bytes, int16s[1]):
  | | | |     4580: 01 00                                           [..]
  | | | | FlashExposureLock = 0
  | | | | - Tag 0x0019 (2 bytes, int16s[1]):
  | | | |     4584: 00 00                                           [..]
  | | | | AntiFlicker = 0
  | | | | - Tag 0x0020 (2 bytes, int16s[1]):
  | | | |     4592: 00 00                                           [..]
  | | | 29) InternalSerialNumber = SA0151220
  | | |     - Tag 0x0096 (10 bytes, string[10]):
  | | |         4594: 53 41 30 31 35 31 32 32 30 00                   [SA0151220.]
  | | | 30) CustomFunctions2 (SubDirectory) -->
  | | |     - Tag 0x0099 (136 bytes, int32u[34] read as undef[136]):
  | | |         459e: 88 00 00 00 03 00 00 00 01 00 00 00 20 00 00 00 [............ ...]
  | | |         45ae: 02 00 00 00 03 01 00 00 01 00 00 00 00 00 00 00 [................]
  | | |         45be: 08 01 00 00 01 00 00 00 00 00 00 00 03 00 00 00 [................]
  | | |         45ce: 14 00 00 00 01 00 00 00 0e 05 00 00 01 00 00 00 [................]
  | | |         45de: 01 00 00 00 04 00 00 00 40 00 00 00 03 00 00 00 [........@.......]
  | | |         45ee: 0c 07 00 00 06 00 00 00 00 00 00 00 00 00 00 00 [................]
  | | |         45fe: 01 00 00 00 00 00 00 00 00 00 00 00 01 00 00 00 [................]
  | | |         460e: 11 07 00 00 01 00 00 00 00 00 00 00 14 08 00 00 [................]
  | | |         461e: 01 00 00 00 01 00 00 00                         [........]
  | | | + [CanonCustom2 directory with 3 entries, 136 bytes]
  | | | + [CanonCustom2 group 1 directory with 2 entries, 32 bytes]
  | | | | 0)  ISOExpansion = 0
  | | | |     - Tag 0x0103 (4 bytes, int32u[1])
  | | | | 1)  SafetyShift = 0
  | | | |     - Tag 0x0108 (4 bytes, int32u[1])
  | | | + [CanonCustom2 group 3 directory with 1 entries, 20 bytes]
  | | | | 0)  AFAssistBeam = 1
  | | | |     - Tag 0x050e (4 bytes, int32u[1])
  | | | + [CanonCustom2 group 4 directory with 3 entries, 64 bytes]
  | | | | 0)  CustomControls = 0 0 1 0 0 1
  | | | |     - Tag 0x070c (24 bytes, int32u[6])
  | | | | 1)  ShutterReleaseWithoutLens = 0
  | | | |     - Tag 0x0711 (4 bytes, int32u[1])
  | | | | 2)  RetractLensOnPowerOff = 1
  | | | |     - Tag 0x0814 (4 bytes, int32u[1])
  | | | 31) AspectInfo (SubDirectory) -->
  | | |     - Tag 0x009a (20 bytes, int32u[5] read as undef[20]):
  | | |         4626: 00 00 00 00 00 09 00 00 00 06 00 00 00 00 00 00 [................]
  | | |         4636: 00 00 00 00                                     [....]
  | | | + [BinaryData directory, 20 bytes, Little-endian]
  | | | | AspectRatio = 0
  | | | | - Tag 0x0000 (4 bytes, int32u[1]):
  | | | |     4626: 00 00 00 00                                     [....]
  | | | | CroppedImageWidth = 2304
  | | | | - Tag 0x0001 (4 bytes, int32u[1]):
  | | | |     462a: 00 09 00 00                                     [....]
  | | | | CroppedImageHeight = 1536
  | | | | - Tag 0x0002 (4 bytes, int32u[1]):
  | | | |     462e: 00 06 00 00                                     [....]
  | | | | CroppedImageLeft = 0
  | | | | - Tag 0x0003 (4 bytes, int32u[1]):
  | | | |     4632: 00 00 00 00                                     [....]
  | | | | CroppedImageTop = 0
  | | | | - Tag 0x0004 (4 bytes, int32u[1]):
  | | | |     4636: 00 00 00 00                                     [....]
  | | | 32) ProcessingInfo (SubDirectory) -->
  | | |     - Tag 0x00a0 (28 bytes, int16u[14] read as undef[28]):
  | | |         463a: 1c 00 00 00 00 00 ff ff ff ff ff ff ff ff ff ff [................]
  | | |         464a: ff ff ff ff 84 00 00 00 09 00 ff ff             [............]
  | | | + [BinaryData directory, 28 bytes, Little-endian]
  | | | | ToneCurve = 0
  | | | | - Tag 0x0001 (2 bytes, int16s[1]):
  | | | |     463c: 00 00                                           [..]
  | | | | Sharpness = 0
  | | | | - Tag 0x0002 (2 bytes, int16s[1]):
  | | | |     463e: 00 00                                           [..]
  | | | | SharpnessFrequency = -1
  | | | | - Tag 0x0003 (2 bytes, int16s[1]):
  | | | |     4640: ff ff                                           [..]
  | | | | SensorRedLevel = -1
  | | | | - Tag 0x0004 (2 bytes, int16s[1]):
  | | | |     4642: ff ff                                           [..]
  | | | | SensorBlueLevel = -1
  | | | | - Tag 0x0005 (2 bytes, int16s[1]):
  | | | |     4644: ff ff                                           [..]
  | | | | WhiteBalanceRed = -1
  | | | | - Tag 0x0006 (2 bytes, int16s[1]):
  | | | |     4646: ff ff                                           [..]
  | | | | WhiteBalanceBlue = -1
  | | | | - Tag 0x0007 (2 bytes, int16s[1]):
  | | | |     4648: ff ff                                           [..]
  | | | | WhiteBalance = -1
  | | | | - Tag 0x0008 (2 bytes, int16s[1]):
  | | | |     464a: ff ff                                           [..]
  | | | | ColorTemperature = -1
  | | | | - Tag 0x0009 (2 bytes, int16s[1]):
  | | | |     464c: ff ff                                           [..]
  | | | | PictureStyle = 132
  | | | | - Tag 0x000a (2 bytes, int16s[1]):
  | | | |     464e: 84 00                                           [..]
  | | | | DigitalGain = 0
  | | | | - Tag 0x000b (2 bytes, int16s[1]):
  | | | |     4650: 00 00                                           [..]
  | | | | WBShiftAB = 9
  | | | | - Tag 0x000c (2 bytes, int16s[1]):
  | | | |     4652: 09 00                                           [..]
  | | | | WBShiftGM = -1
  | | | | - Tag 0x000d (2 bytes, int16s[1]):
  | | | |     4654: ff ff                                           [..]
  | | | 33) MeasuredColor (SubDirectory) -->
  | | |     - Tag 0x00aa (12 bytes, int16u[6] read as undef[12]):
  | | |         4656: 0c 00 88 01 21 02 22 02 36 0a 00 00             [....!.".6...]
  | | | + [BinaryData directory, 12 bytes, Little-endian]
  | | | | MeasuredRGGB = 392 545 546 2614
  | | | | - Tag 0x0001 (8 bytes, int16u[4]):
  | | | |     4658: 88 01 21 02 22 02 36 0a                         [..!.".6.]
  | | | 34) VRDOffset = 0
  | | |     - Tag 0x00d0 (4 bytes, int32u[1]):
  | | |         050e: 00 00 00 00                                     [....]
  | | | 35) PictureStyleUserDef = 135 135 135
  | | |     - Tag 0x4008 (6 bytes, int16u[3]):
  | | |         4662: 87 00 87 00 87 00                               [......]
  | | | 36) PictureStylePC = 255 255 255
  | | |     - Tag 0x4009 (6 bytes, int16u[3]):
  | | |         4668: ff 00 ff 00 ff 00                               [......]
  | | | 37) CustomPictureStyleFileName = 
  | | |     - Tag 0x4010 (32 bytes, string[32]):
  | | |         466e: 00 00 00 00 00 00 00 00 00 00 00 00 00 00 00 00 [................]
  | | |         467e: 00 00 00 00 00 00 00 00 00 00 00 00 00 00 00 00 [................]
  | | | 38) Canon_0x4012 = 
  | | |     - Tag 0x4012 (32 bytes, string[32]):
  | | |         468e: 00 00 00 00 00 00 00 00 00 00 00 00 00 00 00 00 [................]
  | | |         469e: 00 00 00 00 00 00 00 00 00 00 00 00 00 00 00 00 [................]
  | | | 39) VignettingCorr2 (SubDirectory) -->
  | | |     - Tag 0x4016 (32 bytes, int32u[8] read as undef[32]):
  | | |         46ae: 20 00 00 00 00 00 00 00 01 00 00 00 00 00 00 00 [ ...............]
  | | |         46be: 01 00 00 00 01 00 00 00 01 00 00 00 00 00 00 00 [................]
  | | | + [BinaryData directory, 32 bytes, Little-endian]
  | | | | PeripheralLightingSetting = 1
  | | | | - Tag 0x0005 (4 bytes, int32s[1]):
  | | | |     46c2: 01 00 00 00                                     [....]
  | | | | ChromaticAberrationSetting = 1
  | | | | - Tag 0x0006 (4 bytes, int32s[1]):
  | | | |     46c6: 01 00 00 00                                     [....]
  | | | | DistortionCorrectionSetting = 0
  | | | | - Tag 0x0007 (4 bytes, int32s[1]):
  | | | |     46ca: 00 00 00 00                                     [....]
  | | | 40) LightingOpt (SubDirectory) -->
  | | |     - Tag 0x4018 (36 bytes, int32u[9] read as undef[36]):
  | | |         46ce: 24 00 00 00 00 00 00 00 00 00 00 00 00 00 00 00 [$...............]
  | | |         46de: 00 00 00 00 00 00 00 00 01 00 00 00 00 00 00 00 [................]
  | | |         46ee: 01 00 00 00                                     [....]
  | | | + [BinaryData directory, 36 bytes, Little-endian]
  | | | | PeripheralIlluminationCorr = 0
  | | | | - Tag 0x0001 (4 bytes, int32s[1]):
  | | | |     46d2: 00 00 00 00                                     [....]
  | | | | AutoLightingOptimizer = 0
  | | | | - Tag 0x0002 (4 bytes, int32s[1]):
  | | | |     46d6: 00 00 00 00                                     [....]
  | | | | HighlightTonePriority = 0
  | | | | - Tag 0x0003 (4 bytes, int32s[1]):
  | | | |     46da: 00 00 00 00                                     [....]
  | | | | LongExposureNoiseReduction = 0
  | | | | - Tag 0x0004 (4 bytes, int32s[1]):
  | | | |     46de: 00 00 00 00                                     [....]
  | | | | HighISONoiseReduction = 0
  | | | | - Tag 0x0005 (4 bytes, int32s[1]):
  | | | |     46e2: 00 00 00 00                                     [....]
  | | | 41) AmbienceInfo (SubDirectory) -->
  | | |     - Tag 0x4020 (28 bytes, int32u[7] read as undef[28]):
  | | |         46f2: 1c 00 00 00 00 00 00 00 00 00 00 00 00 00 00 00 [................]
  | | |         4702: 00 00 00 00 00 00 00 00 00 00 00 00             [............]
  | | | + [BinaryData directory, 28 bytes, Little-endian]
  | | | | AmbienceSelection = 0
  | | | | - Tag 0x0001 (4 bytes, int32s[1]):
  | | | |     46f6: 00 00 00 00                                     [....]
  | | | 42) Canon_0x4023 = 16 1 4320 2880
  | | |     - Tag 0x4023 (16 bytes, int32u[4]):
  | | |         470e: 10 00 00 00 01 00 00 00 e0 10 00 00 40 0b 00 00 [............@...]
  | | | 43) FilterInfo (SubDirectory) -->
  | | |     - Tag 0x4024 (212 bytes, int32u[53] read as undef[212]):
  | | |         471e: d4 00 00 00 07 00 00 00 01 00 00 00 14 00 00 00 [................]
  | | |         472e: 01 00 00 00 01 01 00 00 01 00 00 00 ff ff ff ff [................]
  | | |         473e: 02 00 00 00 14 00 00 00 01 00 00 00 01 02 00 00 [................]
  | | |         474e: 01 00 00 00 ff ff ff ff 03 00 00 00 14 00 00 00 [................]
  | | |         475e: 01 00 00 00 01 03 00 00 01 00 00 00 ff ff ff ff [................]
  | | |         476e: 04 00 00 00 38 00 00 00 04 00 00 00 01 04 00 00 [....8...........]
  | | |         477e: 01 00 00 00 ff ff ff ff 02 04 00 00 01 00 00 00 [................]
  | | |         478e: ff ff ff ff 03 04 00 00 01 00 00 00 ff ff ff ff [................]
  | | |         479e: 04 04 00 00 01 00 00 00 ff ff ff ff 05 00 00 00 [................]
  | | |         47ae: 14 00 00 00 01 00 00 00 01 05 00 00 01 00 00 00 [................]
  | | |         47be: ff ff ff ff 06 00 00 00 14 00 00 00 01 00 00 00 [................]
  | | |         47ce: 01 06 00 00 01 00 00 00 ff ff ff ff 07 00 00 00 [................]
  | | |         47de: 14 00 00 00 01 00 00 00 01 07 00 00 01 00 00 00 [................]
  | | |         47ee: ff ff ff ff                                     [....]
  | | | + [Creative Filter directory with 7 entries]
  | | | + [Filter 1 directory with 1 entries, 20 bytes]
  | | | | GrainyBWFilter = -1
  | | | | - Tag 0x0101 (4 bytes):
  | | | |     472e: ff ff ff ff                                     [....]
  | | | + [Filter 2 directory with 1 entries, 20 bytes]
  | | | | SoftFocusFilter = -1
  | | | | - Tag 0x0201 (4 bytes):
  | | | |     4746: ff ff ff ff                                     [....]
  | | | + [Filter 3 directory with 1 entries, 20 bytes]
  | | | | ToyCameraFilter = -1
  | | | | - Tag 0x0301 (4 bytes):
  | | | |     475e: ff ff ff ff                                     [....]
  | | | + [Filter 4 directory with 4 entries, 56 bytes]
  | | | | MiniatureFilter = -1
  | | | | - Tag 0x0401 (4 bytes):
  | | | |     4776: ff ff ff ff                                     [....]
  | | | | MiniatureFilterOrientation = -1
  | | | | - Tag 0x0402 (4 bytes):
  | | | |     4782: ff ff ff ff                                     [....]
  | | | | MiniatureFilterPosition = -1
  | | | | - Tag 0x0403 (4 bytes):
  | | | |     478e: ff ff ff ff                                     [....]
  | | | | MiniatureFilterParameter = -1
  | | | | - Tag 0x0404 (4 bytes):
  | | | |     479a: ff ff ff ff                                     [....]
  | | | + [Filter 5 directory with 1 entries, 20 bytes]
  | | | | FisheyeFilter = -1
  | | | | - Tag 0x0501 (4 bytes):
  | | | |     47b2: ff ff ff ff                                     [....]
  | | | + [Filter 6 directory with 1 entries, 20 bytes]
  | | | | PaintingFilter = -1
  | | | | - Tag 0x0601 (4 bytes):
  | | | |     47ca: ff ff ff ff                                     [....]
  | | | + [Filter 7 directory with 1 entries, 20 bytes]
  | | | | WatercolorFilter = -1
  | | | | - Tag 0x0701 (4 bytes):
  | | | |     47e2: ff ff ff ff                                     [....]
  | | | 44) Canon_0x402b = 24 0 0 0 0 0
  | | |     - Tag 0x402b (24 bytes, int32u[6]):
  | | |         47f2: 18 00 00 00 00 00 00 00 00 00 00 00 00 00 00 00 [................]
  | | |         4802: 00 00 00 00 00 00 00 00                         [........]
  | | | 45) Canon_0x402c = 8 0
  | | |     - Tag 0x402c (8 bytes, int32u[2]):
  | | |         480a: 08 00 00 00 00 00 00 00                         [........]
  | | 18) UserComment = 
  | |     - Tag 0x9286 (264 bytes, undef[264]):
  | |         481a: 00 00 00 00 00 00 00 00 00 00 00 00 00 00 00 00 [................]
  | |         482a: 00 00 00 00 00 00 00 00 00 00 00 00 00 00 00 00 [................]
  | |         483a: 00 00 00 00 00 00 00 00 00 00 00 00 00 00 00 00 [................]
  | |         484a: 00 00 00 00 00 00 00 00 00 00 00 00 00 00 00 00 [................]
  | |         485a: 00 00 00 00 00 00 00 00 00 00 00 00 00 00 00 00 [................]
  | |         486a: 00 00 00 00 00 00 00 00 00 00 00 00 00 00 00 00 [................]
  | |         487a: 00 00 00 00 00 00 00 00 00 00 00 00 00 00 00 00 [................]
  | |         488a: 00 00 00 00 00 00 00 00 00 00 00 00 00 00 00 00 [................]
  | |         489a: 00 00 00 00 00 00 00 00 00 00 00 00 00 00 00 00 [................]
  | |         48aa: 00 00 00 00 00 00 00 00 00 00 00 00 00 00 00 00 [................]
  | |         48ba: 00 00 00 00 00 00 00 00 00 00 00 00 00 00 00 00 [................]
  | |         48ca: 00 00 00 00 00 00 00 00 00 00 00 00 00 00 00 00 [................]
  | |         48da: 00 00 00 00 00 00 00 00 00 00 00 00 00 00 00 00 [................]
  | |         48ea: 00 00 00 00 00 00 00 00 00 00 00 00 00 00 00 00 [................]
  | |         48fa: 00 00 00 00 00 00 00 00 00 00 00 00 00 00 00 00 [................]
  | |         490a: 00 00 00 00 00 00 00 00 00 00 00 00 00 00 00 00 [................]
  | |         491a: 00 00 00 00 00 00 00 00                         [........]
  | | 19) SubSecTime =   
  | |     - Tag 0x9290 (3 bytes, string[3]):
  | |         01fc: 20 20 00                                        [  .]
  | | 20) SubSecTimeOriginal = 76
  | |     - Tag 0x9291 (3 bytes, string[3]):
  | |         0208: 37 36 00                                        [76.]
  | | 21) SubSecTimeDigitized = 76
  | |     - Tag 0x9292 (3 bytes, string[3]):
  | |         0214: 37 36 00                                        [76.]
  | | 22) FlashpixVersion = 0100
  | |     - Tag 0xa000 (4 bytes, undef[4]):
  | |         0220: 30 31 30 30                                     [0100]
  | | 23) ColorSpace = 1
  | |     - Tag 0xa001 (2 bytes, int16u[1]):
  | |         022c: 01 00                                           [..]
  | | 24) ExifImageWidth = 2304
  | |     - Tag 0xa002 (2 bytes, int16u[1]):
  | |         0238: 00 09                                           [..]
  | | 25) ExifImageHeight = 1536
  | |     - Tag 0xa003 (2 bytes, int16u[1]):
  | |         0244: 00 06                                           [..]
  | | 26) InteropOffset (SubDirectory) -->
  | |     - Tag 0xa005 (4 bytes, int32u[1]):
  | |         0250: 86 49 00 00                                     [.I..]
  | | + [InteropIFD directory with 4 entries, Little-endian]
  | | | 0)  InteropIndex = R98
  | | |     - Tag 0x0001 (4 bytes, string[4]):
  | | |         499c: 52 39 38 00                                     [R98.]
  | | | 1)  InteropVersion = 0100
  | | |     - Tag 0x0002 (4 bytes, undef[4]):
  | | |         49a8: 30 31 30 30                                     [0100]
  | | | 2)  RelatedImageWidth = 2304
  | | |     - Tag 0x1001 (2 bytes, int16u[1]):
  | | |         49b4: 00 09                                           [..]
  | | | 3)  RelatedImageHeight = 1536
  | | |     - Tag 0x1002 (2 bytes, int16u[1]):
  | | |         49c0: 00 06                                           [..]
  | | 27) FocalPlaneXResolution = 2621.16041 (2304000/879)
  | |     - Tag 0xa20e (8 bytes, rational64u[1]):
  | |         4922: 00 28 23 00 6f 03 00 00                         [.(#.o...]
  | | 28) FocalPlaneYResolution = 2621.16041 (1536000/586)
  | |     - Tag 0xa20f (8 bytes, rational64u[1]):
  | |         492a: 00 70 17 00 4a 02 00 00                         [.p..J...]
  | | 29) FocalPlaneResolutionUnit = 2
  | |     - Tag 0xa210 (2 bytes, int16u[1]):
  | |         0274: 02 00                                           [..]
  | | 30) SensingMethod = 2
  | |     - Tag 0xa217 (2 bytes, int16u[1]):
  | |         0280: 02 00                                           [..]
  | | 31) FileSource = 3
  | |     - Tag 0xa300 (1 bytes, undef[1]):
  | |         028c: 03                                              [.]
  | | 32) CustomRendered = 0
  | |     - Tag 0xa401 (2 bytes, int16u[1]):
  | |         0298: 00 00                                           [..]
  | | 33) ExposureMode = 0
  | |     - Tag 0xa402 (2 bytes, int16u[1]):
  | |         02a4: 00 00                                           [..]
  | | 34) WhiteBalance = 1
  | |     - Tag 0xa403 (2 bytes, int16u[1]):
  | |         02b0: 01 00                                           [..]
  | | 35) DigitalZoomRatio = 1 (6000/6000)
  | |     - Tag 0xa404 (8 bytes, rational64u[1]):
  | |         4932: 70 17 00 00 70 17 00 00                         [p...p...]
  | | 36) SceneCaptureType = 0
  | |     - Tag 0xa406 (2 bytes, int16u[1]):
  | |         02c8: 00 00                                           [..]
  | | 37) OwnerName = 
  | |     - Tag 0xa430 (1 bytes, string[1]):
  | |         02d4: 00                                              [.]
  | | 38) SerialNumber = 073043001183
  | |     - Tag 0xa431 (13 bytes, string[13]):
  | |         493a: 30 37 33 30 34 33 30 30 31 31 38 33 00          [073043001183.]
  | | 39) LensInfo = 18 55 0 0 (18/1 55/1 0/1 0/1)
  | |     - Tag 0xa432 (32 bytes, rational64u[4]):
  | |         4948: 12 00 00 00 01 00 00 00 37 00 00 00 01 00 00 00 [........7.......]
  | |         4958: 00 00 00 00 01 00 00 00 00 00 00 00 01 00 00 00 [................]
  | | 40) LensModel = EF-M18-55mm f/3.5-5.6 IS STM
  | |     - Tag 0xa434 (29 bytes, string[29]):
  | |         4968: 45 46 2d 4d 31 38 2d 35 35 6d 6d 20 66 2f 33 2e [EF-M18-55mm f/3.]
  | |         4978: 35 2d 35 2e 36 20 49 53 20 53 54 4d 00          [5-5.6 IS STM.]
  | | 41) LensSerialNumber = 0000455071
  | |     - Tag 0xa435 (11 bytes, string[11]):
  | |         4986: 30 30 30 30 34 35 35 30 37 31 00                [0000455071.]
  | 12) GPSInfo (SubDirectory) -->
  |     - Tag 0x8825 (4 bytes, int32u[1]):
  |         00ae: bc 49 00 00                                     [.I..]
  | + [GPS directory with 1 entries, Little-endian]
  | | 0)  GPSVersionID = 2 3 0 0
  | |     - Tag 0x0000 (4 bytes, int8u[4]):
  | |         49d2: 02 03 00 00                                     [....]
  + [IFD1 directory with 6 entries, Little-endian]
  | 0)  Compression = 6
  |     - Tag 0x0103 (2 bytes, int16u[1]):
  |         49e4: 06 00                                           [..]
  | 1)  XResolution = 180 (180/1)
  |     - Tag 0x011a (8 bytes, rational64u[1]):
  |         4a28: b4 00 00 00 01 00 00 00                         [........]
  | 2)  YResolution = 180 (180/1)
  |     - Tag 0x011b (8 bytes, rational64u[1]):
  |         4a30: b4 00 00 00 01 00 00 00                         [........]
  | 3)  ResolutionUnit = 2
  |     - Tag 0x0128 (2 bytes, int16u[1]):
  |         4a08: 02 00                                           [..]
  | 4)  ThumbnailOffset = 18988
  |     - Tag 0x0201 (4 bytes, int32u[1]):
  |         4a14: 2c 4a 00 00                                     [,J..]
  | 5)  ThumbnailLength = 3209
  |     - Tag 0x0202 (4 bytes, int32u[1]):
  |         4a20: 89 0c 00 00                                     [....]
JPEG APP13 (100 bytes):
      56c6: 50 68 6f 74 6f 73 68 6f 70 20 33 2e 30 00 38 42 [Photoshop 3.0.8B]
      56d6: 49 4d 04 04 00 00 00 00 00 4a 1c 02 78 00 1e 74 [IM.......J..x..t]
      56e6: 69 6d 65 20 6c 61 70 73 65 20 70 68 6f 74 6f 67 [ime lapse photog]
      56f6: 72 61 70 68 79 20 6f 66 20 66 69 72 65 1c 02 00 [raphy of fire...]
      5706: 00 02 00 04 1c 02 19 00 05 68 75 6d 61 6e 1c 02 [.........human..]
      5716: 19 00 06 70 65 72 73 6f 6e 1c 02 19 00 06 70 65 [...person.....pe]
      5726: 6f 70 6c 65                                     [ople]
  + [Photoshop directory, 86 bytes]
  | IPTCData (SubDirectory) -->
  | - Tag 0x0404 (74 bytes):
  |     56e0: 1c 02 78 00 1e 74 69 6d 65 20 6c 61 70 73 65 20 [..x..time lapse ]
  |     56f0: 70 68 6f 74 6f 67 72 61 70 68 79 20 6f 66 20 66 [photography of f]
  |     5700: 69 72 65 1c 02 00 00 02 00 04 1c 02 19 00 05 68 [ire............h]
  |     5710: 75 6d 61 6e 1c 02 19 00 06 70 65 72 73 6f 6e 1c [uman.....person.]
  |     5720: 02 19 00 06 70 65 6f 70 6c 65                   [....people]
  | + [IPTC directory, 74 bytes]
  | | CurrentIPTCDigest = ....[...7..T...
  | | -- IPTCApplication record --
  | | Caption-Abstract = time lapse photography of fire
  | | - Tag 0x0078, IPTCApplication record (30 bytes, string[0,2000]):
  | |     56e5: 74 69 6d 65 20 6c 61 70 73 65 20 70 68 6f 74 6f [time lapse photo]
  | |     56f5: 67 72 61 70 68 79 20 6f 66 20 66 69 72 65       [graphy of fire]
  | | ApplicationRecordVersion = 4
  | | - Tag 0x0000, IPTCApplication record (2 bytes, int16u):
  | |     5708: 00 04                                           [..]
  | | Keywords = human
  | | - Tag 0x0019, IPTCApplication record (5 bytes, string[0,64]):
  | |     570f: 68 75 6d 61 6e                                  [human]
  | | Keywords = person
  | | - Tag 0x0019, IPTCApplication record (6 bytes, string[0,64]):
  | |     5719: 70 65 72 73 6f 6e                               [person]
  | | Keywords = people
  | | - Tag 0x0019, IPTCApplication record (6 bytes, string[0,64]):
  | |     5724: 70 65 6f 70 6c 65                               [people]
JPEG APP1 (2810 bytes):
      572e: 68 74 74 70 3a 2f 2f 6e 73 2e 61 64 6f 62 65 2e [http://ns.adobe.]
      573e: 63 6f 6d 2f 78 61 70 2f 31 2e 30 2f 00 3c 3f 78 [com/xap/1.0/.<?x]
      574e: 70 61 63 6b 65 74 20 62 65 67 69 6e 3d 27 ef bb [packet begin='..]
      575e: bf 27 20 69 64 3d 27 57 35 4d 30 4d 70 43 65 68 [.' id='W5M0MpCeh]
      576e: 69 48 7a 72 65 53 7a 4e 54 63 7a 6b 63 39 64 27 [iHzreSzNTczkc9d']
      577e: 3f 3e 0a 3c 78 3a 78 6d 70 6d 65 74 61 20 78 6d [?>.<x:xmpmeta xm]
      578e: 6c 6e 73 3a 78 3d 27 61 64 6f 62 65 3a 6e 73 3a [lns:x='adobe:ns:]
      [snip 2698 bytes]
  + [XMP directory, 2781 bytes]
  | XMPToolkit = Image::ExifTool 12.27
  | Rating = 2
  | - Tag 'x:xmpmeta/rdf:RDF/rdf:Description/xmp:Rating'
JPEG DQT (65 bytes):
      622c: 00 04 03 03 02 03 03 05 02 02 02 03 05 05 03 07 [................]
      623c: 06 04 07 03 03 07 07 05 08 04 06 11 08 0b 0a 11 [................]
      624c: 0f 0c 08 0b 0f 1b 17 0b 0b 19 0b 08 08 17 11 0d [................]
      625c: 19 1c 10 10 1f 10 0a 17 21 23 20 1d 23 1b 1d 1e [........!# .#...]
      626c: 1d                                              [.]
JPEG DQT (65 bytes):
      6271: 01 04 04 04 05 04 05 0a 05 05 0a 10 0b 08 0b 10 [................]
      6281: 1c 15 1a 1a 15 1c 1c 1c 1c 1c 1c 1c 1c 1c 1c 1c [................]
      6291: 1c 1c 1c 1c 1c 1c 1c 1c 1c 1c 1c 1c 1c 1c 1c 1c [................]
      62a1: 1c 1c 1c 1c 1c 1c 1c 1c 1c 1c 1c 1c 1c 1c 1c 1c [................]
      62b1: 1c                                              [.]
JPEG SOF0 (15 bytes):
      62b6: 08 06 00 09 00 03 01 21 00 02 11 01 03 11 01    [.......!.......]
  ImageWidth = 2304
  ImageHeight = 1536
  EncodingProcess = 0
  BitsPerSample = 8
  ColorComponents = 3
  YCbCrSubSampling = 2 1
JPEG DHT (27 bytes):
      62c9: 00 01 01 00 02 03 01 01 01 00 00 00 00 00 00 00 [................]
      62d9: 00 00 01 02 05 04 06 07 03 08 09                [...........]
JPEG DHT (71 bytes):
      62e8: 10 00 02 01 02 04 05 03 02 03 05 05 07 02 06 00 [................]
      62f8: 07 00 01 11 02 21 03 04 31 41 05 12 51 61 71 06 [.....!..1A..Qaq.]
      6308: 22 81 13 32 07 42 91 14 23 52 62 a1 72 b1 c1 e1 ["..2.B..#Rb.r...]
      6318: f1 08 15 24 33 82 d1 f0 43 92 16 25 53 a2 b2 c2 [...$3...C..%S...]
      6328: 34 d2 26 63 e2 44 64                            [4.&c.Dd]
JPEG DHT (26 bytes):
      6333: 01 01 01 00 02 03 01 01 00 00 00 00 00 00 00 00 [................]
      6343: 00 00 01 02 05 03 04 06 07 08                   [..........]
JPEG DHT (57 bytes):
      6351: 11 01 00 02 02 01 03 03 04 01 03 02 04 05 04 02 [................]
      6361: 03 00 01 02 03 11 04 05 12 21 31 41 51 06 13 22 [.........!1AQ.."]
      6371: 61 71 14 23 32 42 81 24 33 52 b1 15 62 91 a1 c1 [aq.#2B.$3R..b...]
      6381: 07 25 34 d1 f0 72 43 53 82                      [.%4..rCS.]
JPEG SOS
JPEG EOI
