  ExifToolVersion = 13.59
  FileName = media_31.jpg
  Directory = C:/Users/micro/IdeaProjects/kim/src/commonTest/resources/de/stefan_oltmann/kim/testdata/full
  FileSize = 1773137
  FileModifyDate = 1776264339.10155
  FileAccessDate = 1786601298.62098
  FileCreateDate = 1776264339.09755
  FilePermissions = 33206
  FileType = JPEG
  FileTypeExtension = JPG
  MIMEType = image/jpeg
JPEG APP1 (18036 bytes):
      0006: 45 78 69 66 00 00 49 49 2a 00 08 00 00 00 0c 00 [Exif..II*.......]
      0016: 0f 01 02 00 06 00 00 00 9e 00 00 00 10 01 02 00 [................]
      0026: 0e 00 00 00 a4 00 00 00 12 01 03 00 01 00 00 00 [................]
      0036: 01 00 00 00 1a 01 05 00 01 00 00 00 b2 00 00 00 [................]
      0046: 1b 01 05 00 01 00 00 00 ba 00 00 00 28 01 03 00 [............(...]
      0056: 01 00 00 00 02 00 00 00 32 01 02 00 14 00 00 00 [........2.......]
      0066: c2 00 00 00 3b 01 02 00 01 00 00 00 00 00 00 00 [....;...........]
      [snip 17924 bytes]
  ExifByteOrder = II
  + [IFD0 directory with 12 entries, Little-endian]
  | 0)  Make = Canon
  |     - Tag 0x010f (6 bytes, string[6]):
  |         00aa: 43 61 6e 6f 6e 00                               [Canon.]
  | 1)  Model = Canon EOS 70D
  |     - Tag 0x0110 (14 bytes, string[14]):
  |         00b0: 43 61 6e 6f 6e 20 45 4f 53 20 37 30 44 00       [Canon EOS 70D.]
  | 2)  Orientation = 1
  |     - Tag 0x0112 (2 bytes, int16u[1]):
  |         0036: 01 00                                           [..]
  | 3)  XResolution = 72 (72/1)
  |     - Tag 0x011a (8 bytes, rational64u[1]):
  |         00be: 48 00 00 00 01 00 00 00                         [H.......]
  | 4)  YResolution = 72 (72/1)
  |     - Tag 0x011b (8 bytes, rational64u[1]):
  |         00c6: 48 00 00 00 01 00 00 00                         [H.......]
  | 5)  ResolutionUnit = 2
  |     - Tag 0x0128 (2 bytes, int16u[1]):
  |         005a: 02 00                                           [..]
  | 6)  ModifyDate = 2015:10:11 14:41:44
  |     - Tag 0x0132 (20 bytes, string[20]):
  |         00ce: 32 30 31 35 3a 31 30 3a 31 31 20 31 34 3a 34 31 [2015:10:11 14:41]
  |         00de: 3a 34 34 00                                     [:44.]
  | 7)  Artist = 
  |     - Tag 0x013b (1 bytes, string[1]):
  |         0072: 00                                              [.]
  | 8)  YCbCrPositioning = 2
  |     - Tag 0x0213 (2 bytes, int16u[1]):
  |         007e: 02 00                                           [..]
  | 9)  Copyright = 
  |     - Tag 0x8298 (1 bytes, string[1] read as undef[1]):
  |         008a: 00                                              [.]
  | 10) ExifOffset (SubDirectory) -->
  |     - Tag 0x8769 (4 bytes, int32u[1]):
  |         0096: d6 00 00 00                                     [....]
  | + [ExifIFD directory with 38 entries, Little-endian]
  | | 0)  ExposureTime = 0.01666666667 (1/60)
  | |     - Tag 0x829a (8 bytes, rational64u[1]):
  | |         02b0: 01 00 00 00 3c 00 00 00                         [....<...]
  | | 1)  FNumber = 3.2 (32/10)
  | |     - Tag 0x829d (8 bytes, rational64u[1]):
  | |         02b8: 20 00 00 00 0a 00 00 00                         [ .......]
  | | 2)  ExposureProgram = 2
  | |     - Tag 0x8822 (2 bytes, int16u[1]):
  | |         0104: 02 00                                           [..]
  | | 3)  ISO = 400
  | |     - Tag 0x8827 (2 bytes, int16u[1]):
  | |         0110: 90 01                                           [..]
  | | 4)  SensitivityType = 2
  | |     - Tag 0x8830 (2 bytes, int16u[1]):
  | |         011c: 02 00                                           [..]
  | | 5)  RecommendedExposureIndex = 400
  | |     - Tag 0x8832 (4 bytes, int32u[1]):
  | |         0128: 90 01 00 00                                     [....]
  | | 6)  ExifVersion = 0230
  | |     - Tag 0x9000 (4 bytes, undef[4]):
  | |         0134: 30 32 33 30                                     [0230]
  | | 7)  DateTimeOriginal = 2015:10:11 14:41:44
  | |     - Tag 0x9003 (20 bytes, string[20]):
  | |         02c0: 32 30 31 35 3a 31 30 3a 31 31 20 31 34 3a 34 31 [2015:10:11 14:41]
  | |         02d0: 3a 34 34 00                                     [:44.]
  | | 8)  CreateDate = 2015:10:11 14:41:44
  | |     - Tag 0x9004 (20 bytes, string[20]):
  | |         02d4: 32 30 31 35 3a 31 30 3a 31 31 20 31 34 3a 34 31 [2015:10:11 14:41]
  | |         02e4: 3a 34 34 00                                     [:44.]
  | | 9)  ComponentsConfiguration = 1 2 3 0
  | |     - Tag 0x9101 (4 bytes, undef[4] read as int8u[4]):
  | |         0158: 01 02 03 00                                     [....]
  | | 10) ShutterSpeedValue = 6 (393216/65536)
  | |     - Tag 0x9201 (8 bytes, rational64s[1]):
  | |         02e8: 00 00 06 00 00 00 01 00                         [........]
  | | 11) ApertureValue = 3.375 (221184/65536)
  | |     - Tag 0x9202 (8 bytes, rational64u[1]):
  | |         02f0: 00 60 03 00 00 00 01 00                         [.`......]
  | | 12) ExposureCompensation = 0 (0/1)
  | |     - Tag 0x9204 (8 bytes, rational64s[1]):
  | |         02f8: 00 00 00 00 01 00 00 00                         [........]
  | | 13) MeteringMode = 5
  | |     - Tag 0x9207 (2 bytes, int16u[1]):
  | |         0188: 05 00                                           [..]
  | | 14) Flash = 16
  | |     - Tag 0x9209 (2 bytes, int16u[1]):
  | |         0194: 10 00                                           [..]
  | | 15) FocalLength = 50 (50/1)
  | |     - Tag 0x920a (8 bytes, rational64u[1]):
  | |         0300: 32 00 00 00 01 00 00 00                         [2.......]
  | | 16) MakerNoteCanon (SubDirectory) -->
  | |     - Tag 0x927c (8200 bytes, undef[8200]):
  | |         0308: 29 00 01 00 03 00 31 00 00 00 ee 04 00 00 02 00 [).....1.........]
  | |         0318: 03 00 04 00 00 00 50 05 00 00 03 00 03 00 04 00 [......P.........]
  | |         0328: 00 00 58 05 00 00 04 00 03 00 22 00 00 00 60 05 [..X......."...`.]
  | |         0338: 00 00 06 00 02 00 0e 00 00 00 a4 05 00 00 07 00 [................]
  | |         0348: 02 00 18 00 00 00 b2 05 00 00 09 00 02 00 20 00 [.............. .]
  | |         0358: 00 00 ca 05 00 00 0d 00 07 00 00 06 00 00 ea 05 [................]
  | |         0368: 00 00 10 00 04 00 01 00 00 00 25 03 00 80 13 00 [..........%.....]
  | |         0378: 03 00 04 00 00 00 ea 0b 00 00 19 00 03 00 01 00 [................]
  | |         0388: 00 00 01 00 00 00 26 00 03 00 8b 00 00 00 f2 0b [......&.........]
  | |         0398: 00 00 35 00 04 00 04 00 00 00 08 0d 00 00 93 00 [..5.............]
  | |         03a8: 03 00 20 00 00 00 18 0d 00 00 95 00 02 00 4a 00 [.. ...........J.]
  | |         03b8: 00 00 58 0d 00 00 96 00 02 00 10 00 00 00 a2 0d [..X.............]
  | |         03c8: 00 00 97 00 07 00 00 04 00 00 b2 0d 00 00 98 00 [................]
  | |         03d8: 03 00 04 00 00 00 b2 11 00 00 99 00 04 00 74 00 [..............t.]
  | |         03e8: 00 00 ba 11 00 00 9a 00 04 00 05 00 00 00 8a 13 [................]
  | |         03f8: 00 00 a0 00 03 00 0e 00 00 00 9e 13 00 00 aa 00 [................]
  | |         0408: 03 00 06 00 00 00 ba 13 00 00 b4 00 03 00 01 00 [................]
  | |         0418: 00 00 01 00 00 00 d0 00 04 00 01 00 00 00 00 00 [................]
  | |         0428: 00 00 e0 00 03 00 11 00 00 00 c6 13 00 00 01 40 [...............@]
  | |         0438: 03 00 21 05 00 00 e8 13 00 00 08 40 03 00 03 00 [..!........@....]
  | |         0448: 00 00 2a 1e 00 00 09 40 03 00 03 00 00 00 30 1e [..*....@......0.]
  | |         0458: 00 00 10 40 02 00 20 00 00 00 36 1e 00 00 11 40 [...@.. ...6....@]
  | |         0468: 07 00 fc 00 00 00 56 1e 00 00 12 40 02 00 20 00 [......V....@.. .]
  | |         0478: 00 00 52 1f 00 00 13 40 04 00 0b 00 00 00 72 1f [..R....@......r.]
  | |         0488: 00 00 15 40 07 00 c8 01 00 00 9e 1f 00 00 16 40 [...@...........@]
  | |         0498: 04 00 07 00 00 00 66 21 00 00 18 40 04 00 07 00 [......f!...@....]
  | |         04a8: 00 00 82 21 00 00 19 40 07 00 1e 00 00 00 9e 21 [...!...@.......!]
  | |         04b8: 00 00 20 40 04 00 07 00 00 00 bc 21 00 00 21 40 [.. @.......!..!@]
  | |         04c8: 04 00 05 00 00 00 d8 21 00 00 24 40 04 00 35 00 [.......!..$@..5.]
  | |         04d8: 00 00 ec 21 00 00 25 40 04 00 09 00 00 00 c0 22 [...!..%@......."]
  | |         04e8: 00 00 27 40 04 00 06 00 00 00 e4 22 00 00 00 00 [..'@......."....]
  | |         04f8: 00 00 62 00 02 00 00 00 03 00 00 00 00 00 00 00 [..b.............]
  | |         0508: 02 00 00 00 01 00 00 00 3b 00 00 00 00 00 00 00 [........;.......]
  | |         0518: ff 7f 0f 00 03 00 02 00 00 00 00 00 ff ff 3c 10 [..............<.]
  | |         0528: 32 00 32 00 01 00 38 00 20 01 00 00 00 00 00 00 [2.2...8. .......]
  | |         0538: 00 00 ff ff ff ff ff ff 00 00 00 00 00 00 00 00 [................]
  | |         0548: ff ff ff ff 00 00 00 00 ff 7f ff ff ff ff ff ff [................]
  | |         0558: 00 00 ff ff 00 00 32 00 16 0b 24 5a 00 00 00 00 [......2...$Z....]
  | |         0568: 00 00 00 00 44 00 00 00 e0 00 48 00 6c 00 c0 00 [....D.....H.l...]
  | |         0578: 00 00 00 00 03 00 00 00 08 00 08 00 95 00 00 00 [................]
  | |         0588: 00 00 00 00 00 00 00 00 01 00 00 00 00 00 68 00 [..............h.]
  | |         0598: c0 00 64 00 00 00 00 00 f8 00 ff ff ff ff ff ff [..d.............]
  | |         05a8: ff ff 00 00 00 00 00 00 43 61 6e 6f 6e 20 45 4f [........Canon EO]
  | |         05b8: 53 20 37 30 44 00 46 69 72 6d 77 61 72 65 20 56 [S 70D.Firmware V]
  | |         05c8: 65 72 73 69 6f 6e 20 31 2e 31 2e 31 00 00 00 00 [ersion 1.1.1....]
  | |         05d8: 00 00 00 00 00 00 00 00 00 00 00 00 00 00 00 00 [................]
  | |         05e8: 00 00 00 00 00 00 00 00 00 00 00 00 00 00 aa aa [................]
  | |         05f8: 68 22 68 23 58 00 01 2d 01 3e 00 03 00 00 00 00 [h"h#X..-.>......]
  | |         0608: 00 00 01 00 00 06 00 00 00 95 92 00 a6 00 af 00 [................]
  | |         0618: a9 00 32 00 00 20 00 00 00 00 00 02 03 00 00 00 [..2.. ..........]
  | |         0628: 00 00 4a 00 32 00 73 01 bb bb fa 50 00 24 40 90 [..J.2.s....P.$@.]
  | |         0638: 00 00 00 00 00 00 00 00 00 00 00 00 00 00 00 00 [................]
  | |         0648: ff 88 00 00 00 00 40 ff 00 6e 00 46 00 30 00 00 [......@..n.F.0..]
  | |         0658: 00 00 00 00 00 00 00 00 00 00 00 00 b4 8d b7 94 [................]
  | |         0668: 6e 00 00 00 00 00 00 00 00 00 01 01 00 00 00 00 [n...............]
  | |         0678: 02 01 00 00 00 00 00 00 00 00 00 00 00 00 00 00 [................]
  | |         0688: 00 00 57 00 49 04 00 00 00 00 00 00 00 00 ff ff [..W.I...........]
  | |         0698: ff ff 0c cc cc 16 00 00 00 03 00 00 00 00 00 00 [................]
  | |         06a8: 00 00 00 00 00 00 00 00 00 00 ff 01 00 00 00 4a [...............J]
  | |         06b8: 00 00 00 00 00 50 14 00 00 00 00 00 00 00 00 00 [.....P..........]
  | |         06c8: 00 01 00 00 00 01 00 00 00 01 00 00 00 03 00 00 [................]
  | |         06d8: 00 03 00 00 00 03 00 00 00 00 00 00 00 01 00 00 [................]
  | |         06e8: 00 00 00 00 00 01 00 00 00 87 00 00 00 01 00 00 [................]
  | |         06f8: 00 01 00 00 00 01 00 00 00 07 00 00 00 00 00 00 [................]
  | |         0708: 03 05 03 55 55 00 00 00 00 0e 00 00 00 00 00 00 [...UU...........]
  | |         0718: 00 00 00 00 00 00 00 03 07 07 11 0d 00 00 00 00 [................]
  | |         0728: 00 00 00 00 00 00 00 00 00 00 00 55 55 05 00 00 [...........UU...]
  | |         0738: 03 00 14 04 00 00 00 00 00 00 00 00 00 00 00 00 [................]
  | |         0748: 00 00 00 00 00 00 03 02 02 00 00 00 00 00 00 00 [................]
  | |         0758: 00 01 16 50 10 3c 00 32 00 32 81 67 92 7f 00 ff [...P.<.2.2.g....]
  | |         0768: 00 00 00 00 00 00 00 21 4e 1c 01 00 03 07 16 00 [.......!N.......]
  | |         0778: 27 02 00 00 00 00 00 00 00 00 00 00 00 00 00 00 ['...............]
  | |         0788: 00 00 00 00 00 00 00 00 00 00 00 00 00 02 00 00 [................]
  | |         0798: 00 60 15 00 00 40 0e 00 00 9c 09 00 00 b0 05 00 [.`...@..........]
  | |         07a8: 00 28 02 00 00 e0 02 00 00 d0 02 00 00 e0 01 00 [.(..............]
  | |         07b8: 00 00 00 00 00 00 00 00 00 d0 02 00 00 e0 01 00 [................]
  | |         07c8: 00 d0 02 00 00 e0 01 00 00 00 00 00 00 00 00 00 [................]
  | |         07d8: 00 d0 02 00 00 e0 01 00 00 00 00 00 00 00 00 00 [................]
  | |         07e8: 00 01 00 00 00 00 00 00 00 00 00 00 00 00 00 00 [................]
  | |         07f8: 00 06 00 00 00 00 00 00 00 00 00 00 00 ff ff ff [................]
  | |         0808: 7f ff ff ff 7f 00 00 00 00 00 00 00 00 00 02 00 [................]
  | |         0818: 00 00 00 00 00 00 00 00 00 0a 02 00 01 00 01 00 [................]
  | |         0828: 00 00 02 00 00 00 00 00 00 00 00 00 00 01 00 00 [................]
  | |         0838: 00 00 00 00 00 00 00 00 00 00 00 00 00 00 00 00 [................]
  | |         0848: 01 00 00 00 00 00 00 00 00 01 01 00 31 2e 31 2e [............1.1.]
  | |         0858: 31 00 42 31 28 33 32 29 00 00 00 00 05 00 00 00 [1.B1(32)........]
  | |         0868: 00 00 00 00 a4 cd 59 00 00 00 00 00 00 00 03 80 [......Y.........]
  | |         0878: 00 00 00 00 00 00 00 00 00 00 00 00 00 00 00 00 [................]
  | |         0888: 00 00 00 00 00 00 00 00 00 00 00 00 00 00 00 00 [................]
  | |         0898: 00 8e 00 00 00 64 00 00 00 64 00 00 00 00 00 00 [.....d...d......]
  | |         08a8: 00 65 17 00 00 00 00 00 00 64 00 00 00 65 00 00 [.e.......d...e..]
  | |         08b8: 00 64 00 00 00 08 00 00 00 08 00 00 00 08 00 00 [.d..............]
  | |         08c8: 00 08 00 00 00 01 00 00 00 00 00 00 00 00 00 00 [................]
  | |         08d8: 00 00 00 00 00 00 00 00 00 00 00 00 00 00 00 00 [................]
  | |         08e8: 00 00 00 00 00 00 00 00 00 f4 01 00 04 00 04 74 [...............t]
  | |         08f8: 02 00 00 00 00 00 00 00 00 00 00 00 00 00 00 00 [................]
  | |         0908: 00 00 00 00 00 00 00 00 00 00 00 00 00 00 00 00 [................]
  | |         0918: 00 00 00 00 00 f4 01 00 04 00 04 74 02 00 00 00 [...........t....]
  | |         0928: 00 00 00 00 00 00 00 00 00 00 00 00 00 00 00 00 [................]
  | |         0938: 00 00 00 00 00 00 00 00 00 00 00 00 00 00 00 00 [................]
  | |         0948: 00 f4 01 00 04 00 04 74 02 00 00 00 00 00 00 00 [.......t........]
  | |         0958: 00 00 00 00 00 00 00 00 00 00 00 00 00 00 00 00 [................]
  | |         0968: 00 00 00 00 00 00 00 00 00 00 00 00 00 f4 01 00 [................]
  | |         0978: 04 00 04 74 02 00 00 00 00 00 00 00 00 00 00 00 [...t............]
  | |         0988: 00 00 00 00 00 00 00 00 00 00 00 00 00 00 00 00 [................]
  | |         0998: 00 00 00 00 00 00 00 00 00 f4 01 00 04 00 04 74 [...............t]
  | |         09a8: 02 00 00 00 00 00 00 00 00 01 00 00 00 00 00 00 [................]
  | |         09b8: 00 00 00 00 00 00 00 00 00 01 00 00 00 00 00 00 [................]
  | |         09c8: 00 03 00 00 00 00 00 00 00 00 00 00 00 ef be ad [................]
  | |         09d8: de ef be ad de 00 00 00 00 02 00 00 00 00 00 00 [................]
  | |         09e8: 00 00 00 00 00 ef be ad de ef be ad de 00 00 00 [................]
  | |         09f8: 00 04 00 00 00 00 00 00 00 00 00 00 00 ef be ad [................]
  | |         0a08: de ef be ad de 00 00 00 00 00 00 00 00 00 00 00 [................]
  | |         0a18: 00 00 00 00 00 ef be ad de ef be ad de 00 00 00 [................]
  | |         0a28: 00 00 00 00 00 00 00 00 00 00 00 00 00 ef be ad [................]
  | |         0a38: de ef be ad de 00 00 00 00 03 00 00 00 ef be ad [................]
  | |         0a48: de ef be ad de 00 00 00 00 00 00 00 00 00 00 00 [................]
  | |         0a58: 00 03 00 00 00 00 00 00 00 00 00 00 00 ef be ad [................]
  | |         0a68: de ef be ad de 00 00 00 00 03 00 00 00 00 00 00 [................]
  | |         0a78: 00 00 00 00 00 00 00 00 00 00 00 00 00 00 00 00 [................]
  | |         0a88: 00 03 00 00 00 00 00 00 00 00 00 00 00 00 00 00 [................]
  | |         0a98: 00 00 00 00 00 00 00 00 00 03 00 00 00 00 00 00 [................]
  | |         0aa8: 00 00 00 00 00 00 00 00 00 00 00 00 00 87 00 87 [................]
  | |         0ab8: 00 87 00 00 00 ff ff ff ff ff ff ff ff 00 00 00 [................]
  | |         0ac8: 00 00 00 00 00 00 00 00 00 00 00 00 00 00 00 00 [................]
  | |         0ad8: 00 00 00 00 00 00 00 00 00 00 00 00 00 00 04 00 [................]
  | |         0ae8: 04 00 04 00 04 00 00 00 00 00 00 00 00 00 00 00 [................]
  | |         [snip 6168 bytes]
  | | + [MakerNotes directory with 41 entries, Little-endian]
  | | | 0)  CanonCameraSettings (SubDirectory) -->
  | | |     - Tag 0x0001 (98 bytes, int16u[49] read as undef[98]):
  | | |         04fa: 62 00 02 00 00 00 03 00 00 00 00 00 00 00 02 00 [b...............]
  | | |         050a: 00 00 01 00 00 00 3b 00 00 00 00 00 00 00 ff 7f [......;.........]
  | | |         051a: 0f 00 03 00 02 00 00 00 00 00 ff ff 3c 10 32 00 [............<.2.]
  | | |         052a: 32 00 01 00 38 00 20 01 00 00 00 00 00 00 00 00 [2...8. .........]
  | | |         053a: ff ff ff ff ff ff 00 00 00 00 00 00 00 00 ff ff [................]
  | | |         054a: ff ff 00 00 00 00 ff 7f ff ff ff ff ff ff 00 00 [................]
  | | |         055a: ff ff                                           [..]
  | | | + [BinaryData directory, 98 bytes, Little-endian]
  | | | | MacroMode = 2
  | | | | - Tag 0x0001 (2 bytes, int16s[1]):
  | | | |     04fc: 02 00                                           [..]
  | | | | SelfTimer = 0
  | | | | - Tag 0x0002 (2 bytes, int16s[1]):
  | | | |     04fe: 00 00                                           [..]
  | | | | Quality = 3
  | | | | - Tag 0x0003 (2 bytes, int16s[1]):
  | | | |     0500: 03 00                                           [..]
  | | | | CanonFlashMode = 0
  | | | | - Tag 0x0004 (2 bytes, int16s[1]):
  | | | |     0502: 00 00                                           [..]
  | | | | ContinuousDrive = 0
  | | | | - Tag 0x0005 (2 bytes, int16s[1]):
  | | | |     0504: 00 00                                           [..]
  | | | | FocusMode = 2
  | | | | - Tag 0x0007 (2 bytes, int16s[1]):
  | | | |     0508: 02 00                                           [..]
  | | | | RecordMode = 1
  | | | | - Tag 0x0009 (2 bytes, int16s[1]):
  | | | |     050c: 01 00                                           [..]
  | | | | CanonImageSize = 0
  | | | | - Tag 0x000a (2 bytes, int16s[1]):
  | | | |     050e: 00 00                                           [..]
  | | | | EasyMode = 59
  | | | | - Tag 0x000b (2 bytes, int16s[1]):
  | | | |     0510: 3b 00                                           [;.]
  | | | | DigitalZoom = 0
  | | | | - Tag 0x000c (2 bytes, int16s[1]):
  | | | |     0512: 00 00                                           [..]
  | | | | Contrast = 0
  | | | | - Tag 0x000d (2 bytes, int16s[1]):
  | | | |     0514: 00 00                                           [..]
  | | | | Saturation = 0
  | | | | - Tag 0x000e (2 bytes, int16s[1]):
  | | | |     0516: 00 00                                           [..]
  | | | | Sharpness = 32767
  | | | | - Tag 0x000f (2 bytes, int16s[1]):
  | | | |     0518: ff 7f                                           [..]
  | | | | CameraISO = 15
  | | | | - Tag 0x0010 (2 bytes, int16s[1]):
  | | | |     051a: 0f 00                                           [..]
  | | | | MeteringMode = 3
  | | | | - Tag 0x0011 (2 bytes, int16s[1]):
  | | | |     051c: 03 00                                           [..]
  | | | | FocusRange = 2
  | | | | - Tag 0x0012 (2 bytes, int16s[1]):
  | | | |     051e: 02 00                                           [..]
  | | | | AFPoint = 0
  | | | | - Tag 0x0013 (2 bytes, int16s[1]):
  | | | |     0520: 00 00                                           [..]
  | | | | CanonExposureMode = 0
  | | | | - Tag 0x0014 (2 bytes, int16s[1]):
  | | | |     0522: 00 00                                           [..]
  | | | | LensType = 4156
  | | | | - Tag 0x0016 (2 bytes, int16u[1]):
  | | | |     0526: 3c 10                                           [<.]
  | | | | MaxFocalLength = 50
  | | | | - Tag 0x0017 (2 bytes, int16u[1]):
  | | | |     0528: 32 00                                           [2.]
  | | | | MinFocalLength = 50
  | | | | - Tag 0x0018 (2 bytes, int16u[1]):
  | | | |     052a: 32 00                                           [2.]
  | | | | FocalUnits = 1
  | | | | - Tag 0x0019 (2 bytes, int16s[1]):
  | | | |     052c: 01 00                                           [..]
  | | | | MaxAperture = 56
  | | | | - Tag 0x001a (2 bytes, int16s[1]):
  | | | |     052e: 38 00                                           [8.]
  | | | | MinAperture = 288
  | | | | - Tag 0x001b (2 bytes, int16s[1]):
  | | | |     0530: 20 01                                           [ .]
  | | | | FlashModel = 0
  | | | | - Tag 0x001c, mask 0x7f (2 bytes, int16s[1]):
  | | | |     0532: 00 00                                           [..]
  | | | | FlashBits = 0
  | | | | - Tag 0x001d (2 bytes, int16s[1]):
  | | | |     0534: 00 00                                           [..]
  | | | | FocusContinuous = -1
  | | | | - Tag 0x0020 (2 bytes, int16s[1]):
  | | | |     053a: ff ff                                           [..]
  | | | | AESetting = -1
  | | | | - Tag 0x0021 (2 bytes, int16s[1]):
  | | | |     053c: ff ff                                           [..]
  | | | | ImageStabilization = -1
  | | | | - Tag 0x0022 (2 bytes, int16s[1]):
  | | | |     053e: ff ff                                           [..]
  | | | | DisplayAperture = 0
  | | | | - Tag 0x0023 (2 bytes, int16s[1]):
  | | | |     0540: 00 00                                           [..]
  | | | | ZoomSourceWidth = 0
  | | | | - Tag 0x0024 (2 bytes, int16s[1]):
  | | | |     0542: 00 00                                           [..]
  | | | | ZoomTargetWidth = 0
  | | | | - Tag 0x0025 (2 bytes, int16s[1]):
  | | | |     0544: 00 00                                           [..]
  | | | | SpotMeteringMode = -1
  | | | | - Tag 0x0027 (2 bytes, int16s[1]):
  | | | |     0548: ff ff                                           [..]
  | | | | PhotoEffect = -1
  | | | | - Tag 0x0028 (2 bytes, int16s[1]):
  | | | |     054a: ff ff                                           [..]
  | | | | ManualFlashOutput = 0
  | | | | - Tag 0x0029 (2 bytes, int16s[1]):
  | | | |     054c: 00 00                                           [..]
  | | | | ColorTone = 0
  | | | | - Tag 0x002a (2 bytes, int16s[1]):
  | | | |     054e: 00 00                                           [..]
  | | | | SRAWQuality = -1
  | | | | - Tag 0x002e (2 bytes, int16s[1]):
  | | | |     0556: ff ff                                           [..]
  | | | 1)  CanonFocalLength (SubDirectory) -->
  | | |     - Tag 0x0002 (8 bytes, int16u[4] read as undef[8]):
  | | |         055c: 00 00 32 00 16 0b 24 5a                         [..2...$Z]
  | | | + [BinaryData directory, 8 bytes, Little-endian]
  | | | | FocalType = 0
  | | | | - Tag 0x0000 (2 bytes, int16u[1]):
  | | | |     055c: 00 00                                           [..]
  | | | | FocalLength = 50
  | | | | - Tag 0x0001 (2 bytes, int16u[1]):
  | | | |     055e: 32 00                                           [2.]
  | | | | FocalPlaneXUnknown = 2838
  | | | | - Tag 0x0002 (2 bytes, int16u[1]):
  | | | |     0560: 16 0b                                           [..]
  | | | | FocalPlaneYUnknown = 23076
  | | | | - Tag 0x0003 (2 bytes, int16u[1]):
  | | | |     0562: 24 5a                                           [$Z]
  | | | 2)  CanonFlashInfo = 0 0 0 0
  | | |     - Tag 0x0003 (8 bytes, int16u[4]):
  | | |         0564: 00 00 00 00 00 00 00 00                         [........]
  | | | 3)  CanonShotInfo (SubDirectory) -->
  | | |     - Tag 0x0004 (68 bytes, int16u[34] read as undef[68]):
  | | |         056c: 44 00 00 00 e0 00 48 00 6c 00 c0 00 00 00 00 00 [D.....H.l.......]
  | | |         057c: 03 00 00 00 08 00 08 00 95 00 00 00 00 00 00 00 [................]
  | | |         058c: 00 00 00 00 01 00 00 00 00 00 68 00 c0 00 64 00 [..........h...d.]
  | | |         059c: 00 00 00 00 f8 00 ff ff ff ff ff ff ff ff 00 00 [................]
  | | |         05ac: 00 00 00 00                                     [....]
  | | | + [BinaryData directory, 68 bytes, Little-endian]
  | | | | AutoISO = 0
  | | | | - Tag 0x0001 (2 bytes, int16s[1]):
  | | | |     056e: 00 00                                           [..]
  | | | | BaseISO = 224
  | | | | - Tag 0x0002 (2 bytes, int16s[1]):
  | | | |     0570: e0 00                                           [..]
  | | | | MeasuredEV = 72
  | | | | - Tag 0x0003 (2 bytes, int16s[1]):
  | | | |     0572: 48 00                                           [H.]
  | | | | TargetAperture = 108
  | | | | - Tag 0x0004 (2 bytes, int16s[1]):
  | | | |     0574: 6c 00                                           [l.]
  | | | | TargetExposureTime = 192
  | | | | - Tag 0x0005 (2 bytes, int16s[1]):
  | | | |     0576: c0 00                                           [..]
  | | | | ExposureCompensation = 0
  | | | | - Tag 0x0006 (2 bytes, int16s[1]):
  | | | |     0578: 00 00                                           [..]
  | | | | WhiteBalance = 0
  | | | | - Tag 0x0007 (2 bytes, int16s[1]):
  | | | |     057a: 00 00                                           [..]
  | | | | SlowShutter = 3
  | | | | - Tag 0x0008 (2 bytes, int16s[1]):
  | | | |     057c: 03 00                                           [..]
  | | | | SequenceNumber = 0
  | | | | - Tag 0x0009 (2 bytes, int16s[1]):
  | | | |     057e: 00 00                                           [..]
  | | | | OpticalZoomCode = 8
  | | | | - Tag 0x000a (2 bytes, int16s[1]):
  | | | |     0580: 08 00                                           [..]
  | | | | CameraTemperature = 149
  | | | | - Tag 0x000c (2 bytes, int16s[1]):
  | | | |     0584: 95 00                                           [..]
  | | | | FlashGuideNumber = 0
  | | | | - Tag 0x000d (2 bytes, int16s[1]):
  | | | |     0586: 00 00                                           [..]
  | | | | AFPointsInFocus = 0
  | | | | - Tag 0x000e (2 bytes, int16s[1]):
  | | | |     0588: 00 00                                           [..]
  | | | | FlashExposureComp = 0
  | | | | - Tag 0x000f (2 bytes, int16s[1]):
  | | | |     058a: 00 00                                           [..]
  | | | | AutoExposureBracketing = 0
  | | | | - Tag 0x0010 (2 bytes, int16s[1]):
  | | | |     058c: 00 00                                           [..]
  | | | | AEBBracketValue = 0
  | | | | - Tag 0x0011 (2 bytes, int16s[1]):
  | | | |     058e: 00 00                                           [..]
  | | | | ControlMode = 1
  | | | | - Tag 0x0012 (2 bytes, int16s[1]):
  | | | |     0590: 01 00                                           [..]
  | | | | FocusDistanceUpper = 0
  | | | | - Tag 0x0013 (2 bytes, int16u[1]):
  | | | |     0592: 00 00                                           [..]
  | | | | FNumber = 104
  | | | | - Tag 0x0015 (2 bytes, int16s[1]):
  | | | |     0596: 68 00                                           [h.]
  | | | | ExposureTime = 192
  | | | | - Tag 0x0016 (2 bytes, int16s[1]):
  | | | |     0598: c0 00                                           [..]
  | | | | MeasuredEV2 = 100
  | | | | - Tag 0x0017 (2 bytes, int16s[1]):
  | | | |     059a: 64 00                                           [d.]
  | | | | BulbDuration = 0
  | | | | - Tag 0x0018 (2 bytes, int16s[1]):
  | | | |     059c: 00 00                                           [..]
  | | | | CameraType = 248
  | | | | - Tag 0x001a (2 bytes, int16s[1]):
  | | | |     05a0: f8 00                                           [..]
  | | | | AutoRotate = -1
  | | | | - Tag 0x001b (2 bytes, int16s[1]):
  | | | |     05a2: ff ff                                           [..]
  | | | | NDFilter = -1
  | | | | - Tag 0x001c (2 bytes, int16s[1]):
  | | | |     05a4: ff ff                                           [..]
  | | | | SelfTimer2 = -1
  | | | | - Tag 0x001d (2 bytes, int16s[1]):
  | | | |     05a6: ff ff                                           [..]
  | | | | FlashOutput = 0
  | | | | - Tag 0x0021 (2 bytes, int16s[1]):
  | | | |     05ae: 00 00                                           [..]
  | | | 4)  CanonImageType = Canon EOS 70D
  | | |     - Tag 0x0006 (14 bytes, string[14]):
  | | |         05b0: 43 61 6e 6f 6e 20 45 4f 53 20 37 30 44 00       [Canon EOS 70D.]
  | | | 5)  CanonFirmwareVersion = Firmware Version 1.1.1
  | | |     - Tag 0x0007 (24 bytes, string[24]):
  | | |         05be: 46 69 72 6d 77 61 72 65 20 56 65 72 73 69 6f 6e [Firmware Version]
  | | |         05ce: 20 31 2e 31 2e 31 00 00                         [ 1.1.1..]
  | | | 6)  OwnerName = 
  | | |     - Tag 0x0009 (32 bytes, string[32]):
  | | |         05d6: 00 00 00 00 00 00 00 00 00 00 00 00 00 00 00 00 [................]
  | | |         05e6: 00 00 00 00 00 00 00 00 00 00 00 00 00 00 00 00 [................]
  | | | 7)  CanonCameraInfo70D (SubDirectory) -->
  | | |     - Tag 0x000d (1536 bytes, undef[1536]):
  | | |         05f6: aa aa 68 22 68 23 58 00 01 2d 01 3e 00 03 00 00 [..h"h#X..-.>....]
  | | |         0606: 00 00 00 00 01 00 00 06 00 00 00 95 92 00 a6 00 [................]
  | | |         0616: af 00 a9 00 32 00 00 20 00 00 00 00 00 02 03 00 [....2.. ........]
  | | |         0626: 00 00 00 00 4a 00 32 00 73 01 bb bb fa 50 00 24 [....J.2.s....P.$]
  | | |         0636: 40 90 00 00 00 00 00 00 00 00 00 00 00 00 00 00 [@...............]
  | | |         0646: 00 00 ff 88 00 00 00 00 40 ff 00 6e 00 46 00 30 [........@..n.F.0]
  | | |         0656: 00 00 00 00 00 00 00 00 00 00 00 00 00 00 b4 8d [................]
  | | |         0666: b7 94 6e 00 00 00 00 00 00 00 00 00 01 01 00 00 [..n.............]
  | | |         0676: 00 00 02 01 00 00 00 00 00 00 00 00 00 00 00 00 [................]
  | | |         0686: 00 00 00 00 57 00 49 04 00 00 00 00 00 00 00 00 [....W.I.........]
  | | |         0696: ff ff ff ff 0c cc cc 16 00 00 00 03 00 00 00 00 [................]
  | | |         06a6: 00 00 00 00 00 00 00 00 00 00 00 00 ff 01 00 00 [................]
  | | |         06b6: 00 4a 00 00 00 00 00 50 14 00 00 00 00 00 00 00 [.J.....P........]
  | | |         06c6: 00 00 00 01 00 00 00 01 00 00 00 01 00 00 00 03 [................]
  | | |         06d6: 00 00 00 03 00 00 00 03 00 00 00 00 00 00 00 01 [................]
  | | |         06e6: 00 00 00 00 00 00 00 01 00 00 00 87 00 00 00 01 [................]
  | | |         06f6: 00 00 00 01 00 00 00 01 00 00 00 07 00 00 00 00 [................]
  | | |         0706: 00 00 03 05 03 55 55 00 00 00 00 0e 00 00 00 00 [.....UU.........]
  | | |         0716: 00 00 00 00 00 00 00 00 00 03 07 07 11 0d 00 00 [................]
  | | |         0726: 00 00 00 00 00 00 00 00 00 00 00 00 00 55 55 05 [.............UU.]
  | | |         0736: 00 00 03 00 14 04 00 00 00 00 00 00 00 00 00 00 [................]
  | | |         0746: 00 00 00 00 00 00 00 00 03 02 02 00 00 00 00 00 [................]
  | | |         0756: 00 00 00 01 16 50 10 3c 00 32 00 32 81 67 92 7f [.....P.<.2.2.g..]
  | | |         0766: 00 ff 00 00 00 00 00 00 00 21 4e 1c 01 00 03 07 [.........!N.....]
  | | |         0776: 16 00 27 02 00 00 00 00 00 00 00 00 00 00 00 00 [..'.............]
  | | |         0786: 00 00 00 00 00 00 00 00 00 00 00 00 00 00 00 02 [................]
  | | |         0796: 00 00 00 60 15 00 00 40 0e 00 00 9c 09 00 00 b0 [...`...@........]
  | | |         07a6: 05 00 00 28 02 00 00 e0 02 00 00 d0 02 00 00 e0 [...(............]
  | | |         07b6: 01 00 00 00 00 00 00 00 00 00 00 d0 02 00 00 e0 [................]
  | | |         07c6: 01 00 00 d0 02 00 00 e0 01 00 00 00 00 00 00 00 [................]
  | | |         07d6: 00 00 00 d0 02 00 00 e0 01 00 00 00 00 00 00 00 [................]
  | | |         07e6: 00 00 00 01 00 00 00 00 00 00 00 00 00 00 00 00 [................]
  | | |         07f6: 00 00 00 06 00 00 00 00 00 00 00 00 00 00 00 ff [................]
  | | |         0806: ff ff 7f ff ff ff 7f 00 00 00 00 00 00 00 00 00 [................]
  | | |         0816: 02 00 00 00 00 00 00 00 00 00 00 0a 02 00 01 00 [................]
  | | |         0826: 01 00 00 00 02 00 00 00 00 00 00 00 00 00 00 01 [................]
  | | |         0836: 00 00 00 00 00 00 00 00 00 00 00 00 00 00 00 00 [................]
  | | |         0846: 00 00 01 00 00 00 00 00 00 00 00 01 01 00 31 2e [..............1.]
  | | |         0856: 31 2e 31 00 42 31 28 33 32 29 00 00 00 00 05 00 [1.1.B1(32)......]
  | | |         0866: 00 00 00 00 00 00 a4 cd 59 00 00 00 00 00 00 00 [........Y.......]
  | | |         0876: 03 80 00 00 00 00 00 00 00 00 00 00 00 00 00 00 [................]
  | | |         0886: 00 00 00 00 00 00 00 00 00 00 00 00 00 00 00 00 [................]
  | | |         0896: 00 00 00 8e 00 00 00 64 00 00 00 64 00 00 00 00 [.......d...d....]
  | | |         08a6: 00 00 00 65 17 00 00 00 00 00 00 64 00 00 00 65 [...e.......d...e]
  | | |         08b6: 00 00 00 64 00 00 00 08 00 00 00 08 00 00 00 08 [...d............]
  | | |         08c6: 00 00 00 08 00 00 00 01 00 00 00 00 00 00 00 00 [................]
  | | |         08d6: 00 00 00 00 00 00 00 00 00 00 00 00 00 00 00 00 [................]
  | | |         08e6: 00 00 00 00 00 00 00 00 00 00 00 f4 01 00 04 00 [................]
  | | |         08f6: 04 74 02 00 00 00 00 00 00 00 00 00 00 00 00 00 [.t..............]
  | | |         0906: 00 00 00 00 00 00 00 00 00 00 00 00 00 00 00 00 [................]
  | | |         0916: 00 00 00 00 00 00 00 f4 01 00 04 00 04 74 02 00 [.............t..]
  | | |         0926: 00 00 00 00 00 00 00 00 00 00 00 00 00 00 00 00 [................]
  | | |         0936: 00 00 00 00 00 00 00 00 00 00 00 00 00 00 00 00 [................]
  | | |         0946: 00 00 00 f4 01 00 04 00 04 74 02 00 00 00 00 00 [.........t......]
  | | |         0956: 00 00 00 00 00 00 00 00 00 00 00 00 00 00 00 00 [................]
  | | |         0966: 00 00 00 00 00 00 00 00 00 00 00 00 00 00 00 f4 [................]
  | | |         0976: 01 00 04 00 04 74 02 00 00 00 00 00 00 00 00 00 [.....t..........]
  | | |         0986: 00 00 00 00 00 00 00 00 00 00 00 00 00 00 00 00 [................]
  | | |         0996: 00 00 00 00 00 00 00 00 00 00 00 f4 01 00 04 00 [................]
  | | |         09a6: 04 74 02 00 00 00 00 00 00 00 00 01 00 00 00 00 [.t..............]
  | | |         09b6: 00 00 00 00 00 00 00 00 00 00 00 01 00 00 00 00 [................]
  | | |         09c6: 00 00 00 03 00 00 00 00 00 00 00 00 00 00 00 ef [................]
  | | |         09d6: be ad de ef be ad de 00 00 00 00 02 00 00 00 00 [................]
  | | |         09e6: 00 00 00 00 00 00 00 ef be ad de ef be ad de 00 [................]
  | | |         09f6: 00 00 00 04 00 00 00 00 00 00 00 00 00 00 00 ef [................]
  | | |         0a06: be ad de ef be ad de 00 00 00 00 00 00 00 00 00 [................]
  | | |         0a16: 00 00 00 00 00 00 00 ef be ad de ef be ad de 00 [................]
  | | |         0a26: 00 00 00 00 00 00 00 00 00 00 00 00 00 00 00 ef [................]
  | | |         0a36: be ad de ef be ad de 00 00 00 00 03 00 00 00 ef [................]
  | | |         0a46: be ad de ef be ad de 00 00 00 00 00 00 00 00 00 [................]
  | | |         0a56: 00 00 00 03 00 00 00 00 00 00 00 00 00 00 00 ef [................]
  | | |         0a66: be ad de ef be ad de 00 00 00 00 03 00 00 00 00 [................]
  | | |         0a76: 00 00 00 00 00 00 00 00 00 00 00 00 00 00 00 00 [................]
  | | |         0a86: 00 00 00 03 00 00 00 00 00 00 00 00 00 00 00 00 [................]
  | | |         0a96: 00 00 00 00 00 00 00 00 00 00 00 03 00 00 00 00 [................]
  | | |         0aa6: 00 00 00 00 00 00 00 00 00 00 00 00 00 00 00 87 [................]
  | | |         0ab6: 00 87 00 87 00 00 00 ff ff ff ff ff ff ff ff 00 [................]
  | | |         0ac6: 00 00 00 00 00 00 00 00 00 00 00 00 00 00 00 00 [................]
  | | |         0ad6: 00 00 00 00 00 00 00 00 00 00 00 00 00 00 00 00 [................]
  | | |         0ae6: 04 00 04 00 04 00 04 00 00 00 00 00 00 00 00 00 [................]
  | | |         0af6: 00 00 00 00 00 00 00 00 00 00 00 00 00 00 00 00 [................]
  | | |         0b06: 00 00 00 00 00 00 00 00 04 00 04 00 04 00 04 00 [................]
  | | |         0b16: 00 00 00 00 00 00 00 00 00 00 00 00 00 00 00 00 [................]
  | | |         0b26: 00 00 00 00 00 00 00 00 00 00 00 00 00 00 00 00 [................]
  | | |         0b36: 04 00 04 00 04 00 04 00 00 00 00 00 00 00 00 00 [................]
  | | |         0b46: 00 00 00 00 00 00 00 00 00 00 00 00 00 00 00 00 [................]
  | | |         0b56: 00 00 00 00 00 00 00 00 04 00 04 00 04 00 04 00 [................]
  | | |         0b66: 00 00 00 00 00 00 00 00 00 00 00 00 00 00 00 00 [................]
  | | |         0b76: 00 00 00 00 00 00 00 00 00 00 00 00 00 00 00 00 [................]
  | | |         0b86: 04 00 04 00 04 00 04 00 00 00 00 00 00 00 00 28 [...............(]
  | | |         0b96: 75 1a 56 02 00 00 00 04 00 00 00 00 00 00 00 04 [u.V.............]
  | | |         0ba6: 00 00 00 00 00 00 00 04 00 00 00 00 00 00 00 00 [................]
  | | |         0bb6: 00 00 10 00 00 00 00 00 00 00 00 00 00 00 00 00 [................]
  | | |         0bc6: 37 00 00 d8 3a 01 00 00 00 00 00 00 00 00 00 00 [7...:...........]
  | | |         0bd6: 00 00 00 03 00 00 00 53 00 00 00 58 00 03 80 00 [.......S...X....]
  | | |         0be6: 00 00 00 03 00 00 00 4d 00 00 00 4e 00 00 00 00 [.......M...N....]
  | | | + [BinaryData directory, 1536 bytes, Little-endian]
  | | | | FNumber = 34
  | | | | - Tag 0x0003 (1 bytes, int8u[1]):
  | | | |     05f9: 22                                              ["]
  | | | | ExposureTime = 104
  | | | | - Tag 0x0004 (1 bytes, int8u[1]):
  | | | |     05fa: 68                                              [h]
  | | | | ISO = 88
  | | | | - Tag 0x0006 (1 bytes, int8u[1]):
  | | | |     05fc: 58                                              [X]
  | | | | CameraTemperature = 149
  | | | | - Tag 0x001b (1 bytes, int8u[1]):
  | | | |     0611: 95                                              [.]
  | | | | FocalLength = 50
  | | | | - Tag 0x0023 (2 bytes, int16uRev[1]):
  | | | |     0619: 00 32                                           [.2]
  | | | | CameraOrientation = 0
  | | | | - Tag 0x0084 (1 bytes, int8u[1]):
  | | | |     067a: 00                                              [.]
  | | | | FocusDistanceUpper = 87
  | | | | - Tag 0x0093 (2 bytes, int16uRev[1]):
  | | | |     0689: 00 57                                           [.W]
  | | | | FocusDistanceLower = 73
  | | | | - Tag 0x0095 (2 bytes, int16uRev[1]):
  | | | |     068b: 00 49                                           [.I]
  | | | | ColorTemperature = 5200
  | | | | - Tag 0x00c7 (2 bytes, int16u[1]):
  | | | |     06bd: 50 14                                           [P.]
  | | | | LensType = 4156
  | | | | - Tag 0x0166 (2 bytes, int16uRev[1]):
  | | | |     075c: 10 3c                                           [.<]
  | | | | MinFocalLength = 50
  | | | | - Tag 0x0168 (2 bytes, int16uRev[1]):
  | | | |     075e: 00 32                                           [.2]
  | | | | MaxFocalLength = 50
  | | | | - Tag 0x016a (2 bytes, int16uRev[1]):
  | | | |     0760: 00 32                                           [.2]
  | | | | FirmwareVersion = 1.1.1
  | | | | - Tag 0x025e (6 bytes, string[6]):
  | | | |     0854: 31 2e 31 2e 31 00                               [1.1.1.]
  | | | | FileIndex = 5989
  | | | | - Tag 0x02b3 (4 bytes, int32u[1]):
  | | | |     08a9: 65 17 00 00                                     [e...]
  | | | | DirectoryIndex = 101
  | | | | - Tag 0x02bf (4 bytes, int32u[1]):
  | | | |     08b5: 65 00 00 00                                     [e...]
  | | | | PictureStyleInfo (SubDirectory) -->
  | | | | - Tag 0x03cf (561 bytes, int8u[1]):
  | | | |     09c5: 00 00 00 00 03 00 00 00 00 00 00 00 00 00 00 00 [................]
  | | | |     09d5: ef be ad de ef be ad de 00 00 00 00 02 00 00 00 [................]
  | | | |     09e5: 00 00 00 00 00 00 00 00 ef be ad de ef be ad de [................]
  | | | |     09f5: 00 00 00 00 04 00 00 00 00 00 00 00 00 00 00 00 [................]
  | | | |     0a05: ef be ad de ef be ad de 00 00 00 00 00 00 00 00 [................]
  | | | |     0a15: 00 00 00 00 00 00 00 00 ef be ad de ef be ad de [................]
  | | | |     0a25: 00 00 00 00 00 00 00 00 00 00 00 00 00 00 00 00 [................]
  | | | |     0a35: ef be ad de ef be ad de 00 00 00 00 03 00 00 00 [................]
  | | | |     0a45: ef be ad de ef be ad de 00 00 00 00 00 00 00 00 [................]
  | | | |     0a55: 00 00 00 00 03 00 00 00 00 00 00 00 00 00 00 00 [................]
  | | | |     0a65: ef be ad de ef be ad de 00 00 00 00 03 00 00 00 [................]
  | | | |     0a75: 00 00 00 00 00 00 00 00 00 00 00 00 00 00 00 00 [................]
  | | | |     0a85: 00 00 00 00 03 00 00 00 00 00 00 00 00 00 00 00 [................]
  | | | |     0a95: 00 00 00 00 00 00 00 00 00 00 00 00 03 00 00 00 [................]
  | | | |     0aa5: 00 00 00 00 00 00 00 00 00 00 00 00 00 00 00 00 [................]
  | | | |     0ab5: 87 00 87 00 87 00 00 00 ff ff ff ff ff ff ff ff [................]
  | | | |     0ac5: 00 00 00 00 00 00 00 00 00 00 00 00 00 00 00 00 [................]
  | | | |     0ad5: 00 00 00 00 00 00 00 00 00 00 00 00 00 00 00 00 [................]
  | | | |     0ae5: 00 04 00 04 00 04 00 04 00 00 00 00 00 00 00 00 [................]
  | | | |     0af5: 00 00 00 00 00 00 00 00 00 00 00 00 00 00 00 00 [................]
  | | | |     0b05: 00 00 00 00 00 00 00 00 00 04 00 04 00 04 00 04 [................]
  | | | |     0b15: 00 00 00 00 00 00 00 00 00 00 00 00 00 00 00 00 [................]
  | | | |     0b25: 00 00 00 00 00 00 00 00 00 00 00 00 00 00 00 00 [................]
  | | | |     0b35: 00 04 00 04 00 04 00 04 00 00 00 00 00 00 00 00 [................]
  | | | |     0b45: 00 00 00 00 00 00 00 00 00 00 00 00 00 00 00 00 [................]
  | | | |     0b55: 00 00 00 00 00 00 00 00 00 04 00 04 00 04 00 04 [................]
  | | | |     0b65: 00 00 00 00 00 00 00 00 00 00 00 00 00 00 00 00 [................]
  | | | |     0b75: 00 00 00 00 00 00 00 00 00 00 00 00 00 00 00 00 [................]
  | | | |     0b85: 00 04 00 04 00 04 00 04 00 00 00 00 00 00 00 00 [................]
  | | | |     0b95: 28 75 1a 56 02 00 00 00 04 00 00 00 00 00 00 00 [(u.V............]
  | | | |     0ba5: 04 00 00 00 00 00 00 00 04 00 00 00 00 00 00 00 [................]
  | | | |     0bb5: 00 00 00 10 00 00 00 00 00 00 00 00 00 00 00 00 [................]
  | | | |     0bc5: 00 37 00 00 d8 3a 01 00 00 00 00 00 00 00 00 00 [.7...:..........]
  | | | |     0bd5: 00 00 00 00 03 00 00 00 53 00 00 00 58 00 03 80 [........S...X...]
  | | | |     0be5: 00 00 00 00 03 00 00 00 4d 00 00 00 4e 00 00 00 [........M...N...]
  | | | |     0bf5: 00                                              [.]
  | | | | + [BinaryData directory, 561 bytes, Little-endian]
  | | | | | ContrastStandard = 0
  | | | | | - Tag 0x0000 (4 bytes, int32s[1]):
  | | | | |     09c5: 00 00 00 00                                     [....]
  | | | | | SharpnessStandard = 3
  | | | | | - Tag 0x0004 (4 bytes, int32s[1]):
  | | | | |     09c9: 03 00 00 00                                     [....]
  | | | | | SaturationStandard = 0
  | | | | | - Tag 0x0008 (4 bytes, int32s[1]):
  | | | | |     09cd: 00 00 00 00                                     [....]
  | | | | | ColorToneStandard = 0
  | | | | | - Tag 0x000c (4 bytes, int32s[1]):
  | | | | |     09d1: 00 00 00 00                                     [....]
  | | | | | FilterEffectStandard = -559038737
  | | | | | - Tag 0x0010 (4 bytes, int32s[1]):
  | | | | |     09d5: ef be ad de                                     [....]
  | | | | | ToningEffectStandard = -559038737
  | | | | | - Tag 0x0014 (4 bytes, int32s[1]):
  | | | | |     09d9: ef be ad de                                     [....]
  | | | | | ContrastPortrait = 0
  | | | | | - Tag 0x0018 (4 bytes, int32s[1]):
  | | | | |     09dd: 00 00 00 00                                     [....]
  | | | | | SharpnessPortrait = 2
  | | | | | - Tag 0x001c (4 bytes, int32s[1]):
  | | | | |     09e1: 02 00 00 00                                     [....]
  | | | | | SaturationPortrait = 0
  | | | | | - Tag 0x0020 (4 bytes, int32s[1]):
  | | | | |     09e5: 00 00 00 00                                     [....]
  | | | | | ColorTonePortrait = 0
  | | | | | - Tag 0x0024 (4 bytes, int32s[1]):
  | | | | |     09e9: 00 00 00 00                                     [....]
  | | | | | FilterEffectPortrait = -559038737
  | | | | | - Tag 0x0028 (4 bytes, int32s[1]):
  | | | | |     09ed: ef be ad de                                     [....]
  | | | | | ToningEffectPortrait = -559038737
  | | | | | - Tag 0x002c (4 bytes, int32s[1]):
  | | | | |     09f1: ef be ad de                                     [....]
  | | | | | ContrastLandscape = 0
  | | | | | - Tag 0x0030 (4 bytes, int32s[1]):
  | | | | |     09f5: 00 00 00 00                                     [....]
  | | | | | SharpnessLandscape = 4
  | | | | | - Tag 0x0034 (4 bytes, int32s[1]):
  | | | | |     09f9: 04 00 00 00                                     [....]
  | | | | | SaturationLandscape = 0
  | | | | | - Tag 0x0038 (4 bytes, int32s[1]):
  | | | | |     09fd: 00 00 00 00                                     [....]
  | | | | | ColorToneLandscape = 0
  | | | | | - Tag 0x003c (4 bytes, int32s[1]):
  | | | | |     0a01: 00 00 00 00                                     [....]
  | | | | | FilterEffectLandscape = -559038737
  | | | | | - Tag 0x0040 (4 bytes, int32s[1]):
  | | | | |     0a05: ef be ad de                                     [....]
  | | | | | ToningEffectLandscape = -559038737
  | | | | | - Tag 0x0044 (4 bytes, int32s[1]):
  | | | | |     0a09: ef be ad de                                     [....]
  | | | | | ContrastNeutral = 0
  | | | | | - Tag 0x0048 (4 bytes, int32s[1]):
  | | | | |     0a0d: 00 00 00 00                                     [....]
  | | | | | SharpnessNeutral = 0
  | | | | | - Tag 0x004c (4 bytes, int32s[1]):
  | | | | |     0a11: 00 00 00 00                                     [....]
  | | | | | SaturationNeutral = 0
  | | | | | - Tag 0x0050 (4 bytes, int32s[1]):
  | | | | |     0a15: 00 00 00 00                                     [....]
  | | | | | ColorToneNeutral = 0
  | | | | | - Tag 0x0054 (4 bytes, int32s[1]):
  | | | | |     0a19: 00 00 00 00                                     [....]
  | | | | | FilterEffectNeutral = -559038737
  | | | | | - Tag 0x0058 (4 bytes, int32s[1]):
  | | | | |     0a1d: ef be ad de                                     [....]
  | | | | | ToningEffectNeutral = -559038737
  | | | | | - Tag 0x005c (4 bytes, int32s[1]):
  | | | | |     0a21: ef be ad de                                     [....]
  | | | | | ContrastFaithful = 0
  | | | | | - Tag 0x0060 (4 bytes, int32s[1]):
  | | | | |     0a25: 00 00 00 00                                     [....]
  | | | | | SharpnessFaithful = 0
  | | | | | - Tag 0x0064 (4 bytes, int32s[1]):
  | | | | |     0a29: 00 00 00 00                                     [....]
  | | | | | SaturationFaithful = 0
  | | | | | - Tag 0x0068 (4 bytes, int32s[1]):
  | | | | |     0a2d: 00 00 00 00                                     [....]
  | | | | | ColorToneFaithful = 0
  | | | | | - Tag 0x006c (4 bytes, int32s[1]):
  | | | | |     0a31: 00 00 00 00                                     [....]
  | | | | | FilterEffectFaithful = -559038737
  | | | | | - Tag 0x0070 (4 bytes, int32s[1]):
  | | | | |     0a35: ef be ad de                                     [....]
  | | | | | ToningEffectFaithful = -559038737
  | | | | | - Tag 0x0074 (4 bytes, int32s[1]):
  | | | | |     0a39: ef be ad de                                     [....]
  | | | | | ContrastMonochrome = 0
  | | | | | - Tag 0x0078 (4 bytes, int32s[1]):
  | | | | |     0a3d: 00 00 00 00                                     [....]
  | | | | | SharpnessMonochrome = 3
  | | | | | - Tag 0x007c (4 bytes, int32s[1]):
  | | | | |     0a41: 03 00 00 00                                     [....]
  | | | | | SaturationMonochrome = -559038737
  | | | | | - Tag 0x0080 (4 bytes, int32s[1]):
  | | | | |     0a45: ef be ad de                                     [....]
  | | | | | ColorToneMonochrome = -559038737
  | | | | | - Tag 0x0084 (4 bytes, int32s[1]):
  | | | | |     0a49: ef be ad de                                     [....]
  | | | | | FilterEffectMonochrome = 0
  | | | | | - Tag 0x0088 (4 bytes, int32s[1]):
  | | | | |     0a4d: 00 00 00 00                                     [....]
  | | | | | ToningEffectMonochrome = 0
  | | | | | - Tag 0x008c (4 bytes, int32s[1]):
  | | | | |     0a51: 00 00 00 00                                     [....]
  | | | | | ContrastAuto = 0
  | | | | | - Tag 0x0090 (4 bytes, int32s[1]):
  | | | | |     0a55: 00 00 00 00                                     [....]
  | | | | | SharpnessAuto = 3
  | | | | | - Tag 0x0094 (4 bytes, int32s[1]):
  | | | | |     0a59: 03 00 00 00                                     [....]
  | | | | | SaturationAuto = 0
  | | | | | - Tag 0x0098 (4 bytes, int32s[1]):
  | | | | |     0a5d: 00 00 00 00                                     [....]
  | | | | | ColorToneAuto = 0
  | | | | | - Tag 0x009c (4 bytes, int32s[1]):
  | | | | |     0a61: 00 00 00 00                                     [....]
  | | | | | FilterEffectAuto = -559038737
  | | | | | - Tag 0x00a0 (4 bytes, int32s[1]):
  | | | | |     0a65: ef be ad de                                     [....]
  | | | | | ToningEffectAuto = -559038737
  | | | | | - Tag 0x00a4 (4 bytes, int32s[1]):
  | | | | |     0a69: ef be ad de                                     [....]
  | | | | | ContrastUserDef1 = 0
  | | | | | - Tag 0x00a8 (4 bytes, int32s[1]):
  | | | | |     0a6d: 00 00 00 00                                     [....]
  | | | | | SharpnessUserDef1 = 3
  | | | | | - Tag 0x00ac (4 bytes, int32s[1]):
  | | | | |     0a71: 03 00 00 00                                     [....]
  | | | | | SaturationUserDef1 = 0
  | | | | | - Tag 0x00b0 (4 bytes, int32s[1]):
  | | | | |     0a75: 00 00 00 00                                     [....]
  | | | | | ColorToneUserDef1 = 0
  | | | | | - Tag 0x00b4 (4 bytes, int32s[1]):
  | | | | |     0a79: 00 00 00 00                                     [....]
  | | | | | FilterEffectUserDef1 = 0
  | | | | | - Tag 0x00b8 (4 bytes, int32s[1]):
  | | | | |     0a7d: 00 00 00 00                                     [....]
  | | | | | ToningEffectUserDef1 = 0
  | | | | | - Tag 0x00bc (4 bytes, int32s[1]):
  | | | | |     0a81: 00 00 00 00                                     [....]
  | | | | | ContrastUserDef2 = 0
  | | | | | - Tag 0x00c0 (4 bytes, int32s[1]):
  | | | | |     0a85: 00 00 00 00                                     [....]
  | | | | | SharpnessUserDef2 = 3
  | | | | | - Tag 0x00c4 (4 bytes, int32s[1]):
  | | | | |     0a89: 03 00 00 00                                     [....]
  | | | | | SaturationUserDef2 = 0
  | | | | | - Tag 0x00c8 (4 bytes, int32s[1]):
  | | | | |     0a8d: 00 00 00 00                                     [....]
  | | | | | ColorToneUserDef2 = 0
  | | | | | - Tag 0x00cc (4 bytes, int32s[1]):
  | | | | |     0a91: 00 00 00 00                                     [....]
  | | | | | FilterEffectUserDef2 = 0
  | | | | | - Tag 0x00d0 (4 bytes, int32s[1]):
  | | | | |     0a95: 00 00 00 00                                     [....]
  | | | | | ToningEffectUserDef2 = 0
  | | | | | - Tag 0x00d4 (4 bytes, int32s[1]):
  | | | | |     0a99: 00 00 00 00                                     [....]
  | | | | | ContrastUserDef3 = 0
  | | | | | - Tag 0x00d8 (4 bytes, int32s[1]):
  | | | | |     0a9d: 00 00 00 00                                     [....]
  | | | | | SharpnessUserDef3 = 3
  | | | | | - Tag 0x00dc (4 bytes, int32s[1]):
  | | | | |     0aa1: 03 00 00 00                                     [....]
  | | | | | SaturationUserDef3 = 0
  | | | | | - Tag 0x00e0 (4 bytes, int32s[1]):
  | | | | |     0aa5: 00 00 00 00                                     [....]
  | | | | | ColorToneUserDef3 = 0
  | | | | | - Tag 0x00e4 (4 bytes, int32s[1]):
  | | | | |     0aa9: 00 00 00 00                                     [....]
  | | | | | FilterEffectUserDef3 = 0
  | | | | | - Tag 0x00e8 (4 bytes, int32s[1]):
  | | | | |     0aad: 00 00 00 00                                     [....]
  | | | | | ToningEffectUserDef3 = 0
  | | | | | - Tag 0x00ec (4 bytes, int32s[1]):
  | | | | |     0ab1: 00 00 00 00                                     [....]
  | | | | | UserDef1PictureStyle = 135
  | | | | | - Tag 0x00f0 (2 bytes, int16u[1]):
  | | | | |     0ab5: 87 00                                           [..]
  | | | | | UserDef2PictureStyle = 135
  | | | | | - Tag 0x00f2 (2 bytes, int16u[1]):
  | | | | |     0ab7: 87 00                                           [..]
  | | | | | UserDef3PictureStyle = 135
  | | | | | - Tag 0x00f4 (2 bytes, int16u[1]):
  | | | | |     0ab9: 87 00                                           [..]
  | | | 8)  CanonModelID = 2147484453
  | | |     - Tag 0x0010 (4 bytes, int32u[1]):
  | | |         0372: 25 03 00 80                                     [%...]
  | | | 9)  ThumbnailImageValidArea = 0 159 7 112
  | | |     - Tag 0x0013 (8 bytes, int16u[4]):
  | | |         0bf6: 00 00 9f 00 07 00 70 00                         [......p.]
  | | | 10) Canon_0x0019 = 1
  | | |     - Tag 0x0019 (2 bytes, int16u[1]):
  | | |         038a: 01 00                                           [..]
  | | | 11) CanonAFInfo2 (SubDirectory) -->
  | | |     - Tag 0x0026 (278 bytes, int16u[139] read as undef[278]):
  | | |         0bfe: 16 01 04 00 1f 00 13 00 60 15 40 0e 60 15 40 0e [........`.@.`.@.]
  | | |         0c0e: e5 00 e5 00 e5 00 e5 00 e5 00 e5 00 e5 00 e5 00 [................]
  | | |         0c1e: e5 00 e5 00 e5 00 e5 00 e5 00 e5 00 e5 00 e5 00 [................]
  | | |         0c2e: e5 00 e5 00 e5 00 00 00 00 00 00 00 00 00 00 00 [................]
  | | |         0c3e: 00 00 00 00 00 00 00 00 00 00 00 00 00 00 15 01 [................]
  | | |         0c4e: 15 01 15 01 15 01 15 01 15 01 15 01 15 01 15 01 [................]
  | | |         0c5e: 15 01 15 01 15 01 15 01 15 01 15 01 15 01 15 01 [................]
  | | |         0c6e: 15 01 15 01 00 00 00 00 00 00 00 00 00 00 00 00 [................]
  | | |         0c7e: 00 00 00 00 00 00 00 00 00 00 00 00 8d fa 7f fc [................]
  | | |         0c8e: 7f fc 7f fc 71 fe 71 fe 71 fe 00 00 00 00 00 00 [....q.q.q.......]
  | | |         0c9e: 00 00 00 00 8f 01 8f 01 8f 01 81 03 81 03 81 03 [................]
  | | |         0cae: 73 05 00 00 00 00 00 00 00 00 00 00 00 00 00 00 [s...............]
  | | |         0cbe: 00 00 00 00 00 00 00 00 00 00 00 00 91 01 00 00 [................]
  | | |         0cce: 6f fe 91 01 00 00 6f fe f3 02 91 01 00 00 6f fe [o.....o.......o.]
  | | |         0cde: 0d fd 91 01 00 00 6f fe 91 01 00 00 6f fe 00 00 [......o.....o...]
  | | |         0cee: 00 00 00 00 00 00 00 00 00 00 00 00 00 00 00 00 [................]
  | | |         0cfe: 00 00 00 00 00 00 00 00 00 00 04 00 ff ff 07 00 [................]
  | | |         0d0e: 00 00 00 00 ff ff                               [......]
  | | | + [SerialData directory, 278 bytes]
  | | | | 0)  AFInfoSize = 278
  | | | |     - Tag 0x0000 (2 bytes, int16u[1]):
  | | | |         0bfe: 16 01                                           [..]
  | | | | 1)  AFAreaMode = 4
  | | | |     - Tag 0x0001 (2 bytes, int16u[1]):
  | | | |         0c00: 04 00                                           [..]
  | | | | 2)  NumAFPoints = 31
  | | | |     - Tag 0x0002 (2 bytes, int16u[1]):
  | | | |         0c02: 1f 00                                           [..]
  | | | | 3)  ValidAFPoints = 19
  | | | |     - Tag 0x0003 (2 bytes, int16u[1]):
  | | | |         0c04: 13 00                                           [..]
  | | | | 4)  CanonImageWidth = 5472
  | | | |     - Tag 0x0004 (2 bytes, int16u[1]):
  | | | |         0c06: 60 15                                           [`.]
  | | | | 5)  CanonImageHeight = 3648
  | | | |     - Tag 0x0005 (2 bytes, int16u[1]):
  | | | |         0c08: 40 0e                                           [@.]
  | | | | 6)  AFImageWidth = 5472
  | | | |     - Tag 0x0006 (2 bytes, int16u[1]):
  | | | |         0c0a: 60 15                                           [`.]
  | | | | 7)  AFImageHeight = 3648
  | | | |     - Tag 0x0007 (2 bytes, int16u[1]):
  | | | |         0c0c: 40 0e                                           [@.]
  | | | | 8)  AFAreaWidths = 229 229 229 229 229 229 229 229 229 229 229 229 229 229 229 229 229 229 229 0 0 0 0 0 0 0 0 0 0 0 0
  | | | |     - Tag 0x0008 (62 bytes, int16s[31]):
  | | | |         0c0e: e5 00 e5 00 e5 00 e5 00 e5 00 e5 00 e5 00 e5 00 [................]
  | | | |         0c1e: e5 00 e5 00 e5 00 e5 00 e5 00 e5 00 e5 00 e5 00 [................]
  | | | |         0c2e: e5 00 e5 00 e5 00 00 00 00 00 00 00 00 00 00 00 [................]
  | | | |         0c3e: 00 00 00 00 00 00 00 00 00 00 00 00 00 00       [..............]
  | | | | 9)  AFAreaHeights = 277 277 277 277 277 277 277 277 277 277 277 277 277 277 277 277 277 277 277 0 0 0 0 0 0 0 0 0 0 0 0
  | | | |     - Tag 0x0009 (62 bytes, int16s[31]):
  | | | |         0c4c: 15 01 15 01 15 01 15 01 15 01 15 01 15 01 15 01 [................]
  | | | |         0c5c: 15 01 15 01 15 01 15 01 15 01 15 01 15 01 15 01 [................]
  | | | |         0c6c: 15 01 15 01 15 01 00 00 00 00 00 00 00 00 00 00 [................]
  | | | |         0c7c: 00 00 00 00 00 00 00 00 00 00 00 00 00 00       [..............]
  | | | | 10) AFAreaXPositions = -1395 -897 -897 -897 -399 -399 -399 0 0 0 0 0 399 399 399 897 897 897 1395 0 0 0 0 0 0 0 0 0 0 0 0
  | | | |     - Tag 0x000a (62 bytes, int16s[31]):
  | | | |         0c8a: 8d fa 7f fc 7f fc 7f fc 71 fe 71 fe 71 fe 00 00 [........q.q.q...]
  | | | |         0c9a: 00 00 00 00 00 00 00 00 8f 01 8f 01 8f 01 81 03 [................]
  | | | |         0caa: 81 03 81 03 73 05 00 00 00 00 00 00 00 00 00 00 [....s...........]
  | | | |         0cba: 00 00 00 00 00 00 00 00 00 00 00 00 00 00       [..............]
  | | | | 11) AFAreaYPositions = 0 401 0 -401 401 0 -401 755 401 0 -401 -755 401 0 -401 401 0 -401 0 0 0 0 0 0 0 0 0 0 0 0 0
  | | | |     - Tag 0x000b (62 bytes, int16s[31]):
  | | | |         0cc8: 00 00 91 01 00 00 6f fe 91 01 00 00 6f fe f3 02 [......o.....o...]
  | | | |         0cd8: 91 01 00 00 6f fe 0d fd 91 01 00 00 6f fe 91 01 [....o.......o...]
  | | | |         0ce8: 00 00 6f fe 00 00 00 00 00 00 00 00 00 00 00 00 [..o.............]
  | | | |         0cf8: 00 00 00 00 00 00 00 00 00 00 00 00 00 00       [..............]
  | | | | 12) AFPointsInFocus = 0 4
  | | | |     - Tag 0x000c (4 bytes, int16s[2]):
  | | | |         0d06: 00 00 04 00                                     [....]
  | | | | 13) AFPointsSelected = -1 7
  | | | |     - Tag 0x000d (4 bytes, int16s[2]):
  | | | |         0d0a: ff ff 07 00                                     [....]
  | | | 12) TimeInfo (SubDirectory) -->
  | | |     - Tag 0x0035 (16 bytes, int32u[4] read as undef[16]):
  | | |         0d14: 10 00 00 00 00 00 00 00 14 00 00 00 00 00 00 00 [................]
  | | | + [BinaryData directory, 16 bytes, Little-endian]
  | | | | TimeZone = 0
  | | | | - Tag 0x0001 (4 bytes, int32s[1]):
  | | | |     0d18: 00 00 00 00                                     [....]
  | | | | TimeZoneCity = 20
  | | | | - Tag 0x0002 (4 bytes, int32s[1]):
  | | | |     0d1c: 14 00 00 00                                     [....]
  | | | | DaylightSavings = 0
  | | | | - Tag 0x0003 (4 bytes, int32s[1]):
  | | | |     0d20: 00 00 00 00                                     [....]
  | | | 13) CanonFileInfo (SubDirectory) -->
  | | |     - Tag 0x0093 (64 bytes, int16u[32] read as undef[64]):
  | | |         0d24: 40 00 00 00 00 00 00 00 00 00 00 00 00 00 00 00 [@...............]
  | | |         0d34: ff ff 00 00 00 00 00 00 00 00 00 00 ff ff ff ff [................]
  | | |         0d44: a6 00 ff ff 00 00 00 00 57 00 49 00 00 00 00 00 [........W.I.....]
  | | |         0d54: 00 00 00 00 ff ff 00 00 00 00 00 00 ff ff ff ff [................]
  | | | + [BinaryData directory, 64 bytes, Little-endian]
  | | | | BracketMode = 0
  | | | | - Tag 0x0003 (2 bytes, int16s[1]):
  | | | |     0d2a: 00 00                                           [..]
  | | | | BracketValue = 0
  | | | | - Tag 0x0004 (2 bytes, int16s[1]):
  | | | |     0d2c: 00 00                                           [..]
  | | | | BracketShotNumber = 0
  | | | | - Tag 0x0005 (2 bytes, int16s[1]):
  | | | |     0d2e: 00 00                                           [..]
  | | | | RawJpgQuality = 0
  | | | | - Tag 0x0006 (2 bytes, int16s[1]):
  | | | |     0d30: 00 00                                           [..]
  | | | | RawJpgSize = 0
  | | | | - Tag 0x0007 (2 bytes, int16s[1]):
  | | | |     0d32: 00 00                                           [..]
  | | | | LongExposureNoiseReduction2 = -1
  | | | | - Tag 0x0008 (2 bytes, int16s[1]):
  | | | |     0d34: ff ff                                           [..]
  | | | | WBBracketMode = 0
  | | | | - Tag 0x0009 (2 bytes, int16s[1]):
  | | | |     0d36: 00 00                                           [..]
  | | | | WBBracketValueAB = 0
  | | | | - Tag 0x000c (2 bytes, int16s[1]):
  | | | |     0d3c: 00 00                                           [..]
  | | | | WBBracketValueGM = 0
  | | | | - Tag 0x000d (2 bytes, int16s[1]):
  | | | |     0d3e: 00 00                                           [..]
  | | | | FilterEffect = -1
  | | | | - Tag 0x000e (2 bytes, int16s[1]):
  | | | |     0d40: ff ff                                           [..]
  | | | | ToningEffect = -1
  | | | | - Tag 0x000f (2 bytes, int16s[1]):
  | | | |     0d42: ff ff                                           [..]
  | | | | LiveViewShooting = 0
  | | | | - Tag 0x0013 (2 bytes, int16s[1]):
  | | | |     0d4a: 00 00                                           [..]
  | | | | FocusDistanceUpper = 87
  | | | | - Tag 0x0014 (2 bytes, int16u[1]):
  | | | |     0d4c: 57 00                                           [W.]
  | | | | FocusDistanceLower = 73
  | | | | - Tag 0x0015 (2 bytes, int16u[1]):
  | | | |     0d4e: 49 00                                           [I.]
  | | | | ShutterMode = 0
  | | | | - Tag 0x0017 (2 bytes, int16s[1]):
  | | | |     0d52: 00 00                                           [..]
  | | | | FlashExposureLock = 0
  | | | | - Tag 0x0019 (2 bytes, int16s[1]):
  | | | |     0d56: 00 00                                           [..]
  | | | 14) LensModel = EF50mm f/1.8 STM
  | | |     - Tag 0x0095 (74 bytes, string[74]):
  | | |         0d64: 45 46 35 30 6d 6d 20 66 2f 31 2e 38 20 53 54 4d [EF50mm f/1.8 STM]
  | | |         0d74: 00 2d 35 2e 36 20 49 53 20 53 54 4d 00 00 00 00 [.-5.6 IS STM....]
  | | |         0d84: 00 00 00 00 00 00 00 00 00 00 00 00 00 00 00 00 [................]
  | | |         0d94: 00 00 00 00 00 00 00 00 00 00 00 00 00 00 00 00 [................]
  | | |         0da4: 00 00 00 00 00 00 55 55 64 17                   [......UUd.]
  | | | 15) InternalSerialNumber = FA0381304
  | | |     - Tag 0x0096 (16 bytes, string[16]):
  | | |         0dae: 46 41 30 33 38 31 33 30 34 00 00 00 00 00 00 00 [FA0381304.......]
  | | | 16) DustRemovalData = 
  | | |     - Tag 0x0097 (1024 bytes, undef[1024]):
  | | |         0dbe: 00 00 00 00 00 00 00 00 00 00 00 00 00 00 00 00 [................]
  | | |         0dce: 00 00 00 00 00 00 00 00 00 00 00 00 00 00 00 00 [................]
  | | |         0dde: 00 00 00 00 00 00 00 00 00 00 00 00 00 00 00 00 [................]
  | | |         0dee: 00 00 00 00 00 00 00 00 00 00 00 00 00 00 00 00 [................]
  | | |         0dfe: 00 00 00 00 00 00 00 00 00 00 00 00 00 00 00 00 [................]
  | | |         0e0e: 00 00 00 00 00 00 00 00 00 00 00 00 00 00 00 00 [................]
  | | |         0e1e: 00 00 00 00 00 00 00 00 00 00 00 00 00 00 00 00 [................]
  | | |         0e2e: 00 00 00 00 00 00 00 00 00 00 00 00 00 00 00 00 [................]
  | | |         0e3e: 00 00 00 00 00 00 00 00 00 00 00 00 00 00 00 00 [................]
  | | |         0e4e: 00 00 00 00 00 00 00 00 00 00 00 00 00 00 00 00 [................]
  | | |         0e5e: 00 00 00 00 00 00 00 00 00 00 00 00 00 00 00 00 [................]
  | | |         0e6e: 00 00 00 00 00 00 00 00 00 00 00 00 00 00 00 00 [................]
  | | |         0e7e: 00 00 00 00 00 00 00 00 00 00 00 00 00 00 00 00 [................]
  | | |         0e8e: 00 00 00 00 00 00 00 00 00 00 00 00 00 00 00 00 [................]
  | | |         0e9e: 00 00 00 00 00 00 00 00 00 00 00 00 00 00 00 00 [................]
  | | |         0eae: 00 00 00 00 00 00 00 00 00 00 00 00 00 00 00 00 [................]
  | | |         0ebe: 00 00 00 00 00 00 00 00 00 00 00 00 00 00 00 00 [................]
  | | |         0ece: 00 00 00 00 00 00 00 00 00 00 00 00 00 00 00 00 [................]
  | | |         0ede: 00 00 00 00 00 00 00 00 00 00 00 00 00 00 00 00 [................]
  | | |         0eee: 00 00 00 00 00 00 00 00 00 00 00 00 00 00 00 00 [................]
  | | |         0efe: 00 00 00 00 00 00 00 00 00 00 00 00 00 00 00 00 [................]
  | | |         0f0e: 00 00 00 00 00 00 00 00 00 00 00 00 00 00 00 00 [................]
  | | |         0f1e: 00 00 00 00 00 00 00 00 00 00 00 00 00 00 00 00 [................]
  | | |         0f2e: 00 00 00 00 00 00 00 00 00 00 00 00 00 00 00 00 [................]
  | | |         0f3e: 00 00 00 00 00 00 00 00 00 00 00 00 00 00 00 00 [................]
  | | |         0f4e: 00 00 00 00 00 00 00 00 00 00 00 00 00 00 00 00 [................]
  | | |         0f5e: 00 00 00 00 00 00 00 00 00 00 00 00 00 00 00 00 [................]
  | | |         0f6e: 00 00 00 00 00 00 00 00 00 00 00 00 00 00 00 00 [................]
  | | |         0f7e: 00 00 00 00 00 00 00 00 00 00 00 00 00 00 00 00 [................]
  | | |         0f8e: 00 00 00 00 00 00 00 00 00 00 00 00 00 00 00 00 [................]
  | | |         0f9e: 00 00 00 00 00 00 00 00 00 00 00 00 00 00 00 00 [................]
  | | |         0fae: 00 00 00 00 00 00 00 00 00 00 00 00 00 00 00 00 [................]
  | | |         0fbe: 00 00 00 00 00 00 00 00 00 00 00 00 00 00 00 00 [................]
  | | |         0fce: 00 00 00 00 00 00 00 00 00 00 00 00 00 00 00 00 [................]
  | | |         0fde: 00 00 00 00 00 00 00 00 00 00 00 00 00 00 00 00 [................]
  | | |         0fee: 00 00 00 00 00 00 00 00 00 00 00 00 00 00 00 00 [................]
  | | |         0ffe: 00 00 00 00 00 00 00 00 00 00 00 00 00 00 00 00 [................]
  | | |         100e: 00 00 00 00 00 00 00 00 00 00 00 00 00 00 00 00 [................]
  | | |         101e: 00 00 00 00 00 00 00 00 00 00 00 00 00 00 00 00 [................]
  | | |         102e: 00 00 00 00 00 00 00 00 00 00 00 00 00 00 00 00 [................]
  | | |         103e: 00 00 00 00 00 00 00 00 00 00 00 00 00 00 00 00 [................]
  | | |         104e: 00 00 00 00 00 00 00 00 00 00 00 00 00 00 00 00 [................]
  | | |         105e: 00 00 00 00 00 00 00 00 00 00 00 00 00 00 00 00 [................]
  | | |         106e: 00 00 00 00 00 00 00 00 00 00 00 00 00 00 00 00 [................]
  | | |         107e: 00 00 00 00 00 00 00 00 00 00 00 00 00 00 00 00 [................]
  | | |         108e: 00 00 00 00 00 00 00 00 00 00 00 00 00 00 00 00 [................]
  | | |         109e: 00 00 00 00 00 00 00 00 00 00 00 00 00 00 00 00 [................]
  | | |         10ae: 00 00 00 00 00 00 00 00 00 00 00 00 00 00 00 00 [................]
  | | |         10be: 00 00 00 00 00 00 00 00 00 00 00 00 00 00 00 00 [................]
  | | |         10ce: 00 00 00 00 00 00 00 00 00 00 00 00 00 00 00 00 [................]
  | | |         10de: 00 00 00 00 00 00 00 00 00 00 00 00 00 00 00 00 [................]
  | | |         10ee: 00 00 00 00 00 00 00 00 00 00 00 00 00 00 00 00 [................]
  | | |         10fe: 00 00 00 00 00 00 00 00 00 00 00 00 00 00 00 00 [................]
  | | |         110e: 00 00 00 00 00 00 00 00 00 00 00 00 00 00 00 00 [................]
  | | |         111e: 00 00 00 00 00 00 00 00 00 00 00 00 00 00 00 00 [................]
  | | |         112e: 00 00 00 00 00 00 00 00 00 00 00 00 00 00 00 00 [................]
  | | |         113e: 00 00 00 00 00 00 00 00 00 00 00 00 00 00 00 00 [................]
  | | |         114e: 00 00 00 00 00 00 00 00 00 00 00 00 00 00 00 00 [................]
  | | |         115e: 00 00 00 00 00 00 00 00 00 00 00 00 00 00 00 00 [................]
  | | |         116e: 00 00 00 00 00 00 00 00 00 00 00 00 00 00 00 00 [................]
  | | |         117e: 00 00 00 00 00 00 00 00 00 00 00 00 00 00 00 00 [................]
  | | |         118e: 00 00 00 00 00 00 00 00 00 00 00 00 00 00 00 00 [................]
  | | |         119e: 00 00 00 00 00 00 00 00 00 00 00 00 00 00 00 00 [................]
  | | |         11ae: 00 00 00 00 00 00 00 00 00 00 00 00 00 00 00 00 [................]
  | | | 17) CropInfo (SubDirectory) -->
  | | |     - Tag 0x0098 (8 bytes, int16u[4] read as undef[8]):
  | | |         11be: 00 00 00 00 00 00 00 00                         [........]
  | | | + [BinaryData directory, 8 bytes, Little-endian]
  | | | | CropLeftMargin = 0
  | | | | - Tag 0x0000 (2 bytes, int16u[1]):
  | | | |     11be: 00 00                                           [..]
  | | | | CropRightMargin = 0
  | | | | - Tag 0x0001 (2 bytes, int16u[1]):
  | | | |     11c0: 00 00                                           [..]
  | | | | CropTopMargin = 0
  | | | | - Tag 0x0002 (2 bytes, int16u[1]):
  | | | |     11c2: 00 00                                           [..]
  | | | | CropBottomMargin = 0
  | | | | - Tag 0x0003 (2 bytes, int16u[1]):
  | | | |     11c4: 00 00                                           [..]
  | | | 18) CustomFunctions2 (SubDirectory) -->
  | | |     - Tag 0x0099 (464 bytes, int32u[116] read as undef[464]):
  | | |         11c6: d0 01 00 00 03 00 00 00 01 00 00 00 54 00 00 00 [............T...]
  | | |         11d6: 06 00 00 00 01 01 00 00 01 00 00 00 00 00 00 00 [................]
  | | |         11e6: 02 01 00 00 01 00 00 00 00 00 00 00 04 01 00 00 [................]
  | | |         11f6: 01 00 00 00 00 00 00 00 05 01 00 00 01 00 00 00 [................]
  | | |         1206: 00 00 00 00 06 01 00 00 02 00 00 00 03 00 00 00 [................]
  | | |         1216: 00 00 00 00 08 01 00 00 01 00 00 00 00 00 00 00 [................]
  | | |         1226: 03 00 00 00 e4 00 00 00 0d 00 00 00 02 05 00 00 [................]
  | | |         1236: 01 00 00 00 00 00 00 00 18 05 00 00 01 00 00 00 [................]
  | | |         1246: 00 00 00 00 19 05 00 00 01 00 00 00 00 00 00 00 [................]
  | | |         1256: 1a 05 00 00 01 00 00 00 00 00 00 00 0e 05 00 00 [................]
  | | |         1266: 01 00 00 00 00 00 00 00 05 05 00 00 01 00 00 00 [................]
  | | |         1276: 00 00 00 00 12 05 00 00 02 00 00 00 00 00 00 00 [................]
  | | |         1286: 07 00 00 00 1b 05 00 00 01 00 00 00 00 00 00 00 [................]
  | | |         1296: 16 05 00 00 01 00 00 00 00 00 00 00 13 05 00 00 [................]
  | | |         12a6: 01 00 00 00 00 00 00 00 0c 05 00 00 01 00 00 00 [................]
  | | |         12b6: 00 00 00 00 10 05 00 00 01 00 00 00 00 00 00 00 [................]
  | | |         12c6: 07 05 00 00 10 00 00 00 00 00 00 00 00 00 00 00 [................]
  | | |         12d6: 00 00 00 00 00 00 00 00 00 00 00 00 00 00 00 00 [................]
  | | |         12e6: 00 00 00 00 00 00 00 00 00 00 00 00 00 00 00 00 [................]
  | | |         12f6: 00 00 00 00 00 00 00 00 00 00 00 00 00 00 00 00 [................]
  | | |         1306: 00 00 00 00 00 00 00 00 04 00 00 00 84 00 00 00 [................]
  | | |         1316: 04 00 00 00 06 07 00 00 01 00 00 00 00 00 00 00 [................]
  | | |         1326: 0f 07 00 00 02 00 00 00 00 00 00 00 02 00 00 00 [................]
  | | |         1336: 0a 04 00 00 01 00 00 00 03 00 00 00 0c 07 00 00 [................]
  | | |         1346: 13 00 00 00 00 00 00 00 00 00 00 00 00 00 00 00 [................]
  | | |         1356: 00 00 00 00 00 00 00 00 00 00 00 00 00 00 00 00 [................]
  | | |         1366: 00 00 00 00 00 00 00 00 00 00 00 00 00 00 00 00 [................]
  | | |         1376: 00 00 00 00 00 00 00 00 00 00 00 00 00 00 00 00 [................]
  | | |         1386: 00 00 00 00 00 00 00 00 00 00 00 00 00 00 00 00 [................]
  | | | + [CanonCustom2 directory with 3 entries, 464 bytes]
  | | | + [CanonCustom2 group 1 directory with 6 entries, 84 bytes]
  | | | | 0)  ExposureLevelIncrements = 0
  | | | |     - Tag 0x0101 (4 bytes, int32u[1])
  | | | | 1)  ISOSpeedIncrements = 0
  | | | |     - Tag 0x0102 (4 bytes, int32u[1])
  | | | | 2)  AEBAutoCancel = 0
  | | | |     - Tag 0x0104 (4 bytes, int32u[1])
  | | | | 3)  AEBSequence = 0
  | | | |     - Tag 0x0105 (4 bytes, int32u[1])
  | | | | 4)  AEBShotCount = 3 0
  | | | |     - Tag 0x0106 (8 bytes, int32u[2])
  | | | | 5)  SafetyShift = 0
  | | | |     - Tag 0x0108 (4 bytes, int32u[1])
  | | | + [CanonCustom2 group 3 directory with 13 entries, 228 bytes]
  | | | | 0)  AIServoTrackingSensitivity = 0
  | | | |     - Tag 0x0502 (4 bytes, int32u[1])
  | | | | 1)  AccelerationTracking = 0
  | | | |     - Tag 0x0518 (4 bytes, int32u[1])
  | | | | 2)  AIServoFirstImagePriority = 0
  | | | |     - Tag 0x0519 (4 bytes, int32u[1])
  | | | | 3)  AIServoSecondImagePriority = 0
  | | | |     - Tag 0x051a (4 bytes, int32u[1])
  | | | | 4)  AFAssistBeam = 0
  | | | |     - Tag 0x050e (4 bytes, int32u[1])
  | | | | 5)  LensDriveNoAF = 0
  | | | |     - Tag 0x0505 (4 bytes, int32u[1])
  | | | | 6)  SelectAFAreaSelectMode = 0 7
  | | | |     - Tag 0x0512 (8 bytes, int32u[2])
  | | | | 7)  AFAreaSelectMethod = 0
  | | | |     - Tag 0x051b (4 bytes, int32u[1])
  | | | | 8)  OrientationLinkedAFPoint = 0
  | | | |     - Tag 0x0516 (4 bytes, int32u[1])
  | | | | 9)  ManualAFPointSelectPattern = 0
  | | | |     - Tag 0x0513 (4 bytes, int32u[1])
  | | | | 10) AFPointDisplayDuringFocus = 0
  | | | |     - Tag 0x050c (4 bytes, int32u[1])
  | | | | 11) SuperimposedDisplay = 0
  | | | |     - Tag 0x0510 (4 bytes, int32u[1])
  | | | | 12) AFMicroadjustment = 0 0 0 0 0 0 0 0 0 0 0 0 0 0 0 0
  | | | |     - Tag 0x0507 (64 bytes, int32u[16])
  | | | + [CanonCustom2 group 4 directory with 4 entries, 132 bytes]
  | | | | 0)  DialDirectionTvAv = 0
  | | | |     - Tag 0x0706 (4 bytes, int32u[1])
  | | | | 1)  MultiFunctionLock = 0 2
  | | | |     - Tag 0x070f (8 bytes, int32u[2])
  | | | | 2)  ViewfinderWarnings = 3
  | | | |     - Tag 0x040a (4 bytes, int32u[1])
  | | | | 3)  CustomControls = 0 0 0 0 0 0 0 0 0 0 0 0 0 0 0 0 0 0 0
  | | | |     - Tag 0x070c (76 bytes, int32u[19])
  | | | 19) AspectInfo (SubDirectory) -->
  | | |     - Tag 0x009a (20 bytes, int32u[5] read as undef[20]):
  | | |         1396: 00 00 00 00 60 15 00 00 40 0e 00 00 00 00 00 00 [....`...@.......]
  | | |         13a6: 00 00 00 00                                     [....]
  | | | + [BinaryData directory, 20 bytes, Little-endian]
  | | | | AspectRatio = 0
  | | | | - Tag 0x0000 (4 bytes, int32u[1]):
  | | | |     1396: 00 00 00 00                                     [....]
  | | | | CroppedImageWidth = 5472
  | | | | - Tag 0x0001 (4 bytes, int32u[1]):
  | | | |     139a: 60 15 00 00                                     [`...]
  | | | | CroppedImageHeight = 3648
  | | | | - Tag 0x0002 (4 bytes, int32u[1]):
  | | | |     139e: 40 0e 00 00                                     [@...]
  | | | | CroppedImageLeft = 0
  | | | | - Tag 0x0003 (4 bytes, int32u[1]):
  | | | |     13a2: 00 00 00 00                                     [....]
  | | | | CroppedImageTop = 0
  | | | | - Tag 0x0004 (4 bytes, int32u[1]):
  | | | |     13a6: 00 00 00 00                                     [....]
  | | | 20) ProcessingInfo (SubDirectory) -->
  | | |     - Tag 0x00a0 (28 bytes, int16u[14] read as undef[28]):
  | | |         13aa: 1c 00 00 00 03 00 00 00 00 00 00 00 00 00 00 00 [................]
  | | |         13ba: ff ff 50 14 87 00 00 00 00 00 00 00             [..P.........]
  | | | + [BinaryData directory, 28 bytes, Little-endian]
  | | | | ToneCurve = 0
  | | | | - Tag 0x0001 (2 bytes, int16s[1]):
  | | | |     13ac: 00 00                                           [..]
  | | | | Sharpness = 3
  | | | | - Tag 0x0002 (2 bytes, int16s[1]):
  | | | |     13ae: 03 00                                           [..]
  | | | | SharpnessFrequency = 0
  | | | | - Tag 0x0003 (2 bytes, int16s[1]):
  | | | |     13b0: 00 00                                           [..]
  | | | | SensorRedLevel = 0
  | | | | - Tag 0x0004 (2 bytes, int16s[1]):
  | | | |     13b2: 00 00                                           [..]
  | | | | SensorBlueLevel = 0
  | | | | - Tag 0x0005 (2 bytes, int16s[1]):
  | | | |     13b4: 00 00                                           [..]
  | | | | WhiteBalanceRed = 0
  | | | | - Tag 0x0006 (2 bytes, int16s[1]):
  | | | |     13b6: 00 00                                           [..]
  | | | | WhiteBalanceBlue = 0
  | | | | - Tag 0x0007 (2 bytes, int16s[1]):
  | | | |     13b8: 00 00                                           [..]
  | | | | WhiteBalance = -1
  | | | | - Tag 0x0008 (2 bytes, int16s[1]):
  | | | |     13ba: ff ff                                           [..]
  | | | | ColorTemperature = 5200
  | | | | - Tag 0x0009 (2 bytes, int16s[1]):
  | | | |     13bc: 50 14                                           [P.]
  | | | | PictureStyle = 135
  | | | | - Tag 0x000a (2 bytes, int16s[1]):
  | | | |     13be: 87 00                                           [..]
  | | | | DigitalGain = 0
  | | | | - Tag 0x000b (2 bytes, int16s[1]):
  | | | |     13c0: 00 00                                           [..]
  | | | | WBShiftAB = 0
  | | | | - Tag 0x000c (2 bytes, int16s[1]):
  | | | |     13c2: 00 00                                           [..]
  | | | | WBShiftGM = 0
  | | | | - Tag 0x000d (2 bytes, int16s[1]):
  | | | |     13c4: 00 00                                           [..]
  | | | 21) MeasuredColor (SubDirectory) -->
  | | |     - Tag 0x00aa (12 bytes, int16u[6] read as undef[12]):
  | | |         13c6: 0c 00 53 02 00 04 00 04 03 02 00 00             [..S.........]
  | | | + [BinaryData directory, 12 bytes, Little-endian]
  | | | | MeasuredRGGB = 595 1024 1024 515
  | | | | - Tag 0x0001 (8 bytes, int16u[4]):
  | | | |     13c8: 53 02 00 04 00 04 03 02                         [S.......]
  | | | 22) ColorSpace = 1
  | | |     - Tag 0x00b4 (2 bytes, int16u[1]):
  | | |         041a: 01 00                                           [..]
  | | | 23) VRDOffset = 0
  | | |     - Tag 0x00d0 (4 bytes, int32u[1]):
  | | |         0426: 00 00 00 00                                     [....]
  | | | 24) SensorInfo (SubDirectory) -->
  | | |     - Tag 0x00e0 (34 bytes, int16u[17] read as undef[34]):
  | | |         13d2: 22 00 c0 15 7c 0e 01 00 01 00 54 00 32 00 b3 15 ["...|.....T.2...]
  | | |         13e2: 71 0e 00 00 00 00 00 00 00 00 00 00 00 00 00 00 [q...............]
  | | |         13f2: 00 00                                           [..]
  | | | + [BinaryData directory, 34 bytes, Little-endian]
  | | | | SensorWidth = 5568
  | | | | - Tag 0x0001 (2 bytes, int16s[1]):
  | | | |     13d4: c0 15                                           [..]
  | | | | SensorHeight = 3708
  | | | | - Tag 0x0002 (2 bytes, int16s[1]):
  | | | |     13d6: 7c 0e                                           [|.]
  | | | | SensorLeftBorder = 84
  | | | | - Tag 0x0005 (2 bytes, int16s[1]):
  | | | |     13dc: 54 00                                           [T.]
  | | | | SensorTopBorder = 50
  | | | | - Tag 0x0006 (2 bytes, int16s[1]):
  | | | |     13de: 32 00                                           [2.]
  | | | | SensorRightBorder = 5555
  | | | | - Tag 0x0007 (2 bytes, int16s[1]):
  | | | |     13e0: b3 15                                           [..]
  | | | | SensorBottomBorder = 3697
  | | | | - Tag 0x0008 (2 bytes, int16s[1]):
  | | | |     13e2: 71 0e                                           [q.]
  | | | | BlackMaskLeftBorder = 0
  | | | | - Tag 0x0009 (2 bytes, int16s[1]):
  | | | |     13e4: 00 00                                           [..]
  | | | | BlackMaskTopBorder = 0
  | | | | - Tag 0x000a (2 bytes, int16s[1]):
  | | | |     13e6: 00 00                                           [..]
  | | | | BlackMaskRightBorder = 0
  | | | | - Tag 0x000b (2 bytes, int16s[1]):
  | | | |     13e8: 00 00                                           [..]
  | | | | BlackMaskBottomBorder = 0
  | | | | - Tag 0x000c (2 bytes, int16s[1]):
  | | | |     13ea: 00 00                                           [..]
  | | | 25) ColorData7 (SubDirectory) -->
  | | |     - Tag 0x4001 (2626 bytes, int16u[1313] read as undef[2626]):
  | | |         13f4: 0a 00 1d 03 00 04 00 04 89 01 2e 02 00 04 00 04 [................]
  | | |         1404: 04 02 8f 01 00 04 00 04 aa 02 5d 07 78 09 75 09 [..........].x.u.]
  | | |         1414: 9f 03 04 07 e9 0c ec 0c 7d 06 63 03 ab 08 b2 08 [........}.c.....]
  | | |         1424: c5 05 ff ff 00 00 fd 00 fd 00 fd 00 00 00 6f 06 [..............o.]
  | | |         1434: 51 0d 46 0d a2 07 d9 02 e0 00 e6 00 26 00 77 00 [Q.F.........&.w.]
  | | |         1444: f3 02 f3 02 50 04 37 06 6d 0a 64 0a 32 02 c1 06 [....P.7.m.d.2...]
  | | |         1454: df 0d e4 0d cc 07 00 03 e8 00 e5 00 27 00 82 00 [............'...]
  | | |         1464: fe 02 07 03 4d 04 77 06 b4 0a b6 0a 30 02 c2 07 [....M.w.....0...]
  | | |         1474: 00 04 00 04 6c 07 9d 11 c2 07 00 04 00 04 6c 07 [....l.........l.]
  | | |         1484: 9d 11 c2 07 00 04 00 04 6c 07 9d 11 c2 07 00 04 [........l.......]
  | | |         1494: 00 04 6c 07 9d 11 00 04 00 04 00 04 00 04 0b 11 [..l.............]
  | | |         14a4: 00 04 00 04 00 04 00 04 0b 11 c2 07 00 04 00 04 [................]
  | | |         14b4: 6c 07 9d 11 c2 07 00 04 00 04 6c 07 9d 11 c2 07 [l.........l.....]
  | | |         14c4: 00 04 00 04 6c 07 9d 11 c6 07 00 04 00 04 6c 07 [....l.........l.]
  | | |         14d4: 9d 11 0d 07 00 04 00 04 b3 07 fc 0f 0b 07 04 04 [................]
  | | |         14e4: fb 03 b1 07 fc 0f 00 00 00 00 00 00 00 00 00 00 [................]
  | | |         14f4: 2d 08 00 04 00 04 88 06 50 14 76 09 00 04 00 04 [-.......P.v.....]
  | | |         1504: a2 05 58 1b ca 08 00 04 00 04 0d 06 70 17 c1 05 [..X.........p...]
  | | |         1514: 00 04 00 04 76 09 80 0c 20 07 00 04 00 04 f6 08 [....v... .......]
  | | |         1524: 95 0e 2d 08 00 04 00 04 88 06 44 14 06 09 00 04 [..-.......D.....]
  | | |         1534: 00 04 0b 06 1c 18 2d 08 00 04 00 04 88 06 44 14 [......-.......D.]
  | | |         1544: 2d 08 00 04 00 04 88 06 44 14 2d 08 00 04 00 04 [-.......D.-.....]
  | | |         1554: 88 06 44 14 2d 08 00 04 00 04 88 06 44 14 2d 08 [..D.-.......D.-.]
  | | |         1564: 00 04 00 04 88 06 44 14 e1 03 00 04 00 04 01 04 [......D.........]
  | | |         1574: 71 10 e1 03 00 04 00 04 01 04 71 10 e1 03 00 04 [q.........q.....]
  | | |         1584: 00 04 01 04 71 10 e1 03 00 04 00 04 01 04 71 10 [....q.........q.]
  | | |         1594: e1 03 00 04 00 04 01 04 71 10 e1 fe 7d 01 48 03 [........q...}.H.]
  | | |         15a4: 94 2a f4 fe 86 01 30 03 10 27 1c ff 9a 01 03 03 [.*....0..'......]
  | | |         15b4: 6c 20 45 ff b1 01 d7 02 58 1b 79 ff d2 01 a5 02 [l E.....X.y.....]
  | | |         15c4: 70 17 92 ff e2 01 8d 02 e0 15 ae ff f5 01 73 02 [p.............s.]
  | | |         15d4: 50 14 db ff 10 02 4a 02 5c 12 12 00 39 02 1e 02 [P.....J.\...9...]
  | | |         15e4: 68 10 46 00 63 02 f8 01 d8 0e 78 00 8f 02 d7 01 [h.F.c.....x.....]
  | | |         15f4: ac 0d b3 00 c8 02 b1 01 80 0c e2 00 f4 02 92 01 [................]
  | | |         1604: b8 0b 0f 01 29 03 7d 01 f0 0a 80 01 b8 03 48 01 [....).}.......H.]
  | | |         1614: 60 09 f4 01 10 08 1d 08 01 08 01 08 01 08 01 08 [`...............]
  | | |         1624: 00 00 00 00 00 00 00 00 00 00 00 00 00 00 00 00 [................]
  | | |         1634: 00 00 00 00 00 00 00 00 00 00 00 00 00 00 00 00 [................]
  | | |         1644: 00 00 00 00 00 00 00 00 00 00 00 00 00 00 00 00 [................]
  | | |         1654: 00 00 00 00 00 00 00 00 00 00 00 00 00 00 00 00 [................]
  | | |         1664: 00 00 00 00 00 00 00 00 00 00 00 00 00 00 00 00 [................]
  | | |         1674: 00 00 00 00 00 00 00 00 00 00 00 00 00 00 00 00 [................]
  | | |         1684: 00 00 00 00 00 00 00 00 00 00 00 00 00 00 00 00 [................]
  | | |         1694: 00 00 00 00 00 00 00 00 00 00 00 00 00 00 00 00 [................]
  | | |         16a4: 00 00 00 00 00 00 01 00 00 00 01 00 03 00 01 00 [................]
  | | |         16b4: 06 00 09 00 07 00 02 00 05 00 04 00 18 00 00 00 [................]
  | | |         16c4: 00 00 00 00 04 00 45 00 2c 00 43 00 e1 00 66 01 [......E.,.C...f.]
  | | |         16d4: a1 18 de 19 9b 13 7c 06 34 03 9d 02 49 07 0d 00 [......|.4...I...]
  | | |         16e4: 00 00 00 00 02 00 2b 00 25 00 52 00 30 01 b9 01 [......+.%.R.0...]
  | | |         16f4: bd 0f 7e 05 f4 13 c4 03 66 01 17 01 9c 02 02 00 [..~.....f.......]
  | | |         1704: 15 00 10 00 37 00 21 03 1b 02 25 04 86 0b e3 0d [....7.!...%.....]
  | | |         1714: f4 4f f2 2b 98 49 bd 10 5e 05 e0 03 6a 0d 4e 00 [.O.+.I..^...j.N.]
  | | |         1724: 00 00 00 00 00 00 00 80 00 00 00 04 00 04 00 04 [................]
  | | |         1734: 2e 0b 22 10 44 1b 76 10 a2 00 00 00 00 10 8e 0f [..".D.v.........]
  | | |         1744: 62 ff 00 00 00 10 00 00 00 01 01 00 3c 68 02 00 [b...........<h..]
  | | |         1754: 7e 6b 02 00 7b 6d 01 00 68 37 00 04 00 04 00 04 [~k..{m..h7......]
  | | |         1764: 00 00 00 00 00 00 fd ff 00 00 ff 1f 00 01 00 00 [................]
  | | |         1774: 00 00 00 04 c8 02 b2 01 f4 01 74 02 9b 01 f9 02 [..........t.....]
  | | |         1784: 00 00 00 00 00 00 00 00 00 00 1f 00 3f 00 5f 00 [............?._.]
  | | |         1794: 7f 00 9f 00 bf 00 df 00 ff 00 00 00 1f 00 41 00 [..............A.]
  | | |         17a4: 62 00 82 00 a1 00 c0 00 df 00 ff 00 01 00 00 00 [b...............]
  | | |         17b4: 66 00 00 00 10 00 20 00 40 00 60 00 80 00 c0 00 [f..... .@.`.....]
  | | |         17c4: 00 00 00 00 00 00 00 00 00 00 00 00 00 00 e8 03 [................]
  | | |         17d4: e8 03 e8 03 e8 03 e8 03 e8 03 e8 03 88 04 00 00 [................]
  | | |         17e4: 01 08 01 08 01 08 01 08 f4 38 f4 3a 10 27 00 00 [.........8.:.'..]
  | | |         17f4: dd 00 83 00 71 00 02 00 00 00 c6 07 40 08 70 10 [....q.......@.p.]
  | | |         1804: f8 10 c6 07 40 08 38 0d c0 0d c6 07 40 08 d0 0e [....@.8.....@...]
  | | |         1814: 58 0f 7c 00 b6 00 ce 00 00 00 00 00 00 00 00 00 [X.|.............]
  | | |         1824: 00 00 00 00 00 00 00 00 00 00 00 00 00 00 00 00 [................]
  | | |         1834: 00 00 00 00 00 00 00 00 00 00 00 00 00 00 00 00 [................]
  | | |         1844: 00 00 00 00 00 00 00 00 00 00 00 00 00 00 00 00 [................]
  | | |         1854: 00 00 00 00 00 00 00 00 00 00 00 00 00 00 00 00 [................]
  | | |         1864: 00 00 00 00 00 00 00 00 00 00 00 00 00 00 00 00 [................]
  | | |         1874: 00 00 00 00 00 00 00 00 00 00 00 00 00 00 00 00 [................]
  | | |         1884: 00 00 00 00 00 00 00 00 00 00 00 00 00 00 00 00 [................]
  | | |         1894: 00 00 00 00 00 00 00 00 00 00 00 00 00 00 00 00 [................]
  | | |         18a4: 00 00 00 00 00 00 00 00 00 00 00 00 00 00 00 00 [................]
  | | |         18b4: 00 00 00 00 00 00 00 00 00 00 00 00 00 00 00 00 [................]
  | | |         18c4: 00 00 00 00 00 00 00 00 00 00 00 00 00 00 00 00 [................]
  | | |         18d4: 00 00 00 00 00 00 00 00 00 00 00 00 00 00 00 00 [................]
  | | |         18e4: 00 00 00 00 00 00 00 00 00 00 00 00 00 00 00 00 [................]
  | | |         18f4: 00 00 00 00 00 00 00 00 00 00 00 00 00 00 00 00 [................]
  | | |         1904: 00 00 00 00 00 00 00 00 00 00 00 00 00 00 00 00 [................]
  | | |         1914: 00 00 00 00 00 00 00 00 00 00 00 00 00 00 00 00 [................]
  | | |         1924: 00 00 00 00 00 00 00 00 00 00 00 00 00 00 00 00 [................]
  | | |         1934: 00 00 00 00 00 00 00 00 00 00 00 00 00 00 00 00 [................]
  | | |         1944: 00 00 00 00 00 00 00 00 00 00 00 00 00 00 00 00 [................]
  | | |         1954: 00 00 00 00 00 00 00 00 00 00 00 00 00 00 00 00 [................]
  | | |         1964: 00 00 00 00 00 00 00 00 00 00 00 00 00 00 00 00 [................]
  | | |         1974: 00 00 00 00 00 00 00 00 00 00 00 00 00 00 00 00 [................]
  | | |         1984: 00 00 00 00 00 00 00 00 00 00 00 00 00 00 00 00 [................]
  | | |         1994: 00 00 00 00 00 00 00 00 00 00 00 00 00 00 00 00 [................]
  | | |         19a4: 00 00 00 00 00 00 00 00 00 00 00 00 00 00 00 00 [................]
  | | |         19b4: 00 00 00 00 00 00 00 00 00 00 00 00 00 00 00 00 [................]
  | | |         19c4: 00 00 00 00 00 00 00 00 00 00 00 00 00 00 00 00 [................]
  | | |         19d4: 00 00 00 00 00 00 00 00 00 00 00 00 00 00 00 00 [................]
  | | |         19e4: 00 00 00 00 00 00 00 00 00 00 00 00 00 00 00 00 [................]
  | | |         19f4: 00 00 00 00 00 00 00 00 00 00 00 00 00 00 00 00 [................]
  | | |         1a04: 00 00 00 00 00 00 00 00 00 00 00 00 00 00 00 00 [................]
  | | |         1a14: 00 00 00 00 00 00 00 00 00 00 00 00 00 00 00 00 [................]
  | | |         1a24: 00 00 00 00 00 00 00 00 00 00 00 00 00 00 00 00 [................]
  | | |         1a34: 00 00 00 00 00 00 00 00 00 00 00 00 00 00 00 00 [................]
  | | |         1a44: 00 00 00 00 00 00 00 00 00 00 00 00 00 00 00 00 [................]
  | | |         1a54: 00 00 00 00 00 00 00 00 00 00 00 00 00 00 00 00 [................]
  | | |         1a64: 00 00 00 00 00 00 00 00 00 00 00 00 00 00 00 00 [................]
  | | |         1a74: 00 00 00 00 00 00 00 00 00 00 00 00 00 00 00 00 [................]
  | | |         1a84: 00 00 00 00 00 00 00 00 00 00 00 00 00 00 00 00 [................]
  | | |         1a94: 00 00 00 00 00 00 00 00 00 00 00 00 00 00 00 00 [................]
  | | |         1aa4: 00 00 00 00 00 00 00 00 00 00 00 00 00 00 00 00 [................]
  | | |         1ab4: 00 00 00 00 00 00 00 00 00 00 00 00 00 00 00 00 [................]
  | | |         1ac4: 00 00 00 00 00 00 00 00 00 00 00 00 00 00 00 00 [................]
  | | |         1ad4: 00 00 00 00 00 00 00 00 00 00 00 00 00 00 00 00 [................]
  | | |         1ae4: 00 00 00 00 00 00 00 00 00 00 00 00 00 00 00 00 [................]
  | | |         1af4: 00 00 00 00 00 00 00 00 00 00 00 00 00 00 00 00 [................]
  | | |         1b04: 00 00 00 00 00 00 00 00 00 00 00 00 00 00 00 00 [................]
  | | |         1b14: aa aa 00 00 20 00 40 00 80 00 e0 00 00 01 00 01 [.... .@.........]
  | | |         1b24: 00 01 00 01 00 00 20 00 40 00 80 00 e0 00 00 01 [...... .@.......]
  | | |         1b34: 00 01 00 01 00 01 51 00 6f 00 76 00 1a 00 18 00 [......Q.o.v.....]
  | | |         1b44: d7 00 d7 00 04 00 47 00 a8 00 b5 00 ff 00 00 00 [......G.........]
  | | |         1b54: 00 00 00 00 00 00 00 00 00 00 00 00 00 00 00 00 [................]
  | | |         1b64: 00 00 00 00 00 00 00 00 00 00 00 00 00 00 00 00 [................]
  | | |         1b74: 00 00 00 00 00 00 00 00 00 00 00 00 00 00 00 00 [................]
  | | |         1b84: 00 00 00 00 8f 00 a9 00 f3 00 00 00 00 00 00 00 [................]
  | | |         1b94: 00 00 00 00 00 00 00 00 00 00 00 00 00 00 00 00 [................]
  | | |         1ba4: 00 00 00 00 00 00 00 00 00 00 00 00 00 00 00 00 [................]
  | | |         1bb4: 00 00 00 00 00 00 00 00 00 00 00 00 00 00 00 00 [................]
  | | |         1bc4: 00 00 00 00 00 00 00 00 00 00 64 00 00 00 00 00 [..........d.....]
  | | |         1bd4: 00 00 a6 13 ca 05 00 04 3e 03 a7 02 00 04 d6 01 [........>.......]
  | | |         [snip 594 bytes]
  | | | + [BinaryData directory, 2626 bytes, Little-endian]
  | | | | ColorDataVersion = 10
  | | | | - Tag 0x0000 (2 bytes, int16s[1]):
  | | | |     13f4: 0a 00                                           [..]
  | | | | WB_RGGBLevelsAsShot = 1986 1024 1024 1900
  | | | | - Tag 0x003f (8 bytes, int16s[4]):
  | | | |     1472: c2 07 00 04 00 04 6c 07                         [......l.]
  | | | | ColorTempAsShot = 4509
  | | | | - Tag 0x0043 (2 bytes, int16s[1]):
  | | | |     147a: 9d 11                                           [..]
  | | | | WB_RGGBLevelsAuto = 1986 1024 1024 1900
  | | | | - Tag 0x0044 (8 bytes, int16s[4]):
  | | | |     147c: c2 07 00 04 00 04 6c 07                         [......l.]
  | | | | ColorTempAuto = 4509
  | | | | - Tag 0x0048 (2 bytes, int16s[1]):
  | | | |     1484: 9d 11                                           [..]
  | | | | WB_RGGBLevelsMeasured = 1986 1024 1024 1900
  | | | | - Tag 0x0049 (8 bytes, int16s[4]):
  | | | |     1486: c2 07 00 04 00 04 6c 07                         [......l.]
  | | | | ColorTempMeasured = 4509
  | | | | - Tag 0x004d (2 bytes, int16s[1]):
  | | | |     148e: 9d 11                                           [..]
  | | | | WB_RGGBLevelsUnknown = 1986 1024 1024 1900
  | | | | - Tag 0x004e (8 bytes, int16s[4]):
  | | | |     1490: c2 07 00 04 00 04 6c 07                         [......l.]
  | | | | ColorTempUnknown = 4509
  | | | | - Tag 0x0052 (2 bytes, int16s[1]):
  | | | |     1498: 9d 11                                           [..]
  | | | | WB_RGGBLevelsUnknown2 = 1024 1024 1024 1024
  | | | | - Tag 0x0053 (8 bytes, int16s[4]):
  | | | |     149a: 00 04 00 04 00 04 00 04                         [........]
  | | | | ColorTempUnknown2 = 4363
  | | | | - Tag 0x0057 (2 bytes, int16s[1]):
  | | | |     14a2: 0b 11                                           [..]
  | | | | WB_RGGBLevelsUnknown3 = 1024 1024 1024 1024
  | | | | - Tag 0x0058 (8 bytes, int16s[4]):
  | | | |     14a4: 00 04 00 04 00 04 00 04                         [........]
  | | | | ColorTempUnknown3 = 4363
  | | | | - Tag 0x005c (2 bytes, int16s[1]):
  | | | |     14ac: 0b 11                                           [..]
  | | | | WB_RGGBLevelsUnknown4 = 1986 1024 1024 1900
  | | | | - Tag 0x005d (8 bytes, int16s[4]):
  | | | |     14ae: c2 07 00 04 00 04 6c 07                         [......l.]
  | | | | ColorTempUnknown4 = 4509
  | | | | - Tag 0x0061 (2 bytes, int16s[1]):
  | | | |     14b6: 9d 11                                           [..]
  | | | | WB_RGGBLevelsUnknown5 = 1986 1024 1024 1900
  | | | | - Tag 0x0062 (8 bytes, int16s[4]):
  | | | |     14b8: c2 07 00 04 00 04 6c 07                         [......l.]
  | | | | ColorTempUnknown5 = 4509
  | | | | - Tag 0x0066 (2 bytes, int16s[1]):
  | | | |     14c0: 9d 11                                           [..]
  | | | | WB_RGGBLevelsUnknown6 = 1986 1024 1024 1900
  | | | | - Tag 0x0067 (8 bytes, int16s[4]):
  | | | |     14c2: c2 07 00 04 00 04 6c 07                         [......l.]
  | | | | ColorTempUnknown6 = 4509
  | | | | - Tag 0x006b (2 bytes, int16s[1]):
  | | | |     14ca: 9d 11                                           [..]
  | | | | WB_RGGBLevelsUnknown7 = 1990 1024 1024 1900
  | | | | - Tag 0x006c (8 bytes, int16s[4]):
  | | | |     14cc: c6 07 00 04 00 04 6c 07                         [......l.]
  | | | | ColorTempUnknown7 = 4509
  | | | | - Tag 0x0070 (2 bytes, int16s[1]):
  | | | |     14d4: 9d 11                                           [..]
  | | | | WB_RGGBLevelsUnknown8 = 1805 1024 1024 1971
  | | | | - Tag 0x0071 (8 bytes, int16s[4]):
  | | | |     14d6: 0d 07 00 04 00 04 b3 07                         [........]
  | | | | ColorTempUnknown8 = 4092
  | | | | - Tag 0x0075 (2 bytes, int16s[1]):
  | | | |     14de: fc 0f                                           [..]
  | | | | WB_RGGBLevelsUnknown9 = 1803 1028 1019 1969
  | | | | - Tag 0x0076 (8 bytes, int16s[4]):
  | | | |     14e0: 0b 07 04 04 fb 03 b1 07                         [........]
  | | | | ColorTempUnknown9 = 4092
  | | | | - Tag 0x007a (2 bytes, int16s[1]):
  | | | |     14e8: fc 0f                                           [..]
  | | | | WB_RGGBLevelsUnknown10 = 0 0 0 0
  | | | | - Tag 0x007b (8 bytes, int16s[4]):
  | | | |     14ea: 00 00 00 00 00 00 00 00                         [........]
  | | | | ColorTempUnknown10 = 0
  | | | | - Tag 0x007f (2 bytes, int16s[1]):
  | | | |     14f2: 00 00                                           [..]
  | | | | WB_RGGBLevelsDaylight = 2093 1024 1024 1672
  | | | | - Tag 0x0080 (8 bytes, int16s[4]):
  | | | |     14f4: 2d 08 00 04 00 04 88 06                         [-.......]
  | | | | ColorTempDaylight = 5200
  | | | | - Tag 0x0084 (2 bytes, int16s[1]):
  | | | |     14fc: 50 14                                           [P.]
  | | | | WB_RGGBLevelsShade = 2422 1024 1024 1442
  | | | | - Tag 0x0085 (8 bytes, int16s[4]):
  | | | |     14fe: 76 09 00 04 00 04 a2 05                         [v.......]
  | | | | ColorTempShade = 7000
  | | | | - Tag 0x0089 (2 bytes, int16s[1]):
  | | | |     1506: 58 1b                                           [X.]
  | | | | WB_RGGBLevelsCloudy = 2250 1024 1024 1549
  | | | | - Tag 0x008a (8 bytes, int16s[4]):
  | | | |     1508: ca 08 00 04 00 04 0d 06                         [........]
  | | | | ColorTempCloudy = 6000
  | | | | - Tag 0x008e (2 bytes, int16s[1]):
  | | | |     1510: 70 17                                           [p.]
  | | | | WB_RGGBLevelsTungsten = 1473 1024 1024 2422
  | | | | - Tag 0x008f (8 bytes, int16s[4]):
  | | | |     1512: c1 05 00 04 00 04 76 09                         [......v.]
  | | | | ColorTempTungsten = 3200
  | | | | - Tag 0x0093 (2 bytes, int16s[1]):
  | | | |     151a: 80 0c                                           [..]
  | | | | WB_RGGBLevelsFluorescent = 1824 1024 1024 2294
  | | | | - Tag 0x0094 (8 bytes, int16s[4]):
  | | | |     151c: 20 07 00 04 00 04 f6 08                         [ .......]
  | | | | ColorTempFluorescent = 3733
  | | | | - Tag 0x0098 (2 bytes, int16s[1]):
  | | | |     1524: 95 0e                                           [..]
  | | | | WB_RGGBLevelsKelvin = 2093 1024 1024 1672
  | | | | - Tag 0x0099 (8 bytes, int16s[4]):
  | | | |     1526: 2d 08 00 04 00 04 88 06                         [-.......]
  | | | | ColorTempKelvin = 5188
  | | | | - Tag 0x009d (2 bytes, int16s[1]):
  | | | |     152e: 44 14                                           [D.]
  | | | | WB_RGGBLevelsFlash = 2310 1024 1024 1547
  | | | | - Tag 0x009e (8 bytes, int16s[4]):
  | | | |     1530: 06 09 00 04 00 04 0b 06                         [........]
  | | | | ColorTempFlash = 6172
  | | | | - Tag 0x00a2 (2 bytes, int16s[1]):
  | | | |     1538: 1c 18                                           [..]
  | | | | WB_RGGBLevelsUnknown11 = 2093 1024 1024 1672
  | | | | - Tag 0x00a3 (8 bytes, int16s[4]):
  | | | |     153a: 2d 08 00 04 00 04 88 06                         [-.......]
  | | | | ColorTempUnknown11 = 5188
  | | | | - Tag 0x00a7 (2 bytes, int16s[1]):
  | | | |     1542: 44 14                                           [D.]
  | | | | WB_RGGBLevelsUnknown12 = 2093 1024 1024 1672
  | | | | - Tag 0x00a8 (8 bytes, int16s[4]):
  | | | |     1544: 2d 08 00 04 00 04 88 06                         [-.......]
  | | | | ColorTempUnknown12 = 5188
  | | | | - Tag 0x00ac (2 bytes, int16s[1]):
  | | | |     154c: 44 14                                           [D.]
  | | | | WB_RGGBLevelsUnknown13 = 2093 1024 1024 1672
  | | | | - Tag 0x00ad (8 bytes, int16s[4]):
  | | | |     154e: 2d 08 00 04 00 04 88 06                         [-.......]
  | | | | ColorTempUnknown13 = 5188
  | | | | - Tag 0x00b1 (2 bytes, int16s[1]):
  | | | |     1556: 44 14                                           [D.]
  | | | | WB_RGGBLevelsUnknown14 = 2093 1024 1024 1672
  | | | | - Tag 0x00b2 (8 bytes, int16s[4]):
  | | | |     1558: 2d 08 00 04 00 04 88 06                         [-.......]
  | | | | ColorTempUnknown14 = 5188
  | | | | - Tag 0x00b6 (2 bytes, int16s[1]):
  | | | |     1560: 44 14                                           [D.]
  | | | | WB_RGGBLevelsUnknown15 = 2093 1024 1024 1672
  | | | | - Tag 0x00b7 (8 bytes, int16s[4]):
  | | | |     1562: 2d 08 00 04 00 04 88 06                         [-.......]
  | | | | ColorTempUnknown15 = 5188
  | | | | - Tag 0x00bb (2 bytes, int16s[1]):
  | | | |     156a: 44 14                                           [D.]
  | | | | WB_RGGBLevelsUnknown16 = 993 1024 1024 1025
  | | | | - Tag 0x00bc (8 bytes, int16s[4]):
  | | | |     156c: e1 03 00 04 00 04 01 04                         [........]
  | | | | ColorTempUnknown16 = 4209
  | | | | - Tag 0x00c0 (2 bytes, int16s[1]):
  | | | |     1574: 71 10                                           [q.]
  | | | | WB_RGGBLevelsUnknown17 = 993 1024 1024 1025
  | | | | - Tag 0x00c1 (8 bytes, int16s[4]):
  | | | |     1576: e1 03 00 04 00 04 01 04                         [........]
  | | | | ColorTempUnknown17 = 4209
  | | | | - Tag 0x00c5 (2 bytes, int16s[1]):
  | | | |     157e: 71 10                                           [q.]
  | | | | WB_RGGBLevelsUnknown18 = 993 1024 1024 1025
  | | | | - Tag 0x00c6 (8 bytes, int16s[4]):
  | | | |     1580: e1 03 00 04 00 04 01 04                         [........]
  | | | | ColorTempUnknown18 = 4209
  | | | | - Tag 0x00ca (2 bytes, int16s[1]):
  | | | |     1588: 71 10                                           [q.]
  | | | | WB_RGGBLevelsUnknown19 = 993 1024 1024 1025
  | | | | - Tag 0x00cb (8 bytes, int16s[4]):
  | | | |     158a: e1 03 00 04 00 04 01 04                         [........]
  | | | | ColorTempUnknown19 = 4209
  | | | | - Tag 0x00cf (2 bytes, int16s[1]):
  | | | |     1592: 71 10                                           [q.]
  | | | | WB_RGGBLevelsUnknown20 = 993 1024 1024 1025
  | | | | - Tag 0x00d0 (8 bytes, int16s[4]):
  | | | |     1594: e1 03 00 04 00 04 01 04                         [........]
  | | | | ColorTempUnknown20 = 4209
  | | | | - Tag 0x00d4 (2 bytes, int16s[1]):
  | | | |     159c: 71 10                                           [q.]
  | | | | ColorCalib (SubDirectory) -->
  | | | | - Tag 0x00d5 (120 bytes, undef[120]):
  | | | |     159e: e1 fe 7d 01 48 03 94 2a f4 fe 86 01 30 03 10 27 [..}.H..*....0..']
  | | | |     15ae: 1c ff 9a 01 03 03 6c 20 45 ff b1 01 d7 02 58 1b [......l E.....X.]
  | | | |     15be: 79 ff d2 01 a5 02 70 17 92 ff e2 01 8d 02 e0 15 [y.....p.........]
  | | | |     15ce: ae ff f5 01 73 02 50 14 db ff 10 02 4a 02 5c 12 [....s.P.....J.\.]
  | | | |     15de: 12 00 39 02 1e 02 68 10 46 00 63 02 f8 01 d8 0e [..9...h.F.c.....]
  | | | |     15ee: 78 00 8f 02 d7 01 ac 0d b3 00 c8 02 b1 01 80 0c [x...............]
  | | | |     15fe: e2 00 f4 02 92 01 b8 0b 0f 01 29 03 7d 01 f0 0a [..........).}...]
  | | | |     160e: 80 01 b8 03 48 01 60 09                         [....H.`.]
  | | | | + [BinaryData directory, 120 bytes, Little-endian]
  | | | | | CameraColorCalibration01 = -287 381 840 10900
  | | | | | - Tag 0x0000 (8 bytes, int16s[4]):
  | | | | |     159e: e1 fe 7d 01 48 03 94 2a                         [..}.H..*]
  | | | | | CameraColorCalibration02 = -268 390 816 10000
  | | | | | - Tag 0x0004 (8 bytes, int16s[4]):
  | | | | |     15a6: f4 fe 86 01 30 03 10 27                         [....0..']
  | | | | | CameraColorCalibration03 = -228 410 771 8300
  | | | | | - Tag 0x0008 (8 bytes, int16s[4]):
  | | | | |     15ae: 1c ff 9a 01 03 03 6c 20                         [......l ]
  | | | | | CameraColorCalibration04 = -187 433 727 7000
  | | | | | - Tag 0x000c (8 bytes, int16s[4]):
  | | | | |     15b6: 45 ff b1 01 d7 02 58 1b                         [E.....X.]
  | | | | | CameraColorCalibration05 = -135 466 677 6000
  | | | | | - Tag 0x0010 (8 bytes, int16s[4]):
  | | | | |     15be: 79 ff d2 01 a5 02 70 17                         [y.....p.]
  | | | | | CameraColorCalibration06 = -110 482 653 5600
  | | | | | - Tag 0x0014 (8 bytes, int16s[4]):
  | | | | |     15c6: 92 ff e2 01 8d 02 e0 15                         [........]
  | | | | | CameraColorCalibration07 = -82 501 627 5200
  | | | | | - Tag 0x0018 (8 bytes, int16s[4]):
  | | | | |     15ce: ae ff f5 01 73 02 50 14                         [....s.P.]
  | | | | | CameraColorCalibration08 = -37 528 586 4700
  | | | | | - Tag 0x001c (8 bytes, int16s[4]):
  | | | | |     15d6: db ff 10 02 4a 02 5c 12                         [....J.\.]
  | | | | | CameraColorCalibration09 = 18 569 542 4200
  | | | | | - Tag 0x0020 (8 bytes, int16s[4]):
  | | | | |     15de: 12 00 39 02 1e 02 68 10                         [..9...h.]
  | | | | | CameraColorCalibration10 = 70 611 504 3800
  | | | | | - Tag 0x0024 (8 bytes, int16s[4]):
  | | | | |     15e6: 46 00 63 02 f8 01 d8 0e                         [F.c.....]
  | | | | | CameraColorCalibration11 = 120 655 471 3500
  | | | | | - Tag 0x0028 (8 bytes, int16s[4]):
  | | | | |     15ee: 78 00 8f 02 d7 01 ac 0d                         [x.......]
  | | | | | CameraColorCalibration12 = 179 712 433 3200
  | | | | | - Tag 0x002c (8 bytes, int16s[4]):
  | | | | |     15f6: b3 00 c8 02 b1 01 80 0c                         [........]
  | | | | | CameraColorCalibration13 = 226 756 402 3000
  | | | | | - Tag 0x0030 (8 bytes, int16s[4]):
  | | | | |     15fe: e2 00 f4 02 92 01 b8 0b                         [........]
  | | | | | CameraColorCalibration14 = 271 809 381 2800
  | | | | | - Tag 0x0034 (8 bytes, int16s[4]):
  | | | | |     1606: 0f 01 29 03 7d 01 f0 0a                         [..).}...]
  | | | | | CameraColorCalibration15 = 384 952 328 2400
  | | | | | - Tag 0x0038 (8 bytes, int16s[4]):
  | | | | |     160e: 80 01 b8 03 48 01 60 09                         [....H.`.]
  | | | | AverageBlackLevel = 2049 2049 2049 2049
  | | | | - Tag 0x0114 (8 bytes, int16u[4]):
  | | | |     161c: 01 08 01 08 01 08 01 08                         [........]
  | | | | FlashOutput = 0
  | | | | - Tag 0x0198 (2 bytes, int16s[1]):
  | | | |     1724: 00 00                                           [..]
  | | | | FlashBatteryLevel = 0
  | | | | - Tag 0x0199 (2 bytes, int16s[1]):
  | | | |     1726: 00 00                                           [..]
  | | | | RawMeasuredRGGB = 1748762625 1803419650 1836777474 929562625
  | | | | - Tag 0x01ad (16 bytes, int32u[4]):
  | | | |     174e: 01 00 3c 68 02 00 7e 6b 02 00 7b 6d 01 00 68 37 [..<h..~k..{m..h7]
  | | | | PerChannelBlackLevel = 2049 2049 2049 2049
  | | | | - Tag 0x01f8 (8 bytes, int16u[4]):
  | | | |     17e4: 01 08 01 08 01 08 01 08                         [........]
  | | | | NormalWhiteLevel = 14580
  | | | | - Tag 0x01fc (2 bytes, int16u[1]):
  | | | |     17ec: f4 38                                           [.8]
  | | | | SpecularWhiteLevel = 15092
  | | | | - Tag 0x01fd (2 bytes, int16u[1]):
  | | | |     17ee: f4 3a                                           [.:]
  | | | | LinearityUpperMargin = 10000
  | | | | - Tag 0x01fe (2 bytes, int16u[1]):
  | | | |     17f0: 10 27                                           [.']
  | | | 26) PictureStyleUserDef = 135 135 135
  | | |     - Tag 0x4008 (6 bytes, int16u[3]):
  | | |         1e36: 87 00 87 00 87 00                               [......]
  | | | 27) PictureStylePC = 0 0 0
  | | |     - Tag 0x4009 (6 bytes, int16u[3]):
  | | |         1e3c: 00 00 00 00 00 00                               [......]
  | | | 28) CustomPictureStyleFileName = 
  | | |     - Tag 0x4010 (32 bytes, string[32]):
  | | |         1e42: 00 00 00 00 00 00 00 00 00 00 00 00 00 00 00 00 [................]
  | | |         1e52: 00 00 00 00 00 00 00 00 00 00 00 00 00 00 00 00 [................]
  | | | 29) Canon_0x4011 = 
  | | |     - Tag 0x4011 (252 bytes, undef[252]):
  | | |         1e62: 00 00 00 00 00 00 00 00 00 00 00 00 00 00 00 00 [................]
  | | |         1e72: 00 00 00 00 00 00 00 00 00 00 00 00 00 00 00 00 [................]
  | | |         1e82: 00 00 00 00 00 00 00 00 00 00 00 00 00 00 00 00 [................]
  | | |         1e92: 00 00 00 00 00 00 00 00 00 00 00 00 00 00 00 00 [................]
  | | |         1ea2: 00 00 00 00 00 00 00 00 00 00 00 00 00 00 00 00 [................]
  | | |         1eb2: 00 00 00 00 00 00 00 00 00 00 00 00 00 00 00 00 [................]
  | | |         1ec2: 00 00 00 00 00 00 00 00 00 00 00 00 00 00 00 00 [................]
  | | |         1ed2: 00 00 00 00 00 00 00 00 00 00 00 00 00 00 00 00 [................]
  | | |         1ee2: 00 00 00 00 00 00 00 00 00 00 00 00 00 00 00 00 [................]
  | | |         1ef2: 00 00 00 00 00 00 00 00 00 00 00 00 00 00 00 00 [................]
  | | |         1f02: 00 00 00 00 00 00 00 00 00 00 00 00 00 00 00 00 [................]
  | | |         1f12: 00 00 00 00 00 00 00 00 00 00 00 00 00 00 00 00 [................]
  | | |         1f22: 00 00 00 00 00 00 00 00 00 00 00 00 00 00 00 00 [................]
  | | |         1f32: 00 00 00 00 00 00 00 00 00 00 00 00 00 00 00 00 [................]
  | | |         1f42: 00 00 00 00 00 00 00 00 00 00 00 00 00 00 00 00 [................]
  | | |         1f52: 00 00 00 00 00 00 00 00 00 00 00 00             [............]
  | | | 30) Canon_0x4012 = 
  | | |     - Tag 0x4012 (32 bytes, string[32]):
  | | |         1f5e: 00 00 00 00 00 00 00 00 00 00 00 00 00 00 00 00 [................]
  | | |         1f6e: 00 00 00 00 00 00 00 00 00 00 00 00 00 00 00 00 [................]
  | | | 31) AFMicroAdj (SubDirectory) -->
  | | |     - Tag 0x4013 (44 bytes, int32u[11] read as undef[44]):
  | | |         1f7e: 2c 00 00 00 00 00 00 00 00 00 00 00 0a 00 00 00 [,...............]
  | | |         1f8e: ff ff ff ff 00 00 00 00 0a 00 00 00 00 00 00 00 [................]
  | | |         1f9e: 0a 00 00 00 00 00 00 00 0a 00 00 00             [............]
  | | | + [BinaryData directory, 44 bytes, Little-endian]
  | | | | AFMicroAdjMode = 0
  | | | | - Tag 0x0001 (4 bytes, int32s[1]):
  | | | |     1f82: 00 00 00 00                                     [....]
  | | | | AFMicroAdjValue = 0
  | | | | - Tag 0x0002 (8 bytes, rational64s[1]):
  | | | |     1f86: 00 00 00 00 0a 00 00 00                         [........]
  | | | 32) VignettingCorr (SubDirectory) -->
  | | |     - Tag 0x4015 (456 bytes, undef[456]):
  | | |         1faa: 00 21 c8 01 00 00 00 00 00 00 00 00 00 00 00 00 [.!..............]
  | | |         1fba: 00 00 00 00 04 10 60 15 40 0e ff 1f d1 1e 3f 1d [......`.@.....?.]
  | | |         1fca: f9 1b 8f 1a 5c 18 00 00 b2 03 ea 05 65 07 df 08 [....\.......e...]
  | | |         1fda: 1a 0a 00 40 81 40 be 40 dc 40 d6 40 cf 40 00 40 [...@.@.@.@.@.@.@]
  | | |         1fea: ea 3f fc 3f 47 40 a6 40 cf 40 00 00 b2 03 ea 05 [.?.?G@.@.@......]
  | | |         1ffa: 22 08 9d 09 1a 0a e4 3f cf 3f b2 3f 93 3f 84 3f ["......?.?.?.?.?]
  | | |         200a: 81 3f 00 00 b2 03 ea 05 22 08 9d 09 1a 0a 00 00 [.?......".......]
  | | |         201a: 00 00 00 00 00 00 00 00 00 00 00 00 00 00 00 00 [................]
  | | |         202a: 00 00 00 00 00 00 00 00 00 00 00 00 00 00 00 00 [................]
  | | |         203a: 00 00 00 00 00 00 00 00 00 00 00 00 00 00 00 00 [................]
  | | |         204a: 00 00 00 00 00 00 00 00 00 00 00 00 00 00 00 00 [................]
  | | |         205a: 00 00 00 00 00 00 00 00 00 00 00 00 00 00 00 00 [................]
  | | |         206a: 00 00 00 00 00 00 00 00 00 00 00 00 00 00 00 00 [................]
  | | |         207a: 00 00 00 00 00 00 00 00 00 00 00 00 00 00 00 00 [................]
  | | |         208a: 00 00 00 00 00 00 00 00 00 00 00 00 00 00 00 00 [................]
  | | |         209a: 00 00 00 00 00 00 00 00 00 00 00 00 00 00 00 00 [................]
  | | |         20aa: 00 00 00 00 00 00 00 00 00 00 00 00 00 00 00 00 [................]
  | | |         20ba: 00 00 00 00 00 00 00 00 00 00 00 00 00 00 00 00 [................]
  | | |         20ca: 00 00 00 00 00 00 00 00 00 00 00 00 00 00 00 00 [................]
  | | |         20da: 00 00 00 00 00 00 00 00 00 00 00 00 00 00 00 00 [................]
  | | |         20ea: 00 00 00 00 00 00 00 00 00 00 00 00 00 00 00 00 [................]
  | | |         20fa: 00 00 00 00 00 00 00 00 00 00 00 00 00 00 00 00 [................]
  | | |         210a: 00 00 00 00 00 00 00 00 00 00 00 00 00 00 00 00 [................]
  | | |         211a: 00 00 00 00 00 00 00 00 00 00 00 00 00 00 00 00 [................]
  | | |         212a: 00 00 00 00 00 00 00 00 00 00 00 00 00 00 00 00 [................]
  | | |         213a: 00 00 00 00 00 00 00 00 00 00 00 00 00 00 00 00 [................]
  | | |         214a: 00 00 00 00 00 00 00 00 00 00 00 00 00 00 00 00 [................]
  | | |         215a: 00 00 00 00 00 00 00 00 00 00 00 00 00 00 00 00 [................]
  | | |         216a: 00 00 00 00 32 00 00 00                         [....2...]
  | | | + [BinaryData directory, 456 bytes, Little-endian]
  | | | | PeripheralLighting = 0
  | | | | - Tag 0x0002 (2 bytes, int16s[1]):
  | | | |     1fae: 00 00                                           [..]
  | | | | DistortionCorrection = 0
  | | | | - Tag 0x0003 (2 bytes, int16s[1]):
  | | | |     1fb0: 00 00                                           [..]
  | | | | ChromaticAberrationCorr = 0
  | | | | - Tag 0x0004 (2 bytes, int16s[1]):
  | | | |     1fb2: 00 00                                           [..]
  | | | | ChromaticAberrationCorr = 0
  | | | | - Tag 0x0005 (2 bytes, int16s[1]):
  | | | |     1fb4: 00 00                                           [..]
  | | | | PeripheralLightingValue = 0
  | | | | - Tag 0x0006 (2 bytes, int16s[1]):
  | | | |     1fb6: 00 00                                           [..]
  | | | | DistortionCorrectionValue = 0
  | | | | - Tag 0x0009 (2 bytes, int16s[1]):
  | | | |     1fbc: 00 00                                           [..]
  | | | | OriginalImageWidth = 5472
  | | | | - Tag 0x000b (2 bytes, int16s[1]):
  | | | |     1fc0: 60 15                                           [`.]
  | | | | OriginalImageHeight = 3648
  | | | | - Tag 0x000c (2 bytes, int16s[1]):
  | | | |     1fc2: 40 0e                                           [@.]
  | | | 33) VignettingCorr2 (SubDirectory) -->
  | | |     - Tag 0x4016 (28 bytes, int32u[7] read as undef[28]):
  | | |         2172: 1c 00 00 00 00 00 00 00 01 00 00 00 00 00 00 00 [................]
  | | |         2182: 01 00 00 00 00 00 00 00 00 00 00 00             [............]
  | | | + [BinaryData directory, 28 bytes, Little-endian]
  | | | | PeripheralLightingSetting = 0
  | | | | - Tag 0x0005 (4 bytes, int32s[1]):
  | | | |     2186: 00 00 00 00                                     [....]
  | | | | ChromaticAberrationSetting = 0
  | | | | - Tag 0x0006 (4 bytes, int32s[1]):
  | | | |     218a: 00 00 00 00                                     [....]
  | | | 34) LightingOpt (SubDirectory) -->
  | | |     - Tag 0x4018 (28 bytes, int32u[7] read as undef[28]):
  | | |         218e: 1c 00 00 00 00 00 00 00 00 00 00 00 00 00 00 00 [................]
  | | |         219e: 00 00 00 00 00 00 00 00 01 00 00 00             [............]
  | | | + [BinaryData directory, 28 bytes, Little-endian]
  | | | | PeripheralIlluminationCorr = 0
  | | | | - Tag 0x0001 (4 bytes, int32s[1]):
  | | | |     2192: 00 00 00 00                                     [....]
  | | | | AutoLightingOptimizer = 0
  | | | | - Tag 0x0002 (4 bytes, int32s[1]):
  | | | |     2196: 00 00 00 00                                     [....]
  | | | | HighlightTonePriority = 0
  | | | | - Tag 0x0003 (4 bytes, int32s[1]):
  | | | |     219a: 00 00 00 00                                     [....]
  | | | | LongExposureNoiseReduction = 0
  | | | | - Tag 0x0004 (4 bytes, int32s[1]):
  | | | |     219e: 00 00 00 00                                     [....]
  | | | | HighISONoiseReduction = 0
  | | | | - Tag 0x0005 (4 bytes, int32s[1]):
  | | | |     21a2: 00 00 00 00                                     [....]
  | | | 35) LensInfo (SubDirectory) -->
  | | |     - Tag 0x4019 (30 bytes, undef[30]):
  | | |         21aa: 00 00 21 4e 1c 00 00 00 00 00 00 00 00 00 00 00 [..!N............]
  | | |         21ba: 00 00 00 00 00 00 00 00 00 00 00 00 00 00       [..............]
  | | | + [BinaryData directory, 30 bytes, Little-endian]
  | | | | LensSerialNumber = !N.
  | | | | - Tag 0x0000 (5 bytes, undef[5]):
  | | | |     21aa: 00 00 21 4e 1c                                  [..!N.]
  | | | 36) AmbienceInfo (SubDirectory) -->
  | | |     - Tag 0x4020 (28 bytes, int32u[7] read as undef[28]):
  | | |         21c8: 1c 00 00 00 00 00 00 00 00 00 00 00 00 00 00 00 [................]
  | | |         21d8: 00 00 00 00 ff ff ff 7f 00 00 00 00             [............]
  | | | + [BinaryData directory, 28 bytes, Little-endian]
  | | | | AmbienceSelection = 0
  | | | | - Tag 0x0001 (4 bytes, int32s[1]):
  | | | |     21cc: 00 00 00 00                                     [....]
  | | | 37) MultiExp (SubDirectory) -->
  | | |     - Tag 0x4021 (20 bytes, int32u[5] read as undef[20]):
  | | |         21e4: 14 00 00 00 00 00 00 00 00 00 00 00 00 00 00 00 [................]
  | | |         21f4: 01 00 00 00                                     [....]
  | | | + [BinaryData directory, 20 bytes, Little-endian]
  | | | | MultiExposure = 0
  | | | | - Tag 0x0001 (4 bytes, int32s[1]):
  | | | |     21e8: 00 00 00 00                                     [....]
  | | | | MultiExposureControl = 0
  | | | | - Tag 0x0002 (4 bytes, int32s[1]):
  | | | |     21ec: 00 00 00 00                                     [....]
  | | | | MultiExposureShots = 0
  | | | | - Tag 0x0003 (4 bytes, int32s[1]):
  | | | |     21f0: 00 00 00 00                                     [....]
  | | | 38) FilterInfo (SubDirectory) -->
  | | |     - Tag 0x4024 (212 bytes, int32u[53] read as undef[212]):
  | | |         21f8: d4 00 00 00 07 00 00 00 01 00 00 00 14 00 00 00 [................]
  | | |         2208: 01 00 00 00 01 01 00 00 01 00 00 00 ff ff ff ff [................]
  | | |         2218: 02 00 00 00 14 00 00 00 01 00 00 00 01 02 00 00 [................]
  | | |         2228: 01 00 00 00 ff ff ff ff 03 00 00 00 14 00 00 00 [................]
  | | |         2238: 01 00 00 00 01 03 00 00 01 00 00 00 ff ff ff ff [................]
  | | |         2248: 04 00 00 00 38 00 00 00 04 00 00 00 01 04 00 00 [....8...........]
  | | |         2258: 01 00 00 00 ff ff ff ff 02 04 00 00 01 00 00 00 [................]
  | | |         2268: 00 00 00 00 03 04 00 00 01 00 00 00 00 00 00 00 [................]
  | | |         2278: 04 04 00 00 01 00 00 00 00 00 00 00 05 00 00 00 [................]
  | | |         2288: 14 00 00 00 01 00 00 00 01 05 00 00 01 00 00 00 [................]
  | | |         2298: ff ff ff ff 06 00 00 00 14 00 00 00 01 00 00 00 [................]
  | | |         22a8: 01 06 00 00 01 00 00 00 ff ff ff ff 07 00 00 00 [................]
  | | |         22b8: 14 00 00 00 01 00 00 00 01 07 00 00 01 00 00 00 [................]
  | | |         22c8: ff ff ff ff                                     [....]
  | | | + [Creative Filter directory with 7 entries]
  | | | + [Filter 1 directory with 1 entries, 20 bytes]
  | | | | GrainyBWFilter = -1
  | | | | - Tag 0x0101 (4 bytes):
  | | | |     2208: ff ff ff ff                                     [....]
  | | | + [Filter 2 directory with 1 entries, 20 bytes]
  | | | | SoftFocusFilter = -1
  | | | | - Tag 0x0201 (4 bytes):
  | | | |     2220: ff ff ff ff                                     [....]
  | | | + [Filter 3 directory with 1 entries, 20 bytes]
  | | | | ToyCameraFilter = -1
  | | | | - Tag 0x0301 (4 bytes):
  | | | |     2238: ff ff ff ff                                     [....]
  | | | + [Filter 4 directory with 4 entries, 56 bytes]
  | | | | MiniatureFilter = -1
  | | | | - Tag 0x0401 (4 bytes):
  | | | |     2250: ff ff ff ff                                     [....]
  | | | | MiniatureFilterOrientation = 0
  | | | | - Tag 0x0402 (4 bytes):
  | | | |     225c: 00 00 00 00                                     [....]
  | | | | MiniatureFilterPosition = 0
  | | | | - Tag 0x0403 (4 bytes):
  | | | |     2268: 00 00 00 00                                     [....]
  | | | | MiniatureFilterParameter = 0
  | | | | - Tag 0x0404 (4 bytes):
  | | | |     2274: 00 00 00 00                                     [....]
  | | | + [Filter 5 directory with 1 entries, 20 bytes]
  | | | | FisheyeFilter = -1
  | | | | - Tag 0x0501 (4 bytes):
  | | | |     228c: ff ff ff ff                                     [....]
  | | | + [Filter 6 directory with 1 entries, 20 bytes]
  | | | | PaintingFilter = -1
  | | | | - Tag 0x0601 (4 bytes):
  | | | |     22a4: ff ff ff ff                                     [....]
  | | | + [Filter 7 directory with 1 entries, 20 bytes]
  | | | | WatercolorFilter = -1
  | | | | - Tag 0x0701 (4 bytes):
  | | | |     22bc: ff ff ff ff                                     [....]
  | | | 39) HDRInfo (SubDirectory) -->
  | | |     - Tag 0x4025 (36 bytes, int32u[9] read as undef[36]):
  | | |         22cc: 24 00 00 00 00 00 00 00 00 00 00 00 00 00 00 00 [$...............]
  | | |         22dc: 00 00 00 00 00 00 00 00 00 00 00 00 00 00 00 00 [................]
  | | |         22ec: 00 00 00 00                                     [....]
  | | | + [BinaryData directory, 36 bytes, Little-endian]
  | | | | HDR = 0
  | | | | - Tag 0x0001 (4 bytes, int32s[1]):
  | | | |     22d0: 00 00 00 00                                     [....]
  | | | | HDREffect = 0
  | | | | - Tag 0x0002 (4 bytes, int32s[1]):
  | | | |     22d4: 00 00 00 00                                     [....]
  | | | 40) Canon_0x4027 = 24 524546 2969567282 134217728 13684944 65539
  | | |     - Tag 0x4027 (24 bytes, int32u[6]):
  | | |         22f0: 18 00 00 00 02 01 08 00 32 00 00 b1 00 00 00 08 [........2.......]
  | | |         2300: d0 d0 d0 00 03 00 01 00                         [........]
  | | 17) UserComment = 
  | |     - Tag 0x9286 (264 bytes, undef[264]):
  | |         2310: 00 00 00 00 00 00 00 00 00 00 00 00 00 00 00 00 [................]
  | |         2320: 00 00 00 00 00 00 00 00 00 00 00 00 00 00 00 00 [................]
  | |         2330: 00 00 00 00 00 00 00 00 00 00 00 00 00 00 00 00 [................]
  | |         2340: 00 00 00 00 00 00 00 00 00 00 00 00 00 00 00 00 [................]
  | |         2350: 00 00 00 00 00 00 00 00 00 00 00 00 00 00 00 00 [................]
  | |         2360: 00 00 00 00 00 00 00 00 00 00 00 00 00 00 00 00 [................]
  | |         2370: 00 00 00 00 00 00 00 00 00 00 00 00 00 00 00 00 [................]
  | |         2380: 00 00 00 00 00 00 00 00 00 00 00 00 00 00 00 00 [................]
  | |         2390: 00 00 00 00 00 00 00 00 00 00 00 00 00 00 00 00 [................]
  | |         23a0: 00 00 00 00 00 00 00 00 00 00 00 00 00 00 00 00 [................]
  | |         23b0: 00 00 00 00 00 00 00 00 00 00 00 00 00 00 00 00 [................]
  | |         23c0: 00 00 00 00 00 00 00 00 00 00 00 00 00 00 00 00 [................]
  | |         23d0: 00 00 00 00 00 00 00 00 00 00 00 00 00 00 00 00 [................]
  | |         23e0: 00 00 00 00 00 00 00 00 00 00 00 00 00 00 00 00 [................]
  | |         23f0: 00 00 00 00 00 00 00 00 00 00 00 00 00 00 00 00 [................]
  | |         2400: 00 00 00 00 00 00 00 00 00 00 00 00 00 00 00 00 [................]
  | |         2410: 00 00 00 00 00 00 00 00                         [........]
  | | 18) SubSecTime = 00
  | |     - Tag 0x9290 (3 bytes, string[3]):
  | |         01c4: 30 30 00                                        [00.]
  | | 19) SubSecTimeOriginal = 00
  | |     - Tag 0x9291 (3 bytes, string[3]):
  | |         01d0: 30 30 00                                        [00.]
  | | 20) SubSecTimeDigitized = 00
  | |     - Tag 0x9292 (3 bytes, string[3]):
  | |         01dc: 30 30 00                                        [00.]
  | | 21) FlashpixVersion = 0100
  | |     - Tag 0xa000 (4 bytes, undef[4]):
  | |         01e8: 30 31 30 30                                     [0100]
  | | 22) ColorSpace = 1
  | |     - Tag 0xa001 (2 bytes, int16u[1]):
  | |         01f4: 01 00                                           [..]
  | | 23) ExifImageWidth = 5472
  | |     - Tag 0xa002 (2 bytes, int16u[1]):
  | |         0200: 60 15                                           [`.]
  | | 24) ExifImageHeight = 3648
  | |     - Tag 0xa003 (2 bytes, int16u[1]):
  | |         020c: 40 0e                                           [@.]
  | | 25) InteropOffset (SubDirectory) -->
  | |     - Tag 0xa005 (4 bytes, int32u[1]):
  | |         0218: 68 24 00 00                                     [h$..]
  | | + [InteropIFD directory with 2 entries, Little-endian]
  | | | 0)  InteropIndex = R98
  | | |     - Tag 0x0001 (4 bytes, string[4]):
  | | |         247e: 52 39 38 00                                     [R98.]
  | | | 1)  InteropVersion = 0100
  | | |     - Tag 0x0002 (4 bytes, undef[4]):
  | | |         248a: 30 31 30 30                                     [0100]
  | | 26) FocalPlaneXResolution = 6086.76307 (5472000/899)
  | |     - Tag 0xa20e (8 bytes, rational64u[1]):
  | |         2418: 00 7f 53 00 83 03 00 00                         [..S.....]
  | | 27) FocalPlaneYResolution = 6090.15025 (3648000/599)
  | |     - Tag 0xa20f (8 bytes, rational64u[1]):
  | |         2420: 00 aa 37 00 57 02 00 00                         [..7.W...]
  | | 28) FocalPlaneResolutionUnit = 2
  | |     - Tag 0xa210 (2 bytes, int16u[1]):
  | |         023c: 02 00                                           [..]
  | | 29) CustomRendered = 0
  | |     - Tag 0xa401 (2 bytes, int16u[1]):
  | |         0248: 00 00                                           [..]
  | | 30) ExposureMode = 0
  | |     - Tag 0xa402 (2 bytes, int16u[1]):
  | |         0254: 00 00                                           [..]
  | | 31) WhiteBalance = 0
  | |     - Tag 0xa403 (2 bytes, int16u[1]):
  | |         0260: 00 00                                           [..]
  | | 32) SceneCaptureType = 0
  | |     - Tag 0xa406 (2 bytes, int16u[1]):
  | |         026c: 00 00                                           [..]
  | | 33) OwnerName = 
  | |     - Tag 0xa430 (1 bytes, string[1]):
  | |         0278: 00                                              [.]
  | | 34) SerialNumber = 053022005903
  | |     - Tag 0xa431 (13 bytes, string[13]):
  | |         2428: 30 35 33 30 32 32 30 30 35 39 30 33 00          [053022005903.]
  | | 35) LensInfo = 50 50 0 0 (50/1 50/1 0/1 0/1)
  | |     - Tag 0xa432 (32 bytes, rational64u[4]):
  | |         2436: 32 00 00 00 01 00 00 00 32 00 00 00 01 00 00 00 [2.......2.......]
  | |         2446: 00 00 00 00 01 00 00 00 00 00 00 00 01 00 00 00 [................]
  | | 36) LensModel = EF50mm f/1.8 STM
  | |     - Tag 0xa434 (17 bytes, string[17]):
  | |         2456: 45 46 35 30 6d 6d 20 66 2f 31 2e 38 20 53 54 4d [EF50mm f/1.8 STM]
  | |         2466: 00                                              [.]
  | | 37) LensSerialNumber = 0000214e1c
  | |     - Tag 0xa435 (11 bytes, string[11]):
  | |         2468: 30 30 30 30 32 31 34 65 31 63 00                [0000214e1c.]
  | 11) GPSInfo (SubDirectory) -->
  |     - Tag 0x8825 (4 bytes, int32u[1]):
  |         00a2: 86 24 00 00                                     [.$..]
  | + [GPS directory with 1 entries, Little-endian]
  | | 0)  GPSVersionID = 2 3 0 0
  | |     - Tag 0x0000 (4 bytes, int8u[4]):
  | |         249c: 02 03 00 00                                     [....]
  + [IFD1 directory with 6 entries, Little-endian]
  | 0)  Compression = 6
  |     - Tag 0x0103 (2 bytes, int16u[1]):
  |         24ae: 06 00                                           [..]
  | 1)  XResolution = 72 (72/1)
  |     - Tag 0x011a (8 bytes, rational64u[1]):
  |         24f2: 48 00 00 00 01 00 00 00                         [H.......]
  | 2)  YResolution = 72 (72/1)
  |     - Tag 0x011b (8 bytes, rational64u[1]):
  |         24fa: 48 00 00 00 01 00 00 00                         [H.......]
  | 3)  ResolutionUnit = 2
  |     - Tag 0x0128 (2 bytes, int16u[1]):
  |         24d2: 02 00                                           [..]
  | 4)  ThumbnailOffset = 9462
  |     - Tag 0x0201 (4 bytes, int32u[1]):
  |         24de: f6 24 00 00                                     [.$..]
  | 5)  ThumbnailLength = 8567
  |     - Tag 0x0202 (4 bytes, int32u[1]):
  |         24ea: 77 21 00 00                                     [w!..]
JPEG APP13 (110 bytes):
      467e: 50 68 6f 74 6f 73 68 6f 70 20 33 2e 30 00 38 42 [Photoshop 3.0.8B]
      468e: 49 4d 04 04 00 00 00 00 00 54 1c 02 05 00 11 47 [IM.......T.....G]
      469e: 72 61 79 20 63 61 74 20 70 6f 72 74 72 61 69 74 [ray cat portrait]
      46ae: 1c 02 00 00 02 00 04 1c 02 78 00 32 72 75 6c 65 [.........x.2rule]
      46be: 73 20 6f 66 20 74 68 69 72 64 20 70 68 6f 74 6f [s of third photo]
      46ce: 67 72 61 70 68 79 20 6f 66 20 6f 72 61 6e 67 65 [graphy of orange]
      46de: 2d 65 79 65 64 20 67 72 61 79 20 63 61 74       [-eyed gray cat]
  + [Photoshop directory, 96 bytes]
  | IPTCData (SubDirectory) -->
  | - Tag 0x0404 (84 bytes):
  |     4698: 1c 02 05 00 11 47 72 61 79 20 63 61 74 20 70 6f [.....Gray cat po]
  |     46a8: 72 74 72 61 69 74 1c 02 00 00 02 00 04 1c 02 78 [rtrait.........x]
  |     46b8: 00 32 72 75 6c 65 73 20 6f 66 20 74 68 69 72 64 [.2rules of third]
  |     46c8: 20 70 68 6f 74 6f 67 72 61 70 68 79 20 6f 66 20 [ photography of ]
  |     46d8: 6f 72 61 6e 67 65 2d 65 79 65 64 20 67 72 61 79 [orange-eyed gray]
  |     46e8: 20 63 61 74                                     [ cat]
  | + [IPTC directory, 84 bytes]
  | | CurrentIPTCDigest = .rDb...~......&.
  | | -- IPTCApplication record --
  | | ObjectName = Gray cat portrait
  | | - Tag 0x0005, IPTCApplication record (17 bytes, string[0,64]):
  | |     469d: 47 72 61 79 20 63 61 74 20 70 6f 72 74 72 61 69 [Gray cat portrai]
  | |     46ad: 74                                              [t]
  | | ApplicationRecordVersion = 4
  | | - Tag 0x0000, IPTCApplication record (2 bytes, int16u):
  | |     46b3: 00 04                                           [..]
  | | Caption-Abstract = rules of third photography of orange-eyed gray cat
  | | - Tag 0x0078, IPTCApplication record (50 bytes, string[0,2000]):
  | |     46ba: 72 75 6c 65 73 20 6f 66 20 74 68 69 72 64 20 70 [rules of third p]
  | |     46ca: 68 6f 74 6f 67 72 61 70 68 79 20 6f 66 20 6f 72 [hotography of or]
  | |     46da: 61 6e 67 65 2d 65 79 65 64 20 67 72 61 79 20 63 [ange-eyed gray c]
  | |     46ea: 61 74                                           [at]
JPEG APP1 (2810 bytes):
      46f0: 68 74 74 70 3a 2f 2f 6e 73 2e 61 64 6f 62 65 2e [http://ns.adobe.]
      4700: 63 6f 6d 2f 78 61 70 2f 31 2e 30 2f 00 3c 3f 78 [com/xap/1.0/.<?x]
      4710: 70 61 63 6b 65 74 20 62 65 67 69 6e 3d 27 ef bb [packet begin='..]
      4720: bf 27 20 69 64 3d 27 57 35 4d 30 4d 70 43 65 68 [.' id='W5M0MpCeh]
      4730: 69 48 7a 72 65 53 7a 4e 54 63 7a 6b 63 39 64 27 [iHzreSzNTczkc9d']
      4740: 3f 3e 0a 3c 78 3a 78 6d 70 6d 65 74 61 20 78 6d [?>.<x:xmpmeta xm]
      4750: 6c 6e 73 3a 78 3d 27 61 64 6f 62 65 3a 6e 73 3a [lns:x='adobe:ns:]
      [snip 2698 bytes]
  + [XMP directory, 2781 bytes]
  | XMPToolkit = Image::ExifTool 12.27
  | Rating = 0
  | - Tag 'x:xmpmeta/rdf:RDF/rdf:Description/xmp:Rating'
JPEG DQT (65 bytes):
      51ee: 00 05 04 04 05 04 03 05 05 04 05 06 05 05 06 07 [................]
      51fe: 0d 08 07 07 07 07 0f 0b 0c 09 0d 12 10 13 13 12 [................]
      520e: 10 12 11 14 17 1d 19 14 15 1b 15 11 12 19 22 19 [..............".]
      521e: 1b 1e 1f 20 21 20 13 18 23 26 23 1f 26 1d 20 20 [... ! ..#&#.&.  ]
      522e: 1f                                              [.]
JPEG DQT (65 bytes):
      5233: 01 05 06 06 07 07 07 0f 08 08 0f 1f 15 12 15 1f [................]
      5243: 1f 1f 1f 1f 1f 1f 1f 1f 1f 1f 1f 1f 1f 1f 1f 1f [................]
      5253: 1f 1f 1f 1f 1f 1f 1f 1f 1f 1f 1f 1f 1f 1f 1f 1f [................]
      5263: 1f 1f 1f 1f 1f 1f 1f 1f 1f 1f 1f 1f 1f 1f 1f 1f [................]
      5273: 1f                                              [.]
JPEG SOF0 (15 bytes):
      5278: 08 0e 40 15 60 03 01 21 00 02 11 01 03 11 01    [..@.`..!.......]
  ImageWidth = 5472
  ImageHeight = 3648
  EncodingProcess = 0
  BitsPerSample = 8
  ColorComponents = 3
  YCbCrSubSampling = 2 1
JPEG DHT (26 bytes):
      528b: 00 00 02 03 01 01 01 01 00 00 00 00 00 00 00 00 [................]
      529b: 00 00 01 02 03 04 05 06 07 08                   [..........]
JPEG DHT (84 bytes):
      52a9: 10 00 01 03 03 03 02 04 04 03 06 05 01 06 01 02 [................]
      52b9: 17 01 00 02 11 03 04 21 05 12 31 41 51 06 13 22 [.......!..1AQ.."]
      52c9: 61 32 42 71 81 14 23 91 07 15 52 62 a1 b1 24 33 [a2Bq..#...Rb..$3]
      52d9: 72 c1 d1 43 16 34 53 82 e1 f0 25 63 92 a2 f1 44 [r..C.4S...%c...D]
      52e9: b2 17 35 54 73 c2 08 26 64 d2 83 27 45 74 e2 36 [..5Ts..&d..'Et.6]
      52f9: 84 57 93 b3                                     [.W..]
JPEG DHT (24 bytes):
      5301: 01 01 01 01 01 01 01 01 00 00 00 00 00 00 00 00 [................]
      5311: 00 01 00 02 03 04 05 06                         [........]
JPEG DHT (42 bytes):
      531d: 11 01 01 01 01 01 01 00 03 00 02 02 03 00 02 00 [................]
      532d: 07 00 01 11 02 21 31 03 12 41 22 51 32 61 04 13 [.....!1..A"Q2a..]
      533d: 42 71 05 14 23 33 43 52 81 91                   [Bq..#3CR..]
JPEG SOS
JPEG EOI
