  ExifToolVersion = 13.59
  FileName = media_1.jpg
  Directory = C:/Users/micro/IdeaProjects/kim/src/commonTest/resources/de/stefan_oltmann/kim/testdata/full
  FileSize = 3965881
  FileModifyDate = 1776264330.04333
  FileAccessDate = 1786601292.77231
  FileCreateDate = 1776264330.03733
  FilePermissions = 33206
  FileType = JPEG
  FileTypeExtension = JPG
  MIMEType = image/jpeg
JPEG APP0 (14 bytes):
      0006: 4a 46 49 46 00 01 01 01 01 2c 01 2c 00 00       [JFIF.....,.,..]
  + [BinaryData directory, 9 bytes, Big-endian]
  | JFIFVersion = 1 1
  | - Tag 0x0000 (2 bytes, int8u[2]):
  |     000b: 01 01                                           [..]
  | ResolutionUnit = 1
  | - Tag 0x0002 (1 bytes, int8u[1]):
  |     000d: 01                                              [.]
  | XResolution = 300
  | - Tag 0x0003 (2 bytes, int16u[1]):
  |     000e: 01 2c                                           [.,]
  | YResolution = 300
  | - Tag 0x0005 (2 bytes, int16u[1]):
  |     0010: 01 2c                                           [.,]
  | ThumbnailWidth = 0
  | - Tag 0x0007 (1 bytes, int8u[1]):
  |     0012: 00                                              [.]
  | ThumbnailHeight = 0
  | - Tag 0x0008 (1 bytes, int8u[1]):
  |     0013: 00                                              [.]
JPEG APP1 (6646 bytes):
      0018: 45 78 69 66 00 00 49 49 2a 00 08 00 00 00 0f 00 [Exif..II*.......]
      0028: 0f 01 02 00 06 00 00 00 c2 00 00 00 10 01 02 00 [................]
      0038: 0e 00 00 00 c8 00 00 00 12 01 03 00 01 00 00 00 [................]
      0048: 01 00 00 00 1a 01 0a 00 01 00 00 00 d6 00 00 00 [................]
      0058: 1b 01 0a 00 01 00 00 00 de 00 00 00 28 01 03 00 [............(...]
      0068: 01 00 00 00 02 00 00 00 31 01 02 00 10 00 00 00 [........1.......]
      0078: e6 00 00 00 32 01 02 00 14 00 00 00 f6 00 00 00 [....2...........]
      [snip 6534 bytes]
  ExifByteOrder = II
  + [IFD0 directory with 15 entries, Little-endian]
  | 0)  Make = Canon
  |     - Tag 0x010f (6 bytes, string[6]):
  |         00e0: 43 61 6e 6f 6e 00                               [Canon.]
  | 1)  Model = Canon EOS 70D
  |     - Tag 0x0110 (14 bytes, string[14]):
  |         00e6: 43 61 6e 6f 6e 20 45 4f 53 20 37 30 44 00       [Canon EOS 70D.]
  | 2)  Orientation = 1
  |     - Tag 0x0112 (2 bytes, int16u[1]):
  |         0048: 01 00                                           [..]
  | 3)  XResolution = 300 (300/1)
  |     - Tag 0x011a (8 bytes, rational64s[1]):
  |         00f4: 2c 01 00 00 01 00 00 00                         [,.......]
  | 4)  YResolution = 300 (300/1)
  |     - Tag 0x011b (8 bytes, rational64s[1]):
  |         00fc: 2c 01 00 00 01 00 00 00                         [,.......]
  | 5)  ResolutionUnit = 2
  |     - Tag 0x0128 (2 bytes, int16u[1]):
  |         006c: 02 00                                           [..]
  | 6)  Software = darktable 2.6.2
  |     - Tag 0x0131 (16 bytes, string[16]):
  |         0104: 64 61 72 6b 74 61 62 6c 65 20 32 2e 36 2e 32 00 [darktable 2.6.2.]
  | 7)  ModifyDate = 2019:07:15 20:09:19
  |     - Tag 0x0132 (20 bytes, string[20]):
  |         0114: 32 30 31 39 3a 30 37 3a 31 35 20 32 30 3a 30 39 [2019:07:15 20:09]
  |         0124: 3a 31 39 00                                     [:19.]
  | 8)  Artist = dxfoto.ru
  |     - Tag 0x013b (10 bytes, string[10]):
  |         0128: 64 78 66 6f 74 6f 2e 72 75 00                   [dxfoto.ru.]
  | 9)  Rating = 0
  |     - Tag 0x4746 (2 bytes, int16u[1]):
  |         009c: 00 00                                           [..]
  | 10) RatingPercent = 0
  |     - Tag 0x4749 (4 bytes, int32s[1]):
  |         00a8: 00 00 00 00                                     [....]
  | 11) Copyright = CC-BY 3.0
  |     - Tag 0x8298 (10 bytes, string[10] read as undef[10]):
  |         0132: 43 43 2d 42 59 20 33 2e 30 00                   [CC-BY 3.0.]
  | 12) ExifOffset (SubDirectory) -->
  |     - Tag 0x8769 (4 bytes, int32u[1]):
  |         00c0: 32 01 00 00                                     [2...]
  | + [ExifIFD directory with 37 entries, Little-endian]
  | | 0)  ExposureTime = 0.0025 (1/400)
  | |     - Tag 0x829a (8 bytes, rational64u[1]):
  | |         0312: 01 00 00 00 90 01 00 00                         [........]
  | | 1)  FNumber = 7.1 (71/10)
  | |     - Tag 0x829d (8 bytes, rational64u[1]):
  | |         031a: 47 00 00 00 0a 00 00 00                         [G.......]
  | | 2)  ExposureProgram = 1
  | |     - Tag 0x8822 (2 bytes, int16u[1]):
  | |         0172: 01 00                                           [..]
  | | 3)  ISO = 250
  | |     - Tag 0x8827 (2 bytes, int16u[1]):
  | |         017e: fa 00                                           [..]
  | | 4)  SensitivityType = 2
  | |     - Tag 0x8830 (2 bytes, int16u[1]):
  | |         018a: 02 00                                           [..]
  | | 5)  RecommendedExposureIndex = 250
  | |     - Tag 0x8832 (4 bytes, int32u[1]):
  | |         0196: fa 00 00 00                                     [....]
  | | 6)  ExifVersion = 0230
  | |     - Tag 0x9000 (4 bytes, undef[4]):
  | |         01a2: 30 32 33 30                                     [0230]
  | | 7)  DateTimeOriginal = 2019:07:14 09:21:11
  | |     - Tag 0x9003 (20 bytes, string[20]):
  | |         0322: 32 30 31 39 3a 30 37 3a 31 34 20 30 39 3a 32 31 [2019:07:14 09:21]
  | |         0332: 3a 31 31 00                                     [:11.]
  | | 8)  CreateDate = 2019:07:14 09:21:11
  | |     - Tag 0x9004 (20 bytes, string[20]):
  | |         0336: 32 30 31 39 3a 30 37 3a 31 34 20 30 39 3a 32 31 [2019:07:14 09:21]
  | |         0346: 3a 31 31 00                                     [:11.]
  | | 9)  ComponentsConfiguration = 1 2 3 0
  | |     - Tag 0x9101 (4 bytes, undef[4] read as int8u[4]):
  | |         01c6: 01 02 03 00                                     [....]
  | | 10) ShutterSpeedValue = 8.625 (565248/65536)
  | |     - Tag 0x9201 (8 bytes, rational64s[1]):
  | |         034a: 00 a0 08 00 00 00 01 00                         [........]
  | | 11) ApertureValue = 5.625 (368640/65536)
  | |     - Tag 0x9202 (8 bytes, rational64u[1]):
  | |         0352: 00 a0 05 00 00 00 01 00                         [........]
  | | 12) ExposureCompensation = 0 (0/1)
  | |     - Tag 0x9204 (8 bytes, rational64s[1]):
  | |         035a: 00 00 00 00 01 00 00 00                         [........]
  | | 13) MeteringMode = 5
  | |     - Tag 0x9207 (2 bytes, int16u[1]):
  | |         01f6: 05 00                                           [..]
  | | 14) Flash = 16
  | |     - Tag 0x9209 (2 bytes, int16u[1]):
  | |         0202: 10 00                                           [..]
  | | 15) FocalLength = 250 (250/1)
  | |     - Tag 0x920a (8 bytes, rational64u[1]):
  | |         0362: fa 00 00 00 01 00 00 00                         [........]
  | | 16) MakerNoteCanon (SubDirectory) -->
  | |     - Tag 0x927c (5550 bytes, undef[5550]):
  | |         036a: 27 00 01 00 03 00 31 00 00 00 26 05 00 00 04 00 ['.....1...&.....]
  | |         037a: 03 00 22 00 00 00 88 05 00 00 35 00 09 00 04 00 [..".......5.....]
  | |         038a: 00 00 cc 05 00 00 93 00 03 00 20 00 00 00 dc 05 [.......... .....]
  | |         039a: 00 00 a0 00 03 00 0e 00 00 00 1c 06 00 00 02 00 [................]
  | |         03aa: 03 00 04 00 00 00 38 06 00 00 03 00 03 00 04 00 [......8.........]
  | |         03ba: 00 00 40 06 00 00 06 00 02 00 0e 00 00 00 48 06 [..@...........H.]
  | |         03ca: 00 00 07 00 02 00 18 00 00 00 56 06 00 00 09 00 [..........V.....]
  | |         03da: 02 00 20 00 00 00 6e 06 00 00 0d 00 07 00 00 06 [.. ...n.........]
  | |         03ea: 00 00 8e 06 00 00 0f 00 04 00 74 00 00 00 8e 0c [..........t.....]
  | |         03fa: 00 00 10 00 04 00 01 00 00 00 25 03 00 80 13 00 [..........%.....]
  | |         040a: 03 00 04 00 00 00 5e 0e 00 00 19 00 03 00 01 00 [......^.........]
  | |         041a: 00 00 01 00 00 00 26 00 03 00 8b 00 00 00 66 0e [......&.......f.]
  | |         042a: 00 00 95 00 02 00 4a 00 00 00 7c 0f 00 00 96 00 [......J...|.....]
  | |         043a: 02 00 10 00 00 00 c6 0f 00 00 97 00 07 00 00 04 [................]
  | |         044a: 00 00 d6 0f 00 00 98 00 03 00 04 00 00 00 d6 13 [................]
  | |         045a: 00 00 9a 00 04 00 05 00 00 00 de 13 00 00 aa 00 [................]
  | |         046a: 03 00 06 00 00 00 f2 13 00 00 d0 00 04 00 01 00 [................]
  | |         047a: 00 00 00 00 00 00 e0 00 03 00 11 00 00 00 fe 13 [................]
  | |         048a: 00 00 08 40 03 00 03 00 00 00 20 14 00 00 09 40 [...@...... ....@]
  | |         049a: 03 00 03 00 00 00 26 14 00 00 10 40 02 00 20 00 [......&....@.. .]
  | |         04aa: 00 00 2c 14 00 00 11 40 07 00 fc 00 00 00 4c 14 [..,....@......L.]
  | |         04ba: 00 00 12 40 02 00 20 00 00 00 48 15 00 00 13 40 [...@.. ...H....@]
  | |         04ca: 04 00 0b 00 00 00 68 15 00 00 15 40 07 00 c8 01 [......h....@....]
  | |         04da: 00 00 94 15 00 00 16 40 04 00 07 00 00 00 5c 17 [.......@......\.]
  | |         04ea: 00 00 18 40 04 00 07 00 00 00 78 17 00 00 19 40 [...@......x....@]
  | |         04fa: 07 00 1e 00 00 00 94 17 00 00 20 40 04 00 07 00 [.......... @....]
  | |         050a: 00 00 b2 17 00 00 21 40 04 00 05 00 00 00 ce 17 [......!@........]
  | |         051a: 00 00 24 40 04 00 35 00 00 00 e2 17 00 00 25 40 [..$@..5.......%@]
  | |         052a: 04 00 09 00 00 00 b6 18 00 00 27 40 04 00 06 00 [..........'@....]
  | |         053a: 00 00 da 18 00 00 00 00 00 00 62 00 02 00 00 00 [..........b.....]
  | |         054a: 04 00 00 00 00 00 00 00 00 00 00 00 07 00 00 00 [................]
  | |         055a: 01 00 00 00 00 00 00 00 ff 7f ff 7f 03 00 02 00 [................]
  | |         056a: 00 00 04 00 ff ff 34 10 fa 00 37 00 01 00 a0 00 [......4...7.....]
  | |         057a: 40 01 00 00 00 00 00 00 00 00 ff ff ff ff ff ff [@...............]
  | |         058a: 00 00 00 00 00 00 00 00 ff ff ff ff 00 00 00 00 [................]
  | |         059a: ff 7f ff ff ff ff 00 00 00 00 03 00 44 00 00 00 [............D...]
  | |         05aa: cc 00 d4 00 b4 00 14 01 00 00 00 00 03 00 00 00 [................]
  | |         05ba: 08 00 08 00 98 00 00 00 00 00 00 00 00 00 00 00 [................]
  | |         05ca: 01 00 00 00 00 00 b4 00 14 01 91 00 00 00 00 00 [................]
  | |         05da: f8 00 ff ff ff ff ff ff ff ff 00 00 00 00 00 00 [................]
  | |         05ea: 10 00 00 00 b4 00 00 00 11 00 00 00 00 00 00 00 [................]
  | |         05fa: 40 00 00 00 00 00 00 00 00 00 00 00 00 00 00 00 [@...............]
  | |         060a: ff ff 00 00 00 00 00 00 00 00 00 00 ff ff ff ff [................]
  | |         061a: 69 00 ff ff 00 00 00 00 5a 00 55 00 00 00 00 00 [i.......Z.U.....]
  | |         062a: 00 00 00 00 ff ff 00 00 00 00 3f 00 ff ff ff ff [..........?.....]
  | |         063a: 1c 00 00 00 00 00 00 00 00 00 00 00 00 00 00 00 [................]
  | |         064a: ff ff 28 0a 84 00 00 00 00 00 00 00 00 00 fa 00 [..(.............]
  | |         065a: 16 0b 24 5a 00 00 00 00 00 00 00 00 43 61 6e 6f [..$Z........Cano]
  | |         066a: 6e 20 45 4f 53 20 37 30 44 00 46 69 72 6d 77 61 [n EOS 70D.Firmwa]
  | |         067a: 72 65 20 56 65 72 73 69 6f 6e 20 31 2e 31 2e 32 [re Version 1.1.2]
  | |         068a: 00 00 00 00 00 00 00 00 00 00 00 00 00 00 00 00 [................]
  | |         069a: 00 00 00 00 00 00 00 00 00 00 00 00 00 00 00 00 [................]
  | |         06aa: 00 00 aa aa 7d 35 7d 35 53 00 01 b3 01 a7 00 03 [....}5}5S.......]
  | |         06ba: 00 00 00 00 00 00 01 00 00 06 00 00 00 98 9a 00 [................]
  | |         06ca: 69 00 71 00 67 00 fa 80 00 00 00 00 00 00 00 09 [i.q.g...........]
  | |         06da: 03 00 00 00 00 00 4a 00 fa 00 9c 01 bb bb 4a 00 [......J.......J.]
  | |         06ea: 00 00 40 c0 00 00 00 00 00 00 00 00 00 00 00 00 [..@.............]
  | |         06fa: 00 00 00 00 00 00 00 00 00 00 00 ff 00 4a ff 75 [.............J.u]
  | |         070a: ff a3 00 00 00 00 00 00 00 00 00 00 00 00 00 00 [................]
  | |         071a: eb 25 ee 3d 4a 00 00 00 00 00 00 00 00 00 01 01 [.%.=J...........]
  | |         072a: 00 00 00 00 00 01 00 00 00 00 00 00 00 00 00 00 [................]
  | |         073a: 00 00 00 00 00 00 5a 00 55 04 00 3f 00 00 00 00 [......Z.U..?....]
  | |         074a: 00 00 ff ff ff ff 0c cc cc 03 00 00 00 03 00 00 [................]
  | |         075a: 00 00 00 00 00 53 00 00 00 00 00 00 00 00 4a 00 [.....S........J.]
  | |         076a: 00 00 00 4a 00 00 00 00 00 28 0a 00 00 00 00 00 [...J.....(......]
  | |         077a: 00 00 00 00 00 07 00 00 00 07 00 00 00 07 00 00 [................]
  | |         078a: 00 03 00 00 00 03 00 00 00 03 00 00 00 00 00 00 [................]
  | |         079a: 00 01 00 00 00 00 00 00 00 00 00 00 00 84 00 00 [................]
  | |         07aa: 00 01 00 00 00 00 00 00 00 01 00 00 00 07 00 00 [................]
  | |         07ba: 00 00 00 00 03 05 03 5f d5 00 00 00 00 0e 00 00 [......._........]
  | |         07ca: 00 00 00 00 00 00 00 00 00 00 00 03 07 07 11 0d [................]
  | |         07da: 00 00 00 00 00 00 00 00 00 00 00 00 00 00 00 55 [...............U]
  | |         07ea: 56 05 00 00 03 00 14 04 00 00 00 00 00 00 00 00 [V...............]
  | |         07fa: 00 00 00 00 00 00 00 00 00 00 03 02 02 00 00 00 [................]
  | |         080a: 00 00 00 00 00 01 30 58 10 34 00 37 00 fa 91 57 [......0X.4.7...W]
  | |         081a: 9a 7e 08 ff 00 00 00 00 00 00 00 80 0d cf 01 00 [.~..............]
  | |         082a: 02 17 32 00 00 02 00 00 00 00 00 00 00 00 00 00 [..2.............]
  | |         083a: 00 00 00 00 00 00 00 00 00 00 00 00 00 00 00 00 [................]
  | |         084a: 00 01 00 00 00 60 15 00 00 40 0e 00 00 26 02 00 [.....`...@...&..]
  | |         085a: 00 72 01 00 00 28 02 00 00 e0 02 00 00 d0 02 00 [.r...(..........]
  | |         086a: 00 e0 01 00 00 00 00 00 00 00 00 00 00 d0 02 00 [................]
  | |         087a: 00 e0 01 00 00 d0 02 00 00 e0 01 00 00 00 00 00 [................]
  | |         088a: 00 00 00 00 00 d0 02 00 00 e0 01 00 00 00 00 00 [................]
  | |         089a: 00 00 00 00 00 01 00 00 00 00 00 00 00 00 00 00 [................]
  | |         08aa: 00 00 00 00 00 00 00 00 00 00 00 00 00 00 00 00 [................]
  | |         08ba: 00 ff ff ff 7f ff ff ff 7f 00 00 00 00 00 00 00 [................]
  | |         08ca: 00 00 02 00 00 00 00 00 00 00 00 00 00 0a 02 00 [................]
  | |         08da: 01 00 00 01 00 00 03 00 00 00 00 00 00 00 00 00 [................]
  | |         08ea: 00 00 00 00 00 00 00 00 00 00 00 00 00 00 00 00 [................]
  | |         08fa: 00 00 00 00 01 00 00 00 00 00 00 00 00 01 01 00 [................]
  | |         090a: 31 2e 31 2e 32 00 42 31 28 33 32 29 00 00 00 00 [1.1.2.B1(32)....]
  | |         091a: 05 00 00 00 00 00 00 00 a4 cd 59 00 00 00 00 00 [..........Y.....]
  | |         092a: 00 00 03 80 00 00 00 00 00 00 00 00 00 00 00 00 [................]
  | |         093a: 00 00 00 00 00 00 00 00 00 00 00 00 00 00 00 00 [................]
  | |         094a: 00 00 00 00 00 8e 00 00 00 64 00 00 00 64 00 00 [.........d...d..]
  | |         095a: 00 00 00 00 00 83 25 00 00 00 00 00 00 64 00 00 [......%......d..]
  | |         096a: 00 65 00 00 00 64 00 00 00 08 00 00 00 08 00 00 [.e...d..........]
  | |         097a: 00 08 00 00 00 08 00 00 00 01 00 00 00 00 00 00 [................]
  | |         098a: 00 00 00 00 00 00 00 00 00 00 00 00 00 00 00 00 [................]
  | |         099a: 00 00 00 00 00 00 00 00 00 00 00 00 00 f4 01 00 [................]
  | |         09aa: 04 00 04 74 02 00 00 00 00 00 00 00 00 00 00 00 [...t............]
  | |         09ba: 00 00 00 00 00 00 00 00 00 00 00 00 00 00 00 00 [................]
  | |         09ca: 00 00 00 00 00 00 00 00 00 f4 01 00 04 00 04 74 [...............t]
  | |         09da: 02 00 00 00 00 00 00 00 00 00 00 00 00 00 00 00 [................]
  | |         09ea: 00 00 00 00 00 00 00 00 00 00 00 00 00 00 00 00 [................]
  | |         09fa: 00 00 00 00 00 f4 01 00 04 00 04 74 02 00 00 00 [...........t....]
  | |         0a0a: 00 00 00 00 00 00 00 00 00 00 00 00 00 00 00 00 [................]
  | |         0a1a: 00 00 00 00 00 00 00 00 00 00 00 00 00 00 00 00 [................]
  | |         0a2a: 00 f4 01 00 04 00 04 74 02 00 00 00 00 00 00 00 [.......t........]
  | |         0a3a: 00 00 00 00 00 00 00 00 00 00 00 00 00 00 00 00 [................]
  | |         0a4a: 00 00 00 00 00 00 00 00 00 00 00 00 00 f4 01 00 [................]
  | |         0a5a: 04 00 04 74 02 00 00 00 00 00 00 00 00 01 00 00 [...t............]
  | |         0a6a: 00 00 00 00 00 00 00 00 00 00 00 00 00 02 00 00 [................]
  | |         0a7a: 00 00 00 00 00 03 00 00 00 00 00 00 00 00 00 00 [................]
  | |         0a8a: 00 ef be ad de ef be ad de 00 00 00 00 02 00 00 [................]
  | |         0a9a: 00 00 00 00 00 00 00 00 00 ef be ad de ef be ad [................]
  | |         0aaa: de 00 00 00 00 04 00 00 00 00 00 00 00 00 00 00 [................]
  | |         0aba: 00 ef be ad de ef be ad de 00 00 00 00 00 00 00 [................]
  | |         0aca: 00 00 00 00 00 00 00 00 00 ef be ad de ef be ad [................]
  | |         0ada: de 00 00 00 00 00 00 00 00 00 00 00 00 00 00 00 [................]
  | |         0aea: 00 ef be ad de ef be ad de 00 00 00 00 03 00 00 [................]
  | |         0afa: 00 ef be ad de ef be ad de 00 00 00 00 00 00 00 [................]
  | |         0b0a: 00 00 00 00 00 04 00 00 00 00 00 00 00 00 00 00 [................]
  | |         0b1a: 00 00 00 00 00 00 00 00 00 00 00 00 00 03 00 00 [................]
  | |         0b2a: 00 00 00 00 00 00 00 00 00 00 00 00 00 00 00 00 [................]
  | |         0b3a: 00 00 00 00 00 03 00 00 00 00 00 00 00 00 00 00 [................]
  | |         0b4a: 00 00 00 00 00 00 00 00 00 00 00 00 00 03 00 00 [................]
  | |         [snip 3518 bytes]
  | | + [MakerNotes directory with 39 entries, Little-endian]
  | | | 0)  CanonCameraSettings (SubDirectory) -->
  | | |     - Tag 0x0001 (98 bytes, int16u[49] read as undef[98]):
  | | |         0544: 62 00 02 00 00 00 04 00 00 00 00 00 00 00 00 00 [b...............]
  | | |         0554: 00 00 07 00 00 00 01 00 00 00 00 00 00 00 ff 7f [................]
  | | |         0564: ff 7f 03 00 02 00 00 00 04 00 ff ff 34 10 fa 00 [............4...]
  | | |         0574: 37 00 01 00 a0 00 40 01 00 00 00 00 00 00 00 00 [7.....@.........]
  | | |         0584: ff ff ff ff ff ff 00 00 00 00 00 00 00 00 ff ff [................]
  | | |         0594: ff ff 00 00 00 00 ff 7f ff ff ff ff 00 00 00 00 [................]
  | | |         05a4: 03 00                                           [..]
  | | | + [BinaryData directory, 98 bytes, Little-endian]
  | | | | MacroMode = 2
  | | | | - Tag 0x0001 (2 bytes, int16s[1]):
  | | | |     0546: 02 00                                           [..]
  | | | | SelfTimer = 0
  | | | | - Tag 0x0002 (2 bytes, int16s[1]):
  | | | |     0548: 00 00                                           [..]
  | | | | Quality = 4
  | | | | - Tag 0x0003 (2 bytes, int16s[1]):
  | | | |     054a: 04 00                                           [..]
  | | | | CanonFlashMode = 0
  | | | | - Tag 0x0004 (2 bytes, int16s[1]):
  | | | |     054c: 00 00                                           [..]
  | | | | ContinuousDrive = 0
  | | | | - Tag 0x0005 (2 bytes, int16s[1]):
  | | | |     054e: 00 00                                           [..]
  | | | | FocusMode = 0
  | | | | - Tag 0x0007 (2 bytes, int16s[1]):
  | | | |     0552: 00 00                                           [..]
  | | | | RecordMode = 7
  | | | | - Tag 0x0009 (2 bytes, int16s[1]):
  | | | |     0556: 07 00                                           [..]
  | | | | CanonImageSize = 0
  | | | | - Tag 0x000a (2 bytes, int16s[1]):
  | | | |     0558: 00 00                                           [..]
  | | | | EasyMode = 1
  | | | | - Tag 0x000b (2 bytes, int16s[1]):
  | | | |     055a: 01 00                                           [..]
  | | | | DigitalZoom = 0
  | | | | - Tag 0x000c (2 bytes, int16s[1]):
  | | | |     055c: 00 00                                           [..]
  | | | | Contrast = 0
  | | | | - Tag 0x000d (2 bytes, int16s[1]):
  | | | |     055e: 00 00                                           [..]
  | | | | Saturation = 0
  | | | | - Tag 0x000e (2 bytes, int16s[1]):
  | | | |     0560: 00 00                                           [..]
  | | | | Sharpness = 32767
  | | | | - Tag 0x000f (2 bytes, int16s[1]):
  | | | |     0562: ff 7f                                           [..]
  | | | | CameraISO = 32767
  | | | | - Tag 0x0010 (2 bytes, int16s[1]):
  | | | |     0564: ff 7f                                           [..]
  | | | | MeteringMode = 3
  | | | | - Tag 0x0011 (2 bytes, int16s[1]):
  | | | |     0566: 03 00                                           [..]
  | | | | FocusRange = 2
  | | | | - Tag 0x0012 (2 bytes, int16s[1]):
  | | | |     0568: 02 00                                           [..]
  | | | | AFPoint = 0
  | | | | - Tag 0x0013 (2 bytes, int16s[1]):
  | | | |     056a: 00 00                                           [..]
  | | | | CanonExposureMode = 4
  | | | | - Tag 0x0014 (2 bytes, int16s[1]):
  | | | |     056c: 04 00                                           [..]
  | | | | LensType = 4148
  | | | | - Tag 0x0016 (2 bytes, int16u[1]):
  | | | |     0570: 34 10                                           [4.]
  | | | | MaxFocalLength = 250
  | | | | - Tag 0x0017 (2 bytes, int16u[1]):
  | | | |     0572: fa 00                                           [..]
  | | | | MinFocalLength = 55
  | | | | - Tag 0x0018 (2 bytes, int16u[1]):
  | | | |     0574: 37 00                                           [7.]
  | | | | FocalUnits = 1
  | | | | - Tag 0x0019 (2 bytes, int16s[1]):
  | | | |     0576: 01 00                                           [..]
  | | | | MaxAperture = 160
  | | | | - Tag 0x001a (2 bytes, int16s[1]):
  | | | |     0578: a0 00                                           [..]
  | | | | MinAperture = 320
  | | | | - Tag 0x001b (2 bytes, int16s[1]):
  | | | |     057a: 40 01                                           [@.]
  | | | | FlashModel = 0
  | | | | - Tag 0x001c, mask 0x7f (2 bytes, int16s[1]):
  | | | |     057c: 00 00                                           [..]
  | | | | FlashBits = 0
  | | | | - Tag 0x001d (2 bytes, int16s[1]):
  | | | |     057e: 00 00                                           [..]
  | | | | FocusContinuous = -1
  | | | | - Tag 0x0020 (2 bytes, int16s[1]):
  | | | |     0584: ff ff                                           [..]
  | | | | AESetting = -1
  | | | | - Tag 0x0021 (2 bytes, int16s[1]):
  | | | |     0586: ff ff                                           [..]
  | | | | ImageStabilization = -1
  | | | | - Tag 0x0022 (2 bytes, int16s[1]):
  | | | |     0588: ff ff                                           [..]
  | | | | DisplayAperture = 0
  | | | | - Tag 0x0023 (2 bytes, int16s[1]):
  | | | |     058a: 00 00                                           [..]
  | | | | ZoomSourceWidth = 0
  | | | | - Tag 0x0024 (2 bytes, int16s[1]):
  | | | |     058c: 00 00                                           [..]
  | | | | ZoomTargetWidth = 0
  | | | | - Tag 0x0025 (2 bytes, int16s[1]):
  | | | |     058e: 00 00                                           [..]
  | | | | SpotMeteringMode = -1
  | | | | - Tag 0x0027 (2 bytes, int16s[1]):
  | | | |     0592: ff ff                                           [..]
  | | | | PhotoEffect = -1
  | | | | - Tag 0x0028 (2 bytes, int16s[1]):
  | | | |     0594: ff ff                                           [..]
  | | | | ManualFlashOutput = 0
  | | | | - Tag 0x0029 (2 bytes, int16s[1]):
  | | | |     0596: 00 00                                           [..]
  | | | | ColorTone = 0
  | | | | - Tag 0x002a (2 bytes, int16s[1]):
  | | | |     0598: 00 00                                           [..]
  | | | | SRAWQuality = 0
  | | | | - Tag 0x002e (2 bytes, int16s[1]):
  | | | |     05a0: 00 00                                           [..]
  | | | 1)  CanonShotInfo (SubDirectory) -->
  | | |     - Tag 0x0004 (68 bytes, int16u[34] read as undef[68]):
  | | |         05a6: 44 00 00 00 cc 00 d4 00 b4 00 14 01 00 00 00 00 [D...............]
  | | |         05b6: 03 00 00 00 08 00 08 00 98 00 00 00 00 00 00 00 [................]
  | | |         05c6: 00 00 00 00 01 00 00 00 00 00 b4 00 14 01 91 00 [................]
  | | |         05d6: 00 00 00 00 f8 00 ff ff ff ff ff ff ff ff 00 00 [................]
  | | |         05e6: 00 00 00 00                                     [....]
  | | | + [BinaryData directory, 68 bytes, Little-endian]
  | | | | AutoISO = 0
  | | | | - Tag 0x0001 (2 bytes, int16s[1]):
  | | | |     05a8: 00 00                                           [..]
  | | | | BaseISO = 204
  | | | | - Tag 0x0002 (2 bytes, int16s[1]):
  | | | |     05aa: cc 00                                           [..]
  | | | | MeasuredEV = 212
  | | | | - Tag 0x0003 (2 bytes, int16s[1]):
  | | | |     05ac: d4 00                                           [..]
  | | | | TargetAperture = 180
  | | | | - Tag 0x0004 (2 bytes, int16s[1]):
  | | | |     05ae: b4 00                                           [..]
  | | | | TargetExposureTime = 276
  | | | | - Tag 0x0005 (2 bytes, int16s[1]):
  | | | |     05b0: 14 01                                           [..]
  | | | | ExposureCompensation = 0
  | | | | - Tag 0x0006 (2 bytes, int16s[1]):
  | | | |     05b2: 00 00                                           [..]
  | | | | WhiteBalance = 0
  | | | | - Tag 0x0007 (2 bytes, int16s[1]):
  | | | |     05b4: 00 00                                           [..]
  | | | | SlowShutter = 3
  | | | | - Tag 0x0008 (2 bytes, int16s[1]):
  | | | |     05b6: 03 00                                           [..]
  | | | | SequenceNumber = 0
  | | | | - Tag 0x0009 (2 bytes, int16s[1]):
  | | | |     05b8: 00 00                                           [..]
  | | | | OpticalZoomCode = 8
  | | | | - Tag 0x000a (2 bytes, int16s[1]):
  | | | |     05ba: 08 00                                           [..]
  | | | | CameraTemperature = 152
  | | | | - Tag 0x000c (2 bytes, int16s[1]):
  | | | |     05be: 98 00                                           [..]
  | | | | FlashGuideNumber = 0
  | | | | - Tag 0x000d (2 bytes, int16s[1]):
  | | | |     05c0: 00 00                                           [..]
  | | | | AFPointsInFocus = 0
  | | | | - Tag 0x000e (2 bytes, int16s[1]):
  | | | |     05c2: 00 00                                           [..]
  | | | | FlashExposureComp = 0
  | | | | - Tag 0x000f (2 bytes, int16s[1]):
  | | | |     05c4: 00 00                                           [..]
  | | | | AutoExposureBracketing = 0
  | | | | - Tag 0x0010 (2 bytes, int16s[1]):
  | | | |     05c6: 00 00                                           [..]
  | | | | AEBBracketValue = 0
  | | | | - Tag 0x0011 (2 bytes, int16s[1]):
  | | | |     05c8: 00 00                                           [..]
  | | | | ControlMode = 1
  | | | | - Tag 0x0012 (2 bytes, int16s[1]):
  | | | |     05ca: 01 00                                           [..]
  | | | | FocusDistanceUpper = 0
  | | | | - Tag 0x0013 (2 bytes, int16u[1]):
  | | | |     05cc: 00 00                                           [..]
  | | | | FNumber = 180
  | | | | - Tag 0x0015 (2 bytes, int16s[1]):
  | | | |     05d0: b4 00                                           [..]
  | | | | ExposureTime = 276
  | | | | - Tag 0x0016 (2 bytes, int16s[1]):
  | | | |     05d2: 14 01                                           [..]
  | | | | MeasuredEV2 = 145
  | | | | - Tag 0x0017 (2 bytes, int16s[1]):
  | | | |     05d4: 91 00                                           [..]
  | | | | BulbDuration = 0
  | | | | - Tag 0x0018 (2 bytes, int16s[1]):
  | | | |     05d6: 00 00                                           [..]
  | | | | CameraType = 248
  | | | | - Tag 0x001a (2 bytes, int16s[1]):
  | | | |     05da: f8 00                                           [..]
  | | | | AutoRotate = -1
  | | | | - Tag 0x001b (2 bytes, int16s[1]):
  | | | |     05dc: ff ff                                           [..]
  | | | | NDFilter = -1
  | | | | - Tag 0x001c (2 bytes, int16s[1]):
  | | | |     05de: ff ff                                           [..]
  | | | | SelfTimer2 = -1
  | | | | - Tag 0x001d (2 bytes, int16s[1]):
  | | | |     05e0: ff ff                                           [..]
  | | | | FlashOutput = 0
  | | | | - Tag 0x0021 (2 bytes, int16s[1]):
  | | | |     05e8: 00 00                                           [..]
  | | | 2)  TimeInfo (SubDirectory) -->
  | | |     - Tag 0x0035 (16 bytes, int32s[4] read as undef[16]):
  | | |         05ea: 10 00 00 00 b4 00 00 00 11 00 00 00 00 00 00 00 [................]
  | | | + [BinaryData directory, 16 bytes, Little-endian]
  | | | | TimeZone = 180
  | | | | - Tag 0x0001 (4 bytes, int32s[1]):
  | | | |     05ee: b4 00 00 00                                     [....]
  | | | | TimeZoneCity = 17
  | | | | - Tag 0x0002 (4 bytes, int32s[1]):
  | | | |     05f2: 11 00 00 00                                     [....]
  | | | | DaylightSavings = 0
  | | | | - Tag 0x0003 (4 bytes, int32s[1]):
  | | | |     05f6: 00 00 00 00                                     [....]
  | | | 3)  CanonFileInfo (SubDirectory) -->
  | | |     - Tag 0x0093 (64 bytes, int16u[32] read as undef[64]):
  | | |         05fa: 40 00 00 00 00 00 00 00 00 00 00 00 00 00 00 00 [@...............]
  | | |         060a: ff ff 00 00 00 00 00 00 00 00 00 00 ff ff ff ff [................]
  | | |         061a: 69 00 ff ff 00 00 00 00 5a 00 55 00 00 00 00 00 [i.......Z.U.....]
  | | |         062a: 00 00 00 00 ff ff 00 00 00 00 3f 00 ff ff ff ff [..........?.....]
  | | | + [BinaryData directory, 64 bytes, Little-endian]
  | | | | BracketMode = 0
  | | | | - Tag 0x0003 (2 bytes, int16s[1]):
  | | | |     0600: 00 00                                           [..]
  | | | | BracketValue = 0
  | | | | - Tag 0x0004 (2 bytes, int16s[1]):
  | | | |     0602: 00 00                                           [..]
  | | | | BracketShotNumber = 0
  | | | | - Tag 0x0005 (2 bytes, int16s[1]):
  | | | |     0604: 00 00                                           [..]
  | | | | RawJpgQuality = 0
  | | | | - Tag 0x0006 (2 bytes, int16s[1]):
  | | | |     0606: 00 00                                           [..]
  | | | | RawJpgSize = 0
  | | | | - Tag 0x0007 (2 bytes, int16s[1]):
  | | | |     0608: 00 00                                           [..]
  | | | | LongExposureNoiseReduction2 = -1
  | | | | - Tag 0x0008 (2 bytes, int16s[1]):
  | | | |     060a: ff ff                                           [..]
  | | | | WBBracketMode = 0
  | | | | - Tag 0x0009 (2 bytes, int16s[1]):
  | | | |     060c: 00 00                                           [..]
  | | | | WBBracketValueAB = 0
  | | | | - Tag 0x000c (2 bytes, int16s[1]):
  | | | |     0612: 00 00                                           [..]
  | | | | WBBracketValueGM = 0
  | | | | - Tag 0x000d (2 bytes, int16s[1]):
  | | | |     0614: 00 00                                           [..]
  | | | | FilterEffect = -1
  | | | | - Tag 0x000e (2 bytes, int16s[1]):
  | | | |     0616: ff ff                                           [..]
  | | | | ToningEffect = -1
  | | | | - Tag 0x000f (2 bytes, int16s[1]):
  | | | |     0618: ff ff                                           [..]
  | | | | LiveViewShooting = 0
  | | | | - Tag 0x0013 (2 bytes, int16s[1]):
  | | | |     0620: 00 00                                           [..]
  | | | | FocusDistanceUpper = 90
  | | | | - Tag 0x0014 (2 bytes, int16u[1]):
  | | | |     0622: 5a 00                                           [Z.]
  | | | | FocusDistanceLower = 85
  | | | | - Tag 0x0015 (2 bytes, int16u[1]):
  | | | |     0624: 55 00                                           [U.]
  | | | | ShutterMode = 0
  | | | | - Tag 0x0017 (2 bytes, int16s[1]):
  | | | |     0628: 00 00                                           [..]
  | | | | FlashExposureLock = 0
  | | | | - Tag 0x0019 (2 bytes, int16s[1]):
  | | | |     062c: 00 00                                           [..]
  | | | 4)  ProcessingInfo (SubDirectory) -->
  | | |     - Tag 0x00a0 (28 bytes, int16u[14] read as undef[28]):
  | | |         063a: 1c 00 00 00 00 00 00 00 00 00 00 00 00 00 00 00 [................]
  | | |         064a: ff ff 28 0a 84 00 00 00 00 00 00 00             [..(.........]
  | | | + [BinaryData directory, 28 bytes, Little-endian]
  | | | | ToneCurve = 0
  | | | | - Tag 0x0001 (2 bytes, int16s[1]):
  | | | |     063c: 00 00                                           [..]
  | | | | Sharpness = 0
  | | | | - Tag 0x0002 (2 bytes, int16s[1]):
  | | | |     063e: 00 00                                           [..]
  | | | | SharpnessFrequency = 0
  | | | | - Tag 0x0003 (2 bytes, int16s[1]):
  | | | |     0640: 00 00                                           [..]
  | | | | SensorRedLevel = 0
  | | | | - Tag 0x0004 (2 bytes, int16s[1]):
  | | | |     0642: 00 00                                           [..]
  | | | | SensorBlueLevel = 0
  | | | | - Tag 0x0005 (2 bytes, int16s[1]):
  | | | |     0644: 00 00                                           [..]
  | | | | WhiteBalanceRed = 0
  | | | | - Tag 0x0006 (2 bytes, int16s[1]):
  | | | |     0646: 00 00                                           [..]
  | | | | WhiteBalanceBlue = 0
  | | | | - Tag 0x0007 (2 bytes, int16s[1]):
  | | | |     0648: 00 00                                           [..]
  | | | | WhiteBalance = -1
  | | | | - Tag 0x0008 (2 bytes, int16s[1]):
  | | | |     064a: ff ff                                           [..]
  | | | | ColorTemperature = 2600
  | | | | - Tag 0x0009 (2 bytes, int16s[1]):
  | | | |     064c: 28 0a                                           [(.]
  | | | | PictureStyle = 132
  | | | | - Tag 0x000a (2 bytes, int16s[1]):
  | | | |     064e: 84 00                                           [..]
  | | | | DigitalGain = 0
  | | | | - Tag 0x000b (2 bytes, int16s[1]):
  | | | |     0650: 00 00                                           [..]
  | | | | WBShiftAB = 0
  | | | | - Tag 0x000c (2 bytes, int16s[1]):
  | | | |     0652: 00 00                                           [..]
  | | | | WBShiftGM = 0
  | | | | - Tag 0x000d (2 bytes, int16s[1]):
  | | | |     0654: 00 00                                           [..]
  | | | 5)  CanonFocalLength (SubDirectory) -->
  | | |     - Tag 0x0002 (8 bytes, int16u[4] read as undef[8]):
  | | |         0656: 00 00 fa 00 16 0b 24 5a                         [......$Z]
  | | | + [BinaryData directory, 8 bytes, Little-endian]
  | | | | FocalType = 0
  | | | | - Tag 0x0000 (2 bytes, int16u[1]):
  | | | |     0656: 00 00                                           [..]
  | | | | FocalLength = 250
  | | | | - Tag 0x0001 (2 bytes, int16u[1]):
  | | | |     0658: fa 00                                           [..]
  | | | | FocalPlaneXUnknown = 2838
  | | | | - Tag 0x0002 (2 bytes, int16u[1]):
  | | | |     065a: 16 0b                                           [..]
  | | | | FocalPlaneYUnknown = 23076
  | | | | - Tag 0x0003 (2 bytes, int16u[1]):
  | | | |     065c: 24 5a                                           [$Z]
  | | | 6)  CanonFlashInfo = 0 0 0 0
  | | |     - Tag 0x0003 (8 bytes, int16u[4]):
  | | |         065e: 00 00 00 00 00 00 00 00                         [........]
  | | | 7)  CanonImageType = Canon EOS 70D
  | | |     - Tag 0x0006 (14 bytes, string[14]):
  | | |         0666: 43 61 6e 6f 6e 20 45 4f 53 20 37 30 44 00       [Canon EOS 70D.]
  | | | 8)  CanonFirmwareVersion = Firmware Version 1.1.2
  | | |     - Tag 0x0007 (24 bytes, string[24]):
  | | |         0674: 46 69 72 6d 77 61 72 65 20 56 65 72 73 69 6f 6e [Firmware Version]
  | | |         0684: 20 31 2e 31 2e 32 00 00                         [ 1.1.2..]
  | | | 9)  OwnerName = 
  | | |     - Tag 0x0009 (32 bytes, string[32]):
  | | |         068c: 00 00 00 00 00 00 00 00 00 00 00 00 00 00 00 00 [................]
  | | |         069c: 00 00 00 00 00 00 00 00 00 00 00 00 00 00 00 00 [................]
  | | | 10) CanonCameraInfo70D (SubDirectory) -->
  | | |     - Tag 0x000d (1536 bytes, undef[1536]):
  | | |         06ac: aa aa 7d 35 7d 35 53 00 01 b3 01 a7 00 03 00 00 [..}5}5S.........]
  | | |         06bc: 00 00 00 00 01 00 00 06 00 00 00 98 9a 00 69 00 [..............i.]
  | | |         06cc: 71 00 67 00 fa 80 00 00 00 00 00 00 00 09 03 00 [q.g.............]
  | | |         06dc: 00 00 00 00 4a 00 fa 00 9c 01 bb bb 4a 00 00 00 [....J.......J...]
  | | |         06ec: 40 c0 00 00 00 00 00 00 00 00 00 00 00 00 00 00 [@...............]
  | | |         06fc: 00 00 00 00 00 00 00 00 00 ff 00 4a ff 75 ff a3 [...........J.u..]
  | | |         070c: 00 00 00 00 00 00 00 00 00 00 00 00 00 00 eb 25 [...............%]
  | | |         071c: ee 3d 4a 00 00 00 00 00 00 00 00 00 01 01 00 00 [.=J.............]
  | | |         072c: 00 00 00 01 00 00 00 00 00 00 00 00 00 00 00 00 [................]
  | | |         073c: 00 00 00 00 5a 00 55 04 00 3f 00 00 00 00 00 00 [....Z.U..?......]
  | | |         074c: ff ff ff ff 0c cc cc 03 00 00 00 03 00 00 00 00 [................]
  | | |         075c: 00 00 00 53 00 00 00 00 00 00 00 00 4a 00 00 00 [...S........J...]
  | | |         076c: 00 4a 00 00 00 00 00 28 0a 00 00 00 00 00 00 00 [.J.....(........]
  | | |         077c: 00 00 00 07 00 00 00 07 00 00 00 07 00 00 00 03 [................]
  | | |         078c: 00 00 00 03 00 00 00 03 00 00 00 00 00 00 00 01 [................]
  | | |         079c: 00 00 00 00 00 00 00 00 00 00 00 84 00 00 00 01 [................]
  | | |         07ac: 00 00 00 00 00 00 00 01 00 00 00 07 00 00 00 00 [................]
  | | |         07bc: 00 00 03 05 03 5f d5 00 00 00 00 0e 00 00 00 00 [....._..........]
  | | |         07cc: 00 00 00 00 00 00 00 00 00 03 07 07 11 0d 00 00 [................]
  | | |         07dc: 00 00 00 00 00 00 00 00 00 00 00 00 00 55 56 05 [.............UV.]
  | | |         07ec: 00 00 03 00 14 04 00 00 00 00 00 00 00 00 00 00 [................]
  | | |         07fc: 00 00 00 00 00 00 00 00 03 02 02 00 00 00 00 00 [................]
  | | |         080c: 00 00 00 01 30 58 10 34 00 37 00 fa 91 57 9a 7e [....0X.4.7...W.~]
  | | |         081c: 08 ff 00 00 00 00 00 00 00 80 0d cf 01 00 02 17 [................]
  | | |         082c: 32 00 00 02 00 00 00 00 00 00 00 00 00 00 00 00 [2...............]
  | | |         083c: 00 00 00 00 00 00 00 00 00 00 00 00 00 00 00 01 [................]
  | | |         084c: 00 00 00 60 15 00 00 40 0e 00 00 26 02 00 00 72 [...`...@...&...r]
  | | |         085c: 01 00 00 28 02 00 00 e0 02 00 00 d0 02 00 00 e0 [...(............]
  | | |         086c: 01 00 00 00 00 00 00 00 00 00 00 d0 02 00 00 e0 [................]
  | | |         087c: 01 00 00 d0 02 00 00 e0 01 00 00 00 00 00 00 00 [................]
  | | |         088c: 00 00 00 d0 02 00 00 e0 01 00 00 00 00 00 00 00 [................]
  | | |         089c: 00 00 00 01 00 00 00 00 00 00 00 00 00 00 00 00 [................]
  | | |         08ac: 00 00 00 00 00 00 00 00 00 00 00 00 00 00 00 ff [................]
  | | |         08bc: ff ff 7f ff ff ff 7f 00 00 00 00 00 00 00 00 00 [................]
  | | |         08cc: 02 00 00 00 00 00 00 00 00 00 00 0a 02 00 01 00 [................]
  | | |         08dc: 00 01 00 00 03 00 00 00 00 00 00 00 00 00 00 00 [................]
  | | |         08ec: 00 00 00 00 00 00 00 00 00 00 00 00 00 00 00 00 [................]
  | | |         08fc: 00 00 01 00 00 00 00 00 00 00 00 01 01 00 31 2e [..............1.]
  | | |         090c: 31 2e 32 00 42 31 28 33 32 29 00 00 00 00 05 00 [1.2.B1(32)......]
  | | |         091c: 00 00 00 00 00 00 a4 cd 59 00 00 00 00 00 00 00 [........Y.......]
  | | |         092c: 03 80 00 00 00 00 00 00 00 00 00 00 00 00 00 00 [................]
  | | |         093c: 00 00 00 00 00 00 00 00 00 00 00 00 00 00 00 00 [................]
  | | |         094c: 00 00 00 8e 00 00 00 64 00 00 00 64 00 00 00 00 [.......d...d....]
  | | |         095c: 00 00 00 83 25 00 00 00 00 00 00 64 00 00 00 65 [....%......d...e]
  | | |         096c: 00 00 00 64 00 00 00 08 00 00 00 08 00 00 00 08 [...d............]
  | | |         097c: 00 00 00 08 00 00 00 01 00 00 00 00 00 00 00 00 [................]
  | | |         098c: 00 00 00 00 00 00 00 00 00 00 00 00 00 00 00 00 [................]
  | | |         099c: 00 00 00 00 00 00 00 00 00 00 00 f4 01 00 04 00 [................]
  | | |         09ac: 04 74 02 00 00 00 00 00 00 00 00 00 00 00 00 00 [.t..............]
  | | |         09bc: 00 00 00 00 00 00 00 00 00 00 00 00 00 00 00 00 [................]
  | | |         09cc: 00 00 00 00 00 00 00 f4 01 00 04 00 04 74 02 00 [.............t..]
  | | |         09dc: 00 00 00 00 00 00 00 00 00 00 00 00 00 00 00 00 [................]
  | | |         09ec: 00 00 00 00 00 00 00 00 00 00 00 00 00 00 00 00 [................]
  | | |         09fc: 00 00 00 f4 01 00 04 00 04 74 02 00 00 00 00 00 [.........t......]
  | | |         0a0c: 00 00 00 00 00 00 00 00 00 00 00 00 00 00 00 00 [................]
  | | |         0a1c: 00 00 00 00 00 00 00 00 00 00 00 00 00 00 00 f4 [................]
  | | |         0a2c: 01 00 04 00 04 74 02 00 00 00 00 00 00 00 00 00 [.....t..........]
  | | |         0a3c: 00 00 00 00 00 00 00 00 00 00 00 00 00 00 00 00 [................]
  | | |         0a4c: 00 00 00 00 00 00 00 00 00 00 00 f4 01 00 04 00 [................]
  | | |         0a5c: 04 74 02 00 00 00 00 00 00 00 00 01 00 00 00 00 [.t..............]
  | | |         0a6c: 00 00 00 00 00 00 00 00 00 00 00 02 00 00 00 00 [................]
  | | |         0a7c: 00 00 00 03 00 00 00 00 00 00 00 00 00 00 00 ef [................]
  | | |         0a8c: be ad de ef be ad de 00 00 00 00 02 00 00 00 00 [................]
  | | |         0a9c: 00 00 00 00 00 00 00 ef be ad de ef be ad de 00 [................]
  | | |         0aac: 00 00 00 04 00 00 00 00 00 00 00 00 00 00 00 ef [................]
  | | |         0abc: be ad de ef be ad de 00 00 00 00 00 00 00 00 00 [................]
  | | |         0acc: 00 00 00 00 00 00 00 ef be ad de ef be ad de 00 [................]
  | | |         0adc: 00 00 00 00 00 00 00 00 00 00 00 00 00 00 00 ef [................]
  | | |         0aec: be ad de ef be ad de 00 00 00 00 03 00 00 00 ef [................]
  | | |         0afc: be ad de ef be ad de 00 00 00 00 00 00 00 00 00 [................]
  | | |         0b0c: 00 00 00 04 00 00 00 00 00 00 00 00 00 00 00 00 [................]
  | | |         0b1c: 00 00 00 00 00 00 00 00 00 00 00 03 00 00 00 00 [................]
  | | |         0b2c: 00 00 00 00 00 00 00 00 00 00 00 00 00 00 00 00 [................]
  | | |         0b3c: 00 00 00 03 00 00 00 00 00 00 00 00 00 00 00 00 [................]
  | | |         0b4c: 00 00 00 00 00 00 00 00 00 00 00 03 00 00 00 00 [................]
  | | |         0b5c: 00 00 00 00 00 00 00 00 00 00 00 00 00 00 00 87 [................]
  | | |         0b6c: 00 87 00 87 00 00 00 ff ff ff ff ff ff ff ff 00 [................]
  | | |         0b7c: 00 00 00 00 00 00 00 00 00 00 00 00 00 00 00 00 [................]
  | | |         0b8c: 00 00 00 00 00 00 00 00 00 00 00 00 00 00 00 00 [................]
  | | |         0b9c: 04 00 04 00 04 00 04 00 00 00 00 00 00 00 00 00 [................]
  | | |         0bac: 00 00 00 00 00 00 00 00 00 00 00 00 00 00 00 00 [................]
  | | |         0bbc: 00 00 00 00 00 00 00 00 04 00 04 00 04 00 04 00 [................]
  | | |         0bcc: 00 00 00 00 00 00 00 00 00 00 00 00 00 00 00 00 [................]
  | | |         0bdc: 00 00 00 00 00 00 00 00 00 00 00 00 00 00 00 00 [................]
  | | |         0bec: 04 00 04 00 04 00 04 00 00 00 00 00 00 00 00 00 [................]
  | | |         0bfc: 00 00 00 00 00 00 00 00 00 00 00 00 00 00 00 00 [................]
  | | |         0c0c: 00 00 00 00 00 00 00 00 04 00 04 00 04 00 04 00 [................]
  | | |         0c1c: 00 00 00 00 00 00 00 00 00 00 00 00 00 00 00 00 [................]
  | | |         0c2c: 00 00 00 00 00 00 00 00 00 00 00 00 00 00 00 00 [................]
  | | |         0c3c: 04 00 04 00 04 00 04 00 00 00 00 00 00 00 00 07 [................]
  | | |         0c4c: f4 2a 5d da 01 00 00 04 00 01 00 00 00 00 00 04 [.*].............]
  | | |         0c5c: 00 01 00 00 00 00 00 04 00 01 00 00 00 00 00 00 [................]
  | | |         0c6c: 00 00 33 00 00 00 00 00 00 00 00 00 00 00 00 90 [..3.............]
  | | |         0c7c: 37 00 00 d8 3a 01 00 00 00 00 00 00 00 00 00 00 [7...:...........]
  | | |         0c8c: 00 00 00 03 00 00 00 53 00 00 00 58 00 03 80 00 [.......S...X....]
  | | |         0c9c: 00 00 00 03 00 00 00 4d 00 00 00 4e 00 00 00 00 [.......M...N....]
  | | | + [BinaryData directory, 1536 bytes, Little-endian]
  | | | | FNumber = 53
  | | | | - Tag 0x0003 (1 bytes, int8u[1]):
  | | | |     06af: 35                                              [5]
  | | | | ExposureTime = 125
  | | | | - Tag 0x0004 (1 bytes, int8u[1]):
  | | | |     06b0: 7d                                              [}]
  | | | | ISO = 83
  | | | | - Tag 0x0006 (1 bytes, int8u[1]):
  | | | |     06b2: 53                                              [S]
  | | | | CameraTemperature = 152
  | | | | - Tag 0x001b (1 bytes, int8u[1]):
  | | | |     06c7: 98                                              [.]
  | | | | FocalLength = 250
  | | | | - Tag 0x0023 (2 bytes, int16uRev[1]):
  | | | |     06cf: 00 fa                                           [..]
  | | | | CameraOrientation = 0
  | | | | - Tag 0x0084 (1 bytes, int8u[1]):
  | | | |     0730: 00                                              [.]
  | | | | FocusDistanceUpper = 90
  | | | | - Tag 0x0093 (2 bytes, int16uRev[1]):
  | | | |     073f: 00 5a                                           [.Z]
  | | | | FocusDistanceLower = 85
  | | | | - Tag 0x0095 (2 bytes, int16uRev[1]):
  | | | |     0741: 00 55                                           [.U]
  | | | | ColorTemperature = 2600
  | | | | - Tag 0x00c7 (2 bytes, int16u[1]):
  | | | |     0773: 28 0a                                           [(.]
  | | | | LensType = 4148
  | | | | - Tag 0x0166 (2 bytes, int16uRev[1]):
  | | | |     0812: 10 34                                           [.4]
  | | | | MinFocalLength = 55
  | | | | - Tag 0x0168 (2 bytes, int16uRev[1]):
  | | | |     0814: 00 37                                           [.7]
  | | | | MaxFocalLength = 250
  | | | | - Tag 0x016a (2 bytes, int16uRev[1]):
  | | | |     0816: 00 fa                                           [..]
  | | | | FirmwareVersion = 1.1.2
  | | | | - Tag 0x025e (6 bytes, string[6]):
  | | | |     090a: 31 2e 31 2e 32 00                               [1.1.2.]
  | | | | FileIndex = 9603
  | | | | - Tag 0x02b3 (4 bytes, int32u[1]):
  | | | |     095f: 83 25 00 00                                     [.%..]
  | | | | DirectoryIndex = 101
  | | | | - Tag 0x02bf (4 bytes, int32u[1]):
  | | | |     096b: 65 00 00 00                                     [e...]
  | | | | PictureStyleInfo (SubDirectory) -->
  | | | | - Tag 0x03cf (561 bytes, int8u[1]):
  | | | |     0a7b: 00 00 00 00 03 00 00 00 00 00 00 00 00 00 00 00 [................]
  | | | |     0a8b: ef be ad de ef be ad de 00 00 00 00 02 00 00 00 [................]
  | | | |     0a9b: 00 00 00 00 00 00 00 00 ef be ad de ef be ad de [................]
  | | | |     0aab: 00 00 00 00 04 00 00 00 00 00 00 00 00 00 00 00 [................]
  | | | |     0abb: ef be ad de ef be ad de 00 00 00 00 00 00 00 00 [................]
  | | | |     0acb: 00 00 00 00 00 00 00 00 ef be ad de ef be ad de [................]
  | | | |     0adb: 00 00 00 00 00 00 00 00 00 00 00 00 00 00 00 00 [................]
  | | | |     0aeb: ef be ad de ef be ad de 00 00 00 00 03 00 00 00 [................]
  | | | |     0afb: ef be ad de ef be ad de 00 00 00 00 00 00 00 00 [................]
  | | | |     0b0b: 00 00 00 00 04 00 00 00 00 00 00 00 00 00 00 00 [................]
  | | | |     0b1b: 00 00 00 00 00 00 00 00 00 00 00 00 03 00 00 00 [................]
  | | | |     0b2b: 00 00 00 00 00 00 00 00 00 00 00 00 00 00 00 00 [................]
  | | | |     0b3b: 00 00 00 00 03 00 00 00 00 00 00 00 00 00 00 00 [................]
  | | | |     0b4b: 00 00 00 00 00 00 00 00 00 00 00 00 03 00 00 00 [................]
  | | | |     0b5b: 00 00 00 00 00 00 00 00 00 00 00 00 00 00 00 00 [................]
  | | | |     0b6b: 87 00 87 00 87 00 00 00 ff ff ff ff ff ff ff ff [................]
  | | | |     0b7b: 00 00 00 00 00 00 00 00 00 00 00 00 00 00 00 00 [................]
  | | | |     0b8b: 00 00 00 00 00 00 00 00 00 00 00 00 00 00 00 00 [................]
  | | | |     0b9b: 00 04 00 04 00 04 00 04 00 00 00 00 00 00 00 00 [................]
  | | | |     0bab: 00 00 00 00 00 00 00 00 00 00 00 00 00 00 00 00 [................]
  | | | |     0bbb: 00 00 00 00 00 00 00 00 00 04 00 04 00 04 00 04 [................]
  | | | |     0bcb: 00 00 00 00 00 00 00 00 00 00 00 00 00 00 00 00 [................]
  | | | |     0bdb: 00 00 00 00 00 00 00 00 00 00 00 00 00 00 00 00 [................]
  | | | |     0beb: 00 04 00 04 00 04 00 04 00 00 00 00 00 00 00 00 [................]
  | | | |     0bfb: 00 00 00 00 00 00 00 00 00 00 00 00 00 00 00 00 [................]
  | | | |     0c0b: 00 00 00 00 00 00 00 00 00 04 00 04 00 04 00 04 [................]
  | | | |     0c1b: 00 00 00 00 00 00 00 00 00 00 00 00 00 00 00 00 [................]
  | | | |     0c2b: 00 00 00 00 00 00 00 00 00 00 00 00 00 00 00 00 [................]
  | | | |     0c3b: 00 04 00 04 00 04 00 04 00 00 00 00 00 00 00 00 [................]
  | | | |     0c4b: 07 f4 2a 5d da 01 00 00 04 00 01 00 00 00 00 00 [..*]............]
  | | | |     0c5b: 04 00 01 00 00 00 00 00 04 00 01 00 00 00 00 00 [................]
  | | | |     0c6b: 00 00 00 33 00 00 00 00 00 00 00 00 00 00 00 00 [...3............]
  | | | |     0c7b: 90 37 00 00 d8 3a 01 00 00 00 00 00 00 00 00 00 [.7...:..........]
  | | | |     0c8b: 00 00 00 00 03 00 00 00 53 00 00 00 58 00 03 80 [........S...X...]
  | | | |     0c9b: 00 00 00 00 03 00 00 00 4d 00 00 00 4e 00 00 00 [........M...N...]
  | | | |     0cab: 00                                              [.]
  | | | | + [BinaryData directory, 561 bytes, Little-endian]
  | | | | | ContrastStandard = 0
  | | | | | - Tag 0x0000 (4 bytes, int32s[1]):
  | | | | |     0a7b: 00 00 00 00                                     [....]
  | | | | | SharpnessStandard = 3
  | | | | | - Tag 0x0004 (4 bytes, int32s[1]):
  | | | | |     0a7f: 03 00 00 00                                     [....]
  | | | | | SaturationStandard = 0
  | | | | | - Tag 0x0008 (4 bytes, int32s[1]):
  | | | | |     0a83: 00 00 00 00                                     [....]
  | | | | | ColorToneStandard = 0
  | | | | | - Tag 0x000c (4 bytes, int32s[1]):
  | | | | |     0a87: 00 00 00 00                                     [....]
  | | | | | FilterEffectStandard = -559038737
  | | | | | - Tag 0x0010 (4 bytes, int32s[1]):
  | | | | |     0a8b: ef be ad de                                     [....]
  | | | | | ToningEffectStandard = -559038737
  | | | | | - Tag 0x0014 (4 bytes, int32s[1]):
  | | | | |     0a8f: ef be ad de                                     [....]
  | | | | | ContrastPortrait = 0
  | | | | | - Tag 0x0018 (4 bytes, int32s[1]):
  | | | | |     0a93: 00 00 00 00                                     [....]
  | | | | | SharpnessPortrait = 2
  | | | | | - Tag 0x001c (4 bytes, int32s[1]):
  | | | | |     0a97: 02 00 00 00                                     [....]
  | | | | | SaturationPortrait = 0
  | | | | | - Tag 0x0020 (4 bytes, int32s[1]):
  | | | | |     0a9b: 00 00 00 00                                     [....]
  | | | | | ColorTonePortrait = 0
  | | | | | - Tag 0x0024 (4 bytes, int32s[1]):
  | | | | |     0a9f: 00 00 00 00                                     [....]
  | | | | | FilterEffectPortrait = -559038737
  | | | | | - Tag 0x0028 (4 bytes, int32s[1]):
  | | | | |     0aa3: ef be ad de                                     [....]
  | | | | | ToningEffectPortrait = -559038737
  | | | | | - Tag 0x002c (4 bytes, int32s[1]):
  | | | | |     0aa7: ef be ad de                                     [....]
  | | | | | ContrastLandscape = 0
  | | | | | - Tag 0x0030 (4 bytes, int32s[1]):
  | | | | |     0aab: 00 00 00 00                                     [....]
  | | | | | SharpnessLandscape = 4
  | | | | | - Tag 0x0034 (4 bytes, int32s[1]):
  | | | | |     0aaf: 04 00 00 00                                     [....]
  | | | | | SaturationLandscape = 0
  | | | | | - Tag 0x0038 (4 bytes, int32s[1]):
  | | | | |     0ab3: 00 00 00 00                                     [....]
  | | | | | ColorToneLandscape = 0
  | | | | | - Tag 0x003c (4 bytes, int32s[1]):
  | | | | |     0ab7: 00 00 00 00                                     [....]
  | | | | | FilterEffectLandscape = -559038737
  | | | | | - Tag 0x0040 (4 bytes, int32s[1]):
  | | | | |     0abb: ef be ad de                                     [....]
  | | | | | ToningEffectLandscape = -559038737
  | | | | | - Tag 0x0044 (4 bytes, int32s[1]):
  | | | | |     0abf: ef be ad de                                     [....]
  | | | | | ContrastNeutral = 0
  | | | | | - Tag 0x0048 (4 bytes, int32s[1]):
  | | | | |     0ac3: 00 00 00 00                                     [....]
  | | | | | SharpnessNeutral = 0
  | | | | | - Tag 0x004c (4 bytes, int32s[1]):
  | | | | |     0ac7: 00 00 00 00                                     [....]
  | | | | | SaturationNeutral = 0
  | | | | | - Tag 0x0050 (4 bytes, int32s[1]):
  | | | | |     0acb: 00 00 00 00                                     [....]
  | | | | | ColorToneNeutral = 0
  | | | | | - Tag 0x0054 (4 bytes, int32s[1]):
  | | | | |     0acf: 00 00 00 00                                     [....]
  | | | | | FilterEffectNeutral = -559038737
  | | | | | - Tag 0x0058 (4 bytes, int32s[1]):
  | | | | |     0ad3: ef be ad de                                     [....]
  | | | | | ToningEffectNeutral = -559038737
  | | | | | - Tag 0x005c (4 bytes, int32s[1]):
  | | | | |     0ad7: ef be ad de                                     [....]
  | | | | | ContrastFaithful = 0
  | | | | | - Tag 0x0060 (4 bytes, int32s[1]):
  | | | | |     0adb: 00 00 00 00                                     [....]
  | | | | | SharpnessFaithful = 0
  | | | | | - Tag 0x0064 (4 bytes, int32s[1]):
  | | | | |     0adf: 00 00 00 00                                     [....]
  | | | | | SaturationFaithful = 0
  | | | | | - Tag 0x0068 (4 bytes, int32s[1]):
  | | | | |     0ae3: 00 00 00 00                                     [....]
  | | | | | ColorToneFaithful = 0
  | | | | | - Tag 0x006c (4 bytes, int32s[1]):
  | | | | |     0ae7: 00 00 00 00                                     [....]
  | | | | | FilterEffectFaithful = -559038737
  | | | | | - Tag 0x0070 (4 bytes, int32s[1]):
  | | | | |     0aeb: ef be ad de                                     [....]
  | | | | | ToningEffectFaithful = -559038737
  | | | | | - Tag 0x0074 (4 bytes, int32s[1]):
  | | | | |     0aef: ef be ad de                                     [....]
  | | | | | ContrastMonochrome = 0
  | | | | | - Tag 0x0078 (4 bytes, int32s[1]):
  | | | | |     0af3: 00 00 00 00                                     [....]
  | | | | | SharpnessMonochrome = 3
  | | | | | - Tag 0x007c (4 bytes, int32s[1]):
  | | | | |     0af7: 03 00 00 00                                     [....]
  | | | | | SaturationMonochrome = -559038737
  | | | | | - Tag 0x0080 (4 bytes, int32s[1]):
  | | | | |     0afb: ef be ad de                                     [....]
  | | | | | ColorToneMonochrome = -559038737
  | | | | | - Tag 0x0084 (4 bytes, int32s[1]):
  | | | | |     0aff: ef be ad de                                     [....]
  | | | | | FilterEffectMonochrome = 0
  | | | | | - Tag 0x0088 (4 bytes, int32s[1]):
  | | | | |     0b03: 00 00 00 00                                     [....]
  | | | | | ToningEffectMonochrome = 0
  | | | | | - Tag 0x008c (4 bytes, int32s[1]):
  | | | | |     0b07: 00 00 00 00                                     [....]
  | | | | | ContrastAuto = 0
  | | | | | - Tag 0x0090 (4 bytes, int32s[1]):
  | | | | |     0b0b: 00 00 00 00                                     [....]
  | | | | | SharpnessAuto = 4
  | | | | | - Tag 0x0094 (4 bytes, int32s[1]):
  | | | | |     0b0f: 04 00 00 00                                     [....]
  | | | | | SaturationAuto = 0
  | | | | | - Tag 0x0098 (4 bytes, int32s[1]):
  | | | | |     0b13: 00 00 00 00                                     [....]
  | | | | | ColorToneAuto = 0
  | | | | | - Tag 0x009c (4 bytes, int32s[1]):
  | | | | |     0b17: 00 00 00 00                                     [....]
  | | | | | FilterEffectAuto = 0
  | | | | | - Tag 0x00a0 (4 bytes, int32s[1]):
  | | | | |     0b1b: 00 00 00 00                                     [....]
  | | | | | ToningEffectAuto = 0
  | | | | | - Tag 0x00a4 (4 bytes, int32s[1]):
  | | | | |     0b1f: 00 00 00 00                                     [....]
  | | | | | ContrastUserDef1 = 0
  | | | | | - Tag 0x00a8 (4 bytes, int32s[1]):
  | | | | |     0b23: 00 00 00 00                                     [....]
  | | | | | SharpnessUserDef1 = 3
  | | | | | - Tag 0x00ac (4 bytes, int32s[1]):
  | | | | |     0b27: 03 00 00 00                                     [....]
  | | | | | SaturationUserDef1 = 0
  | | | | | - Tag 0x00b0 (4 bytes, int32s[1]):
  | | | | |     0b2b: 00 00 00 00                                     [....]
  | | | | | ColorToneUserDef1 = 0
  | | | | | - Tag 0x00b4 (4 bytes, int32s[1]):
  | | | | |     0b2f: 00 00 00 00                                     [....]
  | | | | | FilterEffectUserDef1 = 0
  | | | | | - Tag 0x00b8 (4 bytes, int32s[1]):
  | | | | |     0b33: 00 00 00 00                                     [....]
  | | | | | ToningEffectUserDef1 = 0
  | | | | | - Tag 0x00bc (4 bytes, int32s[1]):
  | | | | |     0b37: 00 00 00 00                                     [....]
  | | | | | ContrastUserDef2 = 0
  | | | | | - Tag 0x00c0 (4 bytes, int32s[1]):
  | | | | |     0b3b: 00 00 00 00                                     [....]
  | | | | | SharpnessUserDef2 = 3
  | | | | | - Tag 0x00c4 (4 bytes, int32s[1]):
  | | | | |     0b3f: 03 00 00 00                                     [....]
  | | | | | SaturationUserDef2 = 0
  | | | | | - Tag 0x00c8 (4 bytes, int32s[1]):
  | | | | |     0b43: 00 00 00 00                                     [....]
  | | | | | ColorToneUserDef2 = 0
  | | | | | - Tag 0x00cc (4 bytes, int32s[1]):
  | | | | |     0b47: 00 00 00 00                                     [....]
  | | | | | FilterEffectUserDef2 = 0
  | | | | | - Tag 0x00d0 (4 bytes, int32s[1]):
  | | | | |     0b4b: 00 00 00 00                                     [....]
  | | | | | ToningEffectUserDef2 = 0
  | | | | | - Tag 0x00d4 (4 bytes, int32s[1]):
  | | | | |     0b4f: 00 00 00 00                                     [....]
  | | | | | ContrastUserDef3 = 0
  | | | | | - Tag 0x00d8 (4 bytes, int32s[1]):
  | | | | |     0b53: 00 00 00 00                                     [....]
  | | | | | SharpnessUserDef3 = 3
  | | | | | - Tag 0x00dc (4 bytes, int32s[1]):
  | | | | |     0b57: 03 00 00 00                                     [....]
  | | | | | SaturationUserDef3 = 0
  | | | | | - Tag 0x00e0 (4 bytes, int32s[1]):
  | | | | |     0b5b: 00 00 00 00                                     [....]
  | | | | | ColorToneUserDef3 = 0
  | | | | | - Tag 0x00e4 (4 bytes, int32s[1]):
  | | | | |     0b5f: 00 00 00 00                                     [....]
  | | | | | FilterEffectUserDef3 = 0
  | | | | | - Tag 0x00e8 (4 bytes, int32s[1]):
  | | | | |     0b63: 00 00 00 00                                     [....]
  | | | | | ToningEffectUserDef3 = 0
  | | | | | - Tag 0x00ec (4 bytes, int32s[1]):
  | | | | |     0b67: 00 00 00 00                                     [....]
  | | | | | UserDef1PictureStyle = 135
  | | | | | - Tag 0x00f0 (2 bytes, int16u[1]):
  | | | | |     0b6b: 87 00                                           [..]
  | | | | | UserDef2PictureStyle = 135
  | | | | | - Tag 0x00f2 (2 bytes, int16u[1]):
  | | | | |     0b6d: 87 00                                           [..]
  | | | | | UserDef3PictureStyle = 135
  | | | | | - Tag 0x00f4 (2 bytes, int16u[1]):
  | | | | |     0b6f: 87 00                                           [..]
  | | | 11) CustomFunctionsUnknown (SubDirectory) -->
  | | |     - Tag 0x000f (464 bytes, int32u[116] read as undef[464]):
  | | |         0cac: d0 01 00 00 03 00 00 00 01 00 00 00 54 00 00 00 [............T...]
  | | |         0cbc: 06 00 00 00 01 01 00 00 01 00 00 00 00 00 00 00 [................]
  | | |         0ccc: 02 01 00 00 01 00 00 00 00 00 00 00 04 01 00 00 [................]
  | | |         0cdc: 01 00 00 00 00 00 00 00 05 01 00 00 01 00 00 00 [................]
  | | |         0cec: 00 00 00 00 06 01 00 00 02 00 00 00 03 00 00 00 [................]
  | | |         0cfc: 00 00 00 00 08 01 00 00 01 00 00 00 00 00 00 00 [................]
  | | |         0d0c: 03 00 00 00 e4 00 00 00 0d 00 00 00 02 05 00 00 [................]
  | | |         0d1c: 01 00 00 00 00 00 00 00 18 05 00 00 01 00 00 00 [................]
  | | |         0d2c: 00 00 00 00 19 05 00 00 01 00 00 00 00 00 00 00 [................]
  | | |         0d3c: 1a 05 00 00 01 00 00 00 00 00 00 00 0e 05 00 00 [................]
  | | |         0d4c: 01 00 00 00 00 00 00 00 05 05 00 00 01 00 00 00 [................]
  | | |         0d5c: 00 00 00 00 12 05 00 00 02 00 00 00 00 00 00 00 [................]
  | | |         0d6c: 07 00 00 00 1b 05 00 00 01 00 00 00 00 00 00 00 [................]
  | | |         0d7c: 16 05 00 00 01 00 00 00 00 00 00 00 13 05 00 00 [................]
  | | |         0d8c: 01 00 00 00 00 00 00 00 0c 05 00 00 01 00 00 00 [................]
  | | |         0d9c: 00 00 00 00 10 05 00 00 01 00 00 00 00 00 00 00 [................]
  | | |         0dac: 07 05 00 00 10 00 00 00 00 00 00 00 00 00 00 00 [................]
  | | |         0dbc: 00 00 00 00 00 00 00 00 00 00 00 00 00 00 00 00 [................]
  | | |         0dcc: 00 00 00 00 00 00 00 00 00 00 00 00 00 00 00 00 [................]
  | | |         0ddc: 00 00 00 00 00 00 00 00 00 00 00 00 00 00 00 00 [................]
  | | |         0dec: 00 00 00 00 00 00 00 00 04 00 00 00 84 00 00 00 [................]
  | | |         0dfc: 04 00 00 00 06 07 00 00 01 00 00 00 00 00 00 00 [................]
  | | |         0e0c: 0f 07 00 00 02 00 00 00 00 00 00 00 02 00 00 00 [................]
  | | |         0e1c: 0a 04 00 00 01 00 00 00 03 00 00 00 0c 07 00 00 [................]
  | | |         0e2c: 13 00 00 00 00 00 00 00 00 00 00 00 00 00 00 00 [................]
  | | |         0e3c: 00 00 00 00 00 00 00 00 00 00 00 00 00 00 00 00 [................]
  | | |         0e4c: 00 00 00 00 00 00 00 00 00 00 00 00 00 00 00 00 [................]
  | | |         0e5c: 00 00 00 00 00 00 00 00 00 00 00 00 00 00 00 00 [................]
  | | |         0e6c: 00 00 00 00 00 00 00 00 00 00 00 00 00 00 00 00 [................]
  | | | + [CanonCustom directory with 231 entries]
  | | | | 0)  CanonCustom_FuncsUnknown_0x0000 = 0
  | | | |     - Tag 0x0000 (1 bytes, int8u[1])
  | | | | 1)  CanonCustom_FuncsUnknown_0x0000 = 3
  | | | |     - Tag 0x0000 (1 bytes, int8u[1])
  | | | | 2)  CanonCustom_FuncsUnknown_0x0000 = 0
  | | | |     - Tag 0x0000 (1 bytes, int8u[1])
  | | | | 3)  CanonCustom_FuncsUnknown_0x0000 = 1
  | | | |     - Tag 0x0000 (1 bytes, int8u[1])
  | | | | 4)  CanonCustom_FuncsUnknown_0x0000 = 0
  | | | |     - Tag 0x0000 (1 bytes, int8u[1])
  | | | | 5)  CanonCustom_FuncsUnknown_0x0000 = 84
  | | | |     - Tag 0x0000 (1 bytes, int8u[1])
  | | | | 6)  CanonCustom_FuncsUnknown_0x0000 = 0
  | | | |     - Tag 0x0000 (1 bytes, int8u[1])
  | | | | 7)  CanonCustom_FuncsUnknown_0x0000 = 6
  | | | |     - Tag 0x0000 (1 bytes, int8u[1])
  | | | | 8)  CanonCustom_FuncsUnknown_0x0000 = 0
  | | | |     - Tag 0x0000 (1 bytes, int8u[1])
  | | | | 9)  CanonCustom_FuncsUnknown_0x0001 = 1
  | | | |     - Tag 0x0001 (1 bytes, int8u[1])
  | | | | 10) CanonCustom_FuncsUnknown_0x0000 = 0
  | | | |     - Tag 0x0000 (1 bytes, int8u[1])
  | | | | 11) CanonCustom_FuncsUnknown_0x0000 = 1
  | | | |     - Tag 0x0000 (1 bytes, int8u[1])
  | | | | 12) CanonCustom_FuncsUnknown_0x0000 = 0
  | | | |     - Tag 0x0000 (1 bytes, int8u[1])
  | | | | 13) CanonCustom_FuncsUnknown_0x0000 = 0
  | | | |     - Tag 0x0000 (1 bytes, int8u[1])
  | | | | 14) CanonCustom_FuncsUnknown_0x0000 = 0
  | | | |     - Tag 0x0000 (1 bytes, int8u[1])
  | | | | 15) CanonCustom_FuncsUnknown_0x0001 = 2
  | | | |     - Tag 0x0001 (1 bytes, int8u[1])
  | | | | 16) CanonCustom_FuncsUnknown_0x0000 = 0
  | | | |     - Tag 0x0000 (1 bytes, int8u[1])
  | | | | 17) CanonCustom_FuncsUnknown_0x0000 = 1
  | | | |     - Tag 0x0000 (1 bytes, int8u[1])
  | | | | 18) CanonCustom_FuncsUnknown_0x0000 = 0
  | | | |     - Tag 0x0000 (1 bytes, int8u[1])
  | | | | 19) CanonCustom_FuncsUnknown_0x0000 = 0
  | | | |     - Tag 0x0000 (1 bytes, int8u[1])
  | | | | 20) CanonCustom_FuncsUnknown_0x0000 = 0
  | | | |     - Tag 0x0000 (1 bytes, int8u[1])
  | | | | 21) CanonCustom_FuncsUnknown_0x0001 = 4
  | | | |     - Tag 0x0001 (1 bytes, int8u[1])
  | | | | 22) CanonCustom_FuncsUnknown_0x0000 = 0
  | | | |     - Tag 0x0000 (1 bytes, int8u[1])
  | | | | 23) CanonCustom_FuncsUnknown_0x0000 = 1
  | | | |     - Tag 0x0000 (1 bytes, int8u[1])
  | | | | 24) CanonCustom_FuncsUnknown_0x0000 = 0
  | | | |     - Tag 0x0000 (1 bytes, int8u[1])
  | | | | 25) CanonCustom_FuncsUnknown_0x0000 = 0
  | | | |     - Tag 0x0000 (1 bytes, int8u[1])
  | | | | 26) CanonCustom_FuncsUnknown_0x0000 = 0
  | | | |     - Tag 0x0000 (1 bytes, int8u[1])
  | | | | 27) CanonCustom_FuncsUnknown_0x0001 = 5
  | | | |     - Tag 0x0001 (1 bytes, int8u[1])
  | | | | 28) CanonCustom_FuncsUnknown_0x0000 = 0
  | | | |     - Tag 0x0000 (1 bytes, int8u[1])
  | | | | 29) CanonCustom_FuncsUnknown_0x0000 = 1
  | | | |     - Tag 0x0000 (1 bytes, int8u[1])
  | | | | 30) CanonCustom_FuncsUnknown_0x0000 = 0
  | | | |     - Tag 0x0000 (1 bytes, int8u[1])
  | | | | 31) CanonCustom_FuncsUnknown_0x0000 = 0
  | | | |     - Tag 0x0000 (1 bytes, int8u[1])
  | | | | 32) CanonCustom_FuncsUnknown_0x0000 = 0
  | | | |     - Tag 0x0000 (1 bytes, int8u[1])
  | | | | 33) CanonCustom_FuncsUnknown_0x0001 = 6
  | | | |     - Tag 0x0001 (1 bytes, int8u[1])
  | | | | 34) CanonCustom_FuncsUnknown_0x0000 = 0
  | | | |     - Tag 0x0000 (1 bytes, int8u[1])
  | | | | 35) CanonCustom_FuncsUnknown_0x0000 = 2
  | | | |     - Tag 0x0000 (1 bytes, int8u[1])
  | | | | 36) CanonCustom_FuncsUnknown_0x0000 = 0
  | | | |     - Tag 0x0000 (1 bytes, int8u[1])
  | | | | 37) CanonCustom_FuncsUnknown_0x0000 = 3
  | | | |     - Tag 0x0000 (1 bytes, int8u[1])
  | | | | 38) CanonCustom_FuncsUnknown_0x0000 = 0
  | | | |     - Tag 0x0000 (1 bytes, int8u[1])
  | | | | 39) CanonCustom_FuncsUnknown_0x0000 = 0
  | | | |     - Tag 0x0000 (1 bytes, int8u[1])
  | | | | 40) CanonCustom_FuncsUnknown_0x0000 = 0
  | | | |     - Tag 0x0000 (1 bytes, int8u[1])
  | | | | 41) CanonCustom_FuncsUnknown_0x0001 = 8
  | | | |     - Tag 0x0001 (1 bytes, int8u[1])
  | | | | 42) CanonCustom_FuncsUnknown_0x0000 = 0
  | | | |     - Tag 0x0000 (1 bytes, int8u[1])
  | | | | 43) CanonCustom_FuncsUnknown_0x0000 = 1
  | | | |     - Tag 0x0000 (1 bytes, int8u[1])
  | | | | 44) CanonCustom_FuncsUnknown_0x0000 = 0
  | | | |     - Tag 0x0000 (1 bytes, int8u[1])
  | | | | 45) CanonCustom_FuncsUnknown_0x0000 = 0
  | | | |     - Tag 0x0000 (1 bytes, int8u[1])
  | | | | 46) CanonCustom_FuncsUnknown_0x0000 = 0
  | | | |     - Tag 0x0000 (1 bytes, int8u[1])
  | | | | 47) CanonCustom_FuncsUnknown_0x0000 = 3
  | | | |     - Tag 0x0000 (1 bytes, int8u[1])
  | | | | 48) CanonCustom_FuncsUnknown_0x0000 = 0
  | | | |     - Tag 0x0000 (1 bytes, int8u[1])
  | | | | 49) CanonCustom_FuncsUnknown_0x0000 = 228
  | | | |     - Tag 0x0000 (1 bytes, int8u[1])
  | | | | 50) CanonCustom_FuncsUnknown_0x0000 = 0
  | | | |     - Tag 0x0000 (1 bytes, int8u[1])
  | | | | 51) CanonCustom_FuncsUnknown_0x0000 = 13
  | | | |     - Tag 0x0000 (1 bytes, int8u[1])
  | | | | 52) CanonCustom_FuncsUnknown_0x0000 = 0
  | | | |     - Tag 0x0000 (1 bytes, int8u[1])
  | | | | 53) CanonCustom_FuncsUnknown_0x0005 = 2
  | | | |     - Tag 0x0005 (1 bytes, int8u[1])
  | | | | 54) CanonCustom_FuncsUnknown_0x0000 = 0
  | | | |     - Tag 0x0000 (1 bytes, int8u[1])
  | | | | 55) CanonCustom_FuncsUnknown_0x0000 = 1
  | | | |     - Tag 0x0000 (1 bytes, int8u[1])
  | | | | 56) CanonCustom_FuncsUnknown_0x0000 = 0
  | | | |     - Tag 0x0000 (1 bytes, int8u[1])
  | | | | 57) CanonCustom_FuncsUnknown_0x0000 = 0
  | | | |     - Tag 0x0000 (1 bytes, int8u[1])
  | | | | 58) CanonCustom_FuncsUnknown_0x0000 = 0
  | | | |     - Tag 0x0000 (1 bytes, int8u[1])
  | | | | 59) CanonCustom_FuncsUnknown_0x0005 = 24
  | | | |     - Tag 0x0005 (1 bytes, int8u[1])
  | | | | 60) CanonCustom_FuncsUnknown_0x0000 = 0
  | | | |     - Tag 0x0000 (1 bytes, int8u[1])
  | | | | 61) CanonCustom_FuncsUnknown_0x0000 = 1
  | | | |     - Tag 0x0000 (1 bytes, int8u[1])
  | | | | 62) CanonCustom_FuncsUnknown_0x0000 = 0
  | | | |     - Tag 0x0000 (1 bytes, int8u[1])
  | | | | 63) CanonCustom_FuncsUnknown_0x0000 = 0
  | | | |     - Tag 0x0000 (1 bytes, int8u[1])
  | | | | 64) CanonCustom_FuncsUnknown_0x0000 = 0
  | | | |     - Tag 0x0000 (1 bytes, int8u[1])
  | | | | 65) CanonCustom_FuncsUnknown_0x0005 = 25
  | | | |     - Tag 0x0005 (1 bytes, int8u[1])
  | | | | 66) CanonCustom_FuncsUnknown_0x0000 = 0
  | | | |     - Tag 0x0000 (1 bytes, int8u[1])
  | | | | 67) CanonCustom_FuncsUnknown_0x0000 = 1
  | | | |     - Tag 0x0000 (1 bytes, int8u[1])
  | | | | 68) CanonCustom_FuncsUnknown_0x0000 = 0
  | | | |     - Tag 0x0000 (1 bytes, int8u[1])
  | | | | 69) CanonCustom_FuncsUnknown_0x0000 = 0
  | | | |     - Tag 0x0000 (1 bytes, int8u[1])
  | | | | 70) CanonCustom_FuncsUnknown_0x0000 = 0
  | | | |     - Tag 0x0000 (1 bytes, int8u[1])
  | | | | 71) CanonCustom_FuncsUnknown_0x0005 = 26
  | | | |     - Tag 0x0005 (1 bytes, int8u[1])
  | | | | 72) CanonCustom_FuncsUnknown_0x0000 = 0
  | | | |     - Tag 0x0000 (1 bytes, int8u[1])
  | | | | 73) CanonCustom_FuncsUnknown_0x0000 = 1
  | | | |     - Tag 0x0000 (1 bytes, int8u[1])
  | | | | 74) CanonCustom_FuncsUnknown_0x0000 = 0
  | | | |     - Tag 0x0000 (1 bytes, int8u[1])
  | | | | 75) CanonCustom_FuncsUnknown_0x0000 = 0
  | | | |     - Tag 0x0000 (1 bytes, int8u[1])
  | | | | 76) CanonCustom_FuncsUnknown_0x0000 = 0
  | | | |     - Tag 0x0000 (1 bytes, int8u[1])
  | | | | 77) CanonCustom_FuncsUnknown_0x0005 = 14
  | | | |     - Tag 0x0005 (1 bytes, int8u[1])
  | | | | 78) CanonCustom_FuncsUnknown_0x0000 = 0
  | | | |     - Tag 0x0000 (1 bytes, int8u[1])
  | | | | 79) CanonCustom_FuncsUnknown_0x0000 = 1
  | | | |     - Tag 0x0000 (1 bytes, int8u[1])
  | | | | 80) CanonCustom_FuncsUnknown_0x0000 = 0
  | | | |     - Tag 0x0000 (1 bytes, int8u[1])
  | | | | 81) CanonCustom_FuncsUnknown_0x0000 = 0
  | | | |     - Tag 0x0000 (1 bytes, int8u[1])
  | | | | 82) CanonCustom_FuncsUnknown_0x0000 = 0
  | | | |     - Tag 0x0000 (1 bytes, int8u[1])
  | | | | 83) CanonCustom_FuncsUnknown_0x0005 = 5
  | | | |     - Tag 0x0005 (1 bytes, int8u[1])
  | | | | 84) CanonCustom_FuncsUnknown_0x0000 = 0
  | | | |     - Tag 0x0000 (1 bytes, int8u[1])
  | | | | 85) CanonCustom_FuncsUnknown_0x0000 = 1
  | | | |     - Tag 0x0000 (1 bytes, int8u[1])
  | | | | 86) CanonCustom_FuncsUnknown_0x0000 = 0
  | | | |     - Tag 0x0000 (1 bytes, int8u[1])
  | | | | 87) CanonCustom_FuncsUnknown_0x0000 = 0
  | | | |     - Tag 0x0000 (1 bytes, int8u[1])
  | | | | 88) CanonCustom_FuncsUnknown_0x0000 = 0
  | | | |     - Tag 0x0000 (1 bytes, int8u[1])
  | | | | 89) CanonCustom_FuncsUnknown_0x0005 = 18
  | | | |     - Tag 0x0005 (1 bytes, int8u[1])
  | | | | 90) CanonCustom_FuncsUnknown_0x0000 = 0
  | | | |     - Tag 0x0000 (1 bytes, int8u[1])
  | | | | 91) CanonCustom_FuncsUnknown_0x0000 = 2
  | | | |     - Tag 0x0000 (1 bytes, int8u[1])
  | | | | 92) CanonCustom_FuncsUnknown_0x0000 = 0
  | | | |     - Tag 0x0000 (1 bytes, int8u[1])
  | | | | 93) CanonCustom_FuncsUnknown_0x0000 = 0
  | | | |     - Tag 0x0000 (1 bytes, int8u[1])
  | | | | 94) CanonCustom_FuncsUnknown_0x0000 = 0
  | | | |     - Tag 0x0000 (1 bytes, int8u[1])
  | | | | 95) CanonCustom_FuncsUnknown_0x0000 = 7
  | | | |     - Tag 0x0000 (1 bytes, int8u[1])
  | | | | 96) CanonCustom_FuncsUnknown_0x0000 = 0
  | | | |     - Tag 0x0000 (1 bytes, int8u[1])
  | | | | 97) CanonCustom_FuncsUnknown_0x0005 = 27
  | | | |     - Tag 0x0005 (1 bytes, int8u[1])
  | | | | 98) CanonCustom_FuncsUnknown_0x0000 = 0
  | | | |     - Tag 0x0000 (1 bytes, int8u[1])
  | | | | 99) CanonCustom_FuncsUnknown_0x0000 = 1
  | | | |     - Tag 0x0000 (1 bytes, int8u[1])
  | | | | 100) CanonCustom_FuncsUnknown_0x0000 = 0
  | | | |     - Tag 0x0000 (1 bytes, int8u[1])
  | | | | 101) CanonCustom_FuncsUnknown_0x0000 = 0
  | | | |     - Tag 0x0000 (1 bytes, int8u[1])
  | | | | 102) CanonCustom_FuncsUnknown_0x0000 = 0
  | | | |     - Tag 0x0000 (1 bytes, int8u[1])
  | | | | 103) CanonCustom_FuncsUnknown_0x0005 = 22
  | | | |     - Tag 0x0005 (1 bytes, int8u[1])
  | | | | 104) CanonCustom_FuncsUnknown_0x0000 = 0
  | | | |     - Tag 0x0000 (1 bytes, int8u[1])
  | | | | 105) CanonCustom_FuncsUnknown_0x0000 = 1
  | | | |     - Tag 0x0000 (1 bytes, int8u[1])
  | | | | 106) CanonCustom_FuncsUnknown_0x0000 = 0
  | | | |     - Tag 0x0000 (1 bytes, int8u[1])
  | | | | 107) CanonCustom_FuncsUnknown_0x0000 = 0
  | | | |     - Tag 0x0000 (1 bytes, int8u[1])
  | | | | 108) CanonCustom_FuncsUnknown_0x0000 = 0
  | | | |     - Tag 0x0000 (1 bytes, int8u[1])
  | | | | 109) CanonCustom_FuncsUnknown_0x0005 = 19
  | | | |     - Tag 0x0005 (1 bytes, int8u[1])
  | | | | 110) CanonCustom_FuncsUnknown_0x0000 = 0
  | | | |     - Tag 0x0000 (1 bytes, int8u[1])
  | | | | 111) CanonCustom_FuncsUnknown_0x0000 = 1
  | | | |     - Tag 0x0000 (1 bytes, int8u[1])
  | | | | 112) CanonCustom_FuncsUnknown_0x0000 = 0
  | | | |     - Tag 0x0000 (1 bytes, int8u[1])
  | | | | 113) CanonCustom_FuncsUnknown_0x0000 = 0
  | | | |     - Tag 0x0000 (1 bytes, int8u[1])
  | | | | 114) CanonCustom_FuncsUnknown_0x0000 = 0
  | | | |     - Tag 0x0000 (1 bytes, int8u[1])
  | | | | 115) CanonCustom_FuncsUnknown_0x0005 = 12
  | | | |     - Tag 0x0005 (1 bytes, int8u[1])
  | | | | 116) CanonCustom_FuncsUnknown_0x0000 = 0
  | | | |     - Tag 0x0000 (1 bytes, int8u[1])
  | | | | 117) CanonCustom_FuncsUnknown_0x0000 = 1
  | | | |     - Tag 0x0000 (1 bytes, int8u[1])
  | | | | 118) CanonCustom_FuncsUnknown_0x0000 = 0
  | | | |     - Tag 0x0000 (1 bytes, int8u[1])
  | | | | 119) CanonCustom_FuncsUnknown_0x0000 = 0
  | | | |     - Tag 0x0000 (1 bytes, int8u[1])
  | | | | 120) CanonCustom_FuncsUnknown_0x0000 = 0
  | | | |     - Tag 0x0000 (1 bytes, int8u[1])
  | | | | 121) CanonCustom_FuncsUnknown_0x0005 = 16
  | | | |     - Tag 0x0005 (1 bytes, int8u[1])
  | | | | 122) CanonCustom_FuncsUnknown_0x0000 = 0
  | | | |     - Tag 0x0000 (1 bytes, int8u[1])
  | | | | 123) CanonCustom_FuncsUnknown_0x0000 = 1
  | | | |     - Tag 0x0000 (1 bytes, int8u[1])
  | | | | 124) CanonCustom_FuncsUnknown_0x0000 = 0
  | | | |     - Tag 0x0000 (1 bytes, int8u[1])
  | | | | 125) CanonCustom_FuncsUnknown_0x0000 = 0
  | | | |     - Tag 0x0000 (1 bytes, int8u[1])
  | | | | 126) CanonCustom_FuncsUnknown_0x0000 = 0
  | | | |     - Tag 0x0000 (1 bytes, int8u[1])
  | | | | 127) CanonCustom_FuncsUnknown_0x0005 = 7
  | | | |     - Tag 0x0005 (1 bytes, int8u[1])
  | | | | 128) CanonCustom_FuncsUnknown_0x0000 = 0
  | | | |     - Tag 0x0000 (1 bytes, int8u[1])
  | | | | 129) CanonCustom_FuncsUnknown_0x0000 = 16
  | | | |     - Tag 0x0000 (1 bytes, int8u[1])
  | | | | 130) CanonCustom_FuncsUnknown_0x0000 = 0
  | | | |     - Tag 0x0000 (1 bytes, int8u[1])
  | | | | 131) CanonCustom_FuncsUnknown_0x0000 = 0
  | | | |     - Tag 0x0000 (1 bytes, int8u[1])
  | | | | 132) CanonCustom_FuncsUnknown_0x0000 = 0
  | | | |     - Tag 0x0000 (1 bytes, int8u[1])
  | | | | 133) CanonCustom_FuncsUnknown_0x0000 = 0
  | | | |     - Tag 0x0000 (1 bytes, int8u[1])
  | | | | 134) CanonCustom_FuncsUnknown_0x0000 = 0
  | | | |     - Tag 0x0000 (1 bytes, int8u[1])
  | | | | 135) CanonCustom_FuncsUnknown_0x0000 = 0
  | | | |     - Tag 0x0000 (1 bytes, int8u[1])
  | | | | 136) CanonCustom_FuncsUnknown_0x0000 = 0
  | | | |     - Tag 0x0000 (1 bytes, int8u[1])
  | | | | 137) CanonCustom_FuncsUnknown_0x0000 = 0
  | | | |     - Tag 0x0000 (1 bytes, int8u[1])
  | | | | 138) CanonCustom_FuncsUnknown_0x0000 = 0
  | | | |     - Tag 0x0000 (1 bytes, int8u[1])
  | | | | 139) CanonCustom_FuncsUnknown_0x0000 = 0
  | | | |     - Tag 0x0000 (1 bytes, int8u[1])
  | | | | 140) CanonCustom_FuncsUnknown_0x0000 = 0
  | | | |     - Tag 0x0000 (1 bytes, int8u[1])
  | | | | 141) CanonCustom_FuncsUnknown_0x0000 = 0
  | | | |     - Tag 0x0000 (1 bytes, int8u[1])
  | | | | 142) CanonCustom_FuncsUnknown_0x0000 = 0
  | | | |     - Tag 0x0000 (1 bytes, int8u[1])
  | | | | 143) CanonCustom_FuncsUnknown_0x0000 = 0
  | | | |     - Tag 0x0000 (1 bytes, int8u[1])
  | | | | 144) CanonCustom_FuncsUnknown_0x0000 = 0
  | | | |     - Tag 0x0000 (1 bytes, int8u[1])
  | | | | 145) CanonCustom_FuncsUnknown_0x0000 = 0
  | | | |     - Tag 0x0000 (1 bytes, int8u[1])
  | | | | 146) CanonCustom_FuncsUnknown_0x0000 = 0
  | | | |     - Tag 0x0000 (1 bytes, int8u[1])
  | | | | 147) CanonCustom_FuncsUnknown_0x0000 = 0
  | | | |     - Tag 0x0000 (1 bytes, int8u[1])
  | | | | 148) CanonCustom_FuncsUnknown_0x0000 = 0
  | | | |     - Tag 0x0000 (1 bytes, int8u[1])
  | | | | 149) CanonCustom_FuncsUnknown_0x0000 = 0
  | | | |     - Tag 0x0000 (1 bytes, int8u[1])
  | | | | 150) CanonCustom_FuncsUnknown_0x0000 = 0
  | | | |     - Tag 0x0000 (1 bytes, int8u[1])
  | | | | 151) CanonCustom_FuncsUnknown_0x0000 = 0
  | | | |     - Tag 0x0000 (1 bytes, int8u[1])
  | | | | 152) CanonCustom_FuncsUnknown_0x0000 = 0
  | | | |     - Tag 0x0000 (1 bytes, int8u[1])
  | | | | 153) CanonCustom_FuncsUnknown_0x0000 = 0
  | | | |     - Tag 0x0000 (1 bytes, int8u[1])
  | | | | 154) CanonCustom_FuncsUnknown_0x0000 = 0
  | | | |     - Tag 0x0000 (1 bytes, int8u[1])
  | | | | 155) CanonCustom_FuncsUnknown_0x0000 = 0
  | | | |     - Tag 0x0000 (1 bytes, int8u[1])
  | | | | 156) CanonCustom_FuncsUnknown_0x0000 = 0
  | | | |     - Tag 0x0000 (1 bytes, int8u[1])
  | | | | 157) CanonCustom_FuncsUnknown_0x0000 = 0
  | | | |     - Tag 0x0000 (1 bytes, int8u[1])
  | | | | 158) CanonCustom_FuncsUnknown_0x0000 = 0
  | | | |     - Tag 0x0000 (1 bytes, int8u[1])
  | | | | 159) CanonCustom_FuncsUnknown_0x0000 = 0
  | | | |     - Tag 0x0000 (1 bytes, int8u[1])
  | | | | 160) CanonCustom_FuncsUnknown_0x0000 = 0
  | | | |     - Tag 0x0000 (1 bytes, int8u[1])
  | | | | 161) CanonCustom_FuncsUnknown_0x0000 = 0
  | | | |     - Tag 0x0000 (1 bytes, int8u[1])
  | | | | 162) CanonCustom_FuncsUnknown_0x0000 = 0
  | | | |     - Tag 0x0000 (1 bytes, int8u[1])
  | | | | 163) CanonCustom_FuncsUnknown_0x0000 = 4
  | | | |     - Tag 0x0000 (1 bytes, int8u[1])
  | | | | 164) CanonCustom_FuncsUnknown_0x0000 = 0
  | | | |     - Tag 0x0000 (1 bytes, int8u[1])
  | | | | 165) CanonCustom_FuncsUnknown_0x0000 = 132
  | | | |     - Tag 0x0000 (1 bytes, int8u[1])
  | | | | 166) CanonCustom_FuncsUnknown_0x0000 = 0
  | | | |     - Tag 0x0000 (1 bytes, int8u[1])
  | | | | 167) CanonCustom_FuncsUnknown_0x0000 = 4
  | | | |     - Tag 0x0000 (1 bytes, int8u[1])
  | | | | 168) CanonCustom_FuncsUnknown_0x0000 = 0
  | | | |     - Tag 0x0000 (1 bytes, int8u[1])
  | | | | 169) CanonCustom_FuncsUnknown_0x0007 = 6
  | | | |     - Tag 0x0007 (1 bytes, int8u[1])
  | | | | 170) CanonCustom_FuncsUnknown_0x0000 = 0
  | | | |     - Tag 0x0000 (1 bytes, int8u[1])
  | | | | 171) CanonCustom_FuncsUnknown_0x0000 = 1
  | | | |     - Tag 0x0000 (1 bytes, int8u[1])
  | | | | 172) CanonCustom_FuncsUnknown_0x0000 = 0
  | | | |     - Tag 0x0000 (1 bytes, int8u[1])
  | | | | 173) CanonCustom_FuncsUnknown_0x0000 = 0
  | | | |     - Tag 0x0000 (1 bytes, int8u[1])
  | | | | 174) CanonCustom_FuncsUnknown_0x0000 = 0
  | | | |     - Tag 0x0000 (1 bytes, int8u[1])
  | | | | 175) CanonCustom_FuncsUnknown_0x0007 = 15
  | | | |     - Tag 0x0007 (1 bytes, int8u[1])
  | | | | 176) CanonCustom_FuncsUnknown_0x0000 = 0
  | | | |     - Tag 0x0000 (1 bytes, int8u[1])
  | | | | 177) CanonCustom_FuncsUnknown_0x0000 = 2
  | | | |     - Tag 0x0000 (1 bytes, int8u[1])
  | | | | 178) CanonCustom_FuncsUnknown_0x0000 = 0
  | | | |     - Tag 0x0000 (1 bytes, int8u[1])
  | | | | 179) CanonCustom_FuncsUnknown_0x0000 = 0
  | | | |     - Tag 0x0000 (1 bytes, int8u[1])
  | | | | 180) CanonCustom_FuncsUnknown_0x0000 = 0
  | | | |     - Tag 0x0000 (1 bytes, int8u[1])
  | | | | 181) CanonCustom_FuncsUnknown_0x0000 = 2
  | | | |     - Tag 0x0000 (1 bytes, int8u[1])
  | | | | 182) CanonCustom_FuncsUnknown_0x0000 = 0
  | | | |     - Tag 0x0000 (1 bytes, int8u[1])
  | | | | 183) CanonCustom_FuncsUnknown_0x0004 = 10
  | | | |     - Tag 0x0004 (1 bytes, int8u[1])
  | | | | 184) CanonCustom_FuncsUnknown_0x0000 = 0
  | | | |     - Tag 0x0000 (1 bytes, int8u[1])
  | | | | 185) CanonCustom_FuncsUnknown_0x0000 = 1
  | | | |     - Tag 0x0000 (1 bytes, int8u[1])
  | | | | 186) CanonCustom_FuncsUnknown_0x0000 = 0
  | | | |     - Tag 0x0000 (1 bytes, int8u[1])
  | | | | 187) CanonCustom_FuncsUnknown_0x0000 = 3
  | | | |     - Tag 0x0000 (1 bytes, int8u[1])
  | | | | 188) CanonCustom_FuncsUnknown_0x0000 = 0
  | | | |     - Tag 0x0000 (1 bytes, int8u[1])
  | | | | 189) CanonCustom_FuncsUnknown_0x0007 = 12
  | | | |     - Tag 0x0007 (1 bytes, int8u[1])
  | | | | 190) CanonCustom_FuncsUnknown_0x0000 = 0
  | | | |     - Tag 0x0000 (1 bytes, int8u[1])
  | | | | 191) CanonCustom_FuncsUnknown_0x0000 = 19
  | | | |     - Tag 0x0000 (1 bytes, int8u[1])
  | | | | 192) CanonCustom_FuncsUnknown_0x0000 = 0
  | | | |     - Tag 0x0000 (1 bytes, int8u[1])
  | | | | 193) CanonCustom_FuncsUnknown_0x0000 = 0
  | | | |     - Tag 0x0000 (1 bytes, int8u[1])
  | | | | 194) CanonCustom_FuncsUnknown_0x0000 = 0
  | | | |     - Tag 0x0000 (1 bytes, int8u[1])
  | | | | 195) CanonCustom_FuncsUnknown_0x0000 = 0
  | | | |     - Tag 0x0000 (1 bytes, int8u[1])
  | | | | 196) CanonCustom_FuncsUnknown_0x0000 = 0
  | | | |     - Tag 0x0000 (1 bytes, int8u[1])
  | | | | 197) CanonCustom_FuncsUnknown_0x0000 = 0
  | | | |     - Tag 0x0000 (1 bytes, int8u[1])
  | | | | 198) CanonCustom_FuncsUnknown_0x0000 = 0
  | | | |     - Tag 0x0000 (1 bytes, int8u[1])
  | | | | 199) CanonCustom_FuncsUnknown_0x0000 = 0
  | | | |     - Tag 0x0000 (1 bytes, int8u[1])
  | | | | 200) CanonCustom_FuncsUnknown_0x0000 = 0
  | | | |     - Tag 0x0000 (1 bytes, int8u[1])
  | | | | 201) CanonCustom_FuncsUnknown_0x0000 = 0
  | | | |     - Tag 0x0000 (1 bytes, int8u[1])
  | | | | 202) CanonCustom_FuncsUnknown_0x0000 = 0
  | | | |     - Tag 0x0000 (1 bytes, int8u[1])
  | | | | 203) CanonCustom_FuncsUnknown_0x0000 = 0
  | | | |     - Tag 0x0000 (1 bytes, int8u[1])
  | | | | 204) CanonCustom_FuncsUnknown_0x0000 = 0
  | | | |     - Tag 0x0000 (1 bytes, int8u[1])
  | | | | 205) CanonCustom_FuncsUnknown_0x0000 = 0
  | | | |     - Tag 0x0000 (1 bytes, int8u[1])
  | | | | 206) CanonCustom_FuncsUnknown_0x0000 = 0
  | | | |     - Tag 0x0000 (1 bytes, int8u[1])
  | | | | 207) CanonCustom_FuncsUnknown_0x0000 = 0
  | | | |     - Tag 0x0000 (1 bytes, int8u[1])
  | | | | 208) CanonCustom_FuncsUnknown_0x0000 = 0
  | | | |     - Tag 0x0000 (1 bytes, int8u[1])
  | | | | 209) CanonCustom_FuncsUnknown_0x0000 = 0
  | | | |     - Tag 0x0000 (1 bytes, int8u[1])
  | | | | 210) CanonCustom_FuncsUnknown_0x0000 = 0
  | | | |     - Tag 0x0000 (1 bytes, int8u[1])
  | | | | 211) CanonCustom_FuncsUnknown_0x0000 = 0
  | | | |     - Tag 0x0000 (1 bytes, int8u[1])
  | | | | 212) CanonCustom_FuncsUnknown_0x0000 = 0
  | | | |     - Tag 0x0000 (1 bytes, int8u[1])
  | | | | 213) CanonCustom_FuncsUnknown_0x0000 = 0
  | | | |     - Tag 0x0000 (1 bytes, int8u[1])
  | | | | 214) CanonCustom_FuncsUnknown_0x0000 = 0
  | | | |     - Tag 0x0000 (1 bytes, int8u[1])
  | | | | 215) CanonCustom_FuncsUnknown_0x0000 = 0
  | | | |     - Tag 0x0000 (1 bytes, int8u[1])
  | | | | 216) CanonCustom_FuncsUnknown_0x0000 = 0
  | | | |     - Tag 0x0000 (1 bytes, int8u[1])
  | | | | 217) CanonCustom_FuncsUnknown_0x0000 = 0
  | | | |     - Tag 0x0000 (1 bytes, int8u[1])
  | | | | 218) CanonCustom_FuncsUnknown_0x0000 = 0
  | | | |     - Tag 0x0000 (1 bytes, int8u[1])
  | | | | 219) CanonCustom_FuncsUnknown_0x0000 = 0
  | | | |     - Tag 0x0000 (1 bytes, int8u[1])
  | | | | 220) CanonCustom_FuncsUnknown_0x0000 = 0
  | | | |     - Tag 0x0000 (1 bytes, int8u[1])
  | | | | 221) CanonCustom_FuncsUnknown_0x0000 = 0
  | | | |     - Tag 0x0000 (1 bytes, int8u[1])
  | | | | 222) CanonCustom_FuncsUnknown_0x0000 = 0
  | | | |     - Tag 0x0000 (1 bytes, int8u[1])
  | | | | 223) CanonCustom_FuncsUnknown_0x0000 = 0
  | | | |     - Tag 0x0000 (1 bytes, int8u[1])
  | | | | 224) CanonCustom_FuncsUnknown_0x0000 = 0
  | | | |     - Tag 0x0000 (1 bytes, int8u[1])
  | | | | 225) CanonCustom_FuncsUnknown_0x0000 = 0
  | | | |     - Tag 0x0000 (1 bytes, int8u[1])
  | | | | 226) CanonCustom_FuncsUnknown_0x0000 = 0
  | | | |     - Tag 0x0000 (1 bytes, int8u[1])
  | | | | 227) CanonCustom_FuncsUnknown_0x0000 = 0
  | | | |     - Tag 0x0000 (1 bytes, int8u[1])
  | | | | 228) CanonCustom_FuncsUnknown_0x0000 = 0
  | | | |     - Tag 0x0000 (1 bytes, int8u[1])
  | | | | 229) CanonCustom_FuncsUnknown_0x0000 = 0
  | | | |     - Tag 0x0000 (1 bytes, int8u[1])
  | | | | 230) CanonCustom_FuncsUnknown_0x0000 = 0
  | | | |     - Tag 0x0000 (1 bytes, int8u[1])
  | | | 12) CanonModelID = 2147484453
  | | |     - Tag 0x0010 (4 bytes, int32u[1]):
  | | |         0404: 25 03 00 80                                     [%...]
  | | | 13) ThumbnailImageValidArea = 0 159 7 112
  | | |     - Tag 0x0013 (8 bytes, int16u[4]):
  | | |         0e7c: 00 00 9f 00 07 00 70 00                         [......p.]
  | | | 14) Canon_0x0019 = 1
  | | |     - Tag 0x0019 (2 bytes, int16u[1]):
  | | |         041c: 01 00                                           [..]
  | | | 15) CanonAFInfo2 (SubDirectory) -->
  | | |     - Tag 0x0026 (278 bytes, int16u[139] read as undef[278]):
  | | |         0e84: 16 01 02 00 1f 00 13 00 60 15 40 0e 60 15 40 0e [........`.@.`.@.]
  | | |         0e94: e5 00 e5 00 e5 00 e5 00 e5 00 e5 00 e5 00 e5 00 [................]
  | | |         0ea4: e5 00 e5 00 e5 00 e5 00 e5 00 e5 00 e5 00 e5 00 [................]
  | | |         0eb4: e5 00 e5 00 e5 00 00 00 00 00 00 00 00 00 00 00 [................]
  | | |         0ec4: 00 00 00 00 00 00 00 00 00 00 00 00 00 00 15 01 [................]
  | | |         0ed4: 15 01 15 01 15 01 15 01 15 01 15 01 15 01 15 01 [................]
  | | |         0ee4: 15 01 15 01 15 01 15 01 15 01 15 01 15 01 15 01 [................]
  | | |         0ef4: 15 01 15 01 00 00 00 00 00 00 00 00 00 00 00 00 [................]
  | | |         0f04: 00 00 00 00 00 00 00 00 00 00 00 00 8d fa 7f fc [................]
  | | |         0f14: 7f fc 7f fc 71 fe 71 fe 71 fe 00 00 00 00 00 00 [....q.q.q.......]
  | | |         0f24: 00 00 00 00 8f 01 8f 01 8f 01 81 03 81 03 81 03 [................]
  | | |         0f34: 73 05 00 00 00 00 00 00 00 00 00 00 00 00 00 00 [s...............]
  | | |         0f44: 00 00 00 00 00 00 00 00 00 00 00 00 91 01 00 00 [................]
  | | |         0f54: 6f fe 91 01 00 00 6f fe f3 02 91 01 00 00 6f fe [o.....o.......o.]
  | | |         0f64: 0d fd 91 01 00 00 6f fe 91 01 00 00 6f fe 00 00 [......o.....o...]
  | | |         0f74: 00 00 00 00 00 00 00 00 00 00 00 00 00 00 00 00 [................]
  | | |         0f84: 00 00 00 00 00 00 00 00 00 02 00 00 00 02 00 00 [................]
  | | |         0f94: 00 00 00 00 ff ff                               [......]
  | | | + [SerialData directory, 278 bytes]
  | | | | 0)  AFInfoSize = 278
  | | | |     - Tag 0x0000 (2 bytes, int16u[1]):
  | | | |         0e84: 16 01                                           [..]
  | | | | 1)  AFAreaMode = 2
  | | | |     - Tag 0x0001 (2 bytes, int16u[1]):
  | | | |         0e86: 02 00                                           [..]
  | | | | 2)  NumAFPoints = 31
  | | | |     - Tag 0x0002 (2 bytes, int16u[1]):
  | | | |         0e88: 1f 00                                           [..]
  | | | | 3)  ValidAFPoints = 19
  | | | |     - Tag 0x0003 (2 bytes, int16u[1]):
  | | | |         0e8a: 13 00                                           [..]
  | | | | 4)  CanonImageWidth = 5472
  | | | |     - Tag 0x0004 (2 bytes, int16u[1]):
  | | | |         0e8c: 60 15                                           [`.]
  | | | | 5)  CanonImageHeight = 3648
  | | | |     - Tag 0x0005 (2 bytes, int16u[1]):
  | | | |         0e8e: 40 0e                                           [@.]
  | | | | 6)  AFImageWidth = 5472
  | | | |     - Tag 0x0006 (2 bytes, int16u[1]):
  | | | |         0e90: 60 15                                           [`.]
  | | | | 7)  AFImageHeight = 3648
  | | | |     - Tag 0x0007 (2 bytes, int16u[1]):
  | | | |         0e92: 40 0e                                           [@.]
  | | | | 8)  AFAreaWidths = 229 229 229 229 229 229 229 229 229 229 229 229 229 229 229 229 229 229 229 0 0 0 0 0 0 0 0 0 0 0 0
  | | | |     - Tag 0x0008 (62 bytes, int16s[31]):
  | | | |         0e94: e5 00 e5 00 e5 00 e5 00 e5 00 e5 00 e5 00 e5 00 [................]
  | | | |         0ea4: e5 00 e5 00 e5 00 e5 00 e5 00 e5 00 e5 00 e5 00 [................]
  | | | |         0eb4: e5 00 e5 00 e5 00 00 00 00 00 00 00 00 00 00 00 [................]
  | | | |         0ec4: 00 00 00 00 00 00 00 00 00 00 00 00 00 00       [..............]
  | | | | 9)  AFAreaHeights = 277 277 277 277 277 277 277 277 277 277 277 277 277 277 277 277 277 277 277 0 0 0 0 0 0 0 0 0 0 0 0
  | | | |     - Tag 0x0009 (62 bytes, int16s[31]):
  | | | |         0ed2: 15 01 15 01 15 01 15 01 15 01 15 01 15 01 15 01 [................]
  | | | |         0ee2: 15 01 15 01 15 01 15 01 15 01 15 01 15 01 15 01 [................]
  | | | |         0ef2: 15 01 15 01 15 01 00 00 00 00 00 00 00 00 00 00 [................]
  | | | |         0f02: 00 00 00 00 00 00 00 00 00 00 00 00 00 00       [..............]
  | | | | 10) AFAreaXPositions = -1395 -897 -897 -897 -399 -399 -399 0 0 0 0 0 399 399 399 897 897 897 1395 0 0 0 0 0 0 0 0 0 0 0 0
  | | | |     - Tag 0x000a (62 bytes, int16s[31]):
  | | | |         0f10: 8d fa 7f fc 7f fc 7f fc 71 fe 71 fe 71 fe 00 00 [........q.q.q...]
  | | | |         0f20: 00 00 00 00 00 00 00 00 8f 01 8f 01 8f 01 81 03 [................]
  | | | |         0f30: 81 03 81 03 73 05 00 00 00 00 00 00 00 00 00 00 [....s...........]
  | | | |         0f40: 00 00 00 00 00 00 00 00 00 00 00 00 00 00       [..............]
  | | | | 11) AFAreaYPositions = 0 401 0 -401 401 0 -401 755 401 0 -401 -755 401 0 -401 401 0 -401 0 0 0 0 0 0 0 0 0 0 0 0 0
  | | | |     - Tag 0x000b (62 bytes, int16s[31]):
  | | | |         0f4e: 00 00 91 01 00 00 6f fe 91 01 00 00 6f fe f3 02 [......o.....o...]
  | | | |         0f5e: 91 01 00 00 6f fe 0d fd 91 01 00 00 6f fe 91 01 [....o.......o...]
  | | | |         0f6e: 00 00 6f fe 00 00 00 00 00 00 00 00 00 00 00 00 [..o.............]
  | | | |         0f7e: 00 00 00 00 00 00 00 00 00 00 00 00 00 00       [..............]
  | | | | 12) AFPointsInFocus = 512 0
  | | | |     - Tag 0x000c (4 bytes, int16s[2]):
  | | | |         0f8c: 00 02 00 00                                     [....]
  | | | | 13) AFPointsSelected = 512 0
  | | | |     - Tag 0x000d (4 bytes, int16s[2]):
  | | | |         0f90: 00 02 00 00                                     [....]
  | | | 16) LensModel = EF-S55-250mm f/4-5.6 IS STM
  | | |     - Tag 0x0095 (74 bytes, string[74]):
  | | |         0f9a: 45 46 2d 53 35 35 2d 32 35 30 6d 6d 20 66 2f 34 [EF-S55-250mm f/4]
  | | |         0faa: 2d 35 2e 36 20 49 53 20 53 54 4d 00 00 00 00 00 [-5.6 IS STM.....]
  | | |         0fba: 00 00 00 00 00 00 00 00 00 00 00 00 00 00 00 00 [................]
  | | |         0fca: 00 00 00 00 00 00 00 00 00 00 00 00 00 00 00 00 [................]
  | | |         0fda: 00 00 00 00 00 00 51 1b 64 57                   [......Q.dW]
  | | | 17) InternalSerialNumber = FA1065286
  | | |     - Tag 0x0096 (16 bytes, string[16]):
  | | |         0fe4: 46 41 31 30 36 35 32 38 36 00 00 00 00 00 00 00 [FA1065286.......]
  | | | 18) DustRemovalData = 
  | | |     - Tag 0x0097 (1024 bytes, undef[1024]):
  | | |         0ff4: 00 00 00 00 00 00 00 00 00 00 00 00 00 00 00 00 [................]
  | | |         1004: 00 00 00 00 00 00 00 00 00 00 00 00 00 00 00 00 [................]
  | | |         1014: 00 00 00 00 00 00 00 00 00 00 00 00 00 00 00 00 [................]
  | | |         1024: 00 00 00 00 00 00 00 00 00 00 00 00 00 00 00 00 [................]
  | | |         1034: 00 00 00 00 00 00 00 00 00 00 00 00 00 00 00 00 [................]
  | | |         1044: 00 00 00 00 00 00 00 00 00 00 00 00 00 00 00 00 [................]
  | | |         1054: 00 00 00 00 00 00 00 00 00 00 00 00 00 00 00 00 [................]
  | | |         1064: 00 00 00 00 00 00 00 00 00 00 00 00 00 00 00 00 [................]
  | | |         1074: 00 00 00 00 00 00 00 00 00 00 00 00 00 00 00 00 [................]
  | | |         1084: 00 00 00 00 00 00 00 00 00 00 00 00 00 00 00 00 [................]
  | | |         1094: 00 00 00 00 00 00 00 00 00 00 00 00 00 00 00 00 [................]
  | | |         10a4: 00 00 00 00 00 00 00 00 00 00 00 00 00 00 00 00 [................]
  | | |         10b4: 00 00 00 00 00 00 00 00 00 00 00 00 00 00 00 00 [................]
  | | |         10c4: 00 00 00 00 00 00 00 00 00 00 00 00 00 00 00 00 [................]
  | | |         10d4: 00 00 00 00 00 00 00 00 00 00 00 00 00 00 00 00 [................]
  | | |         10e4: 00 00 00 00 00 00 00 00 00 00 00 00 00 00 00 00 [................]
  | | |         10f4: 00 00 00 00 00 00 00 00 00 00 00 00 00 00 00 00 [................]
  | | |         1104: 00 00 00 00 00 00 00 00 00 00 00 00 00 00 00 00 [................]
  | | |         1114: 00 00 00 00 00 00 00 00 00 00 00 00 00 00 00 00 [................]
  | | |         1124: 00 00 00 00 00 00 00 00 00 00 00 00 00 00 00 00 [................]
  | | |         1134: 00 00 00 00 00 00 00 00 00 00 00 00 00 00 00 00 [................]
  | | |         1144: 00 00 00 00 00 00 00 00 00 00 00 00 00 00 00 00 [................]
  | | |         1154: 00 00 00 00 00 00 00 00 00 00 00 00 00 00 00 00 [................]
  | | |         1164: 00 00 00 00 00 00 00 00 00 00 00 00 00 00 00 00 [................]
  | | |         1174: 00 00 00 00 00 00 00 00 00 00 00 00 00 00 00 00 [................]
  | | |         1184: 00 00 00 00 00 00 00 00 00 00 00 00 00 00 00 00 [................]
  | | |         1194: 00 00 00 00 00 00 00 00 00 00 00 00 00 00 00 00 [................]
  | | |         11a4: 00 00 00 00 00 00 00 00 00 00 00 00 00 00 00 00 [................]
  | | |         11b4: 00 00 00 00 00 00 00 00 00 00 00 00 00 00 00 00 [................]
  | | |         11c4: 00 00 00 00 00 00 00 00 00 00 00 00 00 00 00 00 [................]
  | | |         11d4: 00 00 00 00 00 00 00 00 00 00 00 00 00 00 00 00 [................]
  | | |         11e4: 00 00 00 00 00 00 00 00 00 00 00 00 00 00 00 00 [................]
  | | |         11f4: 00 00 00 00 00 00 00 00 00 00 00 00 00 00 00 00 [................]
  | | |         1204: 00 00 00 00 00 00 00 00 00 00 00 00 00 00 00 00 [................]
  | | |         1214: 00 00 00 00 00 00 00 00 00 00 00 00 00 00 00 00 [................]
  | | |         1224: 00 00 00 00 00 00 00 00 00 00 00 00 00 00 00 00 [................]
  | | |         1234: 00 00 00 00 00 00 00 00 00 00 00 00 00 00 00 00 [................]
  | | |         1244: 00 00 00 00 00 00 00 00 00 00 00 00 00 00 00 00 [................]
  | | |         1254: 00 00 00 00 00 00 00 00 00 00 00 00 00 00 00 00 [................]
  | | |         1264: 00 00 00 00 00 00 00 00 00 00 00 00 00 00 00 00 [................]
  | | |         1274: 00 00 00 00 00 00 00 00 00 00 00 00 00 00 00 00 [................]
  | | |         1284: 00 00 00 00 00 00 00 00 00 00 00 00 00 00 00 00 [................]
  | | |         1294: 00 00 00 00 00 00 00 00 00 00 00 00 00 00 00 00 [................]
  | | |         12a4: 00 00 00 00 00 00 00 00 00 00 00 00 00 00 00 00 [................]
  | | |         12b4: 00 00 00 00 00 00 00 00 00 00 00 00 00 00 00 00 [................]
  | | |         12c4: 00 00 00 00 00 00 00 00 00 00 00 00 00 00 00 00 [................]
  | | |         12d4: 00 00 00 00 00 00 00 00 00 00 00 00 00 00 00 00 [................]
  | | |         12e4: 00 00 00 00 00 00 00 00 00 00 00 00 00 00 00 00 [................]
  | | |         12f4: 00 00 00 00 00 00 00 00 00 00 00 00 00 00 00 00 [................]
  | | |         1304: 00 00 00 00 00 00 00 00 00 00 00 00 00 00 00 00 [................]
  | | |         1314: 00 00 00 00 00 00 00 00 00 00 00 00 00 00 00 00 [................]
  | | |         1324: 00 00 00 00 00 00 00 00 00 00 00 00 00 00 00 00 [................]
  | | |         1334: 00 00 00 00 00 00 00 00 00 00 00 00 00 00 00 00 [................]
  | | |         1344: 00 00 00 00 00 00 00 00 00 00 00 00 00 00 00 00 [................]
  | | |         1354: 00 00 00 00 00 00 00 00 00 00 00 00 00 00 00 00 [................]
  | | |         1364: 00 00 00 00 00 00 00 00 00 00 00 00 00 00 00 00 [................]
  | | |         1374: 00 00 00 00 00 00 00 00 00 00 00 00 00 00 00 00 [................]
  | | |         1384: 00 00 00 00 00 00 00 00 00 00 00 00 00 00 00 00 [................]
  | | |         1394: 00 00 00 00 00 00 00 00 00 00 00 00 00 00 00 00 [................]
  | | |         13a4: 00 00 00 00 00 00 00 00 00 00 00 00 00 00 00 00 [................]
  | | |         13b4: 00 00 00 00 00 00 00 00 00 00 00 00 00 00 00 00 [................]
  | | |         13c4: 00 00 00 00 00 00 00 00 00 00 00 00 00 00 00 00 [................]
  | | |         13d4: 00 00 00 00 00 00 00 00 00 00 00 00 00 00 00 00 [................]
  | | |         13e4: 00 00 00 00 00 00 00 00 00 00 00 00 00 00 00 00 [................]
  | | | 19) CropInfo (SubDirectory) -->
  | | |     - Tag 0x0098 (8 bytes, int16u[4] read as undef[8]):
  | | |         13f4: 00 00 00 00 00 00 00 00                         [........]
  | | | + [BinaryData directory, 8 bytes, Little-endian]
  | | | | CropLeftMargin = 0
  | | | | - Tag 0x0000 (2 bytes, int16u[1]):
  | | | |     13f4: 00 00                                           [..]
  | | | | CropRightMargin = 0
  | | | | - Tag 0x0001 (2 bytes, int16u[1]):
  | | | |     13f6: 00 00                                           [..]
  | | | | CropTopMargin = 0
  | | | | - Tag 0x0002 (2 bytes, int16u[1]):
  | | | |     13f8: 00 00                                           [..]
  | | | | CropBottomMargin = 0
  | | | | - Tag 0x0003 (2 bytes, int16u[1]):
  | | | |     13fa: 00 00                                           [..]
  | | | 20) AspectInfo (SubDirectory) -->
  | | |     - Tag 0x009a (20 bytes, int32u[5] read as undef[20]):
  | | |         13fc: 00 00 00 00 60 15 00 00 40 0e 00 00 00 00 00 00 [....`...@.......]
  | | |         140c: 00 00 00 00                                     [....]
  | | | + [BinaryData directory, 20 bytes, Little-endian]
  | | | | AspectRatio = 0
  | | | | - Tag 0x0000 (4 bytes, int32u[1]):
  | | | |     13fc: 00 00 00 00                                     [....]
  | | | | CroppedImageWidth = 5472
  | | | | - Tag 0x0001 (4 bytes, int32u[1]):
  | | | |     1400: 60 15 00 00                                     [`...]
  | | | | CroppedImageHeight = 3648
  | | | | - Tag 0x0002 (4 bytes, int32u[1]):
  | | | |     1404: 40 0e 00 00                                     [@...]
  | | | | CroppedImageLeft = 0
  | | | | - Tag 0x0003 (4 bytes, int32u[1]):
  | | | |     1408: 00 00 00 00                                     [....]
  | | | | CroppedImageTop = 0
  | | | | - Tag 0x0004 (4 bytes, int32u[1]):
  | | | |     140c: 00 00 00 00                                     [....]
  | | | 21) MeasuredColor (SubDirectory) -->
  | | |     - Tag 0x00aa (12 bytes, int16u[6] read as undef[12]):
  | | |         1410: 0c 00 eb 02 00 04 00 04 11 01 00 00             [............]
  | | | + [BinaryData directory, 12 bytes, Little-endian]
  | | | | MeasuredRGGB = 747 1024 1024 273
  | | | | - Tag 0x0001 (8 bytes, int16u[4]):
  | | | |     1412: eb 02 00 04 00 04 11 01                         [........]
  | | | 22) VRDOffset = 0
  | | |     - Tag 0x00d0 (4 bytes, int32u[1]):
  | | |         047c: 00 00 00 00                                     [....]
  | | | 23) SensorInfo (SubDirectory) -->
  | | |     - Tag 0x00e0 (34 bytes, int16u[17] read as undef[34]):
  | | |         141c: 22 00 c0 15 7c 0e 01 00 01 00 54 00 32 00 b3 15 ["...|.....T.2...]
  | | |         142c: 71 0e 00 00 00 00 00 00 00 00 00 00 00 00 00 00 [q...............]
  | | |         143c: 00 00                                           [..]
  | | | + [BinaryData directory, 34 bytes, Little-endian]
  | | | | SensorWidth = 5568
  | | | | - Tag 0x0001 (2 bytes, int16s[1]):
  | | | |     141e: c0 15                                           [..]
  | | | | SensorHeight = 3708
  | | | | - Tag 0x0002 (2 bytes, int16s[1]):
  | | | |     1420: 7c 0e                                           [|.]
  | | | | SensorLeftBorder = 84
  | | | | - Tag 0x0005 (2 bytes, int16s[1]):
  | | | |     1426: 54 00                                           [T.]
  | | | | SensorTopBorder = 50
  | | | | - Tag 0x0006 (2 bytes, int16s[1]):
  | | | |     1428: 32 00                                           [2.]
  | | | | SensorRightBorder = 5555
  | | | | - Tag 0x0007 (2 bytes, int16s[1]):
  | | | |     142a: b3 15                                           [..]
  | | | | SensorBottomBorder = 3697
  | | | | - Tag 0x0008 (2 bytes, int16s[1]):
  | | | |     142c: 71 0e                                           [q.]
  | | | | BlackMaskLeftBorder = 0
  | | | | - Tag 0x0009 (2 bytes, int16s[1]):
  | | | |     142e: 00 00                                           [..]
  | | | | BlackMaskTopBorder = 0
  | | | | - Tag 0x000a (2 bytes, int16s[1]):
  | | | |     1430: 00 00                                           [..]
  | | | | BlackMaskRightBorder = 0
  | | | | - Tag 0x000b (2 bytes, int16s[1]):
  | | | |     1432: 00 00                                           [..]
  | | | | BlackMaskBottomBorder = 0
  | | | | - Tag 0x000c (2 bytes, int16s[1]):
  | | | |     1434: 00 00                                           [..]
  | | | 24) PictureStyleUserDef = 135 135 135
  | | |     - Tag 0x4008 (6 bytes, int16u[3]):
  | | |         143e: 87 00 87 00 87 00                               [......]
  | | | 25) PictureStylePC = 0 0 0
  | | |     - Tag 0x4009 (6 bytes, int16u[3]):
  | | |         1444: 00 00 00 00 00 00                               [......]
  | | | 26) CustomPictureStyleFileName = 
  | | |     - Tag 0x4010 (32 bytes, string[32]):
  | | |         144a: 00 00 00 00 00 00 00 00 00 00 00 00 00 00 00 00 [................]
  | | |         145a: 00 00 00 00 00 00 00 00 00 00 00 00 00 00 00 00 [................]
  | | | 27) Canon_0x4011 = 
  | | |     - Tag 0x4011 (252 bytes, undef[252]):
  | | |         146a: 00 00 00 00 00 00 00 00 00 00 00 00 00 00 00 00 [................]
  | | |         147a: 00 00 00 00 00 00 00 00 00 00 00 00 00 00 00 00 [................]
  | | |         148a: 00 00 00 00 00 00 00 00 00 00 00 00 00 00 00 00 [................]
  | | |         149a: 00 00 00 00 00 00 00 00 00 00 00 00 00 00 00 00 [................]
  | | |         14aa: 00 00 00 00 00 00 00 00 00 00 00 00 00 00 00 00 [................]
  | | |         14ba: 00 00 00 00 00 00 00 00 00 00 00 00 00 00 00 00 [................]
  | | |         14ca: 00 00 00 00 00 00 00 00 00 00 00 00 00 00 00 00 [................]
  | | |         14da: 00 00 00 00 00 00 00 00 00 00 00 00 00 00 00 00 [................]
  | | |         14ea: 00 00 00 00 00 00 00 00 00 00 00 00 00 00 00 00 [................]
  | | |         14fa: 00 00 00 00 00 00 00 00 00 00 00 00 00 00 00 00 [................]
  | | |         150a: 00 00 00 00 00 00 00 00 00 00 00 00 00 00 00 00 [................]
  | | |         151a: 00 00 00 00 00 00 00 00 00 00 00 00 00 00 00 00 [................]
  | | |         152a: 00 00 00 00 00 00 00 00 00 00 00 00 00 00 00 00 [................]
  | | |         153a: 00 00 00 00 00 00 00 00 00 00 00 00 00 00 00 00 [................]
  | | |         154a: 00 00 00 00 00 00 00 00 00 00 00 00 00 00 00 00 [................]
  | | |         155a: 00 00 00 00 00 00 00 00 00 00 00 00             [............]
  | | | 28) Canon_0x4012 = 
  | | |     - Tag 0x4012 (32 bytes, string[32]):
  | | |         1566: 00 00 00 00 00 00 00 00 00 00 00 00 00 00 00 00 [................]
  | | |         1576: 00 00 00 00 00 00 00 00 00 00 00 00 00 00 00 00 [................]
  | | | 29) AFMicroAdj (SubDirectory) -->
  | | |     - Tag 0x4013 (44 bytes, int32u[11] read as undef[44]):
  | | |         1586: 2c 00 00 00 00 00 00 00 00 00 00 00 0a 00 00 00 [,...............]
  | | |         1596: ff ff ff ff 00 00 00 00 0a 00 00 00 00 00 00 00 [................]
  | | |         15a6: 0a 00 00 00 00 00 00 00 0a 00 00 00             [............]
  | | | + [BinaryData directory, 44 bytes, Little-endian]
  | | | | AFMicroAdjMode = 0
  | | | | - Tag 0x0001 (4 bytes, int32s[1]):
  | | | |     158a: 00 00 00 00                                     [....]
  | | | | AFMicroAdjValue = 0
  | | | | - Tag 0x0002 (8 bytes, rational64s[1]):
  | | | |     158e: 00 00 00 00 0a 00 00 00                         [........]
  | | | 30) VignettingCorr (SubDirectory) -->
  | | |     - Tag 0x4015 (456 bytes, undef[456]):
  | | |         15b2: 00 21 c8 01 01 00 00 00 01 00 01 00 41 00 00 00 [.!..........A...]
  | | |         15c2: 64 00 64 00 04 10 60 15 40 0e ff 1f f3 1f e9 1e [d.d...`.@.......]
  | | |         15d2: 3a 1c 0e 1a dc 16 00 00 7b 01 70 04 65 07 df 08 [:.......{.p.e...]
  | | |         15e2: 1a 0a 00 40 53 3f d8 3e 4e 3e e8 3d c4 3d 00 40 [...@S?.>N>.=.=.@]
  | | |         15f2: 14 40 3e 40 7e 40 b5 40 c8 40 00 00 b2 03 ea 05 [.@>@~@.@.@......]
  | | |         1602: 22 08 9d 09 1a 0a 00 40 ee 3f 28 40 7f 40 bf 40 ["......@.?(@.@.@]
  | | |         1612: d3 40 00 00 b2 03 ea 05 22 08 9d 09 1a 0a 00 00 [.@......".......]
  | | |         1622: 00 00 00 00 00 00 00 00 00 00 00 00 00 00 00 00 [................]
  | | |         1632: 00 00 00 00 00 00 00 00 00 00 00 00 00 00 00 00 [................]
  | | |         1642: 00 00 00 00 00 00 00 00 00 00 00 00 00 00 00 00 [................]
  | | |         1652: 00 00 00 00 00 00 00 00 00 00 00 00 00 00 00 00 [................]
  | | |         1662: 00 00 00 00 00 00 00 00 00 00 00 00 00 00 00 00 [................]
  | | |         1672: 00 00 00 00 00 00 00 00 00 00 00 00 00 00 00 00 [................]
  | | |         1682: 00 00 00 00 00 00 00 00 00 00 00 00 00 00 00 00 [................]
  | | |         1692: 00 00 00 00 00 00 00 00 00 00 00 00 00 00 00 00 [................]
  | | |         16a2: 00 00 00 00 00 00 00 00 00 00 00 00 00 00 00 00 [................]
  | | |         16b2: 00 00 00 00 00 00 00 00 00 00 00 00 00 00 00 00 [................]
  | | |         16c2: 00 00 00 00 00 00 00 00 00 00 00 00 00 00 00 00 [................]
  | | |         16d2: 00 00 00 00 00 00 00 00 00 00 00 00 00 00 00 00 [................]
  | | |         16e2: 00 00 00 00 00 00 00 00 00 00 00 00 00 00 00 00 [................]
  | | |         16f2: 00 00 00 00 00 00 00 00 00 00 00 00 00 00 00 00 [................]
  | | |         1702: 00 00 00 00 00 00 00 00 00 00 00 00 00 00 00 00 [................]
  | | |         1712: 00 00 00 00 00 00 00 00 00 00 00 00 00 00 00 00 [................]
  | | |         1722: 00 00 00 00 00 00 00 00 00 00 00 00 00 00 00 00 [................]
  | | |         1732: 00 00 00 00 00 00 00 00 00 00 00 00 00 00 00 00 [................]
  | | |         1742: 00 00 00 00 00 00 00 00 00 00 00 00 00 00 00 00 [................]
  | | |         1752: 00 00 00 00 00 00 00 00 00 00 00 00 00 00 00 00 [................]
  | | |         1762: 00 00 00 00 00 00 00 00 00 00 00 00 00 00 00 00 [................]
  | | |         1772: 00 00 00 00 fa 00 00 00                         [........]
  | | | + [BinaryData directory, 456 bytes, Little-endian]
  | | | | PeripheralLighting = 1
  | | | | - Tag 0x0002 (2 bytes, int16s[1]):
  | | | |     15b6: 01 00                                           [..]
  | | | | DistortionCorrection = 0
  | | | | - Tag 0x0003 (2 bytes, int16s[1]):
  | | | |     15b8: 00 00                                           [..]
  | | | | ChromaticAberrationCorr = 1
  | | | | - Tag 0x0004 (2 bytes, int16s[1]):
  | | | |     15ba: 01 00                                           [..]
  | | | | ChromaticAberrationCorr = 1
  | | | | - Tag 0x0005 (2 bytes, int16s[1]):
  | | | |     15bc: 01 00                                           [..]
  | | | | PeripheralLightingValue = 65
  | | | | - Tag 0x0006 (2 bytes, int16s[1]):
  | | | |     15be: 41 00                                           [A.]
  | | | | DistortionCorrectionValue = 100
  | | | | - Tag 0x0009 (2 bytes, int16s[1]):
  | | | |     15c4: 64 00                                           [d.]
  | | | | OriginalImageWidth = 5472
  | | | | - Tag 0x000b (2 bytes, int16s[1]):
  | | | |     15c8: 60 15                                           [`.]
  | | | | OriginalImageHeight = 3648
  | | | | - Tag 0x000c (2 bytes, int16s[1]):
  | | | |     15ca: 40 0e                                           [@.]
  | | | 31) VignettingCorr2 (SubDirectory) -->
  | | |     - Tag 0x4016 (28 bytes, int32u[7] read as undef[28]):
  | | |         177a: 1c 00 00 00 00 00 00 00 01 00 00 00 00 00 00 00 [................]
  | | |         178a: 00 00 00 00 01 00 00 00 01 00 00 00             [............]
  | | | + [BinaryData directory, 28 bytes, Little-endian]
  | | | | PeripheralLightingSetting = 1
  | | | | - Tag 0x0005 (4 bytes, int32s[1]):
  | | | |     178e: 01 00 00 00                                     [....]
  | | | | ChromaticAberrationSetting = 1
  | | | | - Tag 0x0006 (4 bytes, int32s[1]):
  | | | |     1792: 01 00 00 00                                     [....]
  | | | 32) LightingOpt (SubDirectory) -->
  | | |     - Tag 0x4018 (28 bytes, int32u[7] read as undef[28]):
  | | |         1796: 1c 00 00 00 00 00 00 00 03 00 00 00 00 00 00 00 [................]
  | | |         17a6: 00 00 00 00 03 00 00 00 01 00 00 00             [............]
  | | | + [BinaryData directory, 28 bytes, Little-endian]
  | | | | PeripheralIlluminationCorr = 0
  | | | | - Tag 0x0001 (4 bytes, int32s[1]):
  | | | |     179a: 00 00 00 00                                     [....]
  | | | | AutoLightingOptimizer = 3
  | | | | - Tag 0x0002 (4 bytes, int32s[1]):
  | | | |     179e: 03 00 00 00                                     [....]
  | | | | HighlightTonePriority = 0
  | | | | - Tag 0x0003 (4 bytes, int32s[1]):
  | | | |     17a2: 00 00 00 00                                     [....]
  | | | | LongExposureNoiseReduction = 0
  | | | | - Tag 0x0004 (4 bytes, int32s[1]):
  | | | |     17a6: 00 00 00 00                                     [....]
  | | | | HighISONoiseReduction = 3
  | | | | - Tag 0x0005 (4 bytes, int32s[1]):
  | | | |     17aa: 03 00 00 00                                     [....]
  | | | 33) LensInfo (SubDirectory) -->
  | | |     - Tag 0x4019 (30 bytes, undef[30]):
  | | |         17b2: 00 00 80 0d cf 00 00 00 00 00 00 00 00 00 00 00 [................]
  | | |         17c2: 00 00 00 00 00 00 00 00 00 00 00 00 00 00       [..............]
  | | | + [BinaryData directory, 30 bytes, Little-endian]
  | | | | LensSerialNumber = ...
  | | | | - Tag 0x0000 (5 bytes, undef[5]):
  | | | |     17b2: 00 00 80 0d cf                                  [.....]
  | | | 34) AmbienceInfo (SubDirectory) -->
  | | |     - Tag 0x4020 (28 bytes, int32u[7] read as undef[28]):
  | | |         17d0: 1c 00 00 00 00 00 00 00 00 00 00 00 00 00 00 00 [................]
  | | |         17e0: 00 00 00 00 ff ff ff 7f 00 00 00 00             [............]
  | | | + [BinaryData directory, 28 bytes, Little-endian]
  | | | | AmbienceSelection = 0
  | | | | - Tag 0x0001 (4 bytes, int32s[1]):
  | | | |     17d4: 00 00 00 00                                     [....]
  | | | 35) MultiExp (SubDirectory) -->
  | | |     - Tag 0x4021 (20 bytes, int32u[5] read as undef[20]):
  | | |         17ec: 14 00 00 00 00 00 00 00 00 00 00 00 00 00 00 00 [................]
  | | |         17fc: 01 00 00 00                                     [....]
  | | | + [BinaryData directory, 20 bytes, Little-endian]
  | | | | MultiExposure = 0
  | | | | - Tag 0x0001 (4 bytes, int32s[1]):
  | | | |     17f0: 00 00 00 00                                     [....]
  | | | | MultiExposureControl = 0
  | | | | - Tag 0x0002 (4 bytes, int32s[1]):
  | | | |     17f4: 00 00 00 00                                     [....]
  | | | | MultiExposureShots = 0
  | | | | - Tag 0x0003 (4 bytes, int32s[1]):
  | | | |     17f8: 00 00 00 00                                     [....]
  | | | 36) FilterInfo (SubDirectory) -->
  | | |     - Tag 0x4024 (212 bytes, int32u[53] read as undef[212]):
  | | |         1800: d4 00 00 00 07 00 00 00 01 00 00 00 14 00 00 00 [................]
  | | |         1810: 01 00 00 00 01 01 00 00 01 00 00 00 ff ff ff ff [................]
  | | |         1820: 02 00 00 00 14 00 00 00 01 00 00 00 01 02 00 00 [................]
  | | |         1830: 01 00 00 00 ff ff ff ff 03 00 00 00 14 00 00 00 [................]
  | | |         1840: 01 00 00 00 01 03 00 00 01 00 00 00 ff ff ff ff [................]
  | | |         1850: 04 00 00 00 38 00 00 00 04 00 00 00 01 04 00 00 [....8...........]
  | | |         1860: 01 00 00 00 ff ff ff ff 02 04 00 00 01 00 00 00 [................]
  | | |         1870: 00 00 00 00 03 04 00 00 01 00 00 00 00 00 00 00 [................]
  | | |         1880: 04 04 00 00 01 00 00 00 00 00 00 00 05 00 00 00 [................]
  | | |         1890: 14 00 00 00 01 00 00 00 01 05 00 00 01 00 00 00 [................]
  | | |         18a0: ff ff ff ff 06 00 00 00 14 00 00 00 01 00 00 00 [................]
  | | |         18b0: 01 06 00 00 01 00 00 00 ff ff ff ff 07 00 00 00 [................]
  | | |         18c0: 14 00 00 00 01 00 00 00 01 07 00 00 01 00 00 00 [................]
  | | |         18d0: ff ff ff ff                                     [....]
  | | | + [Creative Filter directory with 7 entries]
  | | | + [Filter 1 directory with 1 entries, 20 bytes]
  | | | | GrainyBWFilter = -1
  | | | | - Tag 0x0101 (4 bytes):
  | | | |     17fe: ff ff ff ff                                     [....]
  | | | + [Filter 2 directory with 1 entries, 20 bytes]
  | | | | SoftFocusFilter = -1
  | | | | - Tag 0x0201 (4 bytes):
  | | | |     1816: ff ff ff ff                                     [....]
  | | | + [Filter 3 directory with 1 entries, 20 bytes]
  | | | | ToyCameraFilter = -1
  | | | | - Tag 0x0301 (4 bytes):
  | | | |     182e: ff ff ff ff                                     [....]
  | | | + [Filter 4 directory with 4 entries, 56 bytes]
  | | | | MiniatureFilter = -1
  | | | | - Tag 0x0401 (4 bytes):
  | | | |     1846: ff ff ff ff                                     [....]
  | | | | MiniatureFilterOrientation = 0
  | | | | - Tag 0x0402 (4 bytes):
  | | | |     1852: 00 00 00 00                                     [....]
  | | | | MiniatureFilterPosition = 0
  | | | | - Tag 0x0403 (4 bytes):
  | | | |     185e: 00 00 00 00                                     [....]
  | | | | MiniatureFilterParameter = 0
  | | | | - Tag 0x0404 (4 bytes):
  | | | |     186a: 00 00 00 00                                     [....]
  | | | + [Filter 5 directory with 1 entries, 20 bytes]
  | | | | FisheyeFilter = -1
  | | | | - Tag 0x0501 (4 bytes):
  | | | |     1882: ff ff ff ff                                     [....]
  | | | + [Filter 6 directory with 1 entries, 20 bytes]
  | | | | PaintingFilter = -1
  | | | | - Tag 0x0601 (4 bytes):
  | | | |     189a: ff ff ff ff                                     [....]
  | | | + [Filter 7 directory with 1 entries, 20 bytes]
  | | | | WatercolorFilter = -1
  | | | | - Tag 0x0701 (4 bytes):
  | | | |     18b2: ff ff ff ff                                     [....]
  | | | 37) HDRInfo (SubDirectory) -->
  | | |     - Tag 0x4025 (36 bytes, int32u[9] read as undef[36]):
  | | |         18d4: 24 00 00 00 00 00 00 00 00 00 00 00 00 00 00 00 [$...............]
  | | |         18e4: 00 00 00 00 00 00 00 00 00 00 00 00 00 00 00 00 [................]
  | | |         18f4: 00 00 00 00                                     [....]
  | | | + [BinaryData directory, 36 bytes, Little-endian]
  | | | | HDR = 0
  | | | | - Tag 0x0001 (4 bytes, int32s[1]):
  | | | |     18d8: 00 00 00 00                                     [....]
  | | | | HDREffect = 0
  | | | | - Tag 0x0002 (4 bytes, int32s[1]):
  | | | |     18dc: 00 00 00 00                                     [....]
  | | | 38) Canon_0x4027 = 24 524550 2969567282 134217728 13684944 65538
  | | |     - Tag 0x4027 (24 bytes, int32u[6]):
  | | |         18f8: 18 00 00 00 06 01 08 00 32 00 00 b1 00 00 00 08 [........2.......]
  | | |         1908: d0 d0 d0 00 02 00 01 00                         [........]
  | | 17) SubSecTime = 47
  | |     - Tag 0x9290 (3 bytes, string[3]):
  | |         0226: 34 37 00                                        [47.]
  | | 18) SubSecTimeOriginal = 47
  | |     - Tag 0x9291 (3 bytes, string[3]):
  | |         0232: 34 37 00                                        [47.]
  | | 19) SubSecTimeDigitized = 47
  | |     - Tag 0x9292 (3 bytes, string[3]):
  | |         023e: 34 37 00                                        [47.]
  | | 20) FlashpixVersion = 0100
  | |     - Tag 0xa000 (4 bytes, undef[4]):
  | |         024a: 30 31 30 30                                     [0100]
  | | 21) ColorSpace = 1
  | |     - Tag 0xa001 (2 bytes, int16u[1]):
  | |         0256: 01 00                                           [..]
  | | 22) ExifImageWidth = 4000
  | |     - Tag 0xa002 (4 bytes, int32u[1]):
  | |         0262: a0 0f 00 00                                     [....]
  | | 23) ExifImageHeight = 2670
  | |     - Tag 0xa003 (4 bytes, int32u[1]):
  | |         026e: 6e 0a 00 00                                     [n...]
  | | 24) InteropOffset (SubDirectory) -->
  | |     - Tag 0xa005 (4 bytes, int32u[1]):
  | |         027a: 60 19 00 00                                     [`...]
  | | + [InteropIFD directory with 2 entries, Little-endian]
  | | | 0)  InteropIndex = R98
  | | |     - Tag 0x0001 (4 bytes, string[4]):
  | | |         1988: 52 39 38 00                                     [R98.]
  | | | 1)  InteropVersion = 0100
  | | |     - Tag 0x0002 (4 bytes, undef[4]):
  | | |         1994: 30 31 30 30                                     [0100]
  | | 25) FocalPlaneXResolution = 6086.76307 (5472000/899)
  | |     - Tag 0xa20e (8 bytes, rational64u[1]):
  | |         1918: 00 7f 53 00 83 03 00 00                         [..S.....]
  | | 26) FocalPlaneYResolution = 6090.15025 (3648000/599)
  | |     - Tag 0xa20f (8 bytes, rational64u[1]):
  | |         1920: 00 aa 37 00 57 02 00 00                         [..7.W...]
  | | 27) FocalPlaneResolutionUnit = 2
  | |     - Tag 0xa210 (2 bytes, int16u[1]):
  | |         029e: 02 00                                           [..]
  | | 28) CustomRendered = 0
  | |     - Tag 0xa401 (2 bytes, int16u[1]):
  | |         02aa: 00 00                                           [..]
  | | 29) ExposureMode = 1
  | |     - Tag 0xa402 (2 bytes, int16u[1]):
  | |         02b6: 01 00                                           [..]
  | | 30) WhiteBalance = 0
  | |     - Tag 0xa403 (2 bytes, int16u[1]):
  | |         02c2: 00 00                                           [..]
  | | 31) SceneCaptureType = 0
  | |     - Tag 0xa406 (2 bytes, int16u[1]):
  | |         02ce: 00 00                                           [..]
  | | 32) OwnerName = 
  | |     - Tag 0xa430 (1 bytes, string[1]):
  | |         02da: 00                                              [.]
  | | 33) SerialNumber = 103025021031
  | |     - Tag 0xa431 (13 bytes, string[13]):
  | |         1928: 31 30 33 30 32 35 30 32 31 30 33 31 00          [103025021031.]
  | | 34) LensInfo = 55 250 0 0 (55/1 250/1 0/1 0/1)
  | |     - Tag 0xa432 (32 bytes, rational64u[4]):
  | |         1936: 37 00 00 00 01 00 00 00 fa 00 00 00 01 00 00 00 [7...............]
  | |         1946: 00 00 00 00 01 00 00 00 00 00 00 00 01 00 00 00 [................]
  | | 35) LensModel = EF-S55-250mm f/4-5.6 IS STM
  | |     - Tag 0xa434 (28 bytes, string[28]):
  | |         1956: 45 46 2d 53 35 35 2d 32 35 30 6d 6d 20 66 2f 34 [EF-S55-250mm f/4]
  | |         1966: 2d 35 2e 36 20 49 53 20 53 54 4d 00             [-5.6 IS STM.]
  | | 36) LensSerialNumber = 0000800dcf
  | |     - Tag 0xa435 (11 bytes, string[11]):
  | |         1972: 30 30 30 30 38 30 30 64 63 66 00                [0000800dcf.]
  | 13) GPSInfo (SubDirectory) -->
  |     - Tag 0x8825 (4 bytes, int32u[1]):
  |         00cc: 7e 19 00 00                                     [~...]
  | + [GPS directory with 5 entries, Little-endian]
  | | 0)  GPSVersionID = 2 2 0 0
  | |     - Tag 0x0000 (4 bytes, int8u[4]):
  | |         19a6: 02 02 00 00                                     [....]
  | | 1)  GPSLatitudeRef = N
  | |     - Tag 0x0001 (2 bytes, string[2]):
  | |         19b2: 4e 00                                           [N.]
  | | 2)  GPSLatitude = 55 54.678955 0 (55/1 54678955/1000000 0/1)
  | |     - Tag 0x0002 (24 bytes, rational64u[3]):
  | |         19de: 37 00 00 00 01 00 00 00 ab 55 42 03 40 42 0f 00 [7........UB.@B..]
  | |         19ee: 00 00 00 00 01 00 00 00                         [........]
  | | 3)  GPSLongitudeRef = E
  | |     - Tag 0x0003 (2 bytes, string[2]):
  | |         19ca: 45 00                                           [E.]
  | | 4)  GPSLongitude = 36 57.808914 0 (36/1 57808914/1000000 0/1)
  | |     - Tag 0x0004 (24 bytes, rational64u[3]):
  | |         19f6: 24 00 00 00 01 00 00 00 12 18 72 03 40 42 0f 00 [$.........r.@B..]
  | |         1a06: 00 00 00 00 01 00 00 00                         [........]
  | 14) DateTimeOriginal = 2019:07:14 09:21:11
  |     - Tag 0x9003 (20 bytes, string[20]):
  |         013c: 32 30 31 39 3a 30 37 3a 31 34 20 30 39 3a 32 31 [2019:07:14 09:21]
  |         014c: 3a 31 31 00                                     [:11.]
JPEG APP13 (144 bytes):
      1a12: 50 68 6f 74 6f 73 68 6f 70 20 33 2e 30 00 38 42 [Photoshop 3.0.8B]
      1a22: 49 4d 04 04 00 00 00 00 00 76 1c 02 78 00 22 68 [IM.......v..x."h]
      1a32: 6f 6e 65 79 62 65 65 20 70 65 72 63 68 69 6e 67 [oneybee perching]
      1a42: 20 6f 6e 20 79 65 6c 6c 6f 77 20 66 6c 6f 77 65 [ on yellow flowe]
      1a52: 72 1c 02 00 00 02 00 04 1c 02 19 00 09 68 6f 6e [r............hon]
      1a62: 65 79 20 62 65 65 1c 02 19 00 06 61 6e 69 6d 61 [ey bee.....anima]
      1a72: 6c 1c 02 19 00 06 69 6e 73 65 63 74 1c 02 19 00 [l.....insect....]
      [snip 32 bytes]
  + [Photoshop directory, 130 bytes]
  | IPTCData (SubDirectory) -->
  | - Tag 0x0404 (118 bytes):
  |     1a2c: 1c 02 78 00 22 68 6f 6e 65 79 62 65 65 20 70 65 [..x."honeybee pe]
  |     1a3c: 72 63 68 69 6e 67 20 6f 6e 20 79 65 6c 6c 6f 77 [rching on yellow]
  |     1a4c: 20 66 6c 6f 77 65 72 1c 02 00 00 02 00 04 1c 02 [ flower.........]
  |     1a5c: 19 00 09 68 6f 6e 65 79 20 62 65 65 1c 02 19 00 [...honey bee....]
  |     1a6c: 06 61 6e 69 6d 61 6c 1c 02 19 00 06 69 6e 73 65 [.animal.....inse]
  |     1a7c: 63 74 1c 02 19 00 0c 69 6e 76 65 72 74 65 62 72 [ct.....invertebr]
  |     1a8c: 61 74 65 1c 02 19 00 06 61 70 69 64 61 65 1c 02 [ate.....apidae..]
  |     1a9c: 19 00 03 62 65 65                               [...bee]
  | + [IPTC directory, 118 bytes]
  | | CurrentIPTCDigest = ...h........yb..
  | | -- IPTCApplication record --
  | | Caption-Abstract = honeybee perching on yellow flower
  | | - Tag 0x0078, IPTCApplication record (34 bytes, string[0,2000]):
  | |     1a31: 68 6f 6e 65 79 62 65 65 20 70 65 72 63 68 69 6e [honeybee perchin]
  | |     1a41: 67 20 6f 6e 20 79 65 6c 6c 6f 77 20 66 6c 6f 77 [g on yellow flow]
  | |     1a51: 65 72                                           [er]
  | | ApplicationRecordVersion = 4
  | | - Tag 0x0000, IPTCApplication record (2 bytes, int16u):
  | |     1a58: 00 04                                           [..]
  | | Keywords = honey bee
  | | - Tag 0x0019, IPTCApplication record (9 bytes, string[0,64]):
  | |     1a5f: 68 6f 6e 65 79 20 62 65 65                      [honey bee]
  | | Keywords = animal
  | | - Tag 0x0019, IPTCApplication record (6 bytes, string[0,64]):
  | |     1a6d: 61 6e 69 6d 61 6c                               [animal]
  | | Keywords = insect
  | | - Tag 0x0019, IPTCApplication record (6 bytes, string[0,64]):
  | |     1a78: 69 6e 73 65 63 74                               [insect]
  | | Keywords = invertebrate
  | | - Tag 0x0019, IPTCApplication record (12 bytes, string[0,64]):
  | |     1a83: 69 6e 76 65 72 74 65 62 72 61 74 65             [invertebrate]
  | | Keywords = apidae
  | | - Tag 0x0019, IPTCApplication record (6 bytes, string[0,64]):
  | |     1a94: 61 70 69 64 61 65                               [apidae]
  | | Keywords = bee
  | | - Tag 0x0019, IPTCApplication record (3 bytes, string[0,64]):
  | |     1a9f: 62 65 65                                        [bee]
JPEG APP1 (11015 bytes):
      1aa6: 68 74 74 70 3a 2f 2f 6e 73 2e 61 64 6f 62 65 2e [http://ns.adobe.]
      1ab6: 63 6f 6d 2f 78 61 70 2f 31 2e 30 2f 00 3c 3f 78 [com/xap/1.0/.<?x]
      1ac6: 70 61 63 6b 65 74 20 62 65 67 69 6e 3d 27 ef bb [packet begin='..]
      1ad6: bf 27 20 69 64 3d 27 57 35 4d 30 4d 70 43 65 68 [.' id='W5M0MpCeh]
      1ae6: 69 48 7a 72 65 53 7a 4e 54 63 7a 6b 63 39 64 27 [iHzreSzNTczkc9d']
      1af6: 3f 3e 0a 3c 78 3a 78 6d 70 6d 65 74 61 20 78 6d [?>.<x:xmpmeta xm]
      1b06: 6c 6e 73 3a 78 3d 27 61 64 6f 62 65 3a 6e 73 3a [lns:x='adobe:ns:]
      [snip 10903 bytes]
  + [XMP directory, 10986 bytes]
  | XMPToolkit = Image::ExifTool 12.27
  | Auto_presets_applied = 1
  | - Tag 'x:xmpmeta/rdf:RDF/rdf:Description/darktable:auto_presets_applied'
  | [adding XMP-darktable:auto_presets_applied]
  | HistoryBlendop_params = gz11eJxjYGBgkGAAgRNODGiAEV0AJ2iwh+CRxQcA5qIZBA==
  | - Tag 'x:xmpmeta/rdf:RDF/rdf:Description/darktable:history/rdf:Seq/rdf:li 10/darktable:blendop_params'
  | [adding XMP-darktable:historyBlendop_params] (history/blendop_params)
  | HistoryBlendop_version = 8
  | - Tag 'x:xmpmeta/rdf:RDF/rdf:Description/darktable:history/rdf:Seq/rdf:li 10/darktable:blendop_version'
  | [adding XMP-darktable:historyBlendop_version] (history/blendop_version)
  | HistoryEnabled = 1
  | - Tag 'x:xmpmeta/rdf:RDF/rdf:Description/darktable:history/rdf:Seq/rdf:li 10/darktable:enabled'
  | [adding XMP-darktable:historyEnabled] (history/enabled)
  | HistoryModversion = 1
  | - Tag 'x:xmpmeta/rdf:RDF/rdf:Description/darktable:history/rdf:Seq/rdf:li 10/darktable:modversion'
  | [adding XMP-darktable:historyModversion] (history/modversion)
  | HistoryMulti_name = 
  | - Tag 'x:xmpmeta/rdf:RDF/rdf:Description/darktable:history/rdf:Seq/rdf:li 10/darktable:multi_name'
  | [adding XMP-darktable:historyMulti_name] (history/multi_name)
  | HistoryMulti_priority = 0
  | - Tag 'x:xmpmeta/rdf:RDF/rdf:Description/darktable:history/rdf:Seq/rdf:li 10/darktable:multi_priority'
  | [adding XMP-darktable:historyMulti_priority] (history/multi_priority)
  | HistoryOperation = sharpen
  | - Tag 'x:xmpmeta/rdf:RDF/rdf:Description/darktable:history/rdf:Seq/rdf:li 10/darktable:operation'
  | [adding XMP-darktable:historyOperation] (history/operation)
  | HistoryParams = 000000400000003f0000003f
  | - Tag 'x:xmpmeta/rdf:RDF/rdf:Description/darktable:history/rdf:Seq/rdf:li 10/darktable:params'
  | [adding XMP-darktable:historyParams] (history/params)
  | HistoryBlendop_params = gz11eJxjYGBgkGAAgRNODGiAEV0AJ2iwh+CRxQcA5qIZBA==
  | - Tag 'x:xmpmeta/rdf:RDF/rdf:Description/darktable:history/rdf:Seq/rdf:li 11/darktable:blendop_params'
  | HistoryBlendop_version = 8
  | - Tag 'x:xmpmeta/rdf:RDF/rdf:Description/darktable:history/rdf:Seq/rdf:li 11/darktable:blendop_version'
  | HistoryEnabled = 1
  | - Tag 'x:xmpmeta/rdf:RDF/rdf:Description/darktable:history/rdf:Seq/rdf:li 11/darktable:enabled'
  | HistoryModversion = 2
  | - Tag 'x:xmpmeta/rdf:RDF/rdf:Description/darktable:history/rdf:Seq/rdf:li 11/darktable:modversion'
  | HistoryMulti_name = 
  | - Tag 'x:xmpmeta/rdf:RDF/rdf:Description/darktable:history/rdf:Seq/rdf:li 11/darktable:multi_name'
  | HistoryMulti_priority = 0
  | - Tag 'x:xmpmeta/rdf:RDF/rdf:Description/darktable:history/rdf:Seq/rdf:li 11/darktable:multi_priority'
  | HistoryOperation = flip
  | - Tag 'x:xmpmeta/rdf:RDF/rdf:Description/darktable:history/rdf:Seq/rdf:li 11/darktable:operation'
  | HistoryParams = ffffffff
  | - Tag 'x:xmpmeta/rdf:RDF/rdf:Description/darktable:history/rdf:Seq/rdf:li 11/darktable:params'
  | HistoryBlendop_params = gz11eJxjYGBgkGAAgRNODGiAEV0AJ2iwh+CRxQcA5qIZBA==
  | - Tag 'x:xmpmeta/rdf:RDF/rdf:Description/darktable:history/rdf:Seq/rdf:li 12/darktable:blendop_params'
  | HistoryBlendop_version = 8
  | - Tag 'x:xmpmeta/rdf:RDF/rdf:Description/darktable:history/rdf:Seq/rdf:li 12/darktable:blendop_version'
  | HistoryEnabled = 1
  | - Tag 'x:xmpmeta/rdf:RDF/rdf:Description/darktable:history/rdf:Seq/rdf:li 12/darktable:enabled'
  | HistoryModversion = 5
  | - Tag 'x:xmpmeta/rdf:RDF/rdf:Description/darktable:history/rdf:Seq/rdf:li 12/darktable:modversion'
  | HistoryMulti_name = 
  | - Tag 'x:xmpmeta/rdf:RDF/rdf:Description/darktable:history/rdf:Seq/rdf:li 12/darktable:multi_name'
  | HistoryMulti_priority = 0
  | - Tag 'x:xmpmeta/rdf:RDF/rdf:Description/darktable:history/rdf:Seq/rdf:li 12/darktable:multi_priority'
  | HistoryOperation = basecurve
  | - Tag 'x:xmpmeta/rdf:RDF/rdf:Description/darktable:history/rdf:Seq/rdf:li 12/darktable:operation'
  | HistoryParams = gz09eJxjYIAAM6vnNnqyn22E9n235b6aa3cy6rVdRaK9/Y970fYf95bbMzA0QPEoGEqADYnNhCELiVMAudcSGA==
  | - Tag 'x:xmpmeta/rdf:RDF/rdf:Description/darktable:history/rdf:Seq/rdf:li 12/darktable:params'
  | HistoryBlendop_params = gz11eJxjYGBgkGAAgRNODGiAEV0AJ2iwh+CRxQcA5qIZBA==
  | - Tag 'x:xmpmeta/rdf:RDF/rdf:Description/darktable:history/rdf:Seq/rdf:li 13/darktable:blendop_params'
  | HistoryBlendop_version = 8
  | - Tag 'x:xmpmeta/rdf:RDF/rdf:Description/darktable:history/rdf:Seq/rdf:li 13/darktable:blendop_version'
  | HistoryEnabled = 1
  | - Tag 'x:xmpmeta/rdf:RDF/rdf:Description/darktable:history/rdf:Seq/rdf:li 13/darktable:enabled'
  | HistoryModversion = 5
  | - Tag 'x:xmpmeta/rdf:RDF/rdf:Description/darktable:history/rdf:Seq/rdf:li 13/darktable:modversion'
  | HistoryMulti_name = 
  | - Tag 'x:xmpmeta/rdf:RDF/rdf:Description/darktable:history/rdf:Seq/rdf:li 13/darktable:multi_name'
  | HistoryMulti_priority = 0
  | - Tag 'x:xmpmeta/rdf:RDF/rdf:Description/darktable:history/rdf:Seq/rdf:li 13/darktable:multi_priority'
  | HistoryOperation = clipping
  | - Tag 'x:xmpmeta/rdf:RDF/rdf:Description/darktable:history/rdf:Seq/rdf:li 13/darktable:operation'
  | HistoryParams = 00000000e040f23c4ee4053efce6413f80c75b3f0000000000000000cdcc4c3ecdcc4c3ecdcc4c3fcdcc4c3ecdcc4c3fcdcc4c3fcdcc4c3ecdcc4c3f000000000000000000000000010000000000000001000000
  | - Tag 'x:xmpmeta/rdf:RDF/rdf:Description/darktable:history/rdf:Seq/rdf:li 13/darktable:params'
  | HistoryBlendop_params = gz11eJxjYGBgkGAAgRNODGiAEV0AJ2iwh+CRxQcA5qIZBA==
  | - Tag 'x:xmpmeta/rdf:RDF/rdf:Description/darktable:history/rdf:Seq/rdf:li 14/darktable:blendop_params'
  | HistoryBlendop_version = 8
  | - Tag 'x:xmpmeta/rdf:RDF/rdf:Description/darktable:history/rdf:Seq/rdf:li 14/darktable:blendop_version'
  | HistoryEnabled = 1
  | - Tag 'x:xmpmeta/rdf:RDF/rdf:Description/darktable:history/rdf:Seq/rdf:li 14/darktable:enabled'
  | HistoryModversion = 5
  | - Tag 'x:xmpmeta/rdf:RDF/rdf:Description/darktable:history/rdf:Seq/rdf:li 14/darktable:modversion'
  | HistoryMulti_name = 
  | - Tag 'x:xmpmeta/rdf:RDF/rdf:Description/darktable:history/rdf:Seq/rdf:li 14/darktable:multi_name'
  | HistoryMulti_priority = 0
  | - Tag 'x:xmpmeta/rdf:RDF/rdf:Description/darktable:history/rdf:Seq/rdf:li 14/darktable:multi_priority'
  | HistoryOperation = clipping
  | - Tag 'x:xmpmeta/rdf:RDF/rdf:Description/darktable:history/rdf:Seq/rdf:li 14/darktable:operation'
  | HistoryParams = 00000000501a1c3d0c5cb53d9a16443feef9503f0000000000000000cdcc4c3ecdcc4c3ecdcc4c3fcdcc4c3ecdcc4c3fcdcc4c3fcdcc4c3ecdcc4c3f000000000000000000000000010000000000000001000000
  | - Tag 'x:xmpmeta/rdf:RDF/rdf:Description/darktable:history/rdf:Seq/rdf:li 14/darktable:params'
  | HistoryBlendop_params = gz11eJxjYGBgkGAAgRNODGiAEV0AJ2iwh+CRxQcA5qIZBA==
  | - Tag 'x:xmpmeta/rdf:RDF/rdf:Description/darktable:history/rdf:Seq/rdf:li 15/darktable:blendop_params'
  | HistoryBlendop_version = 8
  | - Tag 'x:xmpmeta/rdf:RDF/rdf:Description/darktable:history/rdf:Seq/rdf:li 15/darktable:blendop_version'
  | HistoryEnabled = 1
  | - Tag 'x:xmpmeta/rdf:RDF/rdf:Description/darktable:history/rdf:Seq/rdf:li 15/darktable:enabled'
  | HistoryModversion = 1
  | - Tag 'x:xmpmeta/rdf:RDF/rdf:Description/darktable:history/rdf:Seq/rdf:li 15/darktable:modversion'
  | HistoryMulti_name = 
  | - Tag 'x:xmpmeta/rdf:RDF/rdf:Description/darktable:history/rdf:Seq/rdf:li 15/darktable:multi_name'
  | HistoryMulti_priority = 0
  | - Tag 'x:xmpmeta/rdf:RDF/rdf:Description/darktable:history/rdf:Seq/rdf:li 15/darktable:multi_priority'
  | HistoryOperation = colisa
  | - Tag 'x:xmpmeta/rdf:RDF/rdf:Description/darktable:history/rdf:Seq/rdf:li 15/darktable:operation'
  | HistoryParams = d0ccccbdd0cccc3dd0cc4cbd
  | - Tag 'x:xmpmeta/rdf:RDF/rdf:Description/darktable:history/rdf:Seq/rdf:li 15/darktable:params'
  | HistoryBlendop_params = gz11eJxjYGBgkGAAgRNODGiAEV0AJ2iwh+CRxQcA5qIZBA==
  | - Tag 'x:xmpmeta/rdf:RDF/rdf:Description/darktable:history/rdf:Seq/rdf:li 16/darktable:blendop_params'
  | HistoryBlendop_version = 8
  | - Tag 'x:xmpmeta/rdf:RDF/rdf:Description/darktable:history/rdf:Seq/rdf:li 16/darktable:blendop_version'
  | HistoryEnabled = 1
  | - Tag 'x:xmpmeta/rdf:RDF/rdf:Description/darktable:history/rdf:Seq/rdf:li 16/darktable:enabled'
  | HistoryModversion = 3
  | - Tag 'x:xmpmeta/rdf:RDF/rdf:Description/darktable:history/rdf:Seq/rdf:li 16/darktable:modversion'
  | HistoryMulti_name = 
  | - Tag 'x:xmpmeta/rdf:RDF/rdf:Description/darktable:history/rdf:Seq/rdf:li 16/darktable:multi_name'
  | HistoryMulti_priority = 0
  | - Tag 'x:xmpmeta/rdf:RDF/rdf:Description/darktable:history/rdf:Seq/rdf:li 16/darktable:multi_priority'
  | HistoryOperation = bilat
  | - Tag 'x:xmpmeta/rdf:RDF/rdf:Description/darktable:history/rdf:Seq/rdf:li 16/darktable:operation'
  | HistoryParams = 01000000cdcccc3ecdcc8c3f0000803ecdcc4c3e
  | - Tag 'x:xmpmeta/rdf:RDF/rdf:Description/darktable:history/rdf:Seq/rdf:li 16/darktable:params'
  | HistoryBlendop_params = gz11eJxjYGBgkGAAgRNODGiAEV0AJ2iwh+CRxQcA5qIZBA==
  | - Tag 'x:xmpmeta/rdf:RDF/rdf:Description/darktable:history/rdf:Seq/rdf:li 17/darktable:blendop_params'
  | HistoryBlendop_version = 8
  | - Tag 'x:xmpmeta/rdf:RDF/rdf:Description/darktable:history/rdf:Seq/rdf:li 17/darktable:blendop_version'
  | HistoryEnabled = 1
  | - Tag 'x:xmpmeta/rdf:RDF/rdf:Description/darktable:history/rdf:Seq/rdf:li 17/darktable:enabled'
  | HistoryModversion = 1
  | - Tag 'x:xmpmeta/rdf:RDF/rdf:Description/darktable:history/rdf:Seq/rdf:li 17/darktable:modversion'
  | HistoryMulti_name = 
  | - Tag 'x:xmpmeta/rdf:RDF/rdf:Description/darktable:history/rdf:Seq/rdf:li 17/darktable:multi_name'
  | HistoryMulti_priority = 0
  | - Tag 'x:xmpmeta/rdf:RDF/rdf:Description/darktable:history/rdf:Seq/rdf:li 17/darktable:multi_priority'
  | HistoryOperation = sharpen
  | - Tag 'x:xmpmeta/rdf:RDF/rdf:Description/darktable:history/rdf:Seq/rdf:li 17/darktable:operation'
  | HistoryParams = 000000400000803f0000003f
  | - Tag 'x:xmpmeta/rdf:RDF/rdf:Description/darktable:history/rdf:Seq/rdf:li 17/darktable:params'
  | HistoryBlendop_params = gz11eJxjYGBgkGAAgRNODGiAEV0AJ2iwh+CRxQcA5qIZBA==
  | - Tag 'x:xmpmeta/rdf:RDF/rdf:Description/darktable:history/rdf:Seq/rdf:li 18/darktable:blendop_params'
  | HistoryBlendop_version = 8
  | - Tag 'x:xmpmeta/rdf:RDF/rdf:Description/darktable:history/rdf:Seq/rdf:li 18/darktable:blendop_version'
  | HistoryEnabled = 1
  | - Tag 'x:xmpmeta/rdf:RDF/rdf:Description/darktable:history/rdf:Seq/rdf:li 18/darktable:enabled'
  | HistoryModversion = 3
  | - Tag 'x:xmpmeta/rdf:RDF/rdf:Description/darktable:history/rdf:Seq/rdf:li 18/darktable:modversion'
  | HistoryMulti_name = 
  | - Tag 'x:xmpmeta/rdf:RDF/rdf:Description/darktable:history/rdf:Seq/rdf:li 18/darktable:multi_name'
  | HistoryMulti_priority = 0
  | - Tag 'x:xmpmeta/rdf:RDF/rdf:Description/darktable:history/rdf:Seq/rdf:li 18/darktable:multi_priority'
  | HistoryOperation = bilat
  | - Tag 'x:xmpmeta/rdf:RDF/rdf:Description/darktable:history/rdf:Seq/rdf:li 18/darktable:operation'
  | HistoryParams = 01000000cdcccc3ecdcc8c3f9a99993ecdcc4c3e
  | - Tag 'x:xmpmeta/rdf:RDF/rdf:Description/darktable:history/rdf:Seq/rdf:li 18/darktable:params'
  | HistoryBlendop_params = gz11eJxjYGBgkGAAgRNODGiAEV0AJ2iwh+CRxQcA5qIZBA==
  | - Tag 'x:xmpmeta/rdf:RDF/rdf:Description/darktable:history/rdf:Seq/rdf:li 19/darktable:blendop_params'
  | HistoryBlendop_version = 8
  | - Tag 'x:xmpmeta/rdf:RDF/rdf:Description/darktable:history/rdf:Seq/rdf:li 19/darktable:blendop_version'
  | HistoryEnabled = 1
  | - Tag 'x:xmpmeta/rdf:RDF/rdf:Description/darktable:history/rdf:Seq/rdf:li 19/darktable:enabled'
  | HistoryModversion = 2
  | - Tag 'x:xmpmeta/rdf:RDF/rdf:Description/darktable:history/rdf:Seq/rdf:li 19/darktable:modversion'
  | HistoryMulti_name = 
  | - Tag 'x:xmpmeta/rdf:RDF/rdf:Description/darktable:history/rdf:Seq/rdf:li 19/darktable:multi_name'
  | HistoryMulti_priority = 0
  | - Tag 'x:xmpmeta/rdf:RDF/rdf:Description/darktable:history/rdf:Seq/rdf:li 19/darktable:multi_priority'
  | HistoryOperation = levels
  | - Tag 'x:xmpmeta/rdf:RDF/rdf:Description/darktable:history/rdf:Seq/rdf:li 19/darktable:operation'
  | HistoryParams = 0000000000000000000048420000c842d9899d3dc332d53e8bac483f
  | - Tag 'x:xmpmeta/rdf:RDF/rdf:Description/darktable:history/rdf:Seq/rdf:li 19/darktable:params'
  | HistoryBlendop_params = gz11eJxjYGBgkGAAgRNODGiAEV0AJ2iwh+CRxQcA5qIZBA==
  | - Tag 'x:xmpmeta/rdf:RDF/rdf:Description/darktable:history/rdf:Seq/rdf:li 210/darktable:blendop_params'
  | HistoryBlendop_version = 8
  | - Tag 'x:xmpmeta/rdf:RDF/rdf:Description/darktable:history/rdf:Seq/rdf:li 210/darktable:blendop_version'
  | HistoryEnabled = 1
  | - Tag 'x:xmpmeta/rdf:RDF/rdf:Description/darktable:history/rdf:Seq/rdf:li 210/darktable:enabled'
  | HistoryModversion = 3
  | - Tag 'x:xmpmeta/rdf:RDF/rdf:Description/darktable:history/rdf:Seq/rdf:li 210/darktable:modversion'
  | HistoryMulti_name = 
  | - Tag 'x:xmpmeta/rdf:RDF/rdf:Description/darktable:history/rdf:Seq/rdf:li 210/darktable:multi_name'
  | HistoryMulti_priority = 0
  | - Tag 'x:xmpmeta/rdf:RDF/rdf:Description/darktable:history/rdf:Seq/rdf:li 210/darktable:multi_priority'
  | HistoryOperation = demosaic
  | - Tag 'x:xmpmeta/rdf:RDF/rdf:Description/darktable:history/rdf:Seq/rdf:li 210/darktable:operation'
  | HistoryParams = 0000000000000000000000000100000000000000
  | - Tag 'x:xmpmeta/rdf:RDF/rdf:Description/darktable:history/rdf:Seq/rdf:li 210/darktable:params'
  | HistoryBlendop_params = gz11eJxjYGBgkGAAgRNODGiAEV0AJ2iwh+CRxQcA5qIZBA==
  | - Tag 'x:xmpmeta/rdf:RDF/rdf:Description/darktable:history/rdf:Seq/rdf:li 211/darktable:blendop_params'
  | HistoryBlendop_version = 8
  | - Tag 'x:xmpmeta/rdf:RDF/rdf:Description/darktable:history/rdf:Seq/rdf:li 211/darktable:blendop_version'
  | HistoryEnabled = 1
  | - Tag 'x:xmpmeta/rdf:RDF/rdf:Description/darktable:history/rdf:Seq/rdf:li 211/darktable:enabled'
  | HistoryModversion = 1
  | - Tag 'x:xmpmeta/rdf:RDF/rdf:Description/darktable:history/rdf:Seq/rdf:li 211/darktable:modversion'
  | HistoryMulti_name = 
  | - Tag 'x:xmpmeta/rdf:RDF/rdf:Description/darktable:history/rdf:Seq/rdf:li 211/darktable:multi_name'
  | HistoryMulti_priority = 0
  | - Tag 'x:xmpmeta/rdf:RDF/rdf:Description/darktable:history/rdf:Seq/rdf:li 211/darktable:multi_priority'
  | HistoryOperation = cacorrect
  | - Tag 'x:xmpmeta/rdf:RDF/rdf:Description/darktable:history/rdf:Seq/rdf:li 211/darktable:operation'
  | HistoryParams = 32000000
  | - Tag 'x:xmpmeta/rdf:RDF/rdf:Description/darktable:history/rdf:Seq/rdf:li 211/darktable:params'
  | History_end = 12
  | - Tag 'x:xmpmeta/rdf:RDF/rdf:Description/darktable:history_end'
  | [adding XMP-darktable:history_end]
  | Raw_params = 0
  | - Tag 'x:xmpmeta/rdf:RDF/rdf:Description/darktable:raw_params'
  | [adding XMP-darktable:raw_params]
  | Xmp_version = 2
  | - Tag 'x:xmpmeta/rdf:RDF/rdf:Description/darktable:xmp_version'
  | [adding XMP-darktable:xmp_version]
  | Creator = dxfoto.ru
  | - Tag 'x:xmpmeta/rdf:RDF/rdf:Description/dc:creator/rdf:Seq/rdf:li 10'
  | Rights = CC-BY 3.0
  | - Tag 'x:xmpmeta/rdf:RDF/rdf:Description/dc:rights/rdf:Alt/rdf:li 10'
  | Subject = dxfoto
  | - Tag 'x:xmpmeta/rdf:RDF/rdf:Description/dc:subject/rdf:Seq/rdf:li 10'
  | Subject = published
  | - Tag 'x:xmpmeta/rdf:RDF/rdf:Description/dc:subject/rdf:Seq/rdf:li 11'
  | GPSLatitude = 55,54.678955N
  | - Tag 'x:xmpmeta/rdf:RDF/rdf:Description/exif:GPSLatitude'
  | GPSLongitude = 36,57.808914E
  | - Tag 'x:xmpmeta/rdf:RDF/rdf:Description/exif:GPSLongitude'
  | GPSVersionID = 2.2.0.0
  | - Tag 'x:xmpmeta/rdf:RDF/rdf:Description/exif:GPSVersionID'
  | HierarchicalSubject = dxfoto|published
  | - Tag 'x:xmpmeta/rdf:RDF/rdf:Description/lr:hierarchicalSubject/rdf:Seq/rdf:li 10'
  | Rating = 0
  | - Tag 'x:xmpmeta/rdf:RDF/rdf:Description/xmp:Rating'
  | DerivedFrom = _MG_9604.CR2
  | - Tag 'x:xmpmeta/rdf:RDF/rdf:Description/xmpMM:DerivedFrom'
JPEG APP2 (8954 bytes):
      45b1: 49 43 43 5f 50 52 4f 46 49 4c 45 00 01 01 00 00 [ICC_PROFILE.....]
      45c1: 22 ec 6c 63 6d 73 02 10 00 00 6d 6e 74 72 52 47 [".lcms....mntrRG]
      45d1: 42 20 58 59 5a 20 07 e3 00 07 00 0f 00 10 00 38 [B XYZ .........8]
      45e1: 00 32 61 63 73 70 41 50 50 4c 00 00 00 00 00 00 [.2acspAPPL......]
      45f1: 00 00 00 00 00 00 00 00 00 00 00 00 00 00 00 00 [................]
      4601: 00 00 00 00 f6 d6 00 01 00 00 00 00 d3 2d 6c 63 [.............-lc]
      4611: 6d 73 00 00 00 00 00 00 00 00 00 00 00 00 00 00 [ms..............]
      [snip 8842 bytes]
ICC_Profile chunk 1 of 1
  + [ICC_Profile directory with 12 entries, 8940 bytes]
  | ProfileHeader (SubDirectory) -->
  | + [BinaryData directory, 128 bytes, Big-endian]
  | | ProfileCMMType = lcms
  | | - Tag 0x0004 (4 bytes, string[4]):
  | |     0004: 6c 63 6d 73                                     [lcms]
  | | ProfileVersion = 528
  | | - Tag 0x0008 (2 bytes, int16s[1]):
  | |     0008: 02 10                                           [..]
  | | ProfileClass = mntr
  | | - Tag 0x000c (4 bytes, string[4]):
  | |     000c: 6d 6e 74 72                                     [mntr]
  | | ColorSpaceData = RGB 
  | | - Tag 0x0010 (4 bytes, string[4]):
  | |     0010: 52 47 42 20                                     [RGB ]
  | | ProfileConnectionSpace = XYZ 
  | | - Tag 0x0014 (4 bytes, string[4]):
  | |     0014: 58 59 5a 20                                     [XYZ ]
  | | ProfileDateTime = 2019 7 15 16 56 50
  | | - Tag 0x0018 (12 bytes, int16u[6]):
  | |     0018: 07 e3 00 07 00 0f 00 10 00 38 00 32             [.........8.2]
  | | ProfileFileSignature = acsp
  | | - Tag 0x0024 (4 bytes, string[4]):
  | |     0024: 61 63 73 70                                     [acsp]
  | | PrimaryPlatform = APPL
  | | - Tag 0x0028 (4 bytes, string[4]):
  | |     0028: 41 50 50 4c                                     [APPL]
  | | CMMFlags = 0
  | | - Tag 0x002c (4 bytes, int32u[1]):
  | |     002c: 00 00 00 00                                     [....]
  | | DeviceManufacturer = 
  | | - Tag 0x0030 (4 bytes, string[4]):
  | |     0030: 00 00 00 00                                     [....]
  | | DeviceModel = 
  | | - Tag 0x0034 (4 bytes, string[4]):
  | |     0034: 00 00 00 00                                     [....]
  | | DeviceAttributes = 0 0
  | | - Tag 0x0038 (8 bytes, int32u[2]):
  | |     0038: 00 00 00 00 00 00 00 00                         [........]
  | | RenderingIntent = 0
  | | - Tag 0x0040 (4 bytes, int32u[1]):
  | |     0040: 00 00 00 00                                     [....]
  | | ConnectionSpaceIlluminant = 0.9642 1 0.82491
  | | - Tag 0x0044 (12 bytes, fixed32s[3]):
  | |     0044: 00 00 f6 d6 00 01 00 00 00 00 d3 2d             [...........-]
  | | ProfileCreator = lcms
  | | - Tag 0x0050 (4 bytes, string[4]):
  | |     0050: 6c 63 6d 73                                     [lcms]
  | | ProfileID = 0 0 0 0 0 0 0 0 0 0 0 0 0 0 0 0
  | | - Tag 0x0054 (16 bytes, int8u[16]):
  | |     0054: 00 00 00 00 00 00 00 00 00 00 00 00 00 00 00 00 [................]
  | 0)  ProfileCopyright = Public Domain
  |     - Tag 'cprt' (22 bytes, type 'text'):
  |         0114: 74 65 78 74 00 00 00 00 50 75 62 6c 69 63 20 44 [text....Public D]
  |         0124: 6f 6d 61 69 6e 00                               [omain.]
  | 1)  ProfileDescription = sRGB
  |     - Tag 'desc' (108 bytes, type 'desc'):
  |         012c: 64 65 73 63 00 00 00 00 00 00 00 05 73 52 47 42 [desc........sRGB]
  |         013c: 00 00 00 00 00 00 00 00 05 00 73 00 52 00 47 00 [..........s.R.G.]
  |         014c: 42 00 00 00 00 00 00 00 00 00 00 00 00 00 00 00 [B...............]
  |         015c: 00 00 00 00 00 00 00 00 00 00 00 00 00 00 00 00 [................]
  |         016c: 00 00 00 00 00 00 00 00 00 00 00 00 00 00 00 00 [................]
  |         017c: 00 00 00 00 00 00 00 00 00 00 00 00 00 00 00 00 [................]
  |         018c: 00 00 00 00 00 00 00 00 00 00 00 00             [............]
  | 2)  DeviceMfgDesc = Darktable
  |     - Tag 'dmnd' (120 bytes, type 'desc'):
  |         0198: 64 65 73 63 00 00 00 00 00 00 00 0a 44 61 72 6b [desc........Dark]
  |         01a8: 74 61 62 6c 65 00 00 00 00 00 00 00 00 0a 00 44 [table..........D]
  |         01b8: 00 61 00 72 00 6b 00 74 00 61 00 62 00 6c 00 65 [.a.r.k.t.a.b.l.e]
  |         01c8: 00 00 00 00 00 00 00 00 00 00 00 00 00 00 00 00 [................]
  |         01d8: 00 00 00 00 00 00 00 00 00 00 00 00 00 00 00 00 [................]
  |         01e8: 00 00 00 00 00 00 00 00 00 00 00 00 00 00 00 00 [................]
  |         01f8: 00 00 00 00 00 00 00 00 00 00 00 00 00 00 00 00 [................]
  |         0208: 00 00 00 00 00 00 00 00                         [........]
  | 3)  DeviceModelDesc = sRGB
  |     - Tag 'dmdd' (108 bytes, type 'desc'):
  |         0210: 64 65 73 63 00 00 00 00 00 00 00 05 73 52 47 42 [desc........sRGB]
  |         0220: 00 00 00 00 00 00 00 00 05 00 73 00 52 00 47 00 [..........s.R.G.]
  |         0230: 42 00 00 00 00 00 00 00 00 00 00 00 00 00 00 00 [B...............]
  |         0240: 00 00 00 00 00 00 00 00 00 00 00 00 00 00 00 00 [................]
  |         0250: 00 00 00 00 00 00 00 00 00 00 00 00 00 00 00 00 [................]
  |         0260: 00 00 00 00 00 00 00 00 00 00 00 00 00 00 00 00 [................]
  |         0270: 00 00 00 00 00 00 00 00 00 00 00 00             [............]
  | 4)  MediaWhitePoint = 0.95045 1 1.08905
  |     - Tag 'wtpt' (20 bytes, type 'XYZ '):
  |         027c: 58 59 5a 20 00 00 00 00 00 00 f3 51 00 01 00 00 [XYZ .......Q....]
  |         028c: 00 01 16 cc                                     [....]
  | 5)  MediaBlackPoint = 0 0 0
  |     - Tag 'bkpt' (20 bytes, type 'XYZ '):
  |         0290: 58 59 5a 20 00 00 00 00 00 00 00 00 00 00 00 00 [XYZ ............]
  |         02a0: 00 00 00 00                                     [....]
  | 6)  RedMatrixColumn = 0.43604 0.22249 0.01392
  |     - Tag 'rXYZ' (20 bytes, type 'XYZ '):
  |         02a4: 58 59 5a 20 00 00 00 00 00 00 6f a0 00 00 38 f5 [XYZ ......o...8.]
  |         02b4: 00 00 03 90                                     [....]
  | 7)  GreenMatrixColumn = 0.38512 0.7169 0.09706
  |     - Tag 'gXYZ' (20 bytes, type 'XYZ '):
  |         02b8: 58 59 5a 20 00 00 00 00 00 00 62 97 00 00 b7 87 [XYZ ......b.....]
  |         02c8: 00 00 18 d9                                     [....]
  | 8)  BlueMatrixColumn = 0.14305 0.06061 0.71393
  |     - Tag 'bXYZ' (20 bytes, type 'XYZ '):
  |         02cc: 58 59 5a 20 00 00 00 00 00 00 24 9f 00 00 0f 84 [XYZ ......$.....]
  |         02dc: 00 00 b6 c4                                     [....]
  | 9)  RedTRC = curv.......................... !#$%&()*+-./02345789:;=>?@BCDEGHIJLMNOQRSTUWXYZ\]^_abcdfghiklmnoqrstvwxy{|}~................................................................................................................................................ .".#.%.&.(.).+.-...0.1.3.4.6.8.9.;.<.>.@.A.C.E.F.H.J.K.M.O.P.R.T.U.W.Y.Z.\.^.`.a.c.e.g.h.j.l.n.o.q.s.u.v.x.z.|.~................................................................................................................................................................!.#.%.(.*.,...1.3.5.8.:.<.>.A.C.E.H.J.L.O.Q.S.V.X.Z.]._.a.d.f.i.k.m.p.r.u.w.y.|.~........................................................................................................................... .#.&.).,...1.4.7.:.=.?.B.E.H.K.N.Q.T.V.Y.\._.b.e.h.k.n.q.t.w.z.}.........................................................................................................".%.).,./.3.6.9.=.@.C.G.J.M.Q.T.W.[.^.b.e.h.l.o.s.v.y.}..........................................................................................".%.).-.1.4.8.<.@.C.G.K.O.R.V.Z.^.b.f.i.m.q.u.y.}................................................................................!.%.).-.1.5.9.>.B.F.J.N.S.W.[._.c.h.l.p.t.y.}..........................................................................$.(.-.1.6.:.?.C.H.M.Q.V.Z._.c.h.m.q.v.{.....................................................................!.&.+./.4.9.>.C.H.M.R.W.\.a.f.k.p.u.z.................................................................".'.,.1.7.<.A.F.L.Q.V.[.a.f.k.q.v.{.............................................................$.)./.4.:.?.E.J.P.V.[.a.f.l.r.w.}.........................................................$.*./.5.;.A.G.M.S.Y._.d.j.p.v.|..................................................... .&.,.2.8.>.E.K.Q.W.].d.j.p.v.}...................................................!.(...5.;.B.H.O.U.\.b.i.o.v.|.................................................".)./.6.=.D.J.Q.X._.f.l.s.z............................................... .'...5.<.C.J.Q.X._.f.m.t.{..........[snip]
  |     - Tag 'rTRC' (8204 bytes, type 'curv'):
  |         02e0: 63 75 72 76 00 00 00 00 00 00 10 00 00 00 00 01 [curv............]
  |         02f0: 00 02 00 04 00 05 00 06 00 07 00 09 00 0a 00 0b [................]
  |         0300: 00 0c 00 0e 00 0f 00 10 00 11 00 13 00 14 00 15 [................]
  |         0310: 00 16 00 18 00 19 00 1a 00 1b 00 1c 00 1e 00 1f [................]
  |         0320: 00 20 00 21 00 23 00 24 00 25 00 26 00 28 00 29 [. .!.#.$.%.&.(.)]
  |         0330: 00 2a 00 2b 00 2d 00 2e 00 2f 00 30 00 32 00 33 [.*.+.-.../.0.2.3]
  |         0340: 00 34 00 35 00 37 00 38 00 39 00 3a 00 3b 00 3d [.4.5.7.8.9.:.;.=]
  |         0350: 00 3e 00 3f 00 40 00 42 00 43 00 44 00 45 00 47 [.>.?.@.B.C.D.E.G]
  |         0360: 00 48 00 49 00 4a 00 4c 00 4d 00 4e 00 4f 00 51 [.H.I.J.L.M.N.O.Q]
  |         0370: 00 52 00 53 00 54 00 55 00 57 00 58 00 59 00 5a [.R.S.T.U.W.X.Y.Z]
  |         0380: 00 5c 00 5d 00 5e 00 5f 00 61 00 62 00 63 00 64 [.\.].^._.a.b.c.d]
  |         0390: 00 66 00 67 00 68 00 69 00 6b 00 6c 00 6d 00 6e [.f.g.h.i.k.l.m.n]
  |         03a0: 00 6f 00 71 00 72 00 73 00 74 00 76 00 77 00 78 [.o.q.r.s.t.v.w.x]
  |         03b0: 00 79 00 7b 00 7c 00 7d 00 7e 00 80 00 81 00 82 [.y.{.|.}.~......]
  |         03c0: 00 83 00 85 00 86 00 87 00 88 00 89 00 8b 00 8c [................]
  |         03d0: 00 8d 00 8e 00 90 00 91 00 92 00 93 00 95 00 96 [................]
  |         03e0: 00 97 00 98 00 9a 00 9b 00 9c 00 9d 00 9f 00 a0 [................]
  |         03f0: 00 a1 00 a2 00 a4 00 a5 00 a6 00 a7 00 a8 00 aa [................]
  |         0400: 00 ab 00 ac 00 ad 00 af 00 b0 00 b1 00 b2 00 b4 [................]
  |         0410: 00 b5 00 b6 00 b7 00 b9 00 ba 00 bb 00 bc 00 be [................]
  |         0420: 00 bf 00 c0 00 c1 00 c2 00 c4 00 c5 00 c6 00 c7 [................]
  |         0430: 00 c9 00 ca 00 cb 00 cc 00 ce 00 cf 00 d0 00 d1 [................]
  |         0440: 00 d3 00 d4 00 d5 00 d7 00 d8 00 d9 00 da 00 dc [................]
  |         0450: 00 dd 00 de 00 e0 00 e1 00 e2 00 e4 00 e5 00 e6 [................]
  |         0460: 00 e8 00 e9 00 ea 00 ec 00 ed 00 ef 00 f0 00 f1 [................]
  |         0470: 00 f3 00 f4 00 f6 00 f7 00 f8 00 fa 00 fb 00 fd [................]
  |         0480: 00 fe 00 ff 01 01 01 02 01 04 01 05 01 07 01 08 [................]
  |         0490: 01 0a 01 0b 01 0d 01 0e 01 0f 01 11 01 12 01 14 [................]
  |         04a0: 01 15 01 17 01 18 01 1a 01 1b 01 1d 01 1f 01 20 [............... ]
  |         04b0: 01 22 01 23 01 25 01 26 01 28 01 29 01 2b 01 2d [.".#.%.&.(.).+.-]
  |         04c0: 01 2e 01 30 01 31 01 33 01 34 01 36 01 38 01 39 [...0.1.3.4.6.8.9]
  |         04d0: 01 3b 01 3c 01 3e 01 40 01 41 01 43 01 45 01 46 [.;.<.>.@.A.C.E.F]
  |         04e0: 01 48 01 4a 01 4b 01 4d 01 4f 01 50 01 52 01 54 [.H.J.K.M.O.P.R.T]
  |         04f0: 01 55 01 57 01 59 01 5a 01 5c 01 5e 01 60 01 61 [.U.W.Y.Z.\.^.`.a]
  |         0500: 01 63 01 65 01 67 01 68 01 6a 01 6c 01 6e 01 6f [.c.e.g.h.j.l.n.o]
  |         0510: 01 71 01 73 01 75 01 76 01 78 01 7a 01 7c 01 7e [.q.s.u.v.x.z.|.~]
  |         0520: 01 7f 01 81 01 83 01 85 01 87 01 89 01 8a 01 8c [................]
  |         0530: 01 8e 01 90 01 92 01 94 01 96 01 97 01 99 01 9b [................]
  |         0540: 01 9d 01 9f 01 a1 01 a3 01 a5 01 a7 01 a9 01 ab [................]
  |         0550: 01 ac 01 ae 01 b0 01 b2 01 b4 01 b6 01 b8 01 ba [................]
  |         0560: 01 bc 01 be 01 c0 01 c2 01 c4 01 c6 01 c8 01 ca [................]
  |         0570: 01 cc 01 ce 01 d0 01 d2 01 d4 01 d6 01 d8 01 da [................]
  |         0580: 01 dc 01 de 01 e1 01 e3 01 e5 01 e7 01 e9 01 eb [................]
  |         0590: 01 ed 01 ef 01 f1 01 f3 01 f5 01 f8 01 fa 01 fc [................]
  |         05a0: 01 fe 02 00 02 02 02 04 02 07 02 09 02 0b 02 0d [................]
  |         05b0: 02 0f 02 12 02 14 02 16 02 18 02 1a 02 1d 02 1f [................]
  |         05c0: 02 21 02 23 02 25 02 28 02 2a 02 2c 02 2e 02 31 [.!.#.%.(.*.,...1]
  |         05d0: 02 33 02 35 02 38 02 3a 02 3c 02 3e 02 41 02 43 [.3.5.8.:.<.>.A.C]
  |         05e0: 02 45 02 48 02 4a 02 4c 02 4f 02 51 02 53 02 56 [.E.H.J.L.O.Q.S.V]
  |         05f0: 02 58 02 5a 02 5d 02 5f 02 61 02 64 02 66 02 69 [.X.Z.]._.a.d.f.i]
  |         0600: 02 6b 02 6d 02 70 02 72 02 75 02 77 02 79 02 7c [.k.m.p.r.u.w.y.|]
  |         0610: 02 7e 02 81 02 83 02 86 02 88 02 8b 02 8d 02 90 [.~..............]
  |         0620: 02 92 02 95 02 97 02 9a 02 9c 02 9f 02 a1 02 a4 [................]
  |         0630: 02 a6 02 a9 02 ab 02 ae 02 b0 02 b3 02 b5 02 b8 [................]
  |         0640: 02 bb 02 bd 02 c0 02 c2 02 c5 02 c8 02 ca 02 cd [................]
  |         0650: 02 cf 02 d2 02 d5 02 d7 02 da 02 dd 02 df 02 e2 [................]
  |         0660: 02 e4 02 e7 02 ea 02 ec 02 ef 02 f2 02 f5 02 f7 [................]
  |         0670: 02 fa 02 fd 02 ff 03 02 03 05 03 08 03 0a 03 0d [................]
  |         0680: 03 10 03 13 03 15 03 18 03 1b 03 1e 03 20 03 23 [............. .#]
  |         0690: 03 26 03 29 03 2c 03 2e 03 31 03 34 03 37 03 3a [.&.).,...1.4.7.:]
  |         06a0: 03 3d 03 3f 03 42 03 45 03 48 03 4b 03 4e 03 51 [.=.?.B.E.H.K.N.Q]
  |         06b0: 03 54 03 56 03 59 03 5c 03 5f 03 62 03 65 03 68 [.T.V.Y.\._.b.e.h]
  |         06c0: 03 6b 03 6e 03 71 03 74 03 77 03 7a 03 7d 03 80 [.k.n.q.t.w.z.}..]
  |         06d0: 03 82 03 85 03 88 03 8b 03 8e 03 91 03 94 03 98 [................]
  |         06e0: 03 9b 03 9e 03 a1 03 a4 03 a7 03 aa 03 ad 03 b0 [................]
  |         06f0: 03 b3 03 b6 03 b9 03 bc 03 bf 03 c2 03 c5 03 c9 [................]
  |         0700: 03 cc 03 cf 03 d2 03 d5 03 d8 03 db 03 df 03 e2 [................]
  |         0710: 03 e5 03 e8 03 eb 03 ee 03 f2 03 f5 03 f8 03 fb [................]
  |         0720: 03 fe 04 02 04 05 04 08 04 0b 04 0f 04 12 04 15 [................]
  |         0730: 04 18 04 1c 04 1f 04 22 04 25 04 29 04 2c 04 2f [.......".%.).,./]
  |         0740: 04 33 04 36 04 39 04 3d 04 40 04 43 04 47 04 4a [.3.6.9.=.@.C.G.J]
  |         0750: 04 4d 04 51 04 54 04 57 04 5b 04 5e 04 62 04 65 [.M.Q.T.W.[.^.b.e]
  |         0760: 04 68 04 6c 04 6f 04 73 04 76 04 79 04 7d 04 80 [.h.l.o.s.v.y.}..]
  |         0770: 04 84 04 87 04 8b 04 8e 04 92 04 95 04 99 04 9c [................]
  |         0780: 04 a0 04 a3 04 a7 04 aa 04 ae 04 b1 04 b5 04 b8 [................]
  |         0790: 04 bc 04 bf 04 c3 04 c6 04 ca 04 ce 04 d1 04 d5 [................]
  |         07a0: 04 d8 04 dc 04 e0 04 e3 04 e7 04 ea 04 ee 04 f2 [................]
  |         07b0: 04 f5 04 f9 04 fd 05 00 05 04 05 08 05 0b 05 0f [................]
  |         07c0: 05 13 05 16 05 1a 05 1e 05 22 05 25 05 29 05 2d [.........".%.).-]
  |         07d0: 05 31 05 34 05 38 05 3c 05 40 05 43 05 47 05 4b [.1.4.8.<.@.C.G.K]
  |         07e0: 05 4f 05 52 05 56 05 5a 05 5e 05 62 05 66 05 69 [.O.R.V.Z.^.b.f.i]
  |         07f0: 05 6d 05 71 05 75 05 79 05 7d 05 81 05 84 05 88 [.m.q.u.y.}......]
  |         0800: 05 8c 05 90 05 94 05 98 05 9c 05 a0 05 a4 05 a8 [................]
  |         0810: 05 ac 05 af 05 b3 05 b7 05 bb 05 bf 05 c3 05 c7 [................]
  |         0820: 05 cb 05 cf 05 d3 05 d7 05 db 05 df 05 e3 05 e7 [................]
  |         0830: 05 eb 05 ef 05 f4 05 f8 05 fc 06 00 06 04 06 08 [................]
  |         0840: 06 0c 06 10 06 14 06 18 06 1c 06 21 06 25 06 29 [...........!.%.)]
  |         0850: 06 2d 06 31 06 35 06 39 06 3e 06 42 06 46 06 4a [.-.1.5.9.>.B.F.J]
  |         0860: 06 4e 06 53 06 57 06 5b 06 5f 06 63 06 68 06 6c [.N.S.W.[._.c.h.l]
  |         0870: 06 70 06 74 06 79 06 7d 06 81 06 85 06 8a 06 8e [.p.t.y.}........]
  |         0880: 06 92 06 97 06 9b 06 9f 06 a4 06 a8 06 ac 06 b1 [................]
  |         0890: 06 b5 06 b9 06 be 06 c2 06 c6 06 cb 06 cf 06 d4 [................]
  |         08a0: 06 d8 06 dc 06 e1 06 e5 06 ea 06 ee 06 f2 06 f7 [................]
  |         08b0: 06 fb 07 00 07 04 07 09 07 0d 07 12 07 16 07 1b [................]
  |         08c0: 07 1f 07 24 07 28 07 2d 07 31 07 36 07 3a 07 3f [...$.(.-.1.6.:.?]
  |         08d0: 07 43 07 48 07 4d 07 51 07 56 07 5a 07 5f 07 63 [.C.H.M.Q.V.Z._.c]
  |         08e0: 07 68 07 6d 07 71 07 76 07 7b 07 7f 07 84 07 89 [.h.m.q.v.{......]
  |         08f0: 07 8d 07 92 07 97 07 9b 07 a0 07 a5 07 a9 07 ae [................]
  |         0900: 07 b3 07 b7 07 bc 07 c1 07 c6 07 ca 07 cf 07 d4 [................]
  |         0910: 07 d9 07 dd 07 e2 07 e7 07 ec 07 f1 07 f5 07 fa [................]
  |         0920: 07 ff 08 04 08 09 08 0d 08 12 08 17 08 1c 08 21 [...............!]
  |         0930: 08 26 08 2b 08 2f 08 34 08 39 08 3e 08 43 08 48 [.&.+./.4.9.>.C.H]
  |         0940: 08 4d 08 52 08 57 08 5c 08 61 08 66 08 6b 08 70 [.M.R.W.\.a.f.k.p]
  |         0950: 08 75 08 7a 08 7f 08 84 08 89 08 8e 08 93 08 98 [.u.z............]
  |         0960: 08 9d 08 a2 08 a7 08 ac 08 b1 08 b6 08 bb 08 c0 [................]
  |         0970: 08 c5 08 ca 08 cf 08 d4 08 d9 08 df 08 e4 08 e9 [................]
  |         0980: 08 ee 08 f3 08 f8 08 fd 09 03 09 08 09 0d 09 12 [................]
  |         0990: 09 17 09 1d 09 22 09 27 09 2c 09 31 09 37 09 3c [.....".'.,.1.7.<]
  |         09a0: 09 41 09 46 09 4c 09 51 09 56 09 5b 09 61 09 66 [.A.F.L.Q.V.[.a.f]
  |         09b0: 09 6b 09 71 09 76 09 7b 09 81 09 86 09 8b 09 91 [.k.q.v.{........]
  |         09c0: 09 96 09 9b 09 a1 09 a6 09 ab 09 b1 09 b6 09 bc [................]
  |         09d0: 09 c1 09 c6 09 cc 09 d1 09 d7 09 dc 09 e2 09 e7 [................]
  |         09e0: 09 ed 09 f2 09 f8 09 fd 0a 02 0a 08 0a 0d 0a 13 [................]
  |         09f0: 0a 19 0a 1e 0a 24 0a 29 0a 2f 0a 34 0a 3a 0a 3f [.....$.)./.4.:.?]
  |         0a00: 0a 45 0a 4a 0a 50 0a 56 0a 5b 0a 61 0a 66 0a 6c [.E.J.P.V.[.a.f.l]
  |         0a10: 0a 72 0a 77 0a 7d 0a 83 0a 88 0a 8e 0a 94 0a 99 [.r.w.}..........]
  |         0a20: 0a 9f 0a a5 0a aa 0a b0 0a b6 0a bc 0a c1 0a c7 [................]
  |         0a30: 0a cd 0a d3 0a d8 0a de 0a e4 0a ea 0a ef 0a f5 [................]
  |         0a40: 0a fb 0b 01 0b 07 0b 0c 0b 12 0b 18 0b 1e 0b 24 [...............$]
  |         0a50: 0b 2a 0b 2f 0b 35 0b 3b 0b 41 0b 47 0b 4d 0b 53 [.*./.5.;.A.G.M.S]
  |         0a60: 0b 59 0b 5f 0b 64 0b 6a 0b 70 0b 76 0b 7c 0b 82 [.Y._.d.j.p.v.|..]
  |         0a70: 0b 88 0b 8e 0b 94 0b 9a 0b a0 0b a6 0b ac 0b b2 [................]
  |         0a80: 0b b8 0b be 0b c4 0b ca 0b d0 0b d6 0b dc 0b e2 [................]
  |         0a90: 0b e9 0b ef 0b f5 0b fb 0c 01 0c 07 0c 0d 0c 13 [................]
  |         0aa0: 0c 19 0c 20 0c 26 0c 2c 0c 32 0c 38 0c 3e 0c 45 [... .&.,.2.8.>.E]
  |         0ab0: 0c 4b 0c 51 0c 57 0c 5d 0c 64 0c 6a 0c 70 0c 76 [.K.Q.W.].d.j.p.v]
  |         0ac0: 0c 7d 0c 83 0c 89 0c 8f 0c 96 0c 9c 0c a2 0c a8 [.}..............]
  |         [snip 6172 bytes]
  | 10) GreenTRC = curv.......................... !#$%&()*+-./02345789:;=>?@BCDEGHIJLMNOQRSTUWXYZ\]^_abcdfghiklmnoqrstvwxy{|}~................................................................................................................................................ .".#.%.&.(.).+.-...0.1.3.4.6.8.9.;.<.>.@.A.C.E.F.H.J.K.M.O.P.R.T.U.W.Y.Z.\.^.`.a.c.e.g.h.j.l.n.o.q.s.u.v.x.z.|.~................................................................................................................................................................!.#.%.(.*.,...1.3.5.8.:.<.>.A.C.E.H.J.L.O.Q.S.V.X.Z.]._.a.d.f.i.k.m.p.r.u.w.y.|.~........................................................................................................................... .#.&.).,...1.4.7.:.=.?.B.E.H.K.N.Q.T.V.Y.\._.b.e.h.k.n.q.t.w.z.}.........................................................................................................".%.).,./.3.6.9.=.@.C.G.J.M.Q.T.W.[.^.b.e.h.l.o.s.v.y.}..........................................................................................".%.).-.1.4.8.<.@.C.G.K.O.R.V.Z.^.b.f.i.m.q.u.y.}................................................................................!.%.).-.1.5.9.>.B.F.J.N.S.W.[._.c.h.l.p.t.y.}..........................................................................$.(.-.1.6.:.?.C.H.M.Q.V.Z._.c.h.m.q.v.{.....................................................................!.&.+./.4.9.>.C.H.M.R.W.\.a.f.k.p.u.z.................................................................".'.,.1.7.<.A.F.L.Q.V.[.a.f.k.q.v.{.............................................................$.)./.4.:.?.E.J.P.V.[.a.f.l.r.w.}.........................................................$.*./.5.;.A.G.M.S.Y._.d.j.p.v.|..................................................... .&.,.2.8.>.E.K.Q.W.].d.j.p.v.}...................................................!.(...5.;.B.H.O.U.\.b.i.o.v.|.................................................".)./.6.=.D.J.Q.X._.f.l.s.z............................................... .'...5.<.C.J.Q.X._.f.m.t.{..........[snip]
  |     - Tag 'gTRC' (8204 bytes, type 'curv'):
  |         02e0: 63 75 72 76 00 00 00 00 00 00 10 00 00 00 00 01 [curv............]
  |         02f0: 00 02 00 04 00 05 00 06 00 07 00 09 00 0a 00 0b [................]
  |         0300: 00 0c 00 0e 00 0f 00 10 00 11 00 13 00 14 00 15 [................]
  |         0310: 00 16 00 18 00 19 00 1a 00 1b 00 1c 00 1e 00 1f [................]
  |         0320: 00 20 00 21 00 23 00 24 00 25 00 26 00 28 00 29 [. .!.#.$.%.&.(.)]
  |         0330: 00 2a 00 2b 00 2d 00 2e 00 2f 00 30 00 32 00 33 [.*.+.-.../.0.2.3]
  |         0340: 00 34 00 35 00 37 00 38 00 39 00 3a 00 3b 00 3d [.4.5.7.8.9.:.;.=]
  |         0350: 00 3e 00 3f 00 40 00 42 00 43 00 44 00 45 00 47 [.>.?.@.B.C.D.E.G]
  |         0360: 00 48 00 49 00 4a 00 4c 00 4d 00 4e 00 4f 00 51 [.H.I.J.L.M.N.O.Q]
  |         0370: 00 52 00 53 00 54 00 55 00 57 00 58 00 59 00 5a [.R.S.T.U.W.X.Y.Z]
  |         0380: 00 5c 00 5d 00 5e 00 5f 00 61 00 62 00 63 00 64 [.\.].^._.a.b.c.d]
  |         0390: 00 66 00 67 00 68 00 69 00 6b 00 6c 00 6d 00 6e [.f.g.h.i.k.l.m.n]
  |         03a0: 00 6f 00 71 00 72 00 73 00 74 00 76 00 77 00 78 [.o.q.r.s.t.v.w.x]
  |         03b0: 00 79 00 7b 00 7c 00 7d 00 7e 00 80 00 81 00 82 [.y.{.|.}.~......]
  |         03c0: 00 83 00 85 00 86 00 87 00 88 00 89 00 8b 00 8c [................]
  |         03d0: 00 8d 00 8e 00 90 00 91 00 92 00 93 00 95 00 96 [................]
  |         03e0: 00 97 00 98 00 9a 00 9b 00 9c 00 9d 00 9f 00 a0 [................]
  |         03f0: 00 a1 00 a2 00 a4 00 a5 00 a6 00 a7 00 a8 00 aa [................]
  |         0400: 00 ab 00 ac 00 ad 00 af 00 b0 00 b1 00 b2 00 b4 [................]
  |         0410: 00 b5 00 b6 00 b7 00 b9 00 ba 00 bb 00 bc 00 be [................]
  |         0420: 00 bf 00 c0 00 c1 00 c2 00 c4 00 c5 00 c6 00 c7 [................]
  |         0430: 00 c9 00 ca 00 cb 00 cc 00 ce 00 cf 00 d0 00 d1 [................]
  |         0440: 00 d3 00 d4 00 d5 00 d7 00 d8 00 d9 00 da 00 dc [................]
  |         0450: 00 dd 00 de 00 e0 00 e1 00 e2 00 e4 00 e5 00 e6 [................]
  |         0460: 00 e8 00 e9 00 ea 00 ec 00 ed 00 ef 00 f0 00 f1 [................]
  |         0470: 00 f3 00 f4 00 f6 00 f7 00 f8 00 fa 00 fb 00 fd [................]
  |         0480: 00 fe 00 ff 01 01 01 02 01 04 01 05 01 07 01 08 [................]
  |         0490: 01 0a 01 0b 01 0d 01 0e 01 0f 01 11 01 12 01 14 [................]
  |         04a0: 01 15 01 17 01 18 01 1a 01 1b 01 1d 01 1f 01 20 [............... ]
  |         04b0: 01 22 01 23 01 25 01 26 01 28 01 29 01 2b 01 2d [.".#.%.&.(.).+.-]
  |         04c0: 01 2e 01 30 01 31 01 33 01 34 01 36 01 38 01 39 [...0.1.3.4.6.8.9]
  |         04d0: 01 3b 01 3c 01 3e 01 40 01 41 01 43 01 45 01 46 [.;.<.>.@.A.C.E.F]
  |         04e0: 01 48 01 4a 01 4b 01 4d 01 4f 01 50 01 52 01 54 [.H.J.K.M.O.P.R.T]
  |         04f0: 01 55 01 57 01 59 01 5a 01 5c 01 5e 01 60 01 61 [.U.W.Y.Z.\.^.`.a]
  |         0500: 01 63 01 65 01 67 01 68 01 6a 01 6c 01 6e 01 6f [.c.e.g.h.j.l.n.o]
  |         0510: 01 71 01 73 01 75 01 76 01 78 01 7a 01 7c 01 7e [.q.s.u.v.x.z.|.~]
  |         0520: 01 7f 01 81 01 83 01 85 01 87 01 89 01 8a 01 8c [................]
  |         0530: 01 8e 01 90 01 92 01 94 01 96 01 97 01 99 01 9b [................]
  |         0540: 01 9d 01 9f 01 a1 01 a3 01 a5 01 a7 01 a9 01 ab [................]
  |         0550: 01 ac 01 ae 01 b0 01 b2 01 b4 01 b6 01 b8 01 ba [................]
  |         0560: 01 bc 01 be 01 c0 01 c2 01 c4 01 c6 01 c8 01 ca [................]
  |         0570: 01 cc 01 ce 01 d0 01 d2 01 d4 01 d6 01 d8 01 da [................]
  |         0580: 01 dc 01 de 01 e1 01 e3 01 e5 01 e7 01 e9 01 eb [................]
  |         0590: 01 ed 01 ef 01 f1 01 f3 01 f5 01 f8 01 fa 01 fc [................]
  |         05a0: 01 fe 02 00 02 02 02 04 02 07 02 09 02 0b 02 0d [................]
  |         05b0: 02 0f 02 12 02 14 02 16 02 18 02 1a 02 1d 02 1f [................]
  |         05c0: 02 21 02 23 02 25 02 28 02 2a 02 2c 02 2e 02 31 [.!.#.%.(.*.,...1]
  |         05d0: 02 33 02 35 02 38 02 3a 02 3c 02 3e 02 41 02 43 [.3.5.8.:.<.>.A.C]
  |         05e0: 02 45 02 48 02 4a 02 4c 02 4f 02 51 02 53 02 56 [.E.H.J.L.O.Q.S.V]
  |         05f0: 02 58 02 5a 02 5d 02 5f 02 61 02 64 02 66 02 69 [.X.Z.]._.a.d.f.i]
  |         0600: 02 6b 02 6d 02 70 02 72 02 75 02 77 02 79 02 7c [.k.m.p.r.u.w.y.|]
  |         0610: 02 7e 02 81 02 83 02 86 02 88 02 8b 02 8d 02 90 [.~..............]
  |         0620: 02 92 02 95 02 97 02 9a 02 9c 02 9f 02 a1 02 a4 [................]
  |         0630: 02 a6 02 a9 02 ab 02 ae 02 b0 02 b3 02 b5 02 b8 [................]
  |         0640: 02 bb 02 bd 02 c0 02 c2 02 c5 02 c8 02 ca 02 cd [................]
  |         0650: 02 cf 02 d2 02 d5 02 d7 02 da 02 dd 02 df 02 e2 [................]
  |         0660: 02 e4 02 e7 02 ea 02 ec 02 ef 02 f2 02 f5 02 f7 [................]
  |         0670: 02 fa 02 fd 02 ff 03 02 03 05 03 08 03 0a 03 0d [................]
  |         0680: 03 10 03 13 03 15 03 18 03 1b 03 1e 03 20 03 23 [............. .#]
  |         0690: 03 26 03 29 03 2c 03 2e 03 31 03 34 03 37 03 3a [.&.).,...1.4.7.:]
  |         06a0: 03 3d 03 3f 03 42 03 45 03 48 03 4b 03 4e 03 51 [.=.?.B.E.H.K.N.Q]
  |         06b0: 03 54 03 56 03 59 03 5c 03 5f 03 62 03 65 03 68 [.T.V.Y.\._.b.e.h]
  |         06c0: 03 6b 03 6e 03 71 03 74 03 77 03 7a 03 7d 03 80 [.k.n.q.t.w.z.}..]
  |         06d0: 03 82 03 85 03 88 03 8b 03 8e 03 91 03 94 03 98 [................]
  |         06e0: 03 9b 03 9e 03 a1 03 a4 03 a7 03 aa 03 ad 03 b0 [................]
  |         06f0: 03 b3 03 b6 03 b9 03 bc 03 bf 03 c2 03 c5 03 c9 [................]
  |         0700: 03 cc 03 cf 03 d2 03 d5 03 d8 03 db 03 df 03 e2 [................]
  |         0710: 03 e5 03 e8 03 eb 03 ee 03 f2 03 f5 03 f8 03 fb [................]
  |         0720: 03 fe 04 02 04 05 04 08 04 0b 04 0f 04 12 04 15 [................]
  |         0730: 04 18 04 1c 04 1f 04 22 04 25 04 29 04 2c 04 2f [.......".%.).,./]
  |         0740: 04 33 04 36 04 39 04 3d 04 40 04 43 04 47 04 4a [.3.6.9.=.@.C.G.J]
  |         0750: 04 4d 04 51 04 54 04 57 04 5b 04 5e 04 62 04 65 [.M.Q.T.W.[.^.b.e]
  |         0760: 04 68 04 6c 04 6f 04 73 04 76 04 79 04 7d 04 80 [.h.l.o.s.v.y.}..]
  |         0770: 04 84 04 87 04 8b 04 8e 04 92 04 95 04 99 04 9c [................]
  |         0780: 04 a0 04 a3 04 a7 04 aa 04 ae 04 b1 04 b5 04 b8 [................]
  |         0790: 04 bc 04 bf 04 c3 04 c6 04 ca 04 ce 04 d1 04 d5 [................]
  |         07a0: 04 d8 04 dc 04 e0 04 e3 04 e7 04 ea 04 ee 04 f2 [................]
  |         07b0: 04 f5 04 f9 04 fd 05 00 05 04 05 08 05 0b 05 0f [................]
  |         07c0: 05 13 05 16 05 1a 05 1e 05 22 05 25 05 29 05 2d [.........".%.).-]
  |         07d0: 05 31 05 34 05 38 05 3c 05 40 05 43 05 47 05 4b [.1.4.8.<.@.C.G.K]
  |         07e0: 05 4f 05 52 05 56 05 5a 05 5e 05 62 05 66 05 69 [.O.R.V.Z.^.b.f.i]
  |         07f0: 05 6d 05 71 05 75 05 79 05 7d 05 81 05 84 05 88 [.m.q.u.y.}......]
  |         0800: 05 8c 05 90 05 94 05 98 05 9c 05 a0 05 a4 05 a8 [................]
  |         0810: 05 ac 05 af 05 b3 05 b7 05 bb 05 bf 05 c3 05 c7 [................]
  |         0820: 05 cb 05 cf 05 d3 05 d7 05 db 05 df 05 e3 05 e7 [................]
  |         0830: 05 eb 05 ef 05 f4 05 f8 05 fc 06 00 06 04 06 08 [................]
  |         0840: 06 0c 06 10 06 14 06 18 06 1c 06 21 06 25 06 29 [...........!.%.)]
  |         0850: 06 2d 06 31 06 35 06 39 06 3e 06 42 06 46 06 4a [.-.1.5.9.>.B.F.J]
  |         0860: 06 4e 06 53 06 57 06 5b 06 5f 06 63 06 68 06 6c [.N.S.W.[._.c.h.l]
  |         0870: 06 70 06 74 06 79 06 7d 06 81 06 85 06 8a 06 8e [.p.t.y.}........]
  |         0880: 06 92 06 97 06 9b 06 9f 06 a4 06 a8 06 ac 06 b1 [................]
  |         0890: 06 b5 06 b9 06 be 06 c2 06 c6 06 cb 06 cf 06 d4 [................]
  |         08a0: 06 d8 06 dc 06 e1 06 e5 06 ea 06 ee 06 f2 06 f7 [................]
  |         08b0: 06 fb 07 00 07 04 07 09 07 0d 07 12 07 16 07 1b [................]
  |         08c0: 07 1f 07 24 07 28 07 2d 07 31 07 36 07 3a 07 3f [...$.(.-.1.6.:.?]
  |         08d0: 07 43 07 48 07 4d 07 51 07 56 07 5a 07 5f 07 63 [.C.H.M.Q.V.Z._.c]
  |         08e0: 07 68 07 6d 07 71 07 76 07 7b 07 7f 07 84 07 89 [.h.m.q.v.{......]
  |         08f0: 07 8d 07 92 07 97 07 9b 07 a0 07 a5 07 a9 07 ae [................]
  |         0900: 07 b3 07 b7 07 bc 07 c1 07 c6 07 ca 07 cf 07 d4 [................]
  |         0910: 07 d9 07 dd 07 e2 07 e7 07 ec 07 f1 07 f5 07 fa [................]
  |         0920: 07 ff 08 04 08 09 08 0d 08 12 08 17 08 1c 08 21 [...............!]
  |         0930: 08 26 08 2b 08 2f 08 34 08 39 08 3e 08 43 08 48 [.&.+./.4.9.>.C.H]
  |         0940: 08 4d 08 52 08 57 08 5c 08 61 08 66 08 6b 08 70 [.M.R.W.\.a.f.k.p]
  |         0950: 08 75 08 7a 08 7f 08 84 08 89 08 8e 08 93 08 98 [.u.z............]
  |         0960: 08 9d 08 a2 08 a7 08 ac 08 b1 08 b6 08 bb 08 c0 [................]
  |         0970: 08 c5 08 ca 08 cf 08 d4 08 d9 08 df 08 e4 08 e9 [................]
  |         0980: 08 ee 08 f3 08 f8 08 fd 09 03 09 08 09 0d 09 12 [................]
  |         0990: 09 17 09 1d 09 22 09 27 09 2c 09 31 09 37 09 3c [.....".'.,.1.7.<]
  |         09a0: 09 41 09 46 09 4c 09 51 09 56 09 5b 09 61 09 66 [.A.F.L.Q.V.[.a.f]
  |         09b0: 09 6b 09 71 09 76 09 7b 09 81 09 86 09 8b 09 91 [.k.q.v.{........]
  |         09c0: 09 96 09 9b 09 a1 09 a6 09 ab 09 b1 09 b6 09 bc [................]
  |         09d0: 09 c1 09 c6 09 cc 09 d1 09 d7 09 dc 09 e2 09 e7 [................]
  |         09e0: 09 ed 09 f2 09 f8 09 fd 0a 02 0a 08 0a 0d 0a 13 [................]
  |         09f0: 0a 19 0a 1e 0a 24 0a 29 0a 2f 0a 34 0a 3a 0a 3f [.....$.)./.4.:.?]
  |         0a00: 0a 45 0a 4a 0a 50 0a 56 0a 5b 0a 61 0a 66 0a 6c [.E.J.P.V.[.a.f.l]
  |         0a10: 0a 72 0a 77 0a 7d 0a 83 0a 88 0a 8e 0a 94 0a 99 [.r.w.}..........]
  |         0a20: 0a 9f 0a a5 0a aa 0a b0 0a b6 0a bc 0a c1 0a c7 [................]
  |         0a30: 0a cd 0a d3 0a d8 0a de 0a e4 0a ea 0a ef 0a f5 [................]
  |         0a40: 0a fb 0b 01 0b 07 0b 0c 0b 12 0b 18 0b 1e 0b 24 [...............$]
  |         0a50: 0b 2a 0b 2f 0b 35 0b 3b 0b 41 0b 47 0b 4d 0b 53 [.*./.5.;.A.G.M.S]
  |         0a60: 0b 59 0b 5f 0b 64 0b 6a 0b 70 0b 76 0b 7c 0b 82 [.Y._.d.j.p.v.|..]
  |         0a70: 0b 88 0b 8e 0b 94 0b 9a 0b a0 0b a6 0b ac 0b b2 [................]
  |         0a80: 0b b8 0b be 0b c4 0b ca 0b d0 0b d6 0b dc 0b e2 [................]
  |         0a90: 0b e9 0b ef 0b f5 0b fb 0c 01 0c 07 0c 0d 0c 13 [................]
  |         0aa0: 0c 19 0c 20 0c 26 0c 2c 0c 32 0c 38 0c 3e 0c 45 [... .&.,.2.8.>.E]
  |         0ab0: 0c 4b 0c 51 0c 57 0c 5d 0c 64 0c 6a 0c 70 0c 76 [.K.Q.W.].d.j.p.v]
  |         0ac0: 0c 7d 0c 83 0c 89 0c 8f 0c 96 0c 9c 0c a2 0c a8 [.}..............]
  |         [snip 6172 bytes]
  | 11) BlueTRC = curv.......................... !#$%&()*+-./02345789:;=>?@BCDEGHIJLMNOQRSTUWXYZ\]^_abcdfghiklmnoqrstvwxy{|}~................................................................................................................................................ .".#.%.&.(.).+.-...0.1.3.4.6.8.9.;.<.>.@.A.C.E.F.H.J.K.M.O.P.R.T.U.W.Y.Z.\.^.`.a.c.e.g.h.j.l.n.o.q.s.u.v.x.z.|.~................................................................................................................................................................!.#.%.(.*.,...1.3.5.8.:.<.>.A.C.E.H.J.L.O.Q.S.V.X.Z.]._.a.d.f.i.k.m.p.r.u.w.y.|.~........................................................................................................................... .#.&.).,...1.4.7.:.=.?.B.E.H.K.N.Q.T.V.Y.\._.b.e.h.k.n.q.t.w.z.}.........................................................................................................".%.).,./.3.6.9.=.@.C.G.J.M.Q.T.W.[.^.b.e.h.l.o.s.v.y.}..........................................................................................".%.).-.1.4.8.<.@.C.G.K.O.R.V.Z.^.b.f.i.m.q.u.y.}................................................................................!.%.).-.1.5.9.>.B.F.J.N.S.W.[._.c.h.l.p.t.y.}..........................................................................$.(.-.1.6.:.?.C.H.M.Q.V.Z._.c.h.m.q.v.{.....................................................................!.&.+./.4.9.>.C.H.M.R.W.\.a.f.k.p.u.z.................................................................".'.,.1.7.<.A.F.L.Q.V.[.a.f.k.q.v.{.............................................................$.)./.4.:.?.E.J.P.V.[.a.f.l.r.w.}.........................................................$.*./.5.;.A.G.M.S.Y._.d.j.p.v.|..................................................... .&.,.2.8.>.E.K.Q.W.].d.j.p.v.}...................................................!.(...5.;.B.H.O.U.\.b.i.o.v.|.................................................".)./.6.=.D.J.Q.X._.f.l.s.z............................................... .'...5.<.C.J.Q.X._.f.m.t.{..........[snip]
  |     - Tag 'bTRC' (8204 bytes, type 'curv'):
  |         02e0: 63 75 72 76 00 00 00 00 00 00 10 00 00 00 00 01 [curv............]
  |         02f0: 00 02 00 04 00 05 00 06 00 07 00 09 00 0a 00 0b [................]
  |         0300: 00 0c 00 0e 00 0f 00 10 00 11 00 13 00 14 00 15 [................]
  |         0310: 00 16 00 18 00 19 00 1a 00 1b 00 1c 00 1e 00 1f [................]
  |         0320: 00 20 00 21 00 23 00 24 00 25 00 26 00 28 00 29 [. .!.#.$.%.&.(.)]
  |         0330: 00 2a 00 2b 00 2d 00 2e 00 2f 00 30 00 32 00 33 [.*.+.-.../.0.2.3]
  |         0340: 00 34 00 35 00 37 00 38 00 39 00 3a 00 3b 00 3d [.4.5.7.8.9.:.;.=]
  |         0350: 00 3e 00 3f 00 40 00 42 00 43 00 44 00 45 00 47 [.>.?.@.B.C.D.E.G]
  |         0360: 00 48 00 49 00 4a 00 4c 00 4d 00 4e 00 4f 00 51 [.H.I.J.L.M.N.O.Q]
  |         0370: 00 52 00 53 00 54 00 55 00 57 00 58 00 59 00 5a [.R.S.T.U.W.X.Y.Z]
  |         0380: 00 5c 00 5d 00 5e 00 5f 00 61 00 62 00 63 00 64 [.\.].^._.a.b.c.d]
  |         0390: 00 66 00 67 00 68 00 69 00 6b 00 6c 00 6d 00 6e [.f.g.h.i.k.l.m.n]
  |         03a0: 00 6f 00 71 00 72 00 73 00 74 00 76 00 77 00 78 [.o.q.r.s.t.v.w.x]
  |         03b0: 00 79 00 7b 00 7c 00 7d 00 7e 00 80 00 81 00 82 [.y.{.|.}.~......]
  |         03c0: 00 83 00 85 00 86 00 87 00 88 00 89 00 8b 00 8c [................]
  |         03d0: 00 8d 00 8e 00 90 00 91 00 92 00 93 00 95 00 96 [................]
  |         03e0: 00 97 00 98 00 9a 00 9b 00 9c 00 9d 00 9f 00 a0 [................]
  |         03f0: 00 a1 00 a2 00 a4 00 a5 00 a6 00 a7 00 a8 00 aa [................]
  |         0400: 00 ab 00 ac 00 ad 00 af 00 b0 00 b1 00 b2 00 b4 [................]
  |         0410: 00 b5 00 b6 00 b7 00 b9 00 ba 00 bb 00 bc 00 be [................]
  |         0420: 00 bf 00 c0 00 c1 00 c2 00 c4 00 c5 00 c6 00 c7 [................]
  |         0430: 00 c9 00 ca 00 cb 00 cc 00 ce 00 cf 00 d0 00 d1 [................]
  |         0440: 00 d3 00 d4 00 d5 00 d7 00 d8 00 d9 00 da 00 dc [................]
  |         0450: 00 dd 00 de 00 e0 00 e1 00 e2 00 e4 00 e5 00 e6 [................]
  |         0460: 00 e8 00 e9 00 ea 00 ec 00 ed 00 ef 00 f0 00 f1 [................]
  |         0470: 00 f3 00 f4 00 f6 00 f7 00 f8 00 fa 00 fb 00 fd [................]
  |         0480: 00 fe 00 ff 01 01 01 02 01 04 01 05 01 07 01 08 [................]
  |         0490: 01 0a 01 0b 01 0d 01 0e 01 0f 01 11 01 12 01 14 [................]
  |         04a0: 01 15 01 17 01 18 01 1a 01 1b 01 1d 01 1f 01 20 [............... ]
  |         04b0: 01 22 01 23 01 25 01 26 01 28 01 29 01 2b 01 2d [.".#.%.&.(.).+.-]
  |         04c0: 01 2e 01 30 01 31 01 33 01 34 01 36 01 38 01 39 [...0.1.3.4.6.8.9]
  |         04d0: 01 3b 01 3c 01 3e 01 40 01 41 01 43 01 45 01 46 [.;.<.>.@.A.C.E.F]
  |         04e0: 01 48 01 4a 01 4b 01 4d 01 4f 01 50 01 52 01 54 [.H.J.K.M.O.P.R.T]
  |         04f0: 01 55 01 57 01 59 01 5a 01 5c 01 5e 01 60 01 61 [.U.W.Y.Z.\.^.`.a]
  |         0500: 01 63 01 65 01 67 01 68 01 6a 01 6c 01 6e 01 6f [.c.e.g.h.j.l.n.o]
  |         0510: 01 71 01 73 01 75 01 76 01 78 01 7a 01 7c 01 7e [.q.s.u.v.x.z.|.~]
  |         0520: 01 7f 01 81 01 83 01 85 01 87 01 89 01 8a 01 8c [................]
  |         0530: 01 8e 01 90 01 92 01 94 01 96 01 97 01 99 01 9b [................]
  |         0540: 01 9d 01 9f 01 a1 01 a3 01 a5 01 a7 01 a9 01 ab [................]
  |         0550: 01 ac 01 ae 01 b0 01 b2 01 b4 01 b6 01 b8 01 ba [................]
  |         0560: 01 bc 01 be 01 c0 01 c2 01 c4 01 c6 01 c8 01 ca [................]
  |         0570: 01 cc 01 ce 01 d0 01 d2 01 d4 01 d6 01 d8 01 da [................]
  |         0580: 01 dc 01 de 01 e1 01 e3 01 e5 01 e7 01 e9 01 eb [................]
  |         0590: 01 ed 01 ef 01 f1 01 f3 01 f5 01 f8 01 fa 01 fc [................]
  |         05a0: 01 fe 02 00 02 02 02 04 02 07 02 09 02 0b 02 0d [................]
  |         05b0: 02 0f 02 12 02 14 02 16 02 18 02 1a 02 1d 02 1f [................]
  |         05c0: 02 21 02 23 02 25 02 28 02 2a 02 2c 02 2e 02 31 [.!.#.%.(.*.,...1]
  |         05d0: 02 33 02 35 02 38 02 3a 02 3c 02 3e 02 41 02 43 [.3.5.8.:.<.>.A.C]
  |         05e0: 02 45 02 48 02 4a 02 4c 02 4f 02 51 02 53 02 56 [.E.H.J.L.O.Q.S.V]
  |         05f0: 02 58 02 5a 02 5d 02 5f 02 61 02 64 02 66 02 69 [.X.Z.]._.a.d.f.i]
  |         0600: 02 6b 02 6d 02 70 02 72 02 75 02 77 02 79 02 7c [.k.m.p.r.u.w.y.|]
  |         0610: 02 7e 02 81 02 83 02 86 02 88 02 8b 02 8d 02 90 [.~..............]
  |         0620: 02 92 02 95 02 97 02 9a 02 9c 02 9f 02 a1 02 a4 [................]
  |         0630: 02 a6 02 a9 02 ab 02 ae 02 b0 02 b3 02 b5 02 b8 [................]
  |         0640: 02 bb 02 bd 02 c0 02 c2 02 c5 02 c8 02 ca 02 cd [................]
  |         0650: 02 cf 02 d2 02 d5 02 d7 02 da 02 dd 02 df 02 e2 [................]
  |         0660: 02 e4 02 e7 02 ea 02 ec 02 ef 02 f2 02 f5 02 f7 [................]
  |         0670: 02 fa 02 fd 02 ff 03 02 03 05 03 08 03 0a 03 0d [................]
  |         0680: 03 10 03 13 03 15 03 18 03 1b 03 1e 03 20 03 23 [............. .#]
  |         0690: 03 26 03 29 03 2c 03 2e 03 31 03 34 03 37 03 3a [.&.).,...1.4.7.:]
  |         06a0: 03 3d 03 3f 03 42 03 45 03 48 03 4b 03 4e 03 51 [.=.?.B.E.H.K.N.Q]
  |         06b0: 03 54 03 56 03 59 03 5c 03 5f 03 62 03 65 03 68 [.T.V.Y.\._.b.e.h]
  |         06c0: 03 6b 03 6e 03 71 03 74 03 77 03 7a 03 7d 03 80 [.k.n.q.t.w.z.}..]
  |         06d0: 03 82 03 85 03 88 03 8b 03 8e 03 91 03 94 03 98 [................]
  |         06e0: 03 9b 03 9e 03 a1 03 a4 03 a7 03 aa 03 ad 03 b0 [................]
  |         06f0: 03 b3 03 b6 03 b9 03 bc 03 bf 03 c2 03 c5 03 c9 [................]
  |         0700: 03 cc 03 cf 03 d2 03 d5 03 d8 03 db 03 df 03 e2 [................]
  |         0710: 03 e5 03 e8 03 eb 03 ee 03 f2 03 f5 03 f8 03 fb [................]
  |         0720: 03 fe 04 02 04 05 04 08 04 0b 04 0f 04 12 04 15 [................]
  |         0730: 04 18 04 1c 04 1f 04 22 04 25 04 29 04 2c 04 2f [.......".%.).,./]
  |         0740: 04 33 04 36 04 39 04 3d 04 40 04 43 04 47 04 4a [.3.6.9.=.@.C.G.J]
  |         0750: 04 4d 04 51 04 54 04 57 04 5b 04 5e 04 62 04 65 [.M.Q.T.W.[.^.b.e]
  |         0760: 04 68 04 6c 04 6f 04 73 04 76 04 79 04 7d 04 80 [.h.l.o.s.v.y.}..]
  |         0770: 04 84 04 87 04 8b 04 8e 04 92 04 95 04 99 04 9c [................]
  |         0780: 04 a0 04 a3 04 a7 04 aa 04 ae 04 b1 04 b5 04 b8 [................]
  |         0790: 04 bc 04 bf 04 c3 04 c6 04 ca 04 ce 04 d1 04 d5 [................]
  |         07a0: 04 d8 04 dc 04 e0 04 e3 04 e7 04 ea 04 ee 04 f2 [................]
  |         07b0: 04 f5 04 f9 04 fd 05 00 05 04 05 08 05 0b 05 0f [................]
  |         07c0: 05 13 05 16 05 1a 05 1e 05 22 05 25 05 29 05 2d [.........".%.).-]
  |         07d0: 05 31 05 34 05 38 05 3c 05 40 05 43 05 47 05 4b [.1.4.8.<.@.C.G.K]
  |         07e0: 05 4f 05 52 05 56 05 5a 05 5e 05 62 05 66 05 69 [.O.R.V.Z.^.b.f.i]
  |         07f0: 05 6d 05 71 05 75 05 79 05 7d 05 81 05 84 05 88 [.m.q.u.y.}......]
  |         0800: 05 8c 05 90 05 94 05 98 05 9c 05 a0 05 a4 05 a8 [................]
  |         0810: 05 ac 05 af 05 b3 05 b7 05 bb 05 bf 05 c3 05 c7 [................]
  |         0820: 05 cb 05 cf 05 d3 05 d7 05 db 05 df 05 e3 05 e7 [................]
  |         0830: 05 eb 05 ef 05 f4 05 f8 05 fc 06 00 06 04 06 08 [................]
  |         0840: 06 0c 06 10 06 14 06 18 06 1c 06 21 06 25 06 29 [...........!.%.)]
  |         0850: 06 2d 06 31 06 35 06 39 06 3e 06 42 06 46 06 4a [.-.1.5.9.>.B.F.J]
  |         0860: 06 4e 06 53 06 57 06 5b 06 5f 06 63 06 68 06 6c [.N.S.W.[._.c.h.l]
  |         0870: 06 70 06 74 06 79 06 7d 06 81 06 85 06 8a 06 8e [.p.t.y.}........]
  |         0880: 06 92 06 97 06 9b 06 9f 06 a4 06 a8 06 ac 06 b1 [................]
  |         0890: 06 b5 06 b9 06 be 06 c2 06 c6 06 cb 06 cf 06 d4 [................]
  |         08a0: 06 d8 06 dc 06 e1 06 e5 06 ea 06 ee 06 f2 06 f7 [................]
  |         08b0: 06 fb 07 00 07 04 07 09 07 0d 07 12 07 16 07 1b [................]
  |         08c0: 07 1f 07 24 07 28 07 2d 07 31 07 36 07 3a 07 3f [...$.(.-.1.6.:.?]
  |         08d0: 07 43 07 48 07 4d 07 51 07 56 07 5a 07 5f 07 63 [.C.H.M.Q.V.Z._.c]
  |         08e0: 07 68 07 6d 07 71 07 76 07 7b 07 7f 07 84 07 89 [.h.m.q.v.{......]
  |         08f0: 07 8d 07 92 07 97 07 9b 07 a0 07 a5 07 a9 07 ae [................]
  |         0900: 07 b3 07 b7 07 bc 07 c1 07 c6 07 ca 07 cf 07 d4 [................]
  |         0910: 07 d9 07 dd 07 e2 07 e7 07 ec 07 f1 07 f5 07 fa [................]
  |         0920: 07 ff 08 04 08 09 08 0d 08 12 08 17 08 1c 08 21 [...............!]
  |         0930: 08 26 08 2b 08 2f 08 34 08 39 08 3e 08 43 08 48 [.&.+./.4.9.>.C.H]
  |         0940: 08 4d 08 52 08 57 08 5c 08 61 08 66 08 6b 08 70 [.M.R.W.\.a.f.k.p]
  |         0950: 08 75 08 7a 08 7f 08 84 08 89 08 8e 08 93 08 98 [.u.z............]
  |         0960: 08 9d 08 a2 08 a7 08 ac 08 b1 08 b6 08 bb 08 c0 [................]
  |         0970: 08 c5 08 ca 08 cf 08 d4 08 d9 08 df 08 e4 08 e9 [................]
  |         0980: 08 ee 08 f3 08 f8 08 fd 09 03 09 08 09 0d 09 12 [................]
  |         0990: 09 17 09 1d 09 22 09 27 09 2c 09 31 09 37 09 3c [.....".'.,.1.7.<]
  |         09a0: 09 41 09 46 09 4c 09 51 09 56 09 5b 09 61 09 66 [.A.F.L.Q.V.[.a.f]
  |         09b0: 09 6b 09 71 09 76 09 7b 09 81 09 86 09 8b 09 91 [.k.q.v.{........]
  |         09c0: 09 96 09 9b 09 a1 09 a6 09 ab 09 b1 09 b6 09 bc [................]
  |         09d0: 09 c1 09 c6 09 cc 09 d1 09 d7 09 dc 09 e2 09 e7 [................]
  |         09e0: 09 ed 09 f2 09 f8 09 fd 0a 02 0a 08 0a 0d 0a 13 [................]
  |         09f0: 0a 19 0a 1e 0a 24 0a 29 0a 2f 0a 34 0a 3a 0a 3f [.....$.)./.4.:.?]
  |         0a00: 0a 45 0a 4a 0a 50 0a 56 0a 5b 0a 61 0a 66 0a 6c [.E.J.P.V.[.a.f.l]
  |         0a10: 0a 72 0a 77 0a 7d 0a 83 0a 88 0a 8e 0a 94 0a 99 [.r.w.}..........]
  |         0a20: 0a 9f 0a a5 0a aa 0a b0 0a b6 0a bc 0a c1 0a c7 [................]
  |         0a30: 0a cd 0a d3 0a d8 0a de 0a e4 0a ea 0a ef 0a f5 [................]
  |         0a40: 0a fb 0b 01 0b 07 0b 0c 0b 12 0b 18 0b 1e 0b 24 [...............$]
  |         0a50: 0b 2a 0b 2f 0b 35 0b 3b 0b 41 0b 47 0b 4d 0b 53 [.*./.5.;.A.G.M.S]
  |         0a60: 0b 59 0b 5f 0b 64 0b 6a 0b 70 0b 76 0b 7c 0b 82 [.Y._.d.j.p.v.|..]
  |         0a70: 0b 88 0b 8e 0b 94 0b 9a 0b a0 0b a6 0b ac 0b b2 [................]
  |         0a80: 0b b8 0b be 0b c4 0b ca 0b d0 0b d6 0b dc 0b e2 [................]
  |         0a90: 0b e9 0b ef 0b f5 0b fb 0c 01 0c 07 0c 0d 0c 13 [................]
  |         0aa0: 0c 19 0c 20 0c 26 0c 2c 0c 32 0c 38 0c 3e 0c 45 [... .&.,.2.8.>.E]
  |         0ab0: 0c 4b 0c 51 0c 57 0c 5d 0c 64 0c 6a 0c 70 0c 76 [.K.Q.W.].d.j.p.v]
  |         0ac0: 0c 7d 0c 83 0c 89 0c 8f 0c 96 0c 9c 0c a2 0c a8 [.}..............]
  |         [snip 6172 bytes]
JPEG DQT (65 bytes):
      68af: 00 02 03 03 04 03 03 02 04 03 04 05 05 02 05 06 [................]
      68bf: 0b 07 06 06 06 06 0d 0a 0a 08 0b 0f 0d 10 10 0f [................]
      68cf: 0d 0f 0f 11 13 18 15 11 12 17 12 0f 0f 15 1d 15 [................]
      68df: 17 19 1a 1b 1b 1b 10 15 1e 20 1e 1b 20 18 1b 1b [......... .. ...]
      68ef: 1a                                              [.]
JPEG DQT (65 bytes):
      68f4: 01 02 02 02 02 02 02 05 03 03 05 0b 07 06 07 0b [................]
      6904: 0b 0b 0b 0b 0b 0b 0b 0b 0b 0b 0b 0b 0b 0b 0b 0b [................]
      6914: 0b 0b 0b 0b 0b 0b 0b 0b 0b 0b 0b 0b 0b 0b 0b 0b [................]
      6924: 0b 0b 0b 0b 0b 0b 0b 0b 0b 0b 0b 0b 0b 0b 0b 0b [................]
      6934: 0b                                              [.]
JPEG SOF0 (15 bytes):
      6939: 08 0a 6e 0f a0 03 01 11 00 02 11 01 03 11 01    [..n............]
  ImageWidth = 4000
  ImageHeight = 2670
  EncodingProcess = 0
  BitsPerSample = 8
  ColorComponents = 3
  YCbCrSubSampling = 1 1
JPEG DHT (28 bytes):
      694c: 00 00 02 02 03 01 01 01 01 00 00 00 00 00 00 00 [................]
      695c: 00 02 03 01 04 00 05 06 07 08 09 0a             [............]
JPEG DHT (79 bytes):
      696c: 10 00 02 01 03 02 04 04 03 07 03 04 01 02 01 02 [................]
      697c: 17 01 02 11 00 03 21 12 31 04 22 41 51 05 13 61 [......!.1."AQ..a]
      698c: 71 32 81 91 06 23 42 a1 b1 c1 f0 14 d1 e1 07 33 [q2...#B........3]
      699c: 52 f1 62 15 24 43 72 82 16 34 92 08 53 a2 25 63 [R.b.$Cr..4..S.%c]
      69ac: b2 17 44 73 c2 26 35 54 64 d2 27 45 93 e2 f2    [..Ds.&5Td.'E...]
JPEG DHT (27 bytes):
      69bf: 01 00 03 01 01 01 01 01 01 01 00 00 00 00 00 00 [................]
      69cf: 00 02 03 04 01 00 05 06 07 08 09                [...........]
JPEG DHT (69 bytes):
      69de: 11 00 01 04 01 03 02 04 04 05 05 01 00 01 00 02 [................]
      69ee: 13 01 00 02 03 11 21 04 12 31 41 51 13 22 61 f0 [......!..1AQ."a.]
      69fe: 05 71 81 91 32 a1 b1 c1 d1 06 14 23 e1 f1 42 15 [.q..2......#..B.]
      6a0e: 52 07 33 24 62 72 82 16 92 43 a2 25 b2 08 34 c2 [R.3$br...C.%..4.]
      6a1e: 17 53 d2 e2 f2                                  [.S...]
JPEG SOS
JPEG EOI
