  ExifToolVersion = 13.59
  FileName = media_65.orf
  Directory = C:/Users/micro/IdeaProjects/kim/src/commonTest/resources/de/stefan_oltmann/kim/testdata/full
  FileSize = 11421104
  FileModifyDate = 1776264337.73577
  FileAccessDate = 1786601584.60455
  FileCreateDate = 1776264337.71777
  FilePermissions = 33206
  FileType = ORF
  FileTypeExtension = ORF
  MIMEType = image/x-olympus-orf
  ExifByteOrder = II
  + [IFD0 directory with 23 entries, Little-endian]
  | 0)  ImageWidth = 3680
  |     - Tag 0x0100 (4 bytes, int32u[1]):
  |         0012: 60 0e 00 00                                     [`...]
  | 1)  ImageHeight = 2760
  |     - Tag 0x0101 (4 bytes, int32u[1]):
  |         001e: c8 0a 00 00                                     [....]
  | 2)  BitsPerSample = 16
  |     - Tag 0x0102 (2 bytes, int16u[1]):
  |         002a: 10 00                                           [..]
  | 3)  Compression = 1
  |     - Tag 0x0103 (2 bytes, int16u[1]):
  |         0036: 01 00                                           [..]
  | 4)  PhotometricInterpretation = 1
  |     - Tag 0x0106 (2 bytes, int16u[1]):
  |         0042: 01 00                                           [..]
  | 5)  ImageDescription = OLYMPUS DIGITAL CAMERA         
  |     - Tag 0x010e (32 bytes, string[32]):
  |         0850: 4f 4c 59 4d 50 55 53 20 44 49 47 49 54 41 4c 20 [OLYMPUS DIGITAL ]
  |         0860: 43 41 4d 45 52 41 20 20 20 20 20 20 20 20 20 00 [CAMERA         .]
  | 6)  Make = OLYMPUS IMAGING CORP.  
  |     - Tag 0x010f (24 bytes, string[24]):
  |         0870: 4f 4c 59 4d 50 55 53 20 49 4d 41 47 49 4e 47 20 [OLYMPUS IMAGING ]
  |         0880: 43 4f 52 50 2e 20 20 00                         [CORP.  .]
  | 7)  Model = XZ-1            
  |     - Tag 0x0110 (17 bytes, string[17]):
  |         0888: 58 5a 2d 31 20 20 20 20 20 20 20 20 20 20 20 20 [XZ-1            ]
  |         0898: 00                                              [.]
  | 8)  StripOffsets = 1478144
  |     - Tag 0x0111 (4 bytes, int32u[1]):
  |         0072: 00 8e 16 00                                     [....]
  | 9)  Orientation = 1
  |     - Tag 0x0112 (2 bytes, int16u[1]):
  |         007e: 01 00                                           [..]
  | 10) SamplesPerPixel = 1
  |     - Tag 0x0115 (2 bytes, int16u[1]):
  |         008a: 01 00                                           [..]
  | 11) RowsPerStrip = 2760
  |     - Tag 0x0116 (4 bytes, int32u[1]):
  |         0096: c8 0a 00 00                                     [....]
  | 12) StripByteCounts = 9942960
  |     - Tag 0x0117 (4 bytes, int32u[1]):
  |         00a2: b0 b7 97 00                                     [....]
  | 13) XResolution = 314 (314/1)
  |     - Tag 0x011a (8 bytes, rational64u[1]):
  |         02c4: 3a 01 00 00 01 00 00 00                         [:.......]
  | 14) YResolution = 314 (314/1)
  |     - Tag 0x011b (8 bytes, rational64u[1]):
  |         02cc: 3a 01 00 00 01 00 00 00                         [:.......]
  | 15) PlanarConfiguration = 1
  |     - Tag 0x011c (2 bytes, int16u[1]):
  |         00c6: 01 00                                           [..]
  | 16) ResolutionUnit = 2
  |     - Tag 0x0128 (2 bytes, int16u[1]):
  |         00d2: 02 00                                           [..]
  | 17) Software = Version 1.4                    
  |     - Tag 0x0131 (32 bytes, string[32]):
  |         089a: 56 65 72 73 69 6f 6e 20 31 2e 34 20 20 20 20 20 [Version 1.4     ]
  |         08aa: 20 20 20 20 20 20 20 20 20 20 20 20 20 20 20 00 [               .]
  | 18) ModifyDate = 2014:12:28 15:50:57
  |     - Tag 0x0132 (20 bytes, string[20]):
  |         07fc: 32 30 31 34 3a 31 32 3a 32 38 20 31 35 3a 35 30 [2014:12:28 15:50]
  |         080c: 3a 35 37 00                                     [:57.]
  | 19) Artist = 
  |     - Tag 0x013b (64 bytes, string[64]):
  |         0810: 00 00 00 00 00 00 00 00 00 00 00 00 00 00 00 00 [................]
  |         0820: 00 00 00 00 00 00 00 00 00 00 00 00 00 00 00 00 [................]
  |         0830: 00 00 00 00 00 00 00 00 00 00 00 00 00 00 00 00 [................]
  |         0840: 00 00 00 00 00 00 00 00 00 00 00 00 00 00 00 00 [................]
  | 20) Copyright = 
  |     - Tag 0x8298 (64 bytes, string[64] read as undef[64]):
  |         0acc: 00 00 00 00 00 00 00 00 00 00 00 00 00 00 00 00 [................]
  |         0adc: 00 00 00 00 00 00 00 00 00 00 00 00 00 00 00 00 [................]
  |         0aec: 00 00 00 00 00 00 00 00 00 00 00 00 00 00 00 00 [................]
  |         0afc: 00 00 00 00 00 00 00 00 00 00 00 00 00 00 00 00 [................]
  | 21) ExifOffset (SubDirectory) -->
  |     - Tag 0x8769 (4 bytes, int32u[1]):
  |         010e: 22 01 00 00                                     ["...]
  | + [ExifIFD directory with 29 entries, Little-endian]
  | | 0)  ExposureTime = 0.0015625 (1/640)
  | |     - Tag 0x829a (8 bytes, rational64u[1]):
  | |         0bd8: 01 00 00 00 80 02 00 00                         [........]
  | | 1)  FNumber = 4 (40/10)
  | |     - Tag 0x829d (8 bytes, rational64u[1]):
  | |         0c00: 28 00 00 00 0a 00 00 00                         [(.......]
  | | 2)  ExposureProgram = 2
  | |     - Tag 0x8822 (2 bytes, int16u[1]):
  | |         0144: 02 00                                           [..]
  | | 3)  ISO = 100
  | |     - Tag 0x8827 (2 bytes, int16u[1]):
  | |         0150: 64 00                                           [d.]
  | | 4)  ExifVersion = 0221
  | |     - Tag 0x9000 (4 bytes, undef[4]):
  | |         015c: 30 32 32 31                                     [0221]
  | | 5)  DateTimeOriginal = 2014:12:28 15:50:57
  | |     - Tag 0x9003 (20 bytes, string[20]):
  | |         0bad: 32 30 31 34 3a 31 32 3a 32 38 20 31 35 3a 35 30 [2014:12:28 15:50]
  | |         0bbd: 3a 35 37 00                                     [:57.]
  | | 6)  CreateDate = 2014:12:28 15:50:57
  | |     - Tag 0x9004 (20 bytes, string[20]):
  | |         0bc1: 32 30 31 34 3a 31 32 3a 32 38 20 31 35 3a 35 30 [2014:12:28 15:50]
  | |         0bd1: 3a 35 37 00                                     [:57.]
  | | 7)  ExposureCompensation = 0 (0/10)
  | |     - Tag 0x9204 (8 bytes, rational64s[1]):
  | |         0be0: 00 00 00 00 0a 00 00 00                         [........]
  | | 8)  MaxApertureValue = 1.7 (170/100)
  | |     - Tag 0x9205 (8 bytes, rational64u[1]):
  | |         0be8: aa 00 00 00 64 00 00 00                         [....d...]
  | | 9)  MeteringMode = 2
  | |     - Tag 0x9207 (2 bytes, int16u[1]):
  | |         0198: 02 00                                           [..]
  | | 10) LightSource = 0
  | |     - Tag 0x9208 (2 bytes, int16u[1]):
  | |         01a4: 00 00                                           [..]
  | | 11) Flash = 24
  | |     - Tag 0x9209 (2 bytes, int16u[1]):
  | |         01b0: 18 00                                           [..]
  | | 12) FocalLength = 15.27 (1527/100)
  | |     - Tag 0x920a (8 bytes, rational64u[1]):
  | |         0bf8: f7 05 00 00 64 00 00 00                         [....d...]
  | | 13) MakerNoteOlympus2 (SubDirectory) -->
  | |     - Tag 0x927c (1474972 bytes, undef[1474972]):
  | |         0c64: 4f 4c 59 4d 50 55 53 00 49 49 03 00 08 00 00 01 [OLYMPUS.II......]
  | |         0c74: 07 00 39 19 00 00 9c 97 00 00 00 02 04 00 03 00 [..9.............]
  | |         0c84: 00 00 bc 12 00 00 09 02 07 00 20 00 00 00 c8 12 [.......... .....]
  | |         0c94: 00 00 10 20 0d 00 01 00 00 00 72 00 00 00 20 20 [... ......r...  ]
  | |         0ca4: 0d 00 01 00 00 00 fc 00 00 00 30 20 0d 00 01 00 [..........0 ....]
  | |         0cb4: 00 00 de 03 00 00 40 20 0d 00 01 00 00 00 8c 04 [......@ ........]
  | |         0cc4: 00 00 50 20 0d 00 01 00 00 00 d6 0e 00 00 00 00 [..P ............]
  | |         0cd4: 00 00 0b 00 00 00 07 00 04 00 00 00 30 31 30 30 [............0100]
  | |         0ce4: 00 01 02 00 06 00 00 00 ec 12 00 00 01 01 02 00 [................]
  | |         0cf4: 20 00 00 00 f2 12 00 00 02 01 02 00 20 00 00 00 [ ........... ...]
  | |         0d04: 12 13 00 00 03 01 05 00 01 00 00 00 34 13 00 00 [............4...]
  | |         0d14: 04 01 04 00 01 00 00 00 01 14 00 00 03 04 02 00 [................]
  | |         0d24: 20 00 00 00 f0 13 00 00 00 10 03 00 01 00 00 00 [ ...............]
  | |         0d34: 00 00 00 00 01 10 03 00 01 00 00 00 00 00 00 00 [................]
  | |         0d44: 02 10 04 00 01 00 00 00 00 00 00 00 03 10 02 00 [................]
  | |         0d54: 20 00 00 00 18 14 00 00 00 00 00 00 3d 00 00 00 [ ...........=...]
  | |         0d64: 07 00 04 00 00 00 30 31 30 30 00 01 04 00 01 00 [......0100......]
  | |         0d74: 00 00 01 00 00 00 01 01 04 00 01 00 00 00 9c bf [................]
  | |         0d84: 00 00 02 01 04 00 01 00 00 00 55 40 10 00 00 02 [..........U@....]
  | |         0d94: 03 00 01 00 00 00 02 00 00 00 01 02 03 00 01 00 [................]
  | |         0da4: 00 00 00 00 00 00 02 02 03 00 01 00 00 00 02 00 [................]
  | |         0db4: 00 00 03 02 0a 00 01 00 00 00 50 14 00 00 04 02 [..........P.....]
  | |         0dc4: 01 00 01 00 00 00 00 00 00 00 00 03 03 00 01 00 [................]
  | |         0dd4: 00 00 01 00 00 00 01 03 03 00 02 00 00 00 00 00 [................]
  | |         0de4: 00 00 02 03 03 00 02 00 00 00 00 00 00 00 03 03 [................]
  | |         0df4: 03 00 01 00 00 00 00 00 00 00 04 03 04 00 40 00 [..............@.]
  | |         0e04: 00 00 68 14 00 00 05 03 0a 00 05 00 00 00 68 15 [..h...........h.]
  | |         0e14: 00 00 06 03 01 00 01 00 00 00 00 00 00 00 07 03 [................]
  | |         0e24: 08 00 03 00 00 00 92 15 00 00 00 04 03 00 01 00 [................]
  | |         0e34: 00 00 28 00 00 00 01 04 0a 00 01 00 00 00 9c 15 [..(.............]
  | |         0e44: 00 00 02 04 03 00 01 00 00 00 00 00 00 00 03 04 [................]
  | |         0e54: 03 00 01 00 00 00 00 00 00 00 04 04 03 00 03 00 [................]
  | |         0e64: 00 00 a8 15 00 00 05 04 0a 00 03 00 00 00 b0 15 [................]
  | |         0e74: 00 00 06 04 0a 00 03 00 00 00 c8 15 00 00 00 05 [................]
  | |         0e84: 03 00 01 00 00 00 00 00 00 00 01 05 03 00 01 00 [................]
  | |         0e94: 00 00 00 00 00 00 02 05 08 00 02 00 00 00 01 00 [................]
  | |         0ea4: 00 00 03 05 08 00 03 00 00 00 e8 15 00 00 04 05 [................]
  | |         0eb4: 03 00 01 00 00 00 00 00 00 00 05 05 08 00 03 00 [................]
  | |         0ec4: 00 00 f0 15 00 00 06 05 08 00 03 00 00 00 f6 15 [................]
  | |         0ed4: 00 00 07 05 03 00 01 00 00 00 00 00 00 00 08 05 [................]
  | |         0ee4: 03 00 01 00 00 00 00 00 00 00 09 05 03 00 01 00 [................]
  | |         0ef4: 00 00 00 00 00 00 0a 05 03 00 01 00 00 00 01 00 [................]
  | |         0f04: 00 00 0b 05 03 00 01 00 00 00 00 00 00 00 0c 05 [................]
  | |         0f14: 03 00 01 00 00 00 00 00 00 00 0e 05 03 00 01 00 [................]
  | |         0f24: 00 00 00 00 00 00 0f 05 08 00 04 00 00 00 12 16 [................]
  | |         0f34: 00 00 20 05 03 00 02 00 00 00 02 00 02 00 21 05 [.. ...........!.]
  | |         0f44: 08 00 03 00 00 00 64 16 00 00 22 05 03 00 01 00 [......d...".....]
  | |         0f54: 00 00 00 00 00 00 23 05 08 00 03 00 00 00 6c 16 [......#.......l.]
  | |         0f64: 00 00 24 05 08 00 03 00 00 00 72 16 00 00 25 05 [..$.......r...%.]
  | |         0f74: 08 00 01 00 00 00 00 00 00 00 26 05 08 00 01 00 [..........&.....]
  | |         0f84: 00 00 00 00 00 00 27 05 08 00 03 00 00 00 1a 16 [......'.........]
  | |         0f94: 00 00 28 05 03 00 01 00 00 00 00 00 00 00 29 05 [..(...........).]
  | |         0fa4: 03 00 04 00 00 00 22 16 00 00 2a 05 04 00 01 00 [......"...*.....]
  | |         0fb4: 00 00 33 01 08 00 2b 05 03 00 10 00 00 00 30 16 [..3...+.......0.]
  | |         0fc4: 00 00 2e 05 08 00 0c 00 00 00 7c 16 00 00 2f 05 [..........|.../.]
  | |         0fd4: 03 00 14 00 00 00 94 16 00 00 30 05 03 00 20 00 [..........0... .]
  | |         0fe4: 00 00 bc 16 00 00 00 06 03 00 03 00 00 00 fc 16 [................]
  | |         0ff4: 00 00 01 06 03 00 02 00 00 00 00 00 00 00 04 06 [................]
  | |         1004: 04 00 01 00 00 00 01 00 00 00 00 08 03 00 01 00 [................]
  | |         1014: 00 00 01 00 00 00 00 09 03 00 01 00 00 00 00 00 [................]
  | |         1024: 00 00 01 09 09 00 02 00 00 00 94 17 00 00 02 09 [................]
  | |         1034: 03 00 01 00 00 00 00 00 00 00 00 00 00 00 0e 00 [................]
  | |         1044: 00 00 07 00 04 00 00 00 30 31 30 30 00 01 0a 00 [........0100....]
  | |         1054: 01 00 00 00 ac 17 00 00 01 01 03 00 01 00 00 00 [................]
  | |         1064: 00 00 00 00 02 01 08 00 01 00 00 00 00 00 00 00 [................]
  | |         1074: 03 01 03 00 03 00 00 00 b8 17 00 00 04 01 08 00 [................]
  | |         1084: 03 00 00 00 be 17 00 00 05 01 03 00 01 00 00 00 [................]
  | |         1094: 00 00 00 00 06 01 08 00 03 00 00 00 c6 17 00 00 [................]
  | |         10a4: 07 01 08 00 03 00 00 00 cc 17 00 00 08 01 03 00 [................]
  | |         10b4: 01 00 00 00 00 00 00 00 09 01 03 00 01 00 00 00 [................]
  | |         10c4: 00 00 00 00 0a 01 03 00 01 00 00 00 00 00 00 00 [................]
  | |         10d4: 0b 01 03 00 01 00 00 00 00 00 00 00 0c 01 03 00 [................]
  | |         10e4: 01 00 00 00 00 00 00 00 00 00 00 00 db 00 00 00 [................]
  | |         10f4: 07 00 04 00 00 00 30 31 31 32 00 01 03 00 04 00 [......0112......]
  | |         1104: 00 00 de 17 00 00 01 01 03 00 04 00 00 00 e6 17 [................]
  | |         1114: 00 00 02 01 03 00 04 00 00 00 ee 17 00 00 03 01 [................]
  | |         1124: 03 00 04 00 00 00 f6 17 00 00 04 01 03 00 04 00 [................]
  | |         1134: 00 00 fe 17 00 00 05 01 03 00 04 00 00 00 06 18 [................]
  | |         1144: 00 00 06 01 03 00 04 00 00 00 0e 18 00 00 07 01 [................]
  | |         1154: 03 00 04 00 00 00 16 18 00 00 08 01 03 00 04 00 [................]
  | |         1164: 00 00 1e 18 00 00 09 01 03 00 04 00 00 00 26 18 [..............&.]
  | |         1174: 00 00 0a 01 03 00 04 00 00 00 2e 18 00 00 0b 01 [................]
  | |         1184: 03 00 04 00 00 00 36 18 00 00 0c 01 03 00 04 00 [......6.........]
  | |         1194: 00 00 3e 18 00 00 0d 01 03 00 04 00 00 00 46 18 [..>...........F.]
  | |         11a4: 00 00 0e 01 03 00 04 00 00 00 4e 18 00 00 0f 01 [..........N.....]
  | |         11b4: 03 00 04 00 00 00 56 18 00 00 10 01 03 00 04 00 [......V.........]
  | |         11c4: 00 00 5e 18 00 00 11 01 03 00 04 00 00 00 66 18 [..^...........f.]
  | |         11d4: 00 00 20 01 03 00 04 00 00 00 6e 18 00 00 21 01 [.. .......n...!.]
  | |         11e4: 03 00 04 00 00 00 76 18 00 00 22 01 08 00 08 00 [......v...".....]
  | |         11f4: 00 00 7e 18 00 00 23 01 03 00 08 00 00 00 8e 18 [..~...#.........]
  | |         1204: 00 00 24 01 03 00 01 00 00 00 f4 bf 00 00 25 01 [..$...........%.]
  | |         1214: 03 00 04 00 00 00 a0 18 00 00 00 02 03 00 09 00 [................]
  | |         1224: 00 00 aa 18 00 00 01 02 03 00 09 00 00 00 bc 18 [................]
  | |         1234: 00 00 02 02 03 00 09 00 00 00 ce 18 00 00 03 02 [................]
  | |         1244: 03 00 09 00 00 00 e0 18 00 00 04 02 03 00 09 00 [................]
  | |         1254: 00 00 f2 18 00 00 05 02 03 00 09 00 00 00 04 19 [................]
  | |         1264: 00 00 06 02 03 00 09 00 00 00 16 19 00 00 07 02 [................]
  | |         1274: 03 00 09 00 00 00 28 19 00 00 08 02 03 00 09 00 [......(.........]
  | |         1284: 00 00 3a 19 00 00 09 02 03 00 09 00 00 00 4c 19 [..:...........L.]
  | |         1294: 00 00 0a 02 03 00 09 00 00 00 5e 19 00 00 0b 02 [..........^.....]
  | |         12a4: 03 00 09 00 00 00 70 19 00 00 0c 02 03 00 09 00 [......p.........]
  | |         12b4: 00 00 82 19 00 00 0d 02 03 00 09 00 00 00 94 19 [................]
  | |         12c4: 00 00 0e 02 03 00 09 00 00 00 a6 19 00 00 0f 02 [................]
  | |         12d4: 03 00 09 00 00 00 b8 19 00 00 10 02 03 00 09 00 [................]
  | |         12e4: 00 00 ca 19 00 00 11 02 03 00 09 00 00 00 dc 19 [................]
  | |         12f4: 00 00 12 02 03 00 09 00 00 00 ee 19 00 00 13 02 [................]
  | |         1304: 03 00 09 00 00 00 00 1a 00 00 14 02 03 00 09 00 [................]
  | |         1314: 00 00 12 1a 00 00 15 02 03 00 09 00 00 00 24 1a [..............$.]
  | |         1324: 00 00 16 02 03 00 09 00 00 00 36 1a 00 00 17 02 [..........6.....]
  | |         1334: 03 00 09 00 00 00 48 1a 00 00 18 02 03 00 09 00 [......H.........]
  | |         1344: 00 00 5a 1a 00 00 19 02 03 00 09 00 00 00 6c 1a [..Z...........l.]
  | |         1354: 00 00 1a 02 03 00 09 00 00 00 7e 1a 00 00 28 02 [..........~...(.]
  | |         1364: 03 00 09 00 00 00 90 1a 00 00 29 02 03 00 09 00 [..........).....]
  | |         1374: 00 00 a2 1a 00 00 59 02 08 00 63 00 00 00 b4 1a [......Y...c.....]
  | |         1384: 00 00 02 03 03 00 01 00 00 00 00 01 00 00 03 03 [................]
  | |         1394: 03 00 01 00 00 00 00 00 00 00 04 03 03 00 0b 00 [................]
  | |         13a4: 00 00 7e 1b 00 00 05 03 03 00 05 00 00 00 96 1b [..~.............]
  | |         13b4: 00 00 12 03 03 00 01 00 00 00 00 01 00 00 13 03 [................]
  | |         13c4: 03 00 01 00 00 00 00 00 00 00 14 03 03 00 0b 00 [................]
  | |         13d4: 00 00 a0 1b 00 00 15 03 03 00 05 00 00 00 b6 1b [................]
  | |         13e4: 00 00 40 03 08 00 18 00 00 00 c2 1b 00 00 41 03 [..@...........A.]
  | |         13f4: 08 00 18 00 00 00 f2 1b 00 00 42 03 08 00 18 00 [..........B.....]
  | |         1404: 00 00 22 1c 00 00 43 03 08 00 18 00 00 00 52 1c [.."...C.......R.]
  | |         1414: 00 00 50 03 03 00 0c 00 00 00 82 1c 00 00 51 03 [..P...........Q.]
  | |         1424: 03 00 1e 00 00 00 9a 1c 00 00 00 04 03 00 3f 00 [..............?.]
  | |         1434: 00 00 20 1d 00 00 01 04 03 00 05 00 00 00 d6 1c [.. .............]
  | |         1444: 00 00 02 04 03 00 05 00 00 00 e0 1c 00 00 03 04 [................]
  | |         [snip 1472940 bytes]
  | | + [MakerNotes directory with 8 entries, Little-endian]
  | | | 0)  ThumbnailImage = .............................................................!.. .........................................................................x...!..........................................}.......!1A..Qa."q.2....#B...R..$3br........%&'()*456789:CDEFGHIJSTUVWXYZcdefghijstuvwxyz.............................................................................................................w......!1..AQ.aq."2...B.....#3R..br...$4.%.....&'()*56789:CDEFGHIJSTUVWXYZcdefghijstuvwxyz.................................................................................?..>.........w....K..F{z..d...M.{.!....). .%.&.#OF....##QL...~.<q.....Cm$..F.;...Ph...Y:C..F...X..#../.f..`r......j.d.jw.l.Xb./.4.3.......w...b...j..|....1.j)q..s....@ONF1.|Ly$...@..L1. ....i0.q@.Zg{....pK#..A..:...\.=1R.!.n..8...c......l;..as..1..z.1VVk.._.zpY.K.'l;H.V?67.qD.w&kc.x.xR".|......+J.b..*(\c.u.+..Y.......M+).b.'.i.V.........7........%.....2q.b.!9iO..jH./.#.g.H.'.gn....$.........s......28.?.=..y...B.N....A....R.........R.0.x.#.....}}.SF,..sop.-.d...~.....Xd....N..de..^r...br.....Z..' .D.,....@..@..A.qP-.#..F2h. ....pNsJ..r<...X..GWv.0.S...{...`'..!.H....I=Oz.k9L.>^..1.V%.8.Ri.W *..E.+.......K...S.4..)].,G.....i..n..|...c..N.s>.....Z.,..Y/g7...G..v...6. ....4].X.Ka..6:..K..J.?.b*M:../....D.d.`....).p.<..+.a..$q..N.j(Q.R.xf.>.1.Wlr6>m.8.....01.T..'&..]..1.q.....o...T.e..>........6/.n..r.n?,U..B...]j6.....*...X.$..|i.X.#TYT.....#.$w.~u./........x...*...?.S...hNVz..Z...,.V.\........../u..m2[...\0T....Vc.....Y.y..........R3YY,.XF........zzV..<.s6.z...c.~......PLr.G.a.=8..|C..-ms*FB.K3....,j..6p.y*1...S....'(.s.7.3..Qm]..;3.....*... .,Me...._..\....T~U.h.Sr3u.f.zV.a.......]...S9....-..^&......H.....g.... 0..Z0I`=.9..:..w&.-...sI%....'?.;$O3{...`u..Z...y....B.M.`T..9.j]..N.Ei+-..}..$.....3..z...'.. .w&..k9=.5....g7w4.....[C.8.BN....p?J..m..L...]x_...b>$}U.bo....z[.?....Q2.&0z......\.~.....E........7..Q...F.&l....Sd[S..k..@..U~.g..6..>...yE.."]]..I..&....}I..55f.R+.........<n-H.............u.}Ly...H.2.62}..yy"...ss.>..N....u+.8Z;.-.)."...w..H.j....^.-..M.nJ.%.[snip]
  | | |     - Tag 0x0100 (6457 bytes, undef[6457]):
  | | |         a400: ff d8 ff db 00 84 00 05 03 04 04 04 03 05 04 04 [................]
  | | |         a410: 04 05 05 05 06 07 0b 07 07 06 06 07 0e 0a 0a 08 [................]
  | | |         a420: 0b 10 0e 11 10 10 0e 0f 0f 11 14 19 15 11 13 18 [................]
  | | |         a430: 13 0f 0f 16 1d 16 18 1a 1b 1c 1c 1c 11 15 1f 21 [...............!]
  | | |         a440: 1e 1b 20 19 1b 1c 1b 01 05 05 05 07 06 07 0d 07 [.. .............]
  | | |         a450: 07 0d 1b 12 0f 12 1b 1b 1b 1b 1b 1b 1b 1b 1b 1b [................]
  | | |         a460: 1b 1b 1b 1b 1b 1b 1b 1b 1b 1b 1b 1b 1b 1b 1b 1b [................]
  | | |         a470: 1b 1b 1b 1b 1b 1b 1b 1b 1b 1b 1b 1b 1b 1b 1b 1b [................]
  | | |         a480: 1b 1b 1b 1b 1b 1b 1b 1b ff c0 00 11 08 00 78 00 [..............x.]
  | | |         a490: a0 03 01 21 00 02 11 01 03 11 01 ff c4 01 a2 00 [...!............]
  | | |         a4a0: 00 01 05 01 01 01 01 01 01 00 00 00 00 00 00 00 [................]
  | | |         a4b0: 00 01 02 03 04 05 06 07 08 09 0a 0b 10 00 02 01 [................]
  | | |         a4c0: 03 03 02 04 03 05 05 04 04 00 00 01 7d 01 02 03 [............}...]
  | | |         a4d0: 00 04 11 05 12 21 31 41 06 13 51 61 07 22 71 14 [.....!1A..Qa."q.]
  | | |         a4e0: 32 81 91 a1 08 23 42 b1 c1 15 52 d1 f0 24 33 62 [2....#B...R..$3b]
  | | |         a4f0: 72 82 09 0a 16 17 18 19 1a 25 26 27 28 29 2a 34 [r........%&'()*4]
  | | |         a500: 35 36 37 38 39 3a 43 44 45 46 47 48 49 4a 53 54 [56789:CDEFGHIJST]
  | | |         a510: 55 56 57 58 59 5a 63 64 65 66 67 68 69 6a 73 74 [UVWXYZcdefghijst]
  | | |         a520: 75 76 77 78 79 7a 83 84 85 86 87 88 89 8a 92 93 [uvwxyz..........]
  | | |         a530: 94 95 96 97 98 99 9a a2 a3 a4 a5 a6 a7 a8 a9 aa [................]
  | | |         a540: b2 b3 b4 b5 b6 b7 b8 b9 ba c2 c3 c4 c5 c6 c7 c8 [................]
  | | |         a550: c9 ca d2 d3 d4 d5 d6 d7 d8 d9 da e1 e2 e3 e4 e5 [................]
  | | |         a560: e6 e7 e8 e9 ea f1 f2 f3 f4 f5 f6 f7 f8 f9 fa 01 [................]
  | | |         a570: 00 03 01 01 01 01 01 01 01 01 01 00 00 00 00 00 [................]
  | | |         a580: 00 01 02 03 04 05 06 07 08 09 0a 0b 11 00 02 01 [................]
  | | |         a590: 02 04 04 03 04 07 05 04 04 00 01 02 77 00 01 02 [............w...]
  | | |         a5a0: 03 11 04 05 21 31 06 12 41 51 07 61 71 13 22 32 [....!1..AQ.aq."2]
  | | |         a5b0: 81 08 14 42 91 a1 b1 c1 09 23 33 52 f0 15 62 72 [...B.....#3R..br]
  | | |         a5c0: d1 0a 16 24 34 e1 25 f1 17 18 19 1a 26 27 28 29 [...$4.%.....&'()]
  | | |         a5d0: 2a 35 36 37 38 39 3a 43 44 45 46 47 48 49 4a 53 [*56789:CDEFGHIJS]
  | | |         a5e0: 54 55 56 57 58 59 5a 63 64 65 66 67 68 69 6a 73 [TUVWXYZcdefghijs]
  | | |         a5f0: 74 75 76 77 78 79 7a 82 83 84 85 86 87 88 89 8a [tuvwxyz.........]
  | | |         a600: 92 93 94 95 96 97 98 99 9a a2 a3 a4 a5 a6 a7 a8 [................]
  | | |         a610: a9 aa b2 b3 b4 b5 b6 b7 b8 b9 ba c2 c3 c4 c5 c6 [................]
  | | |         a620: c7 c8 c9 ca d2 d3 d4 d5 d6 d7 d8 d9 da e2 e3 e4 [................]
  | | |         a630: e5 e6 e7 e8 e9 ea f2 f3 f4 f5 f6 f7 f8 f9 fa ff [................]
  | | |         a640: da 00 0c 03 01 00 02 11 03 11 00 3f 00 f6 ad 3e [...........?...>]
  | | |         a650: fa d1 ee e2 b3 b0 8d ee 9f 77 97 84 fd dc 4b e9 [.........w....K.]
  | | |         a660: 82 46 7b 7a 0a e9 64 b0 bb 8f 4d 96 7b 89 21 8c [.F{z..d...M.{.!.]
  | | |         a670: 0e 05 bc 29 c0 20 e3 25 8f 26 b8 23 4f 46 ce f9 [...). .%.&.#OF..]
  | | |         a680: d4 d5 23 23 51 4c d8 82 fc 7e f6 3c 71 fe d8 a4 [..##QL...~.<q...]
  | | |         a690: b2 b3 43 6d 24 93 82 46 c7 3b 9b b0 db 50 68 de [..Cm$..F.;...Ph.]
  | | |         a6a0: 87 a0 59 3a 43 14 a6 46 11 af 98 58 16 e3 23 02 [..Y:C..F...X..#.]
  | | |         a6b0: b1 2f d5 66 bc 9a 60 72 ac d9 19 18 e2 ba 6a b5 [./.f..`r......j.]
  | | |         a6c0: 64 8e 6a 77 e6 6c 8e 58 62 9a 2f 9e 34 92 33 82 [d.jw.l.Xb./.4.3.]
  | | |         a6d0: 11 d4 11 91 df 9a 77 98 e5 81 62 08 03 8f 6a c0 [......w...b...j.]
  | | |         a6e0: d8 7c ce 19 c8 ce 31 c6 6a 29 71 81 b4 73 9a 01 [.|....1.j)q..s..]
  | | |         a6f0: 0d 96 40 4f 4e 46 31 8a 7c 4c 79 24 e0 e3 91 40 [..@ONF1.|Ly$...@]
  | | |         a700: 0c 96 4c 31 c1 20 fa 8a 89 80 69 30 06 71 40 12 [..L1. ....i0.q@.]
  | | |         a710: 5a 67 7b 12 7f 0a 92 70 4b 23 1e fd 41 f4 a0 3a [Zg{....pK#..A..:]
  | | |         a720: 91 80 a2 5c ef 3d 31 52 97 21 90 6e e0 b6 38 a0 [...\.=1R.!.n..8.]
  | | |         a730: 18 e6 63 b4 8c f3 da 98 e3 6c 3b 98 0a 61 73 cc [..c......l;..as.]
  | | |         a740: fc 31 0d cc 7a 8a 31 56 56 6b a5 c0 5f a5 7a 70 [.1..z.1VVk.._.zp]
  | | |         a750: 59 17 4b 95 27 6c 3b 48 f8 56 3f 36 37 e4 71 44 [Y.K.'l;H.V?67.qD]
  | | |         a760: 1b 77 26 6b 63 2e 78 92 78 52 22 18 7c ea d9 1e [.w&kc.x.xR".|...]
  | | |         a770: c4 1f e8 2b 4a dd 62 f2 f6 2a 28 5c 63 04 75 cd [...+J.b..*(\c.u.]
  | | |         a780: 2b 14 c4 59 19 a4 da cd b8 f3 92 4d 2b 29 18 62 [+..Y.......M+).b]
  | | |         a790: d9 27 8e 69 88 56 07 cb c9 fb a0 0e 95 10 cb 37 [.'.i.V.........7]
  | | |         a7a0: 00 e0 8c e6 93 1a 1d e5 96 25 c9 e0 f5 14 8a 32 [.........%.....2]
  | | |         a7b0: 71 9c 62 80 21 39 69 4f 1c 0e 6a 48 9f 2f bf 23 [q.b.!9iO..jH./.#]
  | | |         a7c0: 04 67 eb 48 08 27 9c 67 6e 09 04 f4 03 24 d4 9b [.g.H.'.gn....$..]
  | | |         a7d0: b2 11 a4 e3 1c 85 1c 73 9e f4 00 e8 f3 9d dd 32 [.......s.......2]
  | | |         a7e0: 38 ff 00 3f 8d 3d 98 10 79 07 07 b5 00 42 e5 4e [8..?.=..y....B.N]
  | | |         a7f0: 1d 98 82 0f 41 de a7 ca 86 52 a3 8c d0 02 b8 c3 [....A....R......]
  | | |         a800: 1e 9c 1c 52 bf 30 f2 78 a6 23 98 f0 87 88 b4 7d [...R.0.x.#.....}]
  | | |         a810: 7d ef 53 46 2c a6 c6 73 6f 70 a6 2d 9b 64 19 ce [}.SF,..sop.-.d..]
  | | |         a820: 0f 7e 87 9a df f2 19 58 64 0c 11 cf e7 4e d6 d0 [.~.....Xd....N..]
  | | |         a830: 64 65 f6 a1 5e 72 0f f5 a9 62 72 c4 00 d8 03 1d [de..^r...br.....]
  | | |         a840: 07 5a 00 01 09 27 20 f1 44 87 2c a0 9e 99 eb 40 [.Z...' .D.,....@]
  | | |         a850: 16 1e 40 a9 82 41 e0 71 50 2d c0 23 81 f7 46 32 [..@..A.qP-.#..F2]
  | | |         a860: 68 01 20 ba dc 8d ce 70 4e 73 4a d2 e6 72 00 3c [h. ....pNsJ..r.<]
  | | |         a870: 0e a2 90 58 89 81 47 57 76 1f 30 c8 53 fe 15 1c [...X..GWv.0.S...]
  | | |         a880: 7b c8 da 83 60 27 f1 c5 21 8e 48 f6 c6 c5 06 49 [{...`'..!.H....I]
  | | |         a890: 3d 4f 7a 97 6b 39 4c ae 3e 5e 9f 8d 31 16 56 25 [=Oz.k9L.>^..1.V%]
  | | |         a8a0: 00 06 38 cf 52 69 a1 57 20 2a 93 ee 45 02 2b ca [..8.Ri.W *..E.+.]
  | | |         a8b0: c3 cc e0 13 cf ad 4b f3 b1 1b 53 f1 34 86 06 29 [......K...S.4..)]
  | | |         a8c0: 5d 9b 2c 47 cd 9f 97 03 fc 69 a6 dc 6e 05 c0 7c [].,G.....i..n..|]
  | | |         a8d0: 1f e2 cb 63 f3 e9 4e c0 73 3e 07 f0 bd 87 86 5a [...c..N.s>.....Z]
  | | |         a8e0: f9 2c e5 9e 59 2f 67 37 17 12 cc 47 cc e4 76 0a [.,..Y/g7...G..v.]
  | | |         a8f0: 00 15 d3 36 e1 20 03 b0 e4 fe 34 5d bd 58 da 4b [...6. ....4].X.K]
  | | |         a900: 61 aa 10 36 3a fa f3 4b e6 2e 4a 80 3f 0a 62 2a [a..6:..K..J.?.b*]
  | | |         a910: 4d 3a 09 c0 2f c3 1e fd aa 44 99 64 b9 60 1b ee [M:../....D.d.`..]
  | | |         a920: 9c fd 29 00 af 70 92 3c 8b 13 2b 15 61 90 a7 24 [..)..p.<..+.a..$]
  | | |         a930: 71 91 9f 4e 0e 6a 28 51 96 52 c5 78 66 c1 3e d4 [q..N.j(Q.R.xf.>.]
  | | |         a940: 31 a1 57 6c 72 36 3e 6d c7 38 fa fb d3 b6 9f 30 [1.Wlr6>m.8.....0]
  | | |         a950: 31 91 54 11 9c 27 26 80 1e 5d 03 87 31 92 71 f8 [1.T..'&..]..1.q.]
  | | |         a960: d4 a7 cd 88 6f 96 15 89 54 1e 65 90 2e 3e bd e8 [....o...T.e..>..]
  | | |         a970: 16 c5 d8 f4 fb 99 36 2f 99 6e bb 86 72 09 6e 3f [......6/.n..r.n?]
  | | |         a980: 2c 55 1b 9d 42 c2 d9 f6 5d 6a 36 f0 91 f2 90 f2 [,U..B...]j6.....]
  | | |         a990: 2a f7 fa d5 58 95 24 cc f9 7c 69 e1 58 1b 23 54 [*...X.$..|i.X.#T]
  | | |         a9a0: 59 54 12 0b c2 a5 c0 23 a8 24 77 e4 7e 75 95 2f [YT.....#.$w.~u./]
  | | |         a9b0: c4 bf 02 ba 99 0e bd 0c 78 93 ca 09 2a b2 92 dd [........x...*...]
  | | |         a9c0: 3f 88 53 8c 1c 93 68 4e 56 7a 9b d6 5a b4 17 90 [?.S...hNVz..Z...]
  | | |         a9d0: 2c d6 56 b3 5c c6 c0 15 91 19 02 b0 fa ee a9 2f [,.V.\........../]
  | | |         a9e0: 75 1b 8b 6d 32 5b b7 b2 8d 5c 30 54 8d a7 e1 be [u..m2[...\0T....]
  | | |         a9f0: 56 63 92 17 8f bb ef 59 f3 79 16 d1 1f 86 a5 d5 [Vc.....Y.y......]
  | | |         aa00: b5 cd 16 db 52 33 59 59 2c ea 58 46 90 b4 ac bc [....R3YY,.XF....]
  | | |         aa10: 91 f7 99 f0 7a 7a 56 a7 f6 3c cc 73 36 af 7a 7f [....zzV..<.s6.z.]
  | | |         aa20: d9 89 63 8c 7e 8b 9f d6 a8 86 cc 50 4c 72 16 47 [..c.~......PLr.G]
  | | |         aa30: c1 61 c0 3d 38 ac c8 7c 43 03 ea 2d 6d 73 2a 46 [.a.=8..|C..-ms*F]
  | | |         aa40: 42 8e 4b 00 33 9a 12 b9 a3 2c 6a ba ac 36 70 99 [B.K.3....,j..6p.]
  | | |         aa50: 79 2a 31 86 03 ad 53 d1 f5 f8 af 27 28 8a 73 9e [y*1...S....'(.s.]
  | | |         aa60: 37 10 33 fa d3 51 6d 5d 09 d9 3b 33 07 c7 9a dc [7.3..Qm]..;3....]
  | | |         aa70: b6 2a 1a 01 18 20 f4 2c 4d 65 f8 13 c5 92 5f dd [.*... .,Me...._.]
  | | |         aa80: b2 5c c8 a4 b1 da 54 7e 55 b4 68 b9 53 72 33 75 [.\....T~U.h.Sr3u]
  | | |         aa90: 14 66 a2 7a 56 89 61 05 9d 87 d9 d6 e4 b6 5d a4 [.f.zV.a.......].]
  | | |         aaa0: 2e c1 53 39 f5 c7 f3 ab 2d 15 b9 5e 26 89 8f a9 [..S9....-..^&...]
  | | |         aab0: 94 1a e7 48 d5 c8 96 de 1b 67 d3 da fd 2e 20 30 [...H.....g.... 0]
  | | |         aac0: ed de 5a 30 49 60 3d 06 39 aa d6 3a 84 17 77 26 [..Z0I`=.9..:..w&]
  | | |         aad0: 08 2d ef b2 17 73 49 25 be c5 c7 b9 27 3f a5 3b [.-...sI%....'?.;]
  | | |         aae0: 24 4f 33 7b 16 1d 1b 00 60 75 c7 bf 5a a7 a1 c5 [$O3{....`u..Z...]
  | | |         aaf0: 79 ff 00 08 05 a4 42 da 4d cb 60 54 8d 87 39 d8 [y.....B.M.`T..9.]
  | | |         ab00: 6a 5d fa 0f 4e a7 45 69 2b 2d 95 b1 7d aa e2 24 [j]..N.Ei+-..}..$]
  | | |         ab10: dd b9 80 c1 da 33 d6 be 7a f1 bb d9 27 8e b5 20 [.....3..z...'.. ]
  | | |         ab20: e2 77 26 ec e7 6b 00 39 3d b8 35 a4 0c e2 b5 67 [.w&..k.9=.5....g]
  | | |         ab30: 37 77 34 d1 e9 0e 1a ce 5b 43 e7 38 02 42 4e f1 [7w4.....[C.8.BN.]
  | | |         ab40: b5 06 e0 70 3f 4a f2 fd 6d db c9 4c e7 99 f3 5d [...p?J..m..L...]]
  | | |         ab50: 78 5f 85 fa 19 62 3e 24 7d 55 f0 62 6f f8 a5 ed [x_...b>$}U.bo...]
  | | |         ab60: f2 7a 5b c2 3f f1 da e9 fc 51 32 9d 26 30 7a 1b [.z[.?....Q2.&0z.]
  | | |         ab70: 95 07 1e f1 c9 5c 13 7e fb f9 9d 0b e1 45 ff 00 [.....\.~.....E..]
  | | |         ab80: 87 0e 9f f0 85 e9 82 37 dc be 51 c1 e9 fc 46 ba [.......7..Q...F.]
  | | |         ab90: 26 6c 1d a7 af a5 53 64 5b 53 c5 bc 6b f1 07 40 [&l....Sd[S..k..@]
  | | |         aba0: d3 ac 55 7e d2 67 95 b2 36 a6 ee 3e a0 0f ad 79 [..U~.g..6..>...y]
  | | |         abb0: 45 8f 8c 22 5d 5d 2e e3 49 0f 99 26 0c 8d 80 10 [E.."]]..I..&....]
  | | |         abc0: 7d 49 ae bc 35 35 66 df 52 2b cd e8 91 bf f1 1f [}I..55f.R+......]
  | | |         abd0: c7 db bc 3c 6e 2d 48 90 c6 bb 8a 86 e1 87 d6 bc [...<n-H.........]
  | | |         abe0: ff 00 c3 bf 12 75 8b 7d 4c 79 16 f6 c1 48 07 32 [.....u.}Ly...H.2]
  | | |         [snip 4425 bytes]
  | | | 1)  SpecialMode = 0 0 0
  | | |     - Tag 0x0200 (12 bytes, int32u[3]):
  | | |         1f20: 00 00 00 00 00 00 00 00 00 00 00 00             [............]
  | | | 2)  CameraID = OLYMPUS DIGITAL CAMERA         
  | | |     - Tag 0x0209 (32 bytes, undef[32] read as string[32]):
  | | |         1f2c: 4f 4c 59 4d 50 55 53 20 44 49 47 49 54 41 4c 20 [OLYMPUS DIGITAL ]
  | | |         1f3c: 43 41 4d 45 52 41 20 20 20 20 20 20 20 20 20 00 [CAMERA         .]
  | | | 3)  EquipmentIFD (SubDirectory) -->
  | | |     - Tag 0x2010 (4 bytes, ifd[1]):
  | | |         0c9e: 72 00 00 00                                     [r...]
  | | | + [MakerNotes directory with 11 entries, Little-endian]
  | | | | 0)  EquipmentVersion = 0100
  | | | |     - Tag 0x0000 (4 bytes, undef[4]):
  | | | |         0ce0: 30 31 30 30                                     [0100]
  | | | | 1)  CameraType2 = D4401
  | | | |     - Tag 0x0100 (6 bytes, string[6]):
  | | | |         1f50: 44 34 34 30 31 00                               [D4401.]
  | | | | 2)  SerialNumber = AAM516822                      
  | | | |     - Tag 0x0101 (32 bytes, string[32]):
  | | | |         1f56: 41 41 4d 35 31 36 38 32 32 20 20 20 20 20 20 20 [AAM516822       ]
  | | | |         1f66: 20 20 20 20 20 20 20 20 20 20 20 20 20 20 20 00 [               .]
  | | | | 3)  InternalSerialNumber = 0237108010735001               
  | | | |     - Tag 0x0102 (32 bytes, string[32]):
  | | | |         1f76: 30 32 33 37 31 30 38 30 31 30 37 33 35 30 30 31 [0237108010735001]
  | | | |         1f86: 20 20 20 20 20 20 20 20 20 20 20 20 20 20 20 00 [               .]
  | | | | 4)  FocalPlaneDiagonal = 9.25 (925/100)
  | | | |     - Tag 0x0103 (8 bytes, rational64u[1]):
  | | | |         1f98: 9d 03 00 00 64 00 00 00                         [....d...]
  | | | | 5)  BodyFirmwareVersion = 5121
  | | | |     - Tag 0x0104 (4 bytes, int32u[1]):
  | | | |         0d1c: 01 14 00 00                                     [....]
  | | | | 6)  ConversionLens = 
  | | | |     - Tag 0x0403 (32 bytes, string[32]):
  | | | |         2054: 00 00 00 00 00 00 00 00 00 00 00 00 00 00 00 00 [................]
  | | | |         2064: 00 00 00 00 00 00 00 00 00 00 00 00 00 00 00 00 [................]
  | | | | 7)  FlashType = 0
  | | | |     - Tag 0x1000 (2 bytes, int16u[1]):
  | | | |         0d34: 00 00                                           [..]
  | | | | 8)  FlashModel = 0
  | | | |     - Tag 0x1001 (2 bytes, int16u[1]):
  | | | |         0d40: 00 00                                           [..]
  | | | | 9)  FlashFirmwareVersion = 0
  | | | |     - Tag 0x1002 (4 bytes, int32u[1]):
  | | | |         0d4c: 00 00 00 00                                     [....]
  | | | | 10) FlashSerialNumber = 
  | | | |     - Tag 0x1003 (32 bytes, string[32]):
  | | | |         207c: 00 00 00 00 00 00 00 00 00 00 00 00 00 00 00 00 [................]
  | | | |         208c: 00 00 00 00 00 00 00 00 00 00 00 00 00 00 00 00 [................]
  | | | 4)  CameraSettingsIFD (SubDirectory) -->
  | | |     - Tag 0x2020 (4 bytes, ifd[1]):
  | | |         0caa: fc 00 00 00                                     [....]
  | | | + [MakerNotes directory with 61 entries, Little-endian]
  | | | | 0)  CameraSettingsVersion = 0100
  | | | |     - Tag 0x0000 (4 bytes, undef[4]):
  | | | |         0d6a: 30 31 30 30                                     [0100]
  | | | | 1)  PreviewImageValid = 1
  | | | |     - Tag 0x0100 (4 bytes, int32u[1]):
  | | | |         0d76: 01 00 00 00                                     [....]
  | | | | 2)  PreviewImageStart = 49052
  | | | |     - Tag 0x0101 (4 bytes, int32u[1]):
  | | | |         0d82: 9c bf 00 00                                     [....]
  | | | | 3)  PreviewImageLength = 1065045
  | | | |     - Tag 0x0102 (4 bytes, int32u[1]):
  | | | |         0d8e: 55 40 10 00                                     [U@..]
  | | | | 4)  ExposureMode = 2
  | | | |     - Tag 0x0200 (2 bytes, int16u[1]):
  | | | |         0d9a: 02 00                                           [..]
  | | | | 5)  AELock = 0
  | | | |     - Tag 0x0201 (2 bytes, int16u[1]):
  | | | |         0da6: 00 00                                           [..]
  | | | | 6)  MeteringMode = 2
  | | | |     - Tag 0x0202 (2 bytes, int16u[1]):
  | | | |         0db2: 02 00                                           [..]
  | | | | 7)  ExposureShift = undef (0/0)
  | | | |     - Tag 0x0203 (8 bytes, rational64s[1]):
  | | | |         20b4: 00 00 00 00 00 00 00 00                         [........]
  | | | | 8)  NDFilter = 0
  | | | |     - Tag 0x0204 (1 bytes, int8u[1]):
  | | | |         0dca: 00                                              [.]
  | | | | 9)  MacroMode = 1
  | | | |     - Tag 0x0300 (2 bytes, int16u[1]):
  | | | |         0dd6: 01 00                                           [..]
  | | | | 10) FocusMode = 0 0
  | | | |     - Tag 0x0301 (4 bytes, int16u[2]):
  | | | |         0de2: 00 00 00 00                                     [....]
  | | | | 11) FocusProcess = 0 0
  | | | |     - Tag 0x0302 (4 bytes, int16u[2]):
  | | | |         0dee: 00 00 00 00                                     [....]
  | | | | 12) AFSearch = 0
  | | | |     - Tag 0x0303 (2 bytes, int16u[1]):
  | | | |         0dfa: 00 00                                           [..]
  | | | | 13) AFAreas = 0 0 0 0 0 0 0 0 0 0 0 0 0 0 0 0 0 0 0 0 0 0 0 0 0 0 0 0 0 0 0 0 0 0 0 0 0 0 0 0 0 0 0 0 0 0 0 0 0 0 0 0 0 0 0 0 0 0 0 0 0 0 0 0
  | | | |     - Tag 0x0304 (256 bytes, int32u[64]):
  | | | |         20cc: 00 00 00 00 00 00 00 00 00 00 00 00 00 00 00 00 [................]
  | | | |         20dc: 00 00 00 00 00 00 00 00 00 00 00 00 00 00 00 00 [................]
  | | | |         20ec: 00 00 00 00 00 00 00 00 00 00 00 00 00 00 00 00 [................]
  | | | |         20fc: 00 00 00 00 00 00 00 00 00 00 00 00 00 00 00 00 [................]
  | | | |         210c: 00 00 00 00 00 00 00 00 00 00 00 00 00 00 00 00 [................]
  | | | |         211c: 00 00 00 00 00 00 00 00 00 00 00 00 00 00 00 00 [................]
  | | | |         212c: 00 00 00 00 00 00 00 00 00 00 00 00 00 00 00 00 [................]
  | | | |         213c: 00 00 00 00 00 00 00 00 00 00 00 00 00 00 00 00 [................]
  | | | |         214c: 00 00 00 00 00 00 00 00 00 00 00 00 00 00 00 00 [................]
  | | | |         215c: 00 00 00 00 00 00 00 00 00 00 00 00 00 00 00 00 [................]
  | | | |         216c: 00 00 00 00 00 00 00 00 00 00 00 00 00 00 00 00 [................]
  | | | |         217c: 00 00 00 00 00 00 00 00 00 00 00 00 00 00 00 00 [................]
  | | | |         218c: 00 00 00 00 00 00 00 00 00 00 00 00 00 00 00 00 [................]
  | | | |         219c: 00 00 00 00 00 00 00 00 00 00 00 00 00 00 00 00 [................]
  | | | |         21ac: 00 00 00 00 00 00 00 00 00 00 00 00 00 00 00 00 [................]
  | | | |         21bc: 00 00 00 00 00 00 00 00 00 00 00 00 00 00 00 00 [................]
  | | | | 14) AFPointSelected = undef undef undef undef undef (0/0 0/0 0/0 0/0 0/0)
  | | | |     - Tag 0x0305 (40 bytes, rational64s[5]):
  | | | |         21cc: 00 00 00 00 00 00 00 00 00 00 00 00 00 00 00 00 [................]
  | | | |         21dc: 00 00 00 00 00 00 00 00 00 00 00 00 00 00 00 00 [................]
  | | | |         21ec: 00 00 00 00 00 00 00 00                         [........]
  | | | | 15) AFFineTune = 0
  | | | |     - Tag 0x0306 (1 bytes, int8u[1]):
  | | | |         0e1e: 00                                              [.]
  | | | | 16) AFFineTuneAdj = 0 0 0
  | | | |     - Tag 0x0307 (6 bytes, int16s[3]):
  | | | |         21f6: 00 00 00 00 00 00                               [......]
  | | | | 17) FlashMode = 40
  | | | |     - Tag 0x0400 (2 bytes, int16u[1]):
  | | | |         0e36: 28 00                                           [(.]
  | | | | 18) FlashExposureComp = -2 (-512/256)
  | | | |     - Tag 0x0401 (8 bytes, rational64s[1]):
  | | | |         2200: 00 fe ff ff 00 01 00 00                         [........]
  | | | | 19) Olympus_CameraSettings_0x0402 = 0
  | | | |     - Tag 0x0402 (2 bytes, int16u[1]):
  | | | |         0e4e: 00 00                                           [..]
  | | | | 20) FlashRemoteControl = 0
  | | | |     - Tag 0x0403 (2 bytes, int16u[1]):
  | | | |         0e5a: 00 00                                           [..]
  | | | | 21) FlashControlMode = 0 0 0
  | | | |     - Tag 0x0404 (6 bytes, int16u[3]):
  | | | |         220c: 00 00 00 00 00 00                               [......]
  | | | | 22) FlashIntensity = undef undef undef (0/0 0/0 0/0)
  | | | |     - Tag 0x0405 (24 bytes, rational64s[3]):
  | | | |         2214: 00 00 00 00 00 00 00 00 00 00 00 00 00 00 00 00 [................]
  | | | |         2224: 00 00 00 00 00 00 00 00                         [........]
  | | | | 23) ManualFlashStrength = undef undef undef (0/0 0/0 0/0)
  | | | |     - Tag 0x0406 (24 bytes, rational64s[3]):
  | | | |         222c: 00 00 00 00 00 00 00 00 00 00 00 00 00 00 00 00 [................]
  | | | |         223c: 00 00 00 00 00 00 00 00                         [........]
  | | | | 24) WhiteBalance2 = 0
  | | | |     - Tag 0x0500 (2 bytes, int16u[1]):
  | | | |         0e8a: 00 00                                           [..]
  | | | | 25) WhiteBalanceTemperature = 0
  | | | |     - Tag 0x0501 (2 bytes, int16u[1]):
  | | | |         0e96: 00 00                                           [..]
  | | | | 26) WhiteBalanceBracket = 1 0
  | | | |     - Tag 0x0502 (4 bytes, int16s[2]):
  | | | |         0ea2: 01 00 00 00                                     [....]
  | | | | 27) CustomSaturation = 0 -5 5
  | | | |     - Tag 0x0503 (6 bytes, int16s[3]):
  | | | |         224c: 00 00 fb ff 05 00                               [......]
  | | | | 28) ModifiedSaturation = 0
  | | | |     - Tag 0x0504 (2 bytes, int16u[1]):
  | | | |         0eba: 00 00                                           [..]
  | | | | 29) ContrastSetting = 0 -5 5
  | | | |     - Tag 0x0505 (6 bytes, int16s[3]):
  | | | |         2254: 00 00 fb ff 05 00                               [......]
  | | | | 30) SharpnessSetting = 0 -5 5
  | | | |     - Tag 0x0506 (6 bytes, int16s[3]):
  | | | |         225a: 00 00 fb ff 05 00                               [......]
  | | | | 31) ColorSpace = 0
  | | | |     - Tag 0x0507 (2 bytes, int16u[1]):
  | | | |         0ede: 00 00                                           [..]
  | | | | 32) Olympus_CameraSettings_0x0508 = 0
  | | | |     - Tag 0x0508 (2 bytes, int16u[1]):
  | | | |         0eea: 00 00                                           [..]
  | | | | 33) SceneMode = 0
  | | | |     - Tag 0x0509 (2 bytes, int16u[1]):
  | | | |         0ef6: 00 00                                           [..]
  | | | | 34) NoiseReduction = 1
  | | | |     - Tag 0x050a (2 bytes, int16u[1]):
  | | | |         0f02: 01 00                                           [..]
  | | | | 35) DistortionCorrection = 0
  | | | |     - Tag 0x050b (2 bytes, int16u[1]):
  | | | |         0f0e: 00 00                                           [..]
  | | | | 36) ShadingCompensation = 0
  | | | |     - Tag 0x050c (2 bytes, int16u[1]):
  | | | |         0f1a: 00 00                                           [..]
  | | | | 37) Olympus_CameraSettings_0x050e = 0
  | | | |     - Tag 0x050e (2 bytes, int16u[1]):
  | | | |         0f26: 00 00                                           [..]
  | | | | 38) Gradation = 0 -1 1 0
  | | | |     - Tag 0x050f (8 bytes, int16s[4]):
  | | | |         2276: 00 00 ff ff 01 00 00 00                         [........]
  | | | | 39) PictureMode = 2 2
  | | | |     - Tag 0x0520 (4 bytes, int16u[2]):
  | | | |         0f3e: 02 00 02 00                                     [....]
  | | | | 40) PictureModeSaturation = 0 -2 2
  | | | |     - Tag 0x0521 (6 bytes, int16s[3]):
  | | | |         22c8: 00 00 fe ff 02 00                               [......]
  | | | | 41) PictureModeHue = 0
  | | | |     - Tag 0x0522 (2 bytes, int16u[1]):
  | | | |         0f56: 00 00                                           [..]
  | | | | 42) PictureModeContrast = 0 -2 2
  | | | |     - Tag 0x0523 (6 bytes, int16s[3]):
  | | | |         22d0: 00 00 fe ff 02 00                               [......]
  | | | | 43) PictureModeSharpness = 0 -2 2
  | | | |     - Tag 0x0524 (6 bytes, int16s[3]):
  | | | |         22d6: 00 00 fe ff 02 00                               [......]
  | | | | 44) PictureModeBWFilter = 0
  | | | |     - Tag 0x0525 (2 bytes, int16s[1]):
  | | | |         0f7a: 00 00                                           [..]
  | | | | 45) PictureModeTone = 0
  | | | |     - Tag 0x0526 (2 bytes, int16s[1]):
  | | | |         0f86: 00 00                                           [..]
  | | | | 46) NoiseFilter = 0 -2 1
  | | | |     - Tag 0x0527 (6 bytes, int16s[3]):
  | | | |         227e: 00 00 fe ff 01 00                               [......]
  | | | | 47) Olympus_CameraSettings_0x0528 = 0
  | | | |     - Tag 0x0528 (2 bytes, int16u[1]):
  | | | |         0f9e: 00 00                                           [..]
  | | | | 48) ArtFilter = 0 0 0 0
  | | | |     - Tag 0x0529 (8 bytes, int16u[4]):
  | | | |         2286: 00 00 00 00 00 00 00 00                         [........]
  | | | | 49) Olympus_CameraSettings_0x052a = 524595
  | | | |     - Tag 0x052a (4 bytes, int32u[1]):
  | | | |         0fb6: 33 01 08 00                                     [3...]
  | | | | 50) Olympus_CameraSettings_0x052b = 0 4096 5300 0 7500 0 6000 0 3000 1 4000 2 0 4097 5500 3
  | | | |     - Tag 0x052b (32 bytes, int16u[16]):
  | | | |         2294: 00 00 00 10 b4 14 00 00 4c 1d 00 00 70 17 00 00 [........L...p...]
  | | | |         22a4: b8 0b 01 00 a0 0f 02 00 00 00 01 10 7c 15 03 00 [............|...]
  | | | | 51) ToneLevel = -31999 0 -7 7 -31998 0 -7 7 0 0 0 0
  | | | |     - Tag 0x052e (24 bytes, int16s[12]):
  | | | |         22e0: 01 83 00 00 f9 ff 07 00 02 83 00 00 f9 ff 07 00 [................]
  | | | |         22f0: 00 00 00 00 00 00 00 00                         [........]
  | | | | 52) ArtFilterEffect = 0 0 0 0 0 0 0 0 0 0 0 0 0 0 0 0 0 0 0 0
  | | | |     - Tag 0x052f (40 bytes, int16u[20]):
  | | | |         22f8: 00 00 00 00 00 00 00 00 00 00 00 00 00 00 00 00 [................]
  | | | |         2308: 00 00 00 00 00 00 00 00 00 00 00 00 00 00 00 00 [................]
  | | | |         2318: 00 00 00 00 00 00 00 00                         [........]
  | | | | 53) Olympus_CameraSettings_0x0530 = 0 0 0 0 0 0 0 0 0 0 0 0 0 0 0 0 0 0 0 0 0 0 0 0 0 0 0 0 0 0 0 0
  | | | |     - Tag 0x0530 (64 bytes, int16u[32]):
  | | | |         2320: 00 00 00 00 00 00 00 00 00 00 00 00 00 00 00 00 [................]
  | | | |         2330: 00 00 00 00 00 00 00 00 00 00 00 00 00 00 00 00 [................]
  | | | |         2340: 00 00 00 00 00 00 00 00 00 00 00 00 00 00 00 00 [................]
  | | | |         2350: 00 00 00 00 00 00 00 00 00 00 00 00 00 00 00 00 [................]
  | | | | 54) DriveMode = 0 0 0
  | | | |     - Tag 0x0600 (6 bytes, int16u[3]):
  | | | |         2360: 00 00 00 00 00 00                               [......]
  | | | | 55) PanoramaMode = 0 0
  | | | |     - Tag 0x0601 (4 bytes, int16u[2]):
  | | | |         0ffe: 00 00 00 00                                     [....]
  | | | | 56) ImageStabilization = 1
  | | | |     - Tag 0x0604 (4 bytes, int32u[1]):
  | | | |         100a: 01 00 00 00                                     [....]
  | | | | 57) Olympus_CameraSettings_0x0800 = 1
  | | | |     - Tag 0x0800 (2 bytes, int16u[1]):
  | | | |         1016: 01 00                                           [..]
  | | | | 58) ManometerPressure = 0
  | | | |     - Tag 0x0900 (2 bytes, int16u[1]):
  | | | |         1022: 00 00                                           [..]
  | | | | 59) ManometerReading = 0 0
  | | | |     - Tag 0x0901 (8 bytes, int32s[2]):
  | | | |         23f8: 00 00 00 00 00 00 00 00                         [........]
  | | | | 60) ExtendedWBDetect = 0
  | | | |     - Tag 0x0902 (2 bytes, int16u[1]):
  | | | |         103a: 00 00                                           [..]
  | | | 5)  RawDevelopmentIFD (SubDirectory) -->
  | | |     - Tag 0x2030 (4 bytes, ifd[1]):
  | | |         0cb6: de 03 00 00                                     [....]
  | | | + [MakerNotes directory with 14 entries, Little-endian]
  | | | | 0)  RawDevVersion = 0100
  | | | |     - Tag 0x0000 (4 bytes, undef[4]):
  | | | |         104c: 30 31 30 30                                     [0100]
  | | | | 1)  RawDevExposureBiasValue = 0 (0/1)
  | | | |     - Tag 0x0100 (8 bytes, rational64s[1]):
  | | | |         2410: 00 00 00 00 01 00 00 00                         [........]
  | | | | 2)  RawDevWhiteBalanceValue = 0
  | | | |     - Tag 0x0101 (2 bytes, int16u[1]):
  | | | |         1064: 00 00                                           [..]
  | | | | 3)  RawDevWBFineAdjustment = 0
  | | | |     - Tag 0x0102 (2 bytes, int16s[1]):
  | | | |         1070: 00 00                                           [..]
  | | | | 4)  RawDevGrayPoint = 0 0 0
  | | | |     - Tag 0x0103 (6 bytes, int16u[3]):
  | | | |         241c: 00 00 00 00 00 00                               [......]
  | | | | 5)  RawDevSaturationEmphasis = 0 0 0
  | | | |     - Tag 0x0104 (6 bytes, int16s[3]):
  | | | |         2422: 00 00 00 00 00 00                               [......]
  | | | | 6)  RawDevMemoryColorEmphasis = 0
  | | | |     - Tag 0x0105 (2 bytes, int16u[1]):
  | | | |         1094: 00 00                                           [..]
  | | | | 7)  RawDevContrastValue = 0 0 0
  | | | |     - Tag 0x0106 (6 bytes, int16s[3]):
  | | | |         242a: 00 00 00 00 00 00                               [......]
  | | | | 8)  RawDevSharpnessValue = 0 0 0
  | | | |     - Tag 0x0107 (6 bytes, int16s[3]):
  | | | |         2430: 00 00 00 00 00 00                               [......]
  | | | | 9)  RawDevColorSpace = 0
  | | | |     - Tag 0x0108 (2 bytes, int16u[1]):
  | | | |         10b8: 00 00                                           [..]
  | | | | 10) RawDevEngine = 0
  | | | |     - Tag 0x0109 (2 bytes, int16u[1]):
  | | | |         10c4: 00 00                                           [..]
  | | | | 11) RawDevNoiseReduction = 0
  | | | |     - Tag 0x010a (2 bytes, int16u[1]):
  | | | |         10d0: 00 00                                           [..]
  | | | | 12) RawDevEditStatus = 0
  | | | |     - Tag 0x010b (2 bytes, int16u[1]):
  | | | |         10dc: 00 00                                           [..]
  | | | | 13) RawDevSettings = 0
  | | | |     - Tag 0x010c (2 bytes, int16u[1]):
  | | | |         10e8: 00 00                                           [..]
  | | | 6)  ImageProcessingIFD (SubDirectory) -->
  | | |     - Tag 0x2040 (4 bytes, ifd[1]):
  | | |         0cc2: 8c 04 00 00                                     [....]
  | | | + [MakerNotes directory with 219 entries, Little-endian]
  | | | | 0)  ImageProcessingVersion = 0112
  | | | |     - Tag 0x0000 (4 bytes, undef[4]):
  | | | |         10fa: 30 31 31 32                                     [0112]
  | | | | 1)  WB_RBLevels = 510 474 256 256
  | | | |     - Tag 0x0100 (8 bytes, int16u[4]):
  | | | |         2442: fe 01 da 01 00 01 00 01                         [........]
  | | | | 2)  Olympus_ImageProcessing_0x0101 = 500 484 256 256
  | | | |     - Tag 0x0101 (8 bytes, int16u[4]):
  | | | |         244a: f4 01 e4 01 00 01 00 01                         [........]
  | | | | 3)  WB_RBLevels3000K = 316 796 256 256
  | | | |     - Tag 0x0102 (8 bytes, int16u[4]):
  | | | |         2452: 3c 01 1c 03 00 01 00 01                         [<.......]
  | | | | 4)  WB_RBLevels3300K = 378 668 256 256
  | | | |     - Tag 0x0103 (8 bytes, int16u[4]):
  | | | |         245a: 7a 01 9c 02 00 01 00 01                         [z.......]
  | | | | 5)  WB_RBLevels3600K = 408 606 256 256
  | | | |     - Tag 0x0104 (8 bytes, int16u[4]):
  | | | |         2462: 98 01 5e 02 00 01 00 01                         [..^.....]
  | | | | 6)  WB_RBLevels3900K = 432 574 256 256
  | | | |     - Tag 0x0105 (8 bytes, int16u[4]):
  | | | |         246a: b0 01 3e 02 00 01 00 01                         [..>.....]
  | | | | 7)  WB_RBLevels4000K = 490 648 256 256
  | | | |     - Tag 0x0106 (8 bytes, int16u[4]):
  | | | |         2472: ea 01 88 02 00 01 00 01                         [........]
  | | | | 8)  WB_RBLevels4300K = 460 538 256 256
  | | | |     - Tag 0x0107 (8 bytes, int16u[4]):
  | | | |         247a: cc 01 1a 02 00 01 00 01                         [........]
  | | | | 9)  WB_RBLevels4500K = 482 516 256 256
  | | | |     - Tag 0x0108 (8 bytes, int16u[4]):
  | | | |         2482: e2 01 04 02 00 01 00 01                         [........]
  | | | | 10) WB_RBLevels4800K = 488 500 256 256
  | | | |     - Tag 0x0109 (8 bytes, int16u[4]):
  | | | |         248a: e8 01 f4 01 00 01 00 01                         [........]
  | | | | 11) WB_RBLevels5300K = 512 468 256 256
  | | | |     - Tag 0x010a (8 bytes, int16u[4]):
  | | | |         2492: 00 02 d4 01 00 01 00 01                         [........]
  | | | | 12) WB_RBLevels6000K = 548 434 256 256
  | | | |     - Tag 0x010b (8 bytes, int16u[4]):
  | | | |         249a: 24 02 b2 01 00 01 00 01                         [$.......]
  | | | | 13) WB_RBLevels6600K = 560 430 256 256
  | | | |     - Tag 0x010c (8 bytes, int16u[4]):
  | | | |         24a2: 30 02 ae 01 00 01 00 01                         [0.......]
  | | | | 14) WB_RBLevels7500K = 604 392 256 256
  | | | |     - Tag 0x010d (8 bytes, int16u[4]):
  | | | |         24aa: 5c 02 88 01 00 01 00 01                         [\.......]
  | | | | 15) WB_RBLevelsCWB1 = 712 326 256 256
  | | | |     - Tag 0x010e (8 bytes, int16u[4]):
  | | | |         24b2: c8 02 46 01 00 01 00 01                         [..F.....]
  | | | | 16) WB_RBLevelsCWB2 = 384 384 256 256
  | | | |     - Tag 0x010f (8 bytes, int16u[4]):
  | | | |         24ba: 80 01 80 01 00 01 00 01                         [........]
  | | | | 17) WB_RBLevelsCWB3 = 384 384 256 256
  | | | |     - Tag 0x0110 (8 bytes, int16u[4]):
  | | | |         24c2: 80 01 80 01 00 01 00 01                         [........]
  | | | | 18) WB_RBLevelsCWB4 = 384 384 256 256
  | | | |     - Tag 0x0111 (8 bytes, int16u[4]):
  | | | |         24ca: 80 01 80 01 00 01 00 01                         [........]
  | | | | 19) Olympus_ImageProcessing_0x0120 = 462 520 256 256
  | | | |     - Tag 0x0120 (8 bytes, int16u[4]):
  | | | |         24d2: ce 01 08 02 00 01 00 01                         [........]
  | | | | 20) Olympus_ImageProcessing_0x0121 = 512 468 256 256
  | | | |     - Tag 0x0121 (8 bytes, int16u[4]):
  | | | |         24da: 00 02 d4 01 00 01 00 01                         [........]
  | | | | 21) Olympus_ImageProcessing_0x0122 = 2 100 -2 100 -2 100 -2 100
  | | | |     - Tag 0x0122 (16 bytes, int16s[8]):
  | | | |         24e2: 02 00 64 00 fe ff 64 00 fe ff 64 00 fe ff 64 00 [..d...d...d...d.]
  | | | | 22) Olympus_ImageProcessing_0x0123 = 270 269 270 269 804 804 804 804
  | | | |     - Tag 0x0123 (16 bytes, int16u[8]):
  | | | |         24f2: 0e 01 0d 01 0e 01 0d 01 24 03 24 03 24 03 24 03 [........$.$.$.$.]
  | | | | 23) Olympus_ImageProcessing_0x0124 = 49140
  | | | |     - Tag 0x0124 (2 bytes, int16u[1]):
  | | | |         120e: f4 bf                                           [..]
  | | | | 24) Olympus_ImageProcessing_0x0125 = 500 484 256 256
  | | | |     - Tag 0x0125 (8 bytes, int16u[4]):
  | | | |         2504: f4 01 e4 01 00 01 00 01                         [........]
  | | | | 25) ColorMatrix = 536 -312 32 -72 412 -84 6 -164 414
  | | | |     - Tag 0x0200 (18 bytes, int16u[9] read as int16s[9]):
  | | | |         250e: 18 02 c8 fe 20 00 b8 ff 9c 01 ac ff 06 00 5c ff [.... .........\.]
  | | | |         251e: 9e 01                                           [..]
  | | | | 26) Olympus_ImageProcessing_0x0201 = 0 0 0 0 0 0 0 0 0
  | | | |     - Tag 0x0201 (18 bytes, int16u[9]):
  | | | |         2520: 00 00 00 00 00 00 00 00 00 00 00 00 00 00 00 00 [................]
  | | | |         2530: 00 00                                           [..]
  | | | | 27) Olympus_ImageProcessing_0x0202 = 0 0 0 0 0 0 0 0 0
  | | | |     - Tag 0x0202 (18 bytes, int16u[9]):
  | | | |         2532: 00 00 00 00 00 00 00 00 00 00 00 00 00 00 00 00 [................]
  | | | |         2542: 00 00                                           [..]
  | | | | 28) Olympus_ImageProcessing_0x0203 = 0 0 0 0 0 0 0 0 0
  | | | |     - Tag 0x0203 (18 bytes, int16u[9]):
  | | | |         2544: 00 00 00 00 00 00 00 00 00 00 00 00 00 00 00 00 [................]
  | | | |         2554: 00 00                                           [..]
  | | | | 29) Olympus_ImageProcessing_0x0204 = 0 0 0 0 0 0 0 0 0
  | | | |     - Tag 0x0204 (18 bytes, int16u[9]):
  | | | |         2556: 00 00 00 00 00 00 00 00 00 00 00 00 00 00 00 00 [................]
  | | | |         2566: 00 00                                           [..]
  | | | | 30) Olympus_ImageProcessing_0x0205 = 0 0 0 0 0 0 0 0 0
  | | | |     - Tag 0x0205 (18 bytes, int16u[9]):
  | | | |         2568: 00 00 00 00 00 00 00 00 00 00 00 00 00 00 00 00 [................]
  | | | |         2578: 00 00                                           [..]
  | | | | 31) Olympus_ImageProcessing_0x0206 = 0 0 0 0 0 0 0 0 0
  | | | |     - Tag 0x0206 (18 bytes, int16u[9]):
  | | | |         257a: 00 00 00 00 00 00 00 00 00 00 00 00 00 00 00 00 [................]
  | | | |         258a: 00 00                                           [..]
  | | | | 32) Olympus_ImageProcessing_0x0207 = 0 0 0 0 0 0 0 0 0
  | | | |     - Tag 0x0207 (18 bytes, int16u[9]):
  | | | |         258c: 00 00 00 00 00 00 00 00 00 00 00 00 00 00 00 00 [................]
  | | | |         259c: 00 00                                           [..]
  | | | | 33) Olympus_ImageProcessing_0x0208 = 0 0 0 0 0 0 0 0 0
  | | | |     - Tag 0x0208 (18 bytes, int16u[9]):
  | | | |         259e: 00 00 00 00 00 00 00 00 00 00 00 00 00 00 00 00 [................]
  | | | |         25ae: 00 00                                           [..]
  | | | | 34) Olympus_ImageProcessing_0x0209 = 0 0 0 0 0 0 0 0 0
  | | | |     - Tag 0x0209 (18 bytes, int16u[9]):
  | | | |         25b0: 00 00 00 00 00 00 00 00 00 00 00 00 00 00 00 00 [................]
  | | | |         25c0: 00 00                                           [..]
  | | | | 35) Olympus_ImageProcessing_0x020a = 0 0 0 0 0 0 0 0 0
  | | | |     - Tag 0x020a (18 bytes, int16u[9]):
  | | | |         25c2: 00 00 00 00 00 00 00 00 00 00 00 00 00 00 00 00 [................]
  | | | |         25d2: 00 00                                           [..]
  | | | | 36) Olympus_ImageProcessing_0x020b = 0 0 0 0 0 0 0 0 0
  | | | |     - Tag 0x020b (18 bytes, int16u[9]):
  | | | |         25d4: 00 00 00 00 00 00 00 00 00 00 00 00 00 00 00 00 [................]
  | | | |         25e4: 00 00                                           [..]
  | | | | 37) Olympus_ImageProcessing_0x020c = 0 0 0 0 0 0 0 0 0
  | | | |     - Tag 0x020c (18 bytes, int16u[9]):
  | | | |         25e6: 00 00 00 00 00 00 00 00 00 00 00 00 00 00 00 00 [................]
  | | | |         25f6: 00 00                                           [..]
  | | | | 38) Olympus_ImageProcessing_0x020d = 0 0 0 0 0 0 0 0 0
  | | | |     - Tag 0x020d (18 bytes, int16u[9]):
  | | | |         25f8: 00 00 00 00 00 00 00 00 00 00 00 00 00 00 00 00 [................]
  | | | |         2608: 00 00                                           [..]
  | | | | 39) Olympus_ImageProcessing_0x020e = 0 0 0 0 0 0 0 0 0
  | | | |     - Tag 0x020e (18 bytes, int16u[9]):
  | | | |         260a: 00 00 00 00 00 00 00 00 00 00 00 00 00 00 00 00 [................]
  | | | |         261a: 00 00                                           [..]
  | | | | 40) Olympus_ImageProcessing_0x020f = 0 0 0 0 0 0 0 0 0
  | | | |     - Tag 0x020f (18 bytes, int16u[9]):
  | | | |         261c: 00 00 00 00 00 00 00 00 00 00 00 00 00 00 00 00 [................]
  | | | |         262c: 00 00                                           [..]
  | | | | 41) Olympus_ImageProcessing_0x0210 = 0 0 0 0 0 0 0 0 0
  | | | |     - Tag 0x0210 (18 bytes, int16u[9]):
  | | | |         262e: 00 00 00 00 00 00 00 00 00 00 00 00 00 00 00 00 [................]
  | | | |         263e: 00 00                                           [..]
  | | | | 42) Olympus_ImageProcessing_0x0211 = 0 0 0 0 0 0 0 0 0
  | | | |     - Tag 0x0211 (18 bytes, int16u[9]):
  | | | |         2640: 00 00 00 00 00 00 00 00 00 00 00 00 00 00 00 00 [................]
  | | | |         2650: 00 00                                           [..]
  | | | | 43) Olympus_ImageProcessing_0x0212 = 0 0 0 0 0 0 0 0 0
  | | | |     - Tag 0x0212 (18 bytes, int16u[9]):
  | | | |         2652: 00 00 00 00 00 00 00 00 00 00 00 00 00 00 00 00 [................]
  | | | |         2662: 00 00                                           [..]
  | | | | 44) Olympus_ImageProcessing_0x0213 = 0 0 0 0 0 0 0 0 0
  | | | |     - Tag 0x0213 (18 bytes, int16u[9]):
  | | | |         2664: 00 00 00 00 00 00 00 00 00 00 00 00 00 00 00 00 [................]
  | | | |         2674: 00 00                                           [..]
  | | | | 45) Olympus_ImageProcessing_0x0214 = 0 0 0 0 0 0 0 0 0
  | | | |     - Tag 0x0214 (18 bytes, int16u[9]):
  | | | |         2676: 00 00 00 00 00 00 00 00 00 00 00 00 00 00 00 00 [................]
  | | | |         2686: 00 00                                           [..]
  | | | | 46) Olympus_ImageProcessing_0x0215 = 0 0 0 0 0 0 0 0 0
  | | | |     - Tag 0x0215 (18 bytes, int16u[9]):
  | | | |         2688: 00 00 00 00 00 00 00 00 00 00 00 00 00 00 00 00 [................]
  | | | |         2698: 00 00                                           [..]
  | | | | 47) Olympus_ImageProcessing_0x0216 = 0 0 0 0 0 0 0 0 0
  | | | |     - Tag 0x0216 (18 bytes, int16u[9]):
  | | | |         269a: 00 00 00 00 00 00 00 00 00 00 00 00 00 00 00 00 [................]
  | | | |         26aa: 00 00                                           [..]
  | | | | 48) Olympus_ImageProcessing_0x0217 = 0 0 0 0 0 0 0 0 0
  | | | |     - Tag 0x0217 (18 bytes, int16u[9]):
  | | | |         26ac: 00 00 00 00 00 00 00 00 00 00 00 00 00 00 00 00 [................]
  | | | |         26bc: 00 00                                           [..]
  | | | | 49) Olympus_ImageProcessing_0x0218 = 0 0 0 0 0 0 0 0 0
  | | | |     - Tag 0x0218 (18 bytes, int16u[9]):
  | | | |         26be: 00 00 00 00 00 00 00 00 00 00 00 00 00 00 00 00 [................]
  | | | |         26ce: 00 00                                           [..]
  | | | | 50) Olympus_ImageProcessing_0x0219 = 0 0 0 0 0 0 0 0 0
  | | | |     - Tag 0x0219 (18 bytes, int16u[9]):
  | | | |         26d0: 00 00 00 00 00 00 00 00 00 00 00 00 00 00 00 00 [................]
  | | | |         26e0: 00 00                                           [..]
  | | | | 51) Olympus_ImageProcessing_0x021a = 0 0 0 0 0 0 0 0 0
  | | | |     - Tag 0x021a (18 bytes, int16u[9]):
  | | | |         26e2: 00 00 00 00 00 00 00 00 00 00 00 00 00 00 00 00 [................]
  | | | |         26f2: 00 00                                           [..]
  | | | | 52) Olympus_ImageProcessing_0x0228 = 0 0 0 0 0 0 0 0 0
  | | | |     - Tag 0x0228 (18 bytes, int16u[9]):
  | | | |         26f4: 00 00 00 00 00 00 00 00 00 00 00 00 00 00 00 00 [................]
  | | | |         2704: 00 00                                           [..]
  | | | | 53) Olympus_ImageProcessing_0x0229 = 0 0 0 0 0 0 0 0 0
  | | | |     - Tag 0x0229 (18 bytes, int16u[9]):
  | | | |         2706: 00 00 00 00 00 00 00 00 00 00 00 00 00 00 00 00 [................]
  | | | |         2716: 00 00                                           [..]
  | | | | 54) Olympus_ImageProcessing_0x0259 = 0 0 0 0 0 0 0 0 0 0 0 0 0 0 0 0 0 0 0 0 0 0 0 0 0 0 0 0 0 0 0 0 0 0 0 0 0 0 0 0 0 0 0 0 0 0 0 0 0 0 0 0 0 0 0 0 0 0 0 0 0 0 0 0 0 0 0 0 0 0 0 0 0 0 0 0 0 0 0 0 0 0 0 0 0 0 0 0 0 0 0 0 0 0 0 0 0 0 0
  | | | |     - Tag 0x0259 (198 bytes, int16s[99]):
  | | | |         2718: 00 00 00 00 00 00 00 00 00 00 00 00 00 00 00 00 [................]
  | | | |         2728: 00 00 00 00 00 00 00 00 00 00 00 00 00 00 00 00 [................]
  | | | |         2738: 00 00 00 00 00 00 00 00 00 00 00 00 00 00 00 00 [................]
  | | | |         2748: 00 00 00 00 00 00 00 00 00 00 00 00 00 00 00 00 [................]
  | | | |         2758: 00 00 00 00 00 00 00 00 00 00 00 00 00 00 00 00 [................]
  | | | |         2768: 00 00 00 00 00 00 00 00 00 00 00 00 00 00 00 00 [................]
  | | | |         2778: 00 00 00 00 00 00 00 00 00 00 00 00 00 00 00 00 [................]
  | | | |         2788: 00 00 00 00 00 00 00 00 00 00 00 00 00 00 00 00 [................]
  | | | |         2798: 00 00 00 00 00 00 00 00 00 00 00 00 00 00 00 00 [................]
  | | | |         27a8: 00 00 00 00 00 00 00 00 00 00 00 00 00 00 00 00 [................]
  | | | |         27b8: 00 00 00 00 00 00 00 00 00 00 00 00 00 00 00 00 [................]
  | | | |         27c8: 00 00 00 00 00 00 00 00 00 00 00 00 00 00 00 00 [................]
  | | | |         27d8: 00 00 00 00 00 00                               [......]
  | | | | 55) Olympus_ImageProcessing_0x0302 = 256
  | | | |     - Tag 0x0302 (2 bytes, int16u[1]):
  | | | |         138e: 00 01                                           [..]
  | | | | 56) Olympus_ImageProcessing_0x0303 = 0
  | | | |     - Tag 0x0303 (2 bytes, int16u[1]):
  | | | |         139a: 00 00                                           [..]
  | | | | 57) Olympus_ImageProcessing_0x0304 = 0 0 0 0 0 0 0 0 0 0 0
  | | | |     - Tag 0x0304 (22 bytes, int16u[11]):
  | | | |         27e2: 00 00 00 00 00 00 00 00 00 00 00 00 00 00 00 00 [................]
  | | | |         27f2: 00 00 00 00 00 00                               [......]
  | | | | 58) Olympus_ImageProcessing_0x0305 = 0 0 0 0 0
  | | | |     - Tag 0x0305 (10 bytes, int16u[5]):
  | | | |         27fa: 00 00 00 00 00 00 00 00 00 00                   [..........]
  | | | | 59) Olympus_ImageProcessing_0x0312 = 256
  | | | |     - Tag 0x0312 (2 bytes, int16u[1]):
  | | | |         13be: 00 01                                           [..]
  | | | | 60) Olympus_ImageProcessing_0x0313 = 0
  | | | |     - Tag 0x0313 (2 bytes, int16u[1]):
  | | | |         13ca: 00 00                                           [..]
  | | | | 61) Olympus_ImageProcessing_0x0314 = 0 0 0 0 0 0 0 0 0 0 0
  | | | |     - Tag 0x0314 (22 bytes, int16u[11]):
  | | | |         2804: 00 00 00 00 00 00 00 00 00 00 00 00 00 00 00 00 [................]
  | | | |         2814: 00 00 00 00 00 00                               [......]
  | | | | 62) Olympus_ImageProcessing_0x0315 = 0 0 0 0 0
  | | | |     - Tag 0x0315 (10 bytes, int16u[5]):
  | | | |         281a: 00 00 00 00 00 00 00 00 00 00                   [..........]
  | | | | 63) Olympus_ImageProcessing_0x0340 = 0 0 0 0 0 0 0 0 0 0 0 0 0 0 0 0 0 0 0 0 0 0 0 0
  | | | |     - Tag 0x0340 (48 bytes, int16s[24]):
  | | | |         2826: 00 00 00 00 00 00 00 00 00 00 00 00 00 00 00 00 [................]
  | | | |         2836: 00 00 00 00 00 00 00 00 00 00 00 00 00 00 00 00 [................]
  | | | |         2846: 00 00 00 00 00 00 00 00 00 00 00 00 00 00 00 00 [................]
  | | | | 64) Olympus_ImageProcessing_0x0341 = 0 0 0 0 0 0 0 0 0 0 0 0 0 0 0 0 0 0 0 0 0 0 0 0
  | | | |     - Tag 0x0341 (48 bytes, int16s[24]):
  | | | |         2856: 00 00 00 00 00 00 00 00 00 00 00 00 00 00 00 00 [................]
  | | | |         2866: 00 00 00 00 00 00 00 00 00 00 00 00 00 00 00 00 [................]
  | | | |         2876: 00 00 00 00 00 00 00 00 00 00 00 00 00 00 00 00 [................]
  | | | | 65) Olympus_ImageProcessing_0x0342 = 0 0 0 0 0 0 0 0 0 0 0 0 0 0 0 0 0 0 0 0 0 0 0 0
  | | | |     - Tag 0x0342 (48 bytes, int16s[24]):
  | | | |         2886: 00 00 00 00 00 00 00 00 00 00 00 00 00 00 00 00 [................]
  | | | |         2896: 00 00 00 00 00 00 00 00 00 00 00 00 00 00 00 00 [................]
  | | | |         28a6: 00 00 00 00 00 00 00 00 00 00 00 00 00 00 00 00 [................]
  | | | | 66) Olympus_ImageProcessing_0x0343 = 0 0 0 0 0 0 0 0 0 0 0 0 0 0 0 0 0 0 0 0 0 0 0 0
  | | | |     - Tag 0x0343 (48 bytes, int16s[24]):
  | | | |         28b6: 00 00 00 00 00 00 00 00 00 00 00 00 00 00 00 00 [................]
  | | | |         28c6: 00 00 00 00 00 00 00 00 00 00 00 00 00 00 00 00 [................]
  | | | |         28d6: 00 00 00 00 00 00 00 00 00 00 00 00 00 00 00 00 [................]
  | | | | 67) Olympus_ImageProcessing_0x0350 = 0 0 9 16383 4095 9 0 0 0 0 0 0
  | | | |     - Tag 0x0350 (24 bytes, int16u[12]):
  | | | |         28e6: 00 00 00 00 09 00 ff 3f ff 0f 09 00 00 00 00 00 [.......?........]
  | | | |         28f6: 00 00 00 00 00 00 00 00                         [........]
  | | | | 68) Olympus_ImageProcessing_0x0351 = 0 0 0 0 0 0 0 0 0 0 0 0 0 0 0 0 0 0 0 0 0 0 0 0 0 0 0 0 0 0
  | | | |     - Tag 0x0351 (60 bytes, int16u[30]):
  | | | |         28fe: 00 00 00 00 00 00 00 00 00 00 00 00 00 00 00 00 [................]
  | | | |         290e: 00 00 00 00 00 00 00 00 00 00 00 00 00 00 00 00 [................]
  | | | |         291e: 00 00 00 00 00 00 00 00 00 00 00 00 00 00 00 00 [................]
  | | | |         292e: 00 00 00 00 00 00 00 00 00 00 00 00             [............]
  | | | | 69) Olympus_ImageProcessing_0x0400 = 0 0 0 0 0 0 0 0 0 0 0 0 0 0 0 0 0 0 0 0 0 0 0 0 0 0 0 0 0 0 0 0 0 0 0 0 0 0 0 0 0 0 0 0 0 0 0 0 0 0 0 0 0 0 0 0 0 0 0 0 0 0 0
  | | | |     - Tag 0x0400 (126 bytes, int16u[63]):
  | | | |         2984: 00 00 00 00 00 00 00 00 00 00 00 00 00 00 00 00 [................]
  | | | |         2994: 00 00 00 00 00 00 00 00 00 00 00 00 00 00 00 00 [................]
  | | | |         29a4: 00 00 00 00 00 00 00 00 00 00 00 00 00 00 00 00 [................]
  | | | |         29b4: 00 00 00 00 00 00 00 00 00 00 00 00 00 00 00 00 [................]
  | | | |         29c4: 00 00 00 00 00 00 00 00 00 00 00 00 00 00 00 00 [................]
  | | | |         29d4: 00 00 00 00 00 00 00 00 00 00 00 00 00 00 00 00 [................]
  | | | |         29e4: 00 00 00 00 00 00 00 00 00 00 00 00 00 00 00 00 [................]
  | | | |         29f4: 00 00 00 00 00 00 00 00 00 00 00 00 00 00       [..............]
  | | | | 70) Olympus_ImageProcessing_0x0401 = 0 0 0 0 0
  | | | |     - Tag 0x0401 (10 bytes, int16u[5]):
  | | | |         293a: 00 00 00 00 00 00 00 00 00 00                   [..........]
  | | | | 71) Olympus_ImageProcessing_0x0402 = 0 0 0 0 0
  | | | |     - Tag 0x0402 (10 bytes, int16u[5]):
  | | | |         2944: 00 00 00 00 00 00 00 00 00 00                   [..........]
  | | | | 72) Olympus_ImageProcessing_0x0403 = 0 0 0 0 0
  | | | |     - Tag 0x0403 (10 bytes, int16u[5]):
  | | | |         294e: 00 00 00 00 00 00 00 00 00 00                   [..........]
  | | | | 73) Olympus_ImageProcessing_0x0404 = 0 0 0 0 0
  | | | |     - Tag 0x0404 (10 bytes, int16u[5]):
  | | | |         2958: 00 00 00 00 00 00 00 00 00 00                   [..........]
  | | | | 74) Olympus_ImageProcessing_0x0405 = 0 0 0 0 0
  | | | |     - Tag 0x0405 (10 bytes, int16u[5]):
  | | | |         2962: 00 00 00 00 00 00 00 00 00 00                   [..........]
  | | | | 75) Olympus_ImageProcessing_0x0406 = 0 0 0 0 0
  | | | |     - Tag 0x0406 (10 bytes, int16u[5]):
  | | | |         296c: 00 00 00 00 00 00 00 00 00 00                   [..........]
  | | | | 76) Olympus_ImageProcessing_0x0407 = 256
  | | | |     - Tag 0x0407 (2 bytes, int16u[1]):
  | | | |         148a: 00 01                                           [..]
  | | | | 77) Olympus_ImageProcessing_0x0408 = 0 0 0 0 0
  | | | |     - Tag 0x0408 (10 bytes, int16u[5]):
  | | | |         2976: 00 00 00 00 00 00 00 00 00 00                   [..........]
  | | | | 78) Olympus_ImageProcessing_0x0409 = 0 0 0 0 0
  | | | |     - Tag 0x0409 (10 bytes, int16u[5]):
  | | | |         2a04: 00 00 00 00 00 00 00 00 00 00                   [..........]
  | | | | 79) Olympus_ImageProcessing_0x040a = 0 0 0 0 0 0 0 0 0 0 0 0 0 0 0
  | | | |     - Tag 0x040a (30 bytes, int16u[15]):
  | | | |         2a0e: 00 00 00 00 00 00 00 00 00 00 00 00 00 00 00 00 [................]
  | | | |         2a1e: 00 00 00 00 00 00 00 00 00 00 00 00 00 00       [..............]
  | | | | 80) Olympus_ImageProcessing_0x0410 = 0 0 0 0 0
  | | | |     - Tag 0x0410 (10 bytes, int16u[5]):
  | | | |         2a2c: 00 00 00 00 00 00 00 00 00 00                   [..........]
  | | | | 81) Olympus_ImageProcessing_0x0420 = 0
  | | | |     - Tag 0x0420 (2 bytes, int16s[1]):
  | | | |         14c6: 00 00                                           [..]
  | | | | 82) Olympus_ImageProcessing_0x0421 = 0
  | | | |     - Tag 0x0421 (2 bytes, int16u[1]):
  | | | |         14d2: 00 00                                           [..]
  | | | | 83) Olympus_ImageProcessing_0x0422 = 0 0 0 0 0
  | | | |     - Tag 0x0422 (10 bytes, int16s[5]):
  | | | |         2a36: 00 00 00 00 00 00 00 00 00 00                   [..........]
  | | | | 84) Olympus_ImageProcessing_0x0423 = 0 0 0 0 0
  | | | |     - Tag 0x0423 (10 bytes, int16u[5]):
  | | | |         2a40: 00 00 00 00 00 00 00 00 00 00                   [..........]
  | | | | 85) Olympus_ImageProcessing_0x0424 = 0 0 0 0 0
  | | | |     - Tag 0x0424 (10 bytes, int16s[5]):
  | | | |         2a4a: 00 00 00 00 00 00 00 00 00 00                   [..........]
  | | | | 86) Olympus_ImageProcessing_0x0425 = 0 0 0 0 0
  | | | |     - Tag 0x0425 (10 bytes, int16u[5]):
  | | | |         2a54: 00 00 00 00 00 00 00 00 00 00                   [..........]
  | | | | 87) BlackLevel2 = 67 67 67 67
  | | | |     - Tag 0x0600 (8 bytes, int16u[4]):
  | | | |         2a5e: 43 00 43 00 43 00 43 00                         [C.C.C.C.]
  | | | | 88) Olympus_ImageProcessing_0x0601 = 320 4096 3328 4096 20 128
  | | | |     - Tag 0x0601 (12 bytes, int16u[6]):
  | | | |         2a76: 40 01 00 10 00 0d 00 10 14 00 80 00             [@...........]
  | | | | 89) Olympus_ImageProcessing_0x0602 = 320 4096 3328 4096 20 128
  | | | |     - Tag 0x0602 (12 bytes, int16u[6]):
  | | | |         2a82: 40 01 00 10 00 0d 00 10 14 00 80 00             [@...........]
  | | | | 90) Olympus_ImageProcessing_0x0603 = 320 4096 3328 4096 20 128
  | | | |     - Tag 0x0603 (12 bytes, int16u[6]):
  | | | |         2a8e: 40 01 00 10 00 0d 00 10 14 00 80 00             [@...........]
  | | | | 91) GainBase = 256
  | | | |     - Tag 0x0610 (2 bytes, int16u[1]):
  | | | |         153e: 00 01                                           [..]
  | | | | 92) ValidBits = 12 0
  | | | |     - Tag 0x0611 (4 bytes, int16u[2]):
  | | | |         154a: 0c 00 00 00                                     [....]
  | | | | 93) CropLeft = 8 0
  | | | |     - Tag 0x0612 (4 bytes, int16u[2]):
  | | | |         1556: 08 00 00 00                                     [....]
  | | | | 94) CropTop = 8 0
  | | | |     - Tag 0x0613 (4 bytes, int16u[2]):
  | | | |         1562: 08 00 00 00                                     [....]
  | | | | 95) CropWidth = 3648
  | | | |     - Tag 0x0614 (4 bytes, int32u[1]):
  | | | |         156e: 40 0e 00 00                                     [@...]
  | | | | 96) CropHeight = 2736
  | | | |     - Tag 0x0615 (4 bytes, int32u[1]):
  | | | |         157a: b0 0a 00 00                                     [....]
  | | | | 97) Olympus_ImageProcessing_0x0617 = 65535
  | | | |     - Tag 0x0617 (2 bytes, int16u[1]):
  | | | |         1586: ff ff                                           [..]
  | | | | 98) Olympus_ImageProcessing_0x0618 = 65535
  | | | |     - Tag 0x0618 (2 bytes, int16u[1]):
  | | | |         1592: ff ff                                           [..]
  | | | | 99) Olympus_ImageProcessing_0x0619 = 65535
  | | | |     - Tag 0x0619 (2 bytes, int16u[1]):
  | | | |         159e: ff ff                                           [..]
  | | | | 100) Olympus_ImageProcessing_0x0620 = 3
  | | | |     - Tag 0x0620 (2 bytes, int16u[1]):
  | | | |         15aa: 03 00                                           [..]
  | | | | 101) Olympus_ImageProcessing_0x0630 = 3
  | | | |     - Tag 0x0630 (2 bytes, int16u[1]):
  | | | |         15b6: 03 00                                           [..]
  | | | | 102) UnknownBlock1 = CMIO....R..........................................................................l...........l....... .......\....... .......\....... .......\....... .......\....... .......\....... .......\....... .......\....... .......\...J.................J.................J.................J..............................l...b............\...b............\...b............\...b............\...b............\...b............\...b............\...b............\..............................................................Q...L...'a...t.............................................................................................................................................................................$,m8...............................................................=(.................................3.3.M.M.f.f......@`....0.`.......%........(.......u..y..z.z@@@@@@@@@@@@.d...........9....i9..9....i9.....x\OA1..........................................................................................8.....".....@.@.@.@....33...3..@.@.@.......lffff............................@...........:............................@...........:............................@...........:............................@...........:............................@...........:............................@...........:........................;;;;~........................@@..........;;;;~........................@@..........Ppx|...........%Wqx|...........Php....phOOOOOOOPpx|...........%Wqx|...........Php....phOOOOOOO....@...........:............................@...........:............................@...........:............................@...........:........................""""@...........)........................""""@...........)............................@...........:............................@...........:........................`N. .~..n....f........p......@..`N. .~..n....f........p......@..`N. .~..n....f........p......@..`N. .~..n....f........p......@..`N. .~..n....f........p......@..`N. .~..n....f........p......@..`N. .~..n....f........p.....[snip]
  | | | |     - Tag 0x0635 (5120 bytes, undef[5120]):
  | | | |         3ff0: 43 4d 49 4f 01 00 07 dc 00 05 52 08 c0 00 10 01 [CMIO......R.....]
  | | | |         4000: f8 00 e0 00 00 02 10 ff f0 ff a0 ff 8c 01 d4 ff [................]
  | | | |         4010: fc ff 10 ff f4 01 00 02 10 ff f0 ff a0 ff 8c 01 [................]
  | | | |         4020: d4 ff fc ff 10 ff f4 01 00 02 10 ff f0 ff a0 ff [................]
  | | | |         4030: 8c 01 d4 ff fc ff 10 ff f4 01 00 02 10 ff f0 ff [................]
  | | | |         4040: a0 ff 8c 01 d4 ff fc ff 10 ff f4 01 6c 02 84 fe [............l...]
  | | | |         4050: 10 00 ac ff 80 01 d4 ff 06 00 6c ff 8e 01 18 02 [..........l.....]
  | | | |         4060: c8 fe 20 00 b8 ff 9c 01 ac ff 06 00 5c ff 9e 01 [.. .........\...]
  | | | |         4070: 18 02 c8 fe 20 00 b8 ff 9c 01 ac ff 06 00 5c ff [.... .........\.]
  | | | |         4080: 9e 01 18 02 c8 fe 20 00 b8 ff 9c 01 ac ff 06 00 [...... .........]
  | | | |         4090: 5c ff 9e 01 18 02 c8 fe 20 00 b8 ff 9c 01 ac ff [\....... .......]
  | | | |         40a0: 06 00 5c ff 9e 01 18 02 c8 fe 20 00 b8 ff 9c 01 [..\....... .....]
  | | | |         40b0: ac ff 06 00 5c ff 9e 01 18 02 c8 fe 20 00 b8 ff [....\....... ...]
  | | | |         40c0: 9c 01 ac ff 06 00 5c ff 9e 01 18 02 c8 fe 20 00 [......\....... .]
  | | | |         40d0: b8 ff 9c 01 ac ff 06 00 5c ff 9e 01 18 02 c8 fe [........\.......]
  | | | |         40e0: 20 00 b8 ff 9c 01 ac ff 06 00 5c ff 9e 01 4a 01 [ .........\...J.]
  | | | |         40f0: ec ff ca ff 9e ff ac 01 b6 ff fc ff 10 ff f4 01 [................]
  | | | |         4100: 4a 01 ec ff ca ff 9e ff ac 01 b6 ff fc ff 10 ff [J...............]
  | | | |         4110: f4 01 4a 01 ec ff ca ff 9e ff ac 01 b6 ff fc ff [..J.............]
  | | | |         4120: 10 ff f4 01 4a 01 ec ff ca ff 9e ff ac 01 b6 ff [....J...........]
  | | | |         4130: fc ff 10 ff f4 01 92 01 88 ff e6 ff a8 ff 98 01 [................]
  | | | |         4140: c0 ff 06 00 6c ff 8e 01 62 01 c0 ff de ff b6 ff [....l...b.......]
  | | | |         4150: b4 01 96 ff 06 00 5c ff 9e 01 62 01 c0 ff de ff [......\...b.....]
  | | | |         4160: b6 ff b4 01 96 ff 06 00 5c ff 9e 01 62 01 c0 ff [........\...b...]
  | | | |         4170: de ff b6 ff b4 01 96 ff 06 00 5c ff 9e 01 62 01 [..........\...b.]
  | | | |         4180: c0 ff de ff b6 ff b4 01 96 ff 06 00 5c ff 9e 01 [............\...]
  | | | |         4190: 62 01 c0 ff de ff b6 ff b4 01 96 ff 06 00 5c ff [b.............\.]
  | | | |         41a0: 9e 01 62 01 c0 ff de ff b6 ff b4 01 96 ff 06 00 [..b.............]
  | | | |         41b0: 5c ff 9e 01 62 01 c0 ff de ff b6 ff b4 01 96 ff [\...b...........]
  | | | |         41c0: 06 00 5c ff 9e 01 62 01 c0 ff de ff b6 ff b4 01 [..\...b.........]
  | | | |         41d0: 96 ff 06 00 5c ff 9e 01 00 01 00 00 00 00 00 00 [....\...........]
  | | | |         41e0: 00 01 00 00 00 00 00 00 00 01 00 01 00 00 00 00 [................]
  | | | |         41f0: 00 00 00 01 00 00 00 00 00 00 00 01 00 01 00 00 [................]
  | | | |         4200: 00 00 00 00 00 01 00 00 00 00 00 00 00 01 00 01 [................]
  | | | |         4210: 00 00 00 00 00 00 00 01 00 00 00 00 00 00 00 01 [................]
  | | | |         4220: 00 01 00 00 00 00 00 00 00 01 00 00 00 00 00 00 [................]
  | | | |         4230: 00 01 00 01 00 00 00 00 00 00 00 01 00 00 00 00 [................]
  | | | |         4240: 00 00 00 01 00 01 00 00 00 00 00 00 00 01 00 00 [................]
  | | | |         4250: 00 00 00 00 00 01 00 01 00 00 00 00 00 00 00 01 [................]
  | | | |         4260: 00 00 00 00 00 00 00 01 00 01 00 00 00 00 00 00 [................]
  | | | |         4270: 00 01 00 00 00 00 00 00 00 01 00 01 00 00 00 00 [................]
  | | | |         4280: 00 00 00 01 00 00 00 00 00 00 00 01 00 01 00 00 [................]
  | | | |         4290: 00 00 00 00 00 01 00 00 00 00 00 00 00 01 00 01 [................]
  | | | |         42a0: 00 00 00 00 00 00 00 01 00 00 00 00 00 00 00 01 [................]
  | | | |         42b0: 13 01 e5 ff 08 00 09 00 09 01 ee ff 0f 00 1d 00 [................]
  | | | |         42c0: d4 00 1d 01 e7 ff fc ff 15 00 fc 00 ef ff 51 00 [..............Q.]
  | | | |         42d0: cc ff e3 00 4c 01 8d ff 27 00 61 00 c8 00 d7 ff [....L...'.a.....]
  | | | |         42e0: 74 00 dc ff b0 00 c3 00 1f 00 1e 00 fb ff 18 01 [t...............]
  | | | |         42f0: ed ff 9b ff a8 00 bd 00 11 01 f2 ff fd ff f9 ff [................]
  | | | |         4300: 0a 01 fd ff f9 ff f2 ff 15 01 00 00 00 00 00 00 [................]
  | | | |         4310: 00 00 00 00 ec ff e0 ff f8 ff 00 00 fc ff e0 ff [................]
  | | | |         4320: 00 00 14 00 00 00 08 00 00 00 08 00 f0 ff f0 ff [................]
  | | | |         4330: e0 ff f4 ff 0c 00 d0 ff 00 00 06 00 00 00 00 00 [................]
  | | | |         4340: 00 00 00 00 fe ff e4 ff 10 00 00 00 04 00 e8 ff [................]
  | | | |         4350: 00 00 16 00 04 00 07 00 fa ff 08 00 02 00 f4 ff [................]
  | | | |         4360: f8 ff f4 ff 14 00 d8 ff 00 00 08 00 04 00 ff ff [................]
  | | | |         4370: fa ff 00 00 d6 ff e4 ff e8 ff 00 00 00 00 d8 ff [................]
  | | | |         4380: 03 00 14 00 fd ff 11 00 08 00 12 00 da ff f4 ff [................]
  | | | |         4390: d0 ff f4 ff 10 00 c8 ff 03 00 06 00 fd ff 07 00 [................]
  | | | |         43a0: 08 00 0a 00 fa ff e0 ff f8 ff 05 00 fc ff e0 ff [................]
  | | | |         43b0: ff ff 14 00 02 00 06 00 00 00 08 00 fe ff f0 ff [................]
  | | | |         43c0: e0 ff f9 ff 0c 00 d0 ff ff ff 06 00 02 00 fe ff [................]
  | | | |         43d0: 00 00 00 00 f3 ff f6 ff 0e 00 0d 00 07 00 e8 ff [................]
  | | | |         43e0: ff ff 14 00 05 00 0c 00 ff ff 08 00 24 00 2c 00 [............$.,.]
  | | | |         43f0: 6d 00 38 00 fb ff 00 00 02 00 14 00 0a 00 11 00 [m.8.............]
  | | | |         4400: 1d 00 05 00 e0 ff e6 ff f8 ff 0b 00 ff ff e0 ff [................]
  | | | |         4410: ff ff 14 00 01 00 0d 00 05 00 08 00 e8 ff ea ff [................]
  | | | |         4420: f8 ff 10 00 ff ff e0 ff ff ff 14 00 01 00 0d 00 [................]
  | | | |         4430: 05 00 08 00 f2 ff f0 ff 10 00 05 00 07 00 e8 ff [................]
  | | | |         4440: ff ff 14 00 05 00 0c 00 ff ff 08 00 14 00 0c 00 [................]
  | | | |         4450: 3d 00 28 00 1b 00 00 00 00 00 14 00 00 00 08 00 [=.(.............]
  | | | |         4460: 00 00 08 00 ec ff e0 ff f8 ff 00 00 fc ff e0 ff [................]
  | | | |         4470: 00 00 14 00 00 00 08 00 00 00 08 00 80 00 80 00 [................]
  | | | |         4480: 9a 00 9a 00 b3 00 b3 00 cd 00 cd 00 e6 00 e6 00 [................]
  | | | |         4490: 00 01 00 01 1a 01 1a 01 33 01 33 01 4d 01 4d 01 [........3.3.M.M.]
  | | | |         44a0: 66 01 66 01 80 01 80 01 01 00 00 00 00 00 00 00 [f.f.............]
  | | | |         44b0: 40 00 60 00 80 00 a0 00 d0 00 00 01 30 01 60 01 [@.`.........0.`.]
  | | | |         44c0: 90 01 c0 01 00 02 00 00 07 25 00 00 06 05 04 04 [.........%......]
  | | | |         44d0: 06 00 00 00 14 14 c8 28 80 00 14 14 d0 08 80 00 [.......(........]
  | | | |         44e0: 80 75 8b 83 79 80 8d 7a 85 7a 00 00 00 00 00 00 [.u..y..z.z......]
  | | | |         44f0: 00 00 00 00 00 00 00 00 00 00 00 00 00 00 00 00 [................]
  | | | |         4500: 00 00 00 00 00 00 00 00 00 00 00 00 40 40 40 40 [............@@@@]
  | | | |         4510: 40 40 40 40 40 40 40 40 10 00 64 00 fa 00 ff 03 [@@@@@@@@..d.....]
  | | | |         4520: e2 ff 01 00 0d 10 00 00 00 00 00 00 01 01 01 00 [................]
  | | | |         4530: 39 a2 fb c6 96 69 39 14 04 39 a2 fb c6 96 69 39 [9....i9..9....i9]
  | | | |         4540: 14 04 8a 87 8c 78 5c 4f 41 31 1f 00 10 10 10 10 [.....x\OA1......]
  | | | |         4550: 10 10 10 10 10 10 10 10 10 10 10 10 10 10 10 10 [................]
  | | | |         4560: 10 10 10 10 10 10 10 10 10 10 10 10 10 10 10 10 [................]
  | | | |         4570: 10 10 10 10 10 10 10 10 10 10 10 10 10 10 10 10 [................]
  | | | |         4580: 10 10 10 10 10 10 10 10 10 10 10 10 10 10 10 10 [................]
  | | | |         4590: 10 10 10 10 10 10 10 10 10 10 10 10 10 10 10 10 [................]
  | | | |         45a0: 18 00 05 00 00 00 00 00 00 00 00 00 04 ff 18 00 [................]
  | | | |         45b0: 38 12 02 18 00 00 80 0f 00 22 1e 02 18 00 00 ff [8........"......]
  | | | |         45c0: 0c 00 00 40 00 00 ff 00 00 00 00 00 40 00 00 ff [...@........@...]
  | | | |         45d0: 00 00 00 00 00 40 00 00 ff 00 40 00 00 00 00 00 [.....@....@.....]
  | | | |         45e0: 00 00 00 00 00 00 00 00 03 00 05 00 00 00 00 00 [................]
  | | | |         45f0: 00 00 00 00 00 00 00 00 00 9a 05 33 33 0d 00 0c [...........33...]
  | | | |         4600: 1a 00 00 00 00 33 0d 00 00 ff 00 00 00 00 00 40 [.....3.........@]
  | | | |         4610: 00 00 ff 00 00 00 00 00 40 00 00 ff 00 40 00 00 [........@....@..]
  | | | |         4620: 00 00 00 00 00 00 00 00 00 00 00 00 00 01 00 01 [................]
  | | | |         4630: 00 01 00 01 00 01 00 01 dd 00 6c 00 66 00 66 00 [..........l.f.f.]
  | | | |         4640: 66 00 66 00 00 01 00 01 00 01 00 01 00 01 00 01 [f.f.............]
  | | | |         4650: ee 00 b6 00 b3 00 b3 00 b3 00 b3 00 00 01 00 01 [................]
  | | | |         4660: 00 01 00 01 00 01 00 01 00 01 cd 00 cd 00 cd 00 [................]
  | | | |         4670: cd 00 cd 00 0b 0b 0b 0b 40 80 c0 f4 f4 f4 f4 f4 [........@.......]
  | | | |         4680: f4 f4 f4 f4 00 00 00 00 3a 80 c6 ff ff ff ff ff [........:.......]
  | | | |         4690: ff ff ff ff 00 00 00 00 8c 8c 8c 8c 8c 8c 8c 8c [................]
  | | | |         46a0: 8c 8c 8c 8c 8c 0b 0b 0b 0b 40 80 c0 f4 f4 f4 f4 [.........@......]
  | | | |         46b0: f4 f4 f4 f4 f4 00 00 00 00 3a 80 c6 ff ff ff ff [.........:......]
  | | | |         46c0: ff ff ff ff ff 00 00 00 00 8c 8c 8c 8c 8c 8c 8c [................]
  | | | |         46d0: 8c 8c 8c 8c 8c 8c 0b 0b 0b 0b 40 80 c0 f4 f4 f4 [..........@.....]
  | | | |         46e0: f4 f4 f4 f4 f4 f4 00 00 00 00 3a 80 c6 ff ff ff [..........:.....]
  | | | |         46f0: ff ff ff ff ff ff 00 00 00 00 8c 8c 8c 8c 8c 8c [................]
  | | | |         4700: 8c 8c 8c 8c 8c 8c 8c 0b 0b 0b 0b 40 80 c0 f4 f4 [...........@....]
  | | | |         4710: f4 f4 f4 f4 f4 f4 f4 00 00 00 00 3a 80 c6 ff ff [...........:....]
  | | | |         4720: ff ff ff ff ff ff ff 00 00 00 00 8c 8c 8c 8c 8c [................]
  | | | |         4730: 8c 8c 8c 8c 8c 8c 8c 8c 0b 0b 0b 0b 40 80 c0 f4 [............@...]
  | | | |         4740: f4 f4 f4 f4 f4 f4 f4 f4 00 00 00 00 3a 80 c6 ff [............:...]
  | | | |         4750: ff ff ff ff ff ff ff ff 00 00 00 00 8c 8c 8c 8c [................]
  | | | |         4760: 8c 8c 8c 8c 8c 8c 8c 8c 8c 0b 0b 0b 0b 40 80 c0 [.............@..]
  | | | |         4770: f4 f4 f4 f4 f4 f4 f4 f4 f4 00 00 00 00 3a 80 c6 [.............:..]
  | | | |         4780: ff ff ff ff ff ff ff ff ff 00 00 00 00 8c 8c 8c [................]
  | | | |         4790: 8c 8c 8c 8c 8c 8c 8c 8c 8c 8c 3b 3b 3b 3b 7e 80 [..........;;;;~.]
  | | | |         47a0: 82 c5 c5 c5 c5 c5 c5 c5 c5 c5 00 00 00 00 7f 80 [................]
  | | | |         47b0: 81 ff ff ff ff ff ff ff ff ff 00 00 00 00 f3 40 [...............@]
  | | | |         47c0: 40 f1 f1 f1 f1 f1 f1 f1 f1 f1 f1 3b 3b 3b 3b 7e [@..........;;;;~]
  | | | |         47d0: 80 82 c5 c5 c5 c5 c5 c5 c5 c5 c5 00 00 00 00 7f [................]
  | | | |         [snip 3088 bytes]
  | | | | 103) UnknownBlock2 = CMIO.... o.r.......<.."Y.wj>......]!~..C"n.c..-..........F....sN(......[Ch.!N~S(..+.....?..`..s..1.`.UC.E.O.stP...?.5.1.d|..N..?.jz<.j....7.~hXF..f7?....S\........e..&.....>...3.......7gc.U...J.....@.0..c.Dh...g.Jk.......f...../.WL.?}.{.......6M..(x.`.w..iM9YN...C.p... ....3..........h..eE.....M....C..1n.....Q..?,;....Q...zt.....R........ ...l.w)A..G.9zv.#lqP.......v )l;....t.M..eV....3...D....Z..0HK..X.y...Bd....:....YX..ngjtRg.....b.E.....l..2?..P.. ...;.......o.......w.vf.#...GGJ.....2..M..(U.........-. {.~.......,.."Y.kv".......E9f.._"n.c..)..........J....sB$......[Oh.-B~S(..+.....?..`..s..1.d.UG.A.O.spT...?.1.5.dx..J..?.nz8.j....7.~hXF..b7?....S\........a..".....>...7.......7gc.Q...J.....D.4..c.Dl...c.Nk.......f.....+.SH.?y.........6M..,|.`.w..iM=]M...G.R...$....2..........q..fF.....J....D..2l.....]..2 6....[...q~.....S........'...j.q.G..G.9}u."jsQ.......u')m:....u.H..cT....1...F....\..3LO..X.y...Fb....;....[Z..ngntVc.....c.E..y..o..0:..S..#...;}......l.,.....u.vf.!...FFK.....6..M..,Q.........-. {.z.......8.."Z-kv"......X&y..@#j.c.............J.....N)......T@k."M~S(..*.....>..`..s..1.d.UD.A.O.ptS...<.6.1.g|..N..;.m~?.n....4.}k[E..e4<....P_........b..!.....:...7.......7bf.Q...O.....A.4..g.Eh...f.On.......g...../.RI.>|.~.......6M../}.`.s..iM9YM...C.R...'....2..........r..hG.....L....C..1o.....\..=.8....V...}s.....Q........'...k.w)@..G.8zs."jwU.......t!+o<....v.N..dW....7...@....X..6HJ..[.{...Fc....8....\[..lekqVf.....`.@..}..o..0>..Q.. ...:.......o.......u.ve."..DDH.....5..M../R.........). {.~.......8.."Y.kv".......Y%z..C%l.b..-..........E.....N+......WDo.!N~S(..*.....?..a..r..1.c.RD.A.N.wtW...:.0.1.os..O..;.i~8.n....4.zk[E..b3;....WY........d..&.....:...4.......4`d.Q...N.....@.4..f.Dh...f.No.......g...../.RI.>|.~.......7L..-|.a.r..iM8XM...C.R...'....2..........l..fF.....^....C..0o.....]..2!7....T....r.....R........'...k.u*C..F.9us.,kwT.......p",h:...q.I..dP....0...A....Y..7IK..[.{...Ea....9....^Y..ndisVg.....`.B..}..o..1>..Q..!...;}......o.,.....w.vg.#...FFJ.....7..L..-P.........(.!{.........8.."Y.kv"..[snip]
  | | | |     - Tag 0x0636 (20480 bytes, undef[20480]):
  | | | |         53f0: 43 4d 49 4f 01 00 07 dc 84 20 6f 1a 72 0f ae 9a [CMIO..... o.r...]
  | | | |         5400: a3 8e be 1b 3c a1 aa 22 59 2e 77 6a 3e f1 81 00 [....<.."Y.wj>...]
  | | | |         5410: f5 b4 fe a2 5d 21 7e 97 8e 43 22 6e 95 63 85 05 [....]!~..C"n.c..]
  | | | |         5420: 2d 1d ae 1b f9 e8 a1 98 bd f6 85 46 be 93 eb a8 [-..........F....]
  | | | |         5430: 73 4e 28 ca bc 1f 15 c7 d8 5b 43 68 01 21 4e 7e [sN(......[Ch.!N~]
  | | | |         5440: 53 28 bd c1 2b 0b 9f ed d0 19 3f ef d8 60 9f 15 [S(..+.....?..`..]
  | | | |         5450: 73 8b 98 31 c8 60 82 55 43 ae 45 cd 4f df 73 74 [s..1.`.UC.E.O.st]
  | | | |         5460: 50 dd d1 19 3f 06 35 ed 31 ce 64 7c 81 18 4e ff [P...?.5.1.d|..N.]
  | | | |         5470: e2 3f bd 6a 7a 3c b9 6a 92 95 d3 c2 37 98 7e 68 [.?.jz<.j....7.~h]
  | | | |         5480: 58 46 dd 0c 66 37 3f b7 c3 c9 e8 53 5c 81 b8 8a [XF..f7?....S\...]
  | | | |         5490: 13 f9 fd 1e f7 65 8c 9a 26 a4 90 0f 0c fe 3e 9a [.....e..&.....>.]
  | | | |         54a0: 09 92 33 0a d6 0b d7 f6 f0 d1 37 67 63 dc 55 e5 [..3.......7gc.U.]
  | | | |         54b0: 93 be 4a c8 d8 92 ed e2 40 1f 30 c9 f1 63 e5 44 [..J.....@.0..c.D]
  | | | |         54c0: 68 be 92 e4 67 90 4a 6b fe 83 8b db a3 97 81 66 [h...g.Jk.......f]
  | | | |         54d0: bd ec a0 90 c9 2f 96 57 4c c5 3f 7d e8 7b b7 fc [...../.WL.?}.{..]
  | | | |         54e0: ae e4 99 d8 a9 36 4d 85 c1 28 78 a0 60 03 77 91 [.....6M..(x.`.w.]
  | | | |         54f0: f7 69 4d 39 59 4e 83 ee ab 43 b5 70 b5 02 f5 20 [.iM9YN...C.p... ]
  | | | |         5500: 07 b0 cf 88 33 a0 e5 ae ff f5 c2 9e b3 9b e9 68 [....3..........h]
  | | | |         5510: a9 e8 65 45 d3 91 16 b4 eb 4d ee 12 b9 fc 43 94 [..eE.....M....C.]
  | | | |         5520: d8 31 6e 87 fc 1a 94 9b 51 a7 10 3f 2c 3b 06 8b [.1n.....Q..?,;..]
  | | | |         5530: ec f8 51 8e 95 85 7a 74 e9 a1 d4 a8 f7 52 dd c1 [..Q...zt.....R..]
  | | | |         5540: a8 81 ed 87 a4 0d 20 f6 be f5 6c df 77 29 41 eb [...... ...l.w)A.]
  | | | |         5550: f1 47 98 39 7a 76 bf 23 6c 71 50 c2 a9 c4 a5 f5 [.G.9zv.#lqP.....]
  | | | |         5560: ed 07 76 20 29 6c 3b 05 a6 c3 18 74 0d 4d b4 c0 [..v )l;....t.M..]
  | | | |         5570: 65 56 f0 a3 0d f2 33 eb f6 a9 44 99 97 8d fa 5a [eV....3...D....Z]
  | | | |         5580: 91 98 30 48 4b ba 8c 58 c9 79 86 0a 83 42 64 a8 [..0HK..X.y...Bd.]
  | | | |         5590: c6 1a 06 3a d9 fb a9 cb 59 58 ef c3 6e 67 6a 74 [...:....YX..ngjt]
  | | | |         55a0: 52 67 0e f1 e0 9e da 62 fc 45 e5 9d 7f fd f9 6c [Rg.....b.E.....l]
  | | | |         55b0: f4 99 32 3f 81 b0 50 13 b5 20 fc 1e f1 3b 7f fc [..2?..P.. ...;..]
  | | | |         55c0: 08 cc d3 fd d1 6f aa 2e db 10 d0 fd cf 77 f2 76 [.....o.......w.v]
  | | | |         55d0: 66 de 23 ed 03 c2 47 47 4a 85 98 90 d1 ee 32 c9 [f.#...GGJ.....2.]
  | | | |         55e0: e0 4d ed 0a 28 55 dc 13 d3 f5 b8 8c 1f bf 99 2d [.M..(U.........-]
  | | | |         55f0: 1a 20 7b 16 7e 0f ad 99 a3 8e be 1b 2c a9 a2 22 [. {.~.......,.."]
  | | | |         5600: 59 2e 6b 76 22 f1 99 18 f1 b0 fa a2 45 39 66 93 [Y.kv".......E9f.]
  | | | |         5610: 96 5f 22 6e 95 63 8d 0d 29 19 aa 17 f5 e0 a9 94 [._"n.c..).......]
  | | | |         5620: bd f6 89 4a b2 93 e7 a8 73 42 24 ca bc 13 19 cb [...J....sB$.....]
  | | | |         5630: d4 5b 4f 68 01 2d 42 7e 53 28 b1 cd 2b 0b 9f ed [.[Oh.-B~S(..+...]
  | | | |         5640: d0 19 3f ef d8 60 9b 11 73 8b 98 31 cc 64 82 55 [..?..`..s..1.d.U]
  | | | |         5650: 47 ae 41 cd 4f db 73 70 54 d9 d1 19 3f 06 31 ed [G.A.O.spT...?.1.]
  | | | |         5660: 35 ca 64 78 85 18 4a fb e2 3f b9 6e 7a 38 b9 6a [5.dx..J..?.nz8.j]
  | | | |         5670: 96 95 d7 c2 37 9c 7e 68 58 46 dd 0c 62 37 3f b7 [....7.~hXF..b7?.]
  | | | |         5680: c3 c9 e8 53 5c 81 b8 8a 17 f9 fd 1e f7 61 8c 9a [...S\........a..]
  | | | |         5690: 22 a4 94 0f 0c fa 3e 9e 0d 92 37 0e d2 0b d7 f6 [".....>...7.....]
  | | | |         56a0: f0 d1 37 67 63 dc 51 e5 97 be 4a c8 d8 96 ed e6 [..7gc.Q...J.....]
  | | | |         56b0: 44 1f 34 c9 f5 63 e1 44 6c ba 96 e4 63 90 4e 6b [D.4..c.Dl...c.Nk]
  | | | |         56c0: fa 83 8b df a3 93 81 66 b9 ec a4 90 c9 2b 92 53 [.......f.....+.S]
  | | | |         56d0: 48 c5 3f 79 ec 7f b3 fc ae e0 9d dc ad 36 4d 81 [H.?y.........6M.]
  | | | |         56e0: c5 2c 7c a0 60 07 77 95 f7 69 4d 3d 5d 4d 80 ee [.,|.`.w..iM=]M..]
  | | | |         56f0: af 47 b5 52 8b 0d f5 24 05 b2 cd 8f 32 9f c7 bc [.G.R...$....2...]
  | | | |         5700: ff f2 c2 9e b3 99 e8 71 b6 f2 66 46 d5 97 17 b2 [.......q..fF....]
  | | | |         5710: e8 4a ed 1a b1 fb 44 9c d7 32 6c 85 f0 18 93 93 [.J....D..2l.....]
  | | | |         5720: 5d a7 11 32 20 36 07 86 ed ff 5b 83 94 85 71 7e []..2 6....[...q~]
  | | | |         5730: e5 a2 da a3 f1 53 d6 cb af 81 eb 83 a1 0b 27 f6 [.....S........'.]
  | | | |         5740: b9 f2 6a df 71 2e 47 e9 f2 47 98 39 7d 75 bb 22 [..j.q.G..G.9}u."]
  | | | |         5750: 6a 73 51 c7 a8 c4 a0 f2 ee 02 75 27 29 6d 3a 01 [jsQ.......u')m:.]
  | | | |         5760: a6 c0 1a 75 09 48 b5 c4 63 54 f1 a6 09 f3 31 ed [...u.H..cT....1.]
  | | | |         5770: f7 ad 46 9e 97 8a f9 5c 90 9f 33 4c 4f bb 8b 58 [..F....\..3LO..X]
  | | | |         5780: c9 79 87 0b 81 46 62 a8 c7 19 06 3b de fb ad cb [.y...Fb....;....]
  | | | |         5790: 5b 5a ee c2 6e 67 6e 74 56 63 0e f7 e3 9f db 63 [[Z..ngntVc.....c]
  | | | |         57a0: fc 45 e4 9c 79 fb fb 6f f7 99 30 3a 85 b0 53 13 [.E..y..o..0:..S.]
  | | | |         57b0: b5 23 fe 1f f3 3b 7d ff 09 ce d3 fe d3 6c aa 2c [.#...;}......l.,]
  | | | |         57c0: db 12 d1 fc cc 75 f3 76 66 dd 21 ec 02 c3 46 46 [.....u.vf.!...FF]
  | | | |         57d0: 4b 85 98 90 d1 ee 36 cc e0 4d ec 0a 2c 51 dd 12 [K.....6..M..,Q..]
  | | | |         57e0: d7 f0 bc 88 1f bf 9d 2d 1e 20 7b 16 7a 0b ae 9a [.......-. {.z...]
  | | | |         57f0: a3 8a ba 1b 38 a5 ae 22 5a 2d 6b 76 22 f1 93 00 [....8.."Z-kv"...]
  | | | |         5800: f5 b1 f9 a2 58 26 79 92 94 40 23 6a 96 63 88 0a [....X&y..@#j.c..]
  | | | |         5810: 2e 1e af 16 f4 e4 a2 94 b1 fa 89 4a b2 9e ea a5 [...........J....]
  | | | |         5820: 7f 4e 29 c7 b0 1f 16 c4 d4 54 40 6b 01 22 4d 7e [.N)......T@k."M~]
  | | | |         5830: 53 28 bd c1 2a 0a 9f ec d1 18 3e ee d8 60 9a 10 [S(..*.....>..`..]
  | | | |         5840: 73 8b 98 31 cc 64 82 55 44 ad 41 cd 4f dc 70 74 [s..1.d.UD.A.O.pt]
  | | | |         5850: 53 de d1 1a 3c 06 36 ee 31 cd 67 7c 82 1b 4e fc [S...<.6.1.g|..N.]
  | | | |         5860: e1 3b be 6d 7e 3f ba 6e 91 96 d3 c1 34 9c 7d 6b [.;.m~?.n....4.}k]
  | | | |         5870: 5b 45 d9 0f 65 34 3c b4 c0 ca eb 50 5f 82 bb 89 [[E..e4<....P_...]
  | | | |         5880: 13 fa fe 1a f4 62 88 99 21 a0 94 0b 0f f9 3a 9e [.....b..!.....:.]
  | | | |         5890: 09 96 37 0a d6 0f d3 f6 f4 d5 37 62 66 dc 51 e1 [..7.......7bf.Q.]
  | | | |         58a0: 93 bf 4f cc d8 93 e8 e6 41 1a 34 c8 f0 67 e0 45 [..O.....A.4..g.E]
  | | | |         58b0: 68 bf 97 e1 66 91 4f 6e ff 83 8a de a6 96 80 67 [h...f.On.......g]
  | | | |         58c0: bc e9 a5 91 c8 2f 97 52 49 c4 3e 7c e9 7e b2 fd [...../.RI.>|.~..]
  | | | |         58d0: ae e5 98 dc ad 36 4d 86 c2 2f 7d a1 60 02 73 95 [.....6M../}.`.s.]
  | | | |         58e0: f7 69 4d 39 59 4d 80 ee ab 43 b5 52 8b 0d f5 27 [.iM9YM...C.R...']
  | | | |         58f0: 06 b2 cd 8f 32 bd f9 b3 ff f5 c3 9c b1 9e e9 72 [....2..........r]
  | | | |         5900: a6 e4 68 47 d4 96 14 b0 e9 4c f1 1d b3 fb 43 99 [..hG.....L....C.]
  | | | |         5910: d3 31 6f 87 f0 14 98 97 5c ab 1d 3d 2e 38 04 84 [.1o.....\..=.8..]
  | | | |         5920: e1 f3 56 8e 99 89 7d 73 e8 a2 d7 a8 f7 51 d9 c6 [..V...}s.....Q..]
  | | | |         5930: aa 87 e9 83 a2 0b 27 f6 be f5 6b d8 77 29 40 ee [......'...k.w)@.]
  | | | |         5940: f4 47 99 38 7a 73 ba 22 6a 77 55 c7 a8 c4 a7 f0 [.G.8zs."jwU.....]
  | | | |         5950: eb 04 74 21 2b 6f 3c 06 a4 c2 1b 76 0c 4e b7 c0 [..t!+o<....v.N..]
  | | | |         5960: 64 57 f4 a7 0d f1 37 e9 f3 ad 40 98 93 8e f9 58 [dW....7...@....X]
  | | | |         5970: 93 9d 36 48 4a bb 8f 5b ca 7b 84 0f 87 46 63 a9 [..6HJ..[.{...Fc.]
  | | | |         5980: c4 1b 04 38 dc ff a8 ce 5c 5b ed c2 6c 65 6b 71 [...8....\[..lekq]
  | | | |         5990: 56 66 0b f5 e0 9f d9 60 fc 40 e1 9c 7d ff fb 6f [Vf.....`.@..}..o]
  | | | |         59a0: f5 9b 30 3e 80 b1 51 11 b7 20 ff 1d f1 3a 7f fd [..0>..Q.. ...:..]
  | | | |         59b0: 08 cc d1 fd d3 6f aa 2e db 10 d2 ff ce 75 f1 76 [.....o.......u.v]
  | | | |         59c0: 65 dd 22 ef 00 c1 44 44 48 85 9b 93 d3 ec 35 cf [e."...DDH.....5.]
  | | | |         59d0: e3 4d ee 09 2f 52 dc 13 d3 f5 bd 89 1e be 98 29 [.M../R.........)]
  | | | |         59e0: 1e 20 7b 16 7e 0f ae 9a a3 8e be 1b 38 a5 ae 22 [. {.~.......8.."]
  | | | |         59f0: 59 2e 6b 76 22 f1 9d 1c f5 b0 fa a2 59 25 7a 93 [Y.kv".......Y%z.]
  | | | |         5a00: 89 43 25 6c 91 62 89 0e 2d 1c ae 17 f5 e7 ad 94 [.C%l.b..-.......]
  | | | |         5a10: b0 fb 87 45 bd 9f eb a5 7f 4e 2b c6 b0 1f 14 c6 [...E.....N+.....]
  | | | |         5a20: d5 57 44 6f 06 21 4e 7e 53 28 bd c0 2a 0a 9e ec [.WDo.!N~S(..*...]
  | | | |         5a30: d1 18 3f ee d8 61 9a 11 72 8a 98 31 cb 63 85 52 [..?..a..r..1.c.R]
  | | | |         5a40: 44 aa 41 cc 4e da 77 74 57 da d2 1d 3a 07 30 e9 [D.A.N.wtW...:.0.]
  | | | |         5a50: 31 c5 6f 73 85 1d 4f fa e6 3b b9 69 7e 38 bd 6e [1.os..O..;.i~8.n]
  | | | |         5a60: 97 91 d2 c7 34 9b 7a 6b 5b 45 d9 08 62 33 3b b3 [....4.zk[E..b3;.]
  | | | |         5a70: c7 cc ed 57 59 84 bd 8e 12 fc f9 1a f2 64 88 9e [...WY........d..]
  | | | |         5a80: 26 a0 94 08 0b fe 3a 9d 0a 96 34 09 d6 0c d0 f5 [&.....:...4.....]
  | | | |         5a90: f4 d6 34 60 64 dc 51 e2 90 be 4e cc d8 92 ea e5 [..4`d.Q...N.....]
  | | | |         5aa0: 40 1b 34 c9 f0 66 e1 44 68 be 96 e1 66 90 4e 6f [@.4..f.Dh...f.No]
  | | | |         5ab0: ff 82 8b de a6 97 80 67 bd e9 a5 91 c8 2f 97 52 [.......g...../.R]
  | | | |         5ac0: 49 c4 3e 7c e9 7e b2 fd ae e5 98 dd ac 37 4c 84 [I.>|.~.......7L.]
  | | | |         5ad0: c0 2d 7c a1 61 02 72 94 f6 69 4d 38 58 4d 80 ee [.-|.a.r..iM8XM..]
  | | | |         5ae0: ab 43 b5 52 8b 0d f5 27 06 b2 cd 8f 32 bd f9 b3 [.C.R...'....2...]
  | | | |         5af0: ff f5 c3 9c b1 9e e9 6c aa ef 66 46 d4 95 15 b7 [.......l..fF....]
  | | | |         5b00: e8 5e f0 01 ac fe 43 99 d3 30 6f 86 f1 17 98 97 [.^....C..0o.....]
  | | | |         5b10: 5d aa 1d 32 21 37 08 88 e2 f3 54 8c 99 8b 7f 72 []..2!7....T....r]
  | | | |         5b20: eb a2 d4 ab f7 52 db c7 a8 87 ea 80 a2 0c 27 f6 [.....R........'.]
  | | | |         5b30: be f4 6b d9 75 2a 43 ee f5 46 98 39 75 73 b5 2c [..k.u*C..F.9us.,]
  | | | |         5b40: 6b 77 54 c7 a8 c4 a0 f7 e8 03 70 22 2c 68 3a 00 [kwT.......p",h:.]
  | | | |         5b50: a2 c3 1d 71 0c 49 b0 c7 64 50 f3 a7 0a f1 30 e9 [...q.I..dP....0.]
  | | | |         5b60: f3 ac 41 98 92 8f f8 59 92 9d 37 49 4b ba 8f 5b [..A....Y..7IK..[]
  | | | |         5b70: ca 7b 85 0e 87 45 61 a8 c4 19 06 39 de fc aa cc [.{...Ea....9....]
  | | | |         5b80: 5e 59 ef c1 6e 64 69 73 56 67 09 f6 e0 9e d8 60 [^Y..ndisVg.....`]
  | | | |         5b90: ff 42 e0 9c 7d ff fb 6f f5 9a 31 3e 80 b1 51 11 [.B..}..o..1>..Q.]
  | | | |         5ba0: b6 21 ff 1d f1 3b 7d fe 09 cd d1 ff d1 6f ab 2c [.!...;}......o.,]
  | | | |         5bb0: d8 11 d0 fd cf 77 f3 76 67 df 23 ed 02 c3 46 46 [.....w.vg.#...FF]
  | | | |         5bc0: 4a 84 99 91 d1 ee 37 cd e1 4c ec 0b 2d 50 dd 12 [J.....7..L..-P..]
  | | | |         5bd0: d2 f4 bd 88 1e be 98 28 1f 21 7b 16 7f 0e ae 9a [.......(.!{.....]
  | | | |         [snip 18448 bytes]
  | | | | 104) Olympus_ImageProcessing_0x0637 = 1834 3647 1378 2735
  | | | |     - Tag 0x0637 (8 bytes, int16u[4]):
  | | | |         a3f0: 2a 07 3f 0e 62 05 af 0a                         [*.?.b...]
  | | | | 105) Olympus_ImageProcessing_0x0638 = 0
  | | | |     - Tag 0x0638 (4 bytes, int32u[1]):
  | | | |         15e6: 00 00 00 00                                     [....]
  | | | | 106) Olympus_ImageProcessing_0x0640 = 0
  | | | |     - Tag 0x0640 (2 bytes, int16u[1]):
  | | | |         15f2: 00 00                                           [..]
  | | | | 107) Olympus_ImageProcessing_0x0641 = 5
  | | | |     - Tag 0x0641 (2 bytes, int16u[1]):
  | | | |         15fe: 05 00                                           [..]
  | | | | 108) Olympus_ImageProcessing_0x0642 = 0
  | | | |     - Tag 0x0642 (2 bytes, int16u[1]):
  | | | |         160a: 00 00                                           [..]
  | | | | 109) Olympus_ImageProcessing_0x0643 = 2
  | | | |     - Tag 0x0643 (2 bytes, int16u[1]):
  | | | |         1616: 02 00                                           [..]
  | | | | 110) Olympus_ImageProcessing_0x0644 = 5
  | | | |     - Tag 0x0644 (2 bytes, int16u[1]):
  | | | |         1622: 05 00                                           [..]
  | | | | 111) Olympus_ImageProcessing_0x0645 = 4
  | | | |     - Tag 0x0645 (2 bytes, int16u[1]):
  | | | |         162e: 04 00                                           [..]
  | | | | 112) Olympus_ImageProcessing_0x0646 = 3
  | | | |     - Tag 0x0646 (2 bytes, int16u[1]):
  | | | |         163a: 03 00                                           [..]
  | | | | 113) Olympus_ImageProcessing_0x0647 = 2
  | | | |     - Tag 0x0647 (2 bytes, int16u[1]):
  | | | |         1646: 02 00                                           [..]
  | | | | 114) Olympus_ImageProcessing_0x0648 = 3
  | | | |     - Tag 0x0648 (2 bytes, int16u[1]):
  | | | |         1652: 03 00                                           [..]
  | | | | 115) Olympus_ImageProcessing_0x0649 = 4
  | | | |     - Tag 0x0649 (2 bytes, int16u[1]):
  | | | |         165e: 04 00                                           [..]
  | | | | 116) Olympus_ImageProcessing_0x0650 = 7
  | | | |     - Tag 0x0650 (2 bytes, int16u[1]):
  | | | |         166a: 07 00                                           [..]
  | | | | 117) Olympus_ImageProcessing_0x0651 = 15
  | | | |     - Tag 0x0651 (2 bytes, int16u[1]):
  | | | |         1676: 0f 00                                           [..]
  | | | | 118) Olympus_ImageProcessing_0x0652 = 12
  | | | |     - Tag 0x0652 (2 bytes, int16u[1]):
  | | | |         1682: 0c 00                                           [..]
  | | | | 119) Olympus_ImageProcessing_0x0653 = 5
  | | | |     - Tag 0x0653 (2 bytes, int16u[1]):
  | | | |         168e: 05 00                                           [..]
  | | | | 120) Olympus_ImageProcessing_0x0654 = 237
  | | | |     - Tag 0x0654 (2 bytes, int16u[1]):
  | | | |         169a: ed 00                                           [..]
  | | | | 121) Olympus_ImageProcessing_0x0800 = 0 0 0 0 0 0 0 0 0
  | | | |     - Tag 0x0800 (36 bytes, float[9]):
  | | | |         2acc: 00 00 00 00 00 00 00 00 00 00 00 00 00 00 00 00 [................]
  | | | |         2adc: 00 00 00 00 00 00 00 00 00 00 00 00 00 00 00 00 [................]
  | | | |         2aec: 00 00 00 00                                     [....]
  | | | | 122) Olympus_ImageProcessing_0x0801 = 0 0 0 0 0 0 0 0 0 0 0 0 0 0 0 0
  | | | |     - Tag 0x0801 (32 bytes, int16u[16]):
  | | | |         2af0: 00 00 00 00 00 00 00 00 00 00 00 00 00 00 00 00 [................]
  | | | |         2b00: 00 00 00 00 00 00 00 00 00 00 00 00 00 00 00 00 [................]
  | | | | 123) Olympus_ImageProcessing_0x0802 = 159.690367 (11140000/69760)
  | | | |     - Tag 0x0802 (8 bytes, rational64u[1]):
  | | | |         2b10: a0 fb a9 00 80 10 01 00                         [........]
  | | | | 124) Olympus_ImageProcessing_0x0803 = 12 20 24
  | | | |     - Tag 0x0803 (6 bytes, int16u[3]):
  | | | |         2b18: 0c 00 14 00 18 00                               [......]
  | | | | 125) Olympus_ImageProcessing_0x0804 = 0 0
  | | | |     - Tag 0x0804 (4 bytes, int16u[2]):
  | | | |         16d6: 00 00 00 00                                     [....]
  | | | | 126) SensorCalibration = 10 488
  | | | |     - Tag 0x0805 (4 bytes, int16s[2]):
  | | | |         16e2: 0a 00 e8 01                                     [....]
  | | | | 127) Olympus_ImageProcessing_0x1003 = 8
  | | | |     - Tag 0x1003 (2 bytes, int16u[1]):
  | | | |         16ee: 08 00                                           [..]
  | | | | 128) Olympus_ImageProcessing_0x1004 = 1280
  | | | |     - Tag 0x1004 (2 bytes, int16u[1]):
  | | | |         16fa: 00 05                                           [..]
  | | | | 129) Olympus_ImageProcessing_0x1005 = 0 0
  | | | |     - Tag 0x1005 (4 bytes, int16u[2]):
  | | | |         1706: 00 00 00 00                                     [....]
  | | | | 130) Olympus_ImageProcessing_0x1006 = 0 0 0 0 0 0 0 0
  | | | |     - Tag 0x1006 (16 bytes, int16u[8]):
  | | | |         2b2e: 00 00 00 00 00 00 00 00 00 00 00 00 00 00 00 00 [................]
  | | | | 131) Olympus_ImageProcessing_0x1007 = 0 0 0 0 0
  | | | |     - Tag 0x1007 (10 bytes, int16u[5]):
  | | | |         2b3e: 00 00 00 00 00 00 00 00 00 00                   [..........]
  | | | | 132) Olympus_ImageProcessing_0x1008 = 0
  | | | |     - Tag 0x1008 (2 bytes, int16u[1]):
  | | | |         172a: 00 00                                           [..]
  | | | | 133) Olympus_ImageProcessing_0x1009 = 0 0 0
  | | | |     - Tag 0x1009 (6 bytes, int16u[3]):
  | | | |         2b4a: 00 00 00 00 00 00                               [......]
  | | | | 134) Olympus_ImageProcessing_0x100a = 0 0 0
  | | | |     - Tag 0x100a (6 bytes, int16u[3]):
  | | | |         2b50: 00 00 00 00 00 00                               [......]
  | | | | 135) NoiseReduction2 = 0
  | | | |     - Tag 0x1010 (2 bytes, int16u[1]):
  | | | |         174e: 00 00                                           [..]
  | | | | 136) DistortionCorrection2 = 0
  | | | |     - Tag 0x1011 (2 bytes, int16u[1]):
  | | | |         175a: 00 00                                           [..]
  | | | | 137) ShadingCompensation2 = 0
  | | | |     - Tag 0x1012 (2 bytes, int16u[1]):
  | | | |         1766: 00 00                                           [..]
  | | | | 138) Olympus_ImageProcessing_0x1013 = 0 0 0 0 0 0 0 0 0 0
  | | | |     - Tag 0x1013 (20 bytes, int16u[10]):
  | | | |         2b5c: 00 00 00 00 00 00 00 00 00 00 00 00 00 00 00 00 [................]
  | | | |         2b6c: 00 00 00 00                                     [....]
  | | | | 139) Olympus_ImageProcessing_0x1014 = 0 0 0 0 0 0 0 0 0 0
  | | | |     - Tag 0x1014 (20 bytes, int16u[10]):
  | | | |         2b70: 00 00 00 00 00 00 00 00 00 00 00 00 00 00 00 00 [................]
  | | | |         2b80: 00 00 00 00                                     [....]
  | | | | 140) Olympus_ImageProcessing_0x1015 = 0 0
  | | | |     - Tag 0x1015 (4 bytes, int16u[2]):
  | | | |         178a: 00 00 00 00                                     [....]
  | | | | 141) Olympus_ImageProcessing_0x1016 = 0 0 0 0
  | | | |     - Tag 0x1016 (8 bytes, int16u[4]):
  | | | |         2b88: 00 00 00 00 00 00 00 00                         [........]
  | | | | 142) Olympus_ImageProcessing_0x1017 = 0 0 0
  | | | |     - Tag 0x1017 (6 bytes, int16u[3]):
  | | | |         2b90: 00 00 00 00 00 00                               [......]
  | | | | 143) Olympus_ImageProcessing_0x1018 = 0 0 0
  | | | |     - Tag 0x1018 (6 bytes, int16u[3]):
  | | | |         2b96: 00 00 00 00 00 00                               [......]
  | | | | 144) Olympus_ImageProcessing_0x1019 = 0 0
  | | | |     - Tag 0x1019 (4 bytes, int16u[2]):
  | | | |         17ba: 00 00 00 00                                     [....]
  | | | | 145) Olympus_ImageProcessing_0x101a = 0
  | | | |     - Tag 0x101a (2 bytes, int16u[1]):
  | | | |         17c6: 00 00                                           [..]
  | | | | 146) Olympus_ImageProcessing_0x101b = 0 0
  | | | |     - Tag 0x101b (4 bytes, int16s[2]):
  | | | |         17d2: 00 00 00 00                                     [....]
  | | | | 147) MultipleExposureMode = 2 1
  | | | |     - Tag 0x101c (4 bytes, int16u[2]):
  | | | |         17de: 02 00 01 00                                     [....]
  | | | | 148) Olympus_ImageProcessing_0x101e = 0 0
  | | | |     - Tag 0x101e (4 bytes, int16u[2]):
  | | | |         17ea: 00 00 00 00                                     [....]
  | | | | 149) Olympus_ImageProcessing_0x1102 = 0 1 2 3
  | | | |     - Tag 0x1102 (4 bytes, int8u[4]):
  | | | |         17f6: 00 01 02 03                                     [....]
  | | | | 150) UnknownBlock3 = x....(Y(U*n*.).-.+@(:*j-dBT/O*.*.)%,.-.*.+..=(.$.&b%.%.#.".%.7.=./ho.hKr.e.e6q s.1.0.2.0./.1.4.3.8.Y.7.....+._._EY.C.6.:+<.?.C:=b6"8.:.9.7.3.7z7.7g3.4.7.:.8V:.4.6.4.5Y8.8.8z6.8.;]<};.;.9.8$:K5.:$;.:F6Q2<2.1.0.-r162.3.1$2C5T82=Y:.?.>.9*5.5.2.366l7b5.0Y3.7;7K9.8.;.<.<.;.:.=.;.<.9.>(<.=K;.9.6p6.9.3)5Q9.1.4x.x.x.x.x.x.x.x.q$.$.&@'.%.(.+.,;+/&Q.d.K.2.).(.+.,.+.,.,...&.#^#@!.".".(q3I;r>.4hj.iiiPc`d.g.lP1B4.2n/E1 2A7.4.7.U_>.G.LFP.=.:.:b9.7.;.=.?.B.?Y9.9v9.7x68.7.7.6{6J4.6.;)?S<.5v5.5.7.7.8.6u4.7.:.;.:.:.9.8)7.3.4y3J6.322.3.0m0./.3.3.0.0.1U6.7.9.9.;Q>.5.2.5.296.6%3^3./..k2^5O8.9.;U;.;.:.6m;.7.:.:.;.:.<d9x7&9'6,;.;.6@9.6H6q$q$q$q$q$q$q$q$7)8%.%w'.$.)[).B.\.YS4o.."B4H*0+.+~,o+k,.....&. . .!#+.'-.:.>.>.9.`.g0d.crd.l.n.0j1.3.4.3.6A9.9.:t?gL.8.9.8.<~9-8.6.8b;.:~<$@!=.9@9.8.5.8.8":.:.9.5.2.469><.:.6'7.6.1.4.8f8.8F5.9':]9.:.6P6`7776.3*4.5.6.3.3.0...4.2C1./...6.4s7@<5;.926)7Z4s2.9a4.4d3d2.0.3.6.7~7.7d6.7.8.3.:B<.:.:.8F:.<"9a3.4.5I9.;W9^8.:.47)7)7)7)7)7)7)7).&."1).)K.!F.UW?.#v.... C@u8.(P)`).'.)...,..E,C!.".$.-x(%..A.EUC.8.T.e.e(c.e.o.j.3.4.5B6!2C8I<.;.8.-1=.9.7.7C4.3.0.3.8.8.:.A.?.:.8.6.8.5W7.9.9<<z:.7,3.5.6.7.7.4.9.5.4.5B4'5.6.5P9.:.7#;y7.7.5.5.6U4.2.6.6{1.1.1z1!5v2./c0.1]3.6c8.;.8.:.8.7h1.0.5 5 8*7./.1.5\8;6.7.6.6(6.4w1.;S=v7.8.7O;l<.6.3.786.6.:.9.9.6.4.&.&.&.&.&.&.&.&.$.$`C.X.T.(/......!HK{A.f.;.*.,1*.*...0.-m n+x$.$.%r-u*.1.E.O.E.:oGmh"fBb9dAh.e#6.7.698B5.7C9.:.:.8#?.7.3)5.4f5.3.4.6.8.8.B.<08.9.8 :.:L:.9.:.<.:x4.0.6.7.9C7c518^4.4.0.1.3$6?6.86;{;0:i5.7!5.2.6.4.2H6.4G1.0.4.172|1.,/.3"5!9&:@9.6u9.9.7.062%9;;.9-673.4.6<:.8.8.8.9.7.2.3.8y<.9J8.9.9X9.6<5.7.4S8.9n9.7,4.2.$.$.$.$.$.$.$.$fO.K.7..)...n"./?9.-.d.L.c.<.-.*.(*,R-./v-. m*9$.$a(..!)z0.E.FL>.<.?.g.d`b.k}t.Ow<.6.6.<.7.4.5787=.:d9w7.4:8.8F7.7.6.6.9.7.=.9.7F817T7.:j<28.9.9.5[5*4.6.7.6.3S1q322w1./.2.5K7P8.:.:r:.9.8.5.3.2.3K2.4G6*4.0>0)2.1.4t4r0;1.3G8.:.8.9v5.9.;.:.5.3.7.7.6.6n6.6.6.6.8.8.7.9A;.3.2.7=<.9~6.7w6.9G6.4.4.79:.;.;.7e3S4fOfOfOfOfOfOfOfO..".J...f....+'?H.1De.M.b,?I+.+.)W.c-7/.,../+.$Y'#,.1.,@2.>.2A>.A.?.m~y.m7W.8J7l;.7[9$=t7 7p4.5.=.:.:L9.8.7P5.9.7.5W7d8W7.?5694[snip]
  | | | |     - Tag 0x1103 (145920 bytes, undef[145920]):
  | | | |       145400: 78 0e 0a 1b 84 28 59 28 55 2a 6e 2a db 29 94 2d [x....(Y(U*n*.).-]
  | | | |       145410: d3 2b 40 28 3a 2a 6a 2d 64 42 54 2f 4f 2a 91 2a [.+@(:*j-dBT/O*.*]
  | | | |       145420: c8 29 25 2c eb 2d a4 2a bf 2b b2 1e 3d 28 0b 24 [.)%,.-.*.+..=(.$]
  | | | |       145430: a5 26 62 25 fe 25 ee 23 df 22 e2 25 17 37 ed 3d [.&b%.%.#.".%.7.=]
  | | | |       145440: e2 2f 68 6f a0 68 4b 72 91 65 b1 65 36 71 20 73 [./ho.hKr.e.e6q s]
  | | | |       145450: d1 31 a8 30 05 32 12 30 ae 2f 1c 31 15 34 be 33 [.1.0.2.0./.1.4.3]
  | | | |       145460: ba 38 aa 59 b3 37 b5 1d af 1e d4 2b f1 5f e9 5f [.8.Y.7.....+._._]
  | | | |       145470: 45 59 b0 43 01 36 c5 3a 2b 3c b0 3f 83 43 3a 3d [EY.C.6.:+<.?.C:=]
  | | | |       145480: 62 36 22 38 c4 3a c2 39 1f 37 03 33 1b 37 7a 37 [b6"8.:.9.7.3.7z7]
  | | | |       145490: 1b 37 67 33 c7 34 ad 37 83 3a fb 38 56 3a 85 34 [.7g3.4.7.:.8V:.4]
  | | | |       1454a0: 02 36 c8 34 2e 35 59 38 b6 38 93 38 7a 36 da 38 [.6.4.5Y8.8.8z6.8]
  | | | |       1454b0: 8f 3b 5d 3c 7d 3b e8 3b e6 39 be 38 24 3a 4b 35 [.;]<};.;.9.8$:K5]
  | | | |       1454c0: ab 3a 24 3b 9a 3a 46 36 51 32 3c 32 bb 31 06 30 [.:$;.:F6Q2<2.1.0]
  | | | |       1454d0: fd 2d 72 31 36 32 a7 33 c9 31 24 32 43 35 54 38 [.-r162.3.1$2C5T8]
  | | | |       1454e0: 32 3d 59 3a 09 3f 12 3e a4 39 2a 35 85 35 f0 32 [2=Y:.?.>.9*5.5.2]
  | | | |       1454f0: bd 33 36 36 6c 37 62 35 f5 30 59 33 9a 37 3b 37 [.366l7b5.0Y3.7;7]
  | | | |       145500: 4b 39 81 38 a3 3b df 3c 8d 3c d4 3b 18 3a a8 3d [K9.8.;.<.<.;.:.=]
  | | | |       145510: a6 3b 82 3c d9 39 bb 3e 28 3c c0 3d 4b 3b 93 39 [.;.<.9.>(<.=K;.9]
  | | | |       145520: e0 36 70 36 12 39 f1 33 29 35 51 39 92 31 9d 34 [.6p6.9.3)5Q9.1.4]
  | | | |       145530: 78 0e 78 0e 78 0e 78 0e 78 0e 78 0e 78 0e 78 0e [x.x.x.x.x.x.x.x.]
  | | | |       145540: 71 24 85 24 bd 26 40 27 a4 25 ca 28 13 2b bd 2c [q$.$.&@'.%.(.+.,]
  | | | |       145550: 3b 2b 00 2f 26 51 aa 64 8c 4b f4 32 cf 29 f3 28 [;+./&Q.d.K.2.).(]
  | | | |       145560: 13 2b b5 2c dd 2b aa 2c 88 2c b0 1f a7 26 1d 23 [.+.,.+.,.,...&.#]
  | | | |       145570: 5e 23 40 21 ec 22 bd 22 9a 28 71 33 49 3b 72 3e [^#@!.".".(q3I;r>]
  | | | |       145580: 18 34 68 6a fb 69 69 69 50 63 60 64 b0 67 81 6c [.4hj.iiiPc`d.g.l]
  | | | |       145590: 50 31 42 34 d9 32 6e 2f 45 31 20 32 41 37 b6 34 [P1B4.2n/E1 2A7.4]
  | | | |       1455a0: a0 37 c5 55 5f 3e fb 47 ee 4c 46 50 fb 3d e8 3a [.7.U_>.G.LFP.=.:]
  | | | |       1455b0: fa 3a 62 39 a6 37 0a 3b 85 3d c5 3f bd 42 01 3f [.:b9.7.;.=.?.B.?]
  | | | |       1455c0: 59 39 af 39 76 39 d4 37 78 36 00 38 fe 37 17 37 [Y9.9v9.7x6.8.7.7]
  | | | |       1455d0: 84 36 7b 36 4a 34 a5 36 d4 3b 29 3f 53 3c fb 35 [.6{6J4.6.;)?S<.5]
  | | | |       1455e0: 76 35 cf 35 a9 37 ab 37 db 38 cb 36 75 34 ae 37 [v5.5.7.7.8.6u4.7]
  | | | |       1455f0: 1e 3a c8 3b 1e 3a b1 3a 08 39 a1 38 29 37 1c 33 [.:.;.:.:.9.8)7.3]
  | | | |       145600: f0 34 79 33 4a 36 17 33 32 32 11 33 ef 30 6d 30 [.4y3J6.322.3.0m0]
  | | | |       145610: 98 2f 16 33 dd 33 9d 30 82 30 06 31 55 36 e6 37 [./.3.3.0.0.1U6.7]
  | | | |       145620: e5 39 f5 39 dd 3b 51 3e 90 35 ac 32 c1 35 91 32 [.9.9.;Q>.5.2.5.2]
  | | | |       145630: 39 36 10 36 25 33 5e 33 eb 2f dd 2e 6b 32 5e 35 [96.6%3^3./..k2^5]
  | | | |       145640: 4f 38 04 39 17 3b 55 3b ff 3b fb 3a 9c 36 6d 3b [O8.9.;U;.;.:.6m;]
  | | | |       145650: f3 37 1e 3a ee 3a 91 3b c6 3a b8 3c 64 39 78 37 [.7.:.:.;.:.<d9x7]
  | | | |       145660: 26 39 27 36 2c 3b 1b 3b f6 36 40 39 a1 36 48 36 [&9'6,;.;.6@9.6H6]
  | | | |       145670: 71 24 71 24 71 24 71 24 71 24 71 24 71 24 71 24 [q$q$q$q$q$q$q$q$]
  | | | |       145680: 37 29 38 25 d2 25 77 27 01 24 89 29 5b 29 14 42 [7)8%.%w'.$.)[).B]
  | | | |       145690: e2 5c eb 59 53 34 6f 1e a5 22 42 34 48 2a 30 2b [.\.YS4o.."B4H*0+]
  | | | |       1456a0: ef 2b 7e 2c 6f 2b 6b 2c 2e 2e 80 1f b3 26 02 20 [.+~,o+k,.....&. ]
  | | | |       1456b0: 95 20 ce 21 23 2b e3 27 00 2d de 3a b5 3e ca 3e [. .!#+.'.-.:.>.>]
  | | | |       1456c0: aa 39 92 60 dc 67 30 64 99 63 72 64 cd 6c c4 6e [.9.`.g0d.crd.l.n]
  | | | |       1456d0: d0 30 6a 31 11 33 bc 34 8c 33 15 36 41 39 97 39 [.0j1.3.4.3.6A9.9]
  | | | |       1456e0: 16 3a 74 3f 67 4c fa 38 99 39 e3 38 e1 3c 7e 39 [.:t?gL.8.9.8.<~9]
  | | | |       1456f0: 2d 38 d3 36 ff 38 62 3b bd 3a 7e 3c 24 40 21 3d [-8.6.8b;.:~<$@!=]
  | | | |       145700: e4 39 40 39 86 38 d4 35 ab 38 e1 38 22 3a b2 3a [.9@9.8.5.8.8":.:]
  | | | |       145710: 06 39 19 35 b9 32 e3 34 36 39 3e 3c fa 3a d9 36 [.9.5.2.469><.:.6]
  | | | |       145720: 27 37 bd 36 d9 31 d9 34 1a 38 66 38 ae 38 46 35 ['7.6.1.4.8f8.8F5]
  | | | |       145730: 85 39 27 3a 5d 39 02 3a fd 36 50 36 60 37 37 37 [.9':]9.:.6P6`777]
  | | | |       145740: 00 36 aa 33 2a 34 ae 35 a5 36 a1 33 c4 33 10 30 [.6.3*4.5.6.3.3.0]
  | | | |       145750: 16 2e 80 34 a5 32 43 31 b4 2f e2 2e 05 36 9e 34 [...4.2C1./...6.4]
  | | | |       145760: 73 37 40 3c 35 3b 95 39 32 36 29 37 5a 34 73 32 [s7@<5;.926)7Z4s2]
  | | | |       145770: 8f 39 61 34 d4 34 64 33 64 32 0c 30 bf 33 bb 36 [.9a4.4d3d2.0.3.6]
  | | | |       145780: 1d 37 7e 37 13 37 64 36 d6 37 07 38 e4 33 84 3a [.7~7.7d6.7.8.3.:]
  | | | |       145790: 42 3c c3 3a f0 3a a9 38 46 3a e2 3c 22 39 61 33 [B<.:.:.8F:.<"9a3]
  | | | |       1457a0: a7 34 84 35 49 39 90 3b 57 39 5e 38 a2 3a 8f 34 [.4.5I9.;W9^8.:.4]
  | | | |       1457b0: 37 29 37 29 37 29 37 29 37 29 37 29 37 29 37 29 [7)7)7)7)7)7)7)7)]
  | | | |       1457c0: b6 26 fd 22 31 29 b8 29 4b 2e 21 46 0d 55 57 3f [.&."1).)K.!F.UW?]
  | | | |       1457d0: 01 23 76 1e ba 1e d3 20 43 40 75 38 c8 28 50 29 [.#v.... C@u8.(P)]
  | | | |       1457e0: 60 29 8a 27 f4 29 fb 2e 1a 2c cb 1f 45 2c 43 21 [`).'.)...,..E,C!]
  | | | |       1457f0: e4 22 bc 24 01 2d 78 28 25 2e a9 41 06 45 55 43 [.".$.-x(%..A.EUC]
  | | | |       145800: e5 38 d6 54 f0 65 ef 65 28 63 d7 65 14 6f ef 6a [.8.T.e.e(c.e.o.j]
  | | | |       145810: 1b 33 ef 34 e7 35 42 36 21 32 43 38 49 3c 8e 3b [.3.4.5B6!2C8I<.;]
  | | | |       145820: a4 38 f4 2d 31 3d f4 39 f0 37 0f 37 43 34 1f 33 [.8.-1=.9.7.7C4.3]
  | | | |       145830: 90 30 97 33 1a 38 13 38 cd 3a e1 41 9e 3f e2 3a [.0.3.8.8.:.A.?.:]
  | | | |       145840: a8 38 e0 36 87 38 ea 35 57 37 e4 39 b6 39 3c 3c [.8.6.8.5W7.9.9<<]
  | | | |       145850: 7a 3a e7 37 2c 33 14 35 b2 36 c0 37 d5 37 a3 34 [z:.7,3.5.6.7.7.4]
  | | | |       145860: 80 39 87 35 2e 34 d5 35 42 34 27 35 19 36 fe 35 [.9.5.4.5B4'5.6.5]
  | | | |       145870: 50 39 d6 3a b6 37 23 3b 79 37 a7 37 89 35 eb 35 [P9.:.7#;y7.7.5.5]
  | | | |       145880: 16 36 55 34 e0 32 0e 36 9b 36 7b 31 e9 31 f1 31 [.6U4.2.6.6{1.1.1]
  | | | |       145890: 7a 31 21 35 76 32 aa 2f 63 30 14 31 5d 33 f5 36 [z1!5v2./c0.1]3.6]
  | | | |       1458a0: 63 38 df 3b 8d 38 13 3a de 38 ad 37 68 31 f6 30 [c8.;.8.:.8.7h1.0]
  | | | |       1458b0: ca 35 20 35 20 38 2a 37 c4 2f f9 31 cd 35 5c 38 [.5 5 8*7./.1.5\8]
  | | | |       1458c0: 3b 36 9b 37 14 36 2e 36 28 36 f0 34 77 31 01 3b [;6.7.6.6(6.4w1.;]
  | | | |       1458d0: 53 3d 76 37 f3 38 0f 37 4f 3b 6c 3c 9d 36 98 33 [S=v7.8.7O;l<.6.3]
  | | | |       1458e0: b1 37 38 36 d0 36 a7 3a cb 39 ad 39 f5 36 c3 34 [.786.6.:.9.9.6.4]
  | | | |       1458f0: b6 26 b6 26 b6 26 b6 26 b6 26 b6 26 b6 26 b6 26 [.&.&.&.&.&.&.&.&]
  | | | |       145900: fa 24 ec 24 60 43 d1 58 2e 54 df 28 2f 1c d8 1e [.$.$`C.X.T.(/...]
  | | | |       145910: 87 1f 8e 21 48 4b 7b 41 1d 66 7f 3b d0 2a b5 2c [...!HK{A.f.;.*.,]
  | | | |       145920: 31 2a 0b 2a c0 2e 87 30 a5 2d 6d 20 6e 2b 78 24 [1*.*...0.-m n+x$]
  | | | |       145930: d1 24 e7 25 72 2d 75 2a 11 31 c6 45 db 4f f6 45 [.$.%r-u*.1.E.O.E]
  | | | |       145940: f6 3a 6f 47 6d 68 22 66 42 62 39 64 41 68 fb 65 [.:oGmh"fBb9dAh.e]
  | | | |       145950: 23 36 9a 37 99 36 39 38 42 35 a3 37 43 39 a6 3a [#6.7.698B5.7C9.:]
  | | | |       145960: ee 3a 97 38 23 3f 03 37 c6 33 29 35 9c 34 66 35 [.:.8#?.7.3)5.4f5]
  | | | |       145970: ce 33 7f 34 d7 36 ae 38 9c 38 17 42 be 3c 30 38 [.3.4.6.8.8.B.<08]
  | | | |       145980: 91 39 15 38 20 3a ae 3a 4c 3a e8 39 01 3a 15 3c [.9.8 :.:L:.9.:.<]
  | | | |       145990: 97 3a 78 34 94 30 e2 36 0f 37 98 39 43 37 63 35 [.:x4.0.6.7.9C7c5]
  | | | |       1459a0: 31 38 5e 34 a3 34 1f 30 e8 31 e8 33 24 36 3f 36 [18^4.4.0.1.3$6?6]
  | | | |       1459b0: 96 38 36 3b 7b 3b 30 3a 69 35 82 37 21 35 a1 32 [.86;{;0:i5.7!5.2]
  | | | |       1459c0: b4 36 9b 34 7f 32 48 36 86 34 47 31 eb 30 05 34 [.6.4.2H6.4G1.0.4]
  | | | |       1459d0: e4 31 37 32 7c 31 f0 2c 00 2f 03 33 22 35 21 39 [.172|1.,./.3"5!9]
  | | | |       1459e0: 26 3a 40 39 c7 36 75 39 ad 39 d8 37 c7 30 36 32 [&:@9.6u9.9.7.062]
  | | | |       1459f0: 25 39 3b 3b d7 39 2d 36 37 33 e6 34 c1 36 3c 3a [%9;;.9-673.4.6<:]
  | | | |       145a00: db 38 de 38 a5 38 f6 39 f2 37 f9 32 cf 33 fa 38 [.8.8.8.9.7.2.3.8]
  | | | |       145a10: 79 3c 81 39 4a 38 f2 39 12 39 58 39 c6 36 3c 35 [y<.9J8.9.9X9.6<5]
  | | | |       145a20: c3 37 a8 34 53 38 f4 39 6e 39 ba 37 2c 34 f3 32 [.7.4S8.9n9.7,4.2]
  | | | |       145a30: fa 24 fa 24 fa 24 fa 24 fa 24 fa 24 fa 24 fa 24 [.$.$.$.$.$.$.$.$]
  | | | |       145a40: 66 4f cd 4b eb 37 01 18 29 19 fa 18 6e 22 e6 2f [fO.K.7..)...n"./]
  | | | |       145a50: 3f 39 d7 2d 91 64 81 4c c3 63 a4 3c a3 2d 06 2a [?9.-.d.L.c.<.-.*]
  | | | |       145a60: ad 28 2a 2c 52 2d e7 2f 76 2d a2 20 6d 2a 39 24 [.(*,R-./v-. m*9$]
  | | | |       145a70: 13 24 61 28 e1 2e 21 29 7a 30 e5 45 8e 46 4c 3e [.$a(..!)z0.E.FL>]
  | | | |       145a80: 04 3c ee 3f 99 67 8c 64 60 62 a2 6b 7d 74 8f 4f [.<.?.g.d`b.k}t.O]
  | | | |       145a90: 77 3c 18 36 1a 36 ef 3c f4 37 d9 34 a2 35 37 38 [w<.6.6.<.7.4.578]
  | | | |       145aa0: 37 3d 8d 3a 64 39 77 37 7f 34 3a 38 93 38 46 37 [7=.:d9w7.4:8.8F7]
  | | | |       145ab0: dc 37 0e 36 c0 36 85 39 c3 37 a9 3d 16 39 0d 37 [.7.6.6.9.7.=.9.7]
  | | | |       145ac0: 46 38 31 37 54 37 dd 3a 6a 3c 32 38 bb 39 0e 39 [F817T7.:j<28.9.9]
  | | | |       145ad0: b4 35 5b 35 2a 34 15 36 8f 37 2e 36 d0 33 53 31 [.5[5*4.6.7.6.3S1]
  | | | |       145ae0: 71 33 32 32 77 31 15 2f 94 32 c0 35 4b 37 50 38 [q322w1./.2.5K7P8]
  | | | |       145af0: d1 3a a5 3a 72 3a fc 39 1d 38 ce 35 bd 33 ed 32 [.:.:r:.9.8.5.3.2]
  | | | |       145b00: 13 33 4b 32 f7 34 47 36 2a 34 90 30 3e 30 29 32 [.3K2.4G6*4.0>0)2]
  | | | |       145b10: ff 31 92 34 74 34 72 30 3b 31 16 33 47 38 fc 3a [.1.4t4r0;1.3G8.:]
  | | | |       145b20: 19 38 ae 39 76 35 e2 39 91 3b 19 3a e4 35 c2 33 [.8.9v5.9.;.:.5.3]
  | | | |       145b30: e3 37 a0 37 d6 36 db 36 6e 36 dc 36 18 36 f0 36 [.7.7.6.6n6.6.6.6]
  | | | |       145b40: f2 38 18 38 fb 37 9b 39 41 3b bc 33 e6 32 83 37 [.8.8.7.9A;.3.2.7]
  | | | |       145b50: 3d 3c 1e 39 7e 36 d8 37 77 36 ea 39 47 36 85 34 [=<.9~6.7w6.9G6.4]
  | | | |       145b60: 93 34 eb 37 39 3a a2 3b c7 3b a0 37 65 33 53 34 [.4.79:.;.;.7e3S4]
  | | | |       145b70: 66 4f 66 4f 66 4f 66 4f 66 4f 66 4f 66 4f 66 4f [fOfOfOfOfOfOfOfO]
  | | | |       145b80: d6 1e 22 18 4a 17 bc 17 66 1b 2e 1c a3 2b 27 3f [..".J...f....+'?]
  | | | |       145b90: 00 48 05 31 44 65 f3 4d d0 62 2c 3f 49 2b 8a 2b [.H.1De.M.b,?I+.+]
  | | | |       145ba0: b8 29 57 2e 63 2d 37 2f 11 2c ae 1e 2f 2b 82 24 [.)W.c-7/.,../+.$]
  | | | |       145bb0: 59 27 23 2c d6 31 da 2c 40 32 b2 3e a8 32 41 3e [Y'#,.1.,@2.>.2A>]
  | | | |       145bc0: 93 41 ba 3f 1c 6d 7e 79 e1 6d 37 57 c0 38 4a 37 [.A.?.m~y.m7W.8J7]
  | | | |       145bd0: 6c 3b 8b 37 5b 39 24 3d 74 37 20 37 70 34 be 35 [l;.7[9$=t7 7p4.5]
  | | | |       145be0: 0f 3d c3 3a c0 3a 4c 39 cd 38 b1 37 50 35 90 39 [.=.:.:L9.8.7P5.9]
  | | | |         [snip 143888 bytes]
  | | | | 151) UnknownBlock4 = x....(Y(U*n*.).-.+@(:*j-dBT/O*.*.)%,.-.*.+..=(.$.&b%.%.#.".%.7.=./ho.hKr.e.e6q s.1.0.2.0./.1.4.3.8.Y.7.....+._._EY.C.6.:+<.?.C:=b6"8.:.9.7.3.7z7.7g3.4.7.:.8V:.4.6.4.5Y8.8.8z6.8.;]<};.;.9.8$:K5.:$;.:F6Q2<2.1.0.-r162.3.1$2C5T82=Y:.?.>.9*5.5.2.366l7b5.0Y3.7;7K9.8.;.<.<.;.:.=.;.<.9.>(<.=K;.9.6p6.9.3)5Q9.1.4x.x.x.x.x.x.x.x.q$.$.&@'.%.(.+.,;+/&Q.d.K.2.).(.+.,.+.,.,...&.#^#@!.".".(q3I;r>.4hj.iiiPc`d.g.lP1B4.2n/E1 2A7.4.7.U_>.G.LFP.=.:.:b9.7.;.=.?.B.?Y9.9v9.7x68.7.7.6{6J4.6.;)?S<.5v5.5.7.7.8.6u4.7.:.;.:.:.9.8)7.3.4y3J6.322.3.0m0./.3.3.0.0.1U6.7.9.9.;Q>.5.2.5.296.6%3^3./..k2^5O8.9.;U;.;.:.6m;.7.:.:.;.:.<d9x7&9'6,;.;.6@9.6H6q$q$q$q$q$q$q$q$7)8%.%w'.$.)[).B.\.YS4o.."B4H*0+.+~,o+k,.....&. . .!#+.'-.:.>.>.9.`.g0d.crd.l.n.0j1.3.4.3.6A9.9.:t?gL.8.9.8.<~9-8.6.8b;.:~<$@!=.9@9.8.5.8.8":.:.9.5.2.469><.:.6'7.6.1.4.8f8.8F5.9':]9.:.6P6`7776.3*4.5.6.3.3.0...4.2C1./...6.4s7@<5;.926)7Z4s2.9a4.4d3d2.0.3.6.7~7.7d6.7.8.3.:B<.:.:.8F:.<"9a3.4.5I9.;W9^8.:.47)7)7)7)7)7)7)7).&."1).)K.!F.UW?.#v.... C@u8.(P)`).'.)...,..E,C!.".$.-x(%..A.EUC.8.T.e.e(c.e.o.j.3.4.5B6!2C8I<.;.8.-1=.9.7.7C4.3.0.3.8.8.:.A.?.:.8.6.8.5W7.9.9<<z:.7,3.5.6.7.7.4.9.5.4.5B4'5.6.5P9.:.7#;y7.7.5.5.6U4.2.6.6{1.1.1z1!5v2./c0.1]3.6c8.;.8.:.8.7h1.0.5 5 8*7./.1.5\8;6.7.6.6(6.4w1.;S=v7.8.7O;l<.6.3.786.6.:.9.9.6.4.&.&.&.&.&.&.&.&.$.$`C.X.T.(/......!HK{A.f.;.*.,1*.*...0.-m n+x$.$.%r-u*.1.E.O.E.:oGmh"fBb9dAh.e#6.7.698B5.7C9.:.:.8#?.7.3)5.4f5.3.4.6.8.8.B.<08.9.8 :.:L:.9.:.<.:x4.0.6.7.9C7c518^4.4.0.1.3$6?6.86;{;0:i5.7!5.2.6.4.2H6.4G1.0.4.172|1.,/.3"5!9&:@9.6u9.9.7.062%9;;.9-673.4.6<:.8.8.8.9.7.2.3.8y<.9J8.9.9X9.6<5.7.4S8.9n9.7,4.2.$.$.$.$.$.$.$.$fO.K.7..)...n"./?9.-.d.L.c.<.-.*.(*,R-./v-. m*9$.$a(..!)z0.E.FL>.<.?.g.d`b.k}t.Ow<.6.6.<.7.4.5787=.:d9w7.4:8.8F7.7.6.6.9.7.=.9.7F817T7.:j<28.9.9.5[5*4.6.7.6.3S1q322w1./.2.5K7P8.:.:r:.9.8.5.3.2.3K2.4G6*4.0>0)2.1.4t4r0;1.3G8.:.8.9v5.9.;.:.5.3.7.7.6.6n6.6.6.6.8.8.7.9A;.3.2.7=<.9~6.7w6.9G6.4.4.79:.;.;.7e3S4fOfOfOfOfOfOfOfO..".J...f....+'?H.1De.M.b,?I+.+.)W.c-7/.,../+.$Y'#,.1.,@2.>.2A>.A.?.m~y.m7W.8J7l;.7[9$=t7 7p4.5.=.:.:L9.8.7P5.9.7.5W7d8W7.?5694[snip]
  | | | |     - Tag 0x1104 (4608 bytes, undef[4608]):
  | | | |       145400: 78 0e 0a 1b 84 28 59 28 55 2a 6e 2a db 29 94 2d [x....(Y(U*n*.).-]
  | | | |       145410: d3 2b 40 28 3a 2a 6a 2d 64 42 54 2f 4f 2a 91 2a [.+@(:*j-dBT/O*.*]
  | | | |       145420: c8 29 25 2c eb 2d a4 2a bf 2b b2 1e 3d 28 0b 24 [.)%,.-.*.+..=(.$]
  | | | |       145430: a5 26 62 25 fe 25 ee 23 df 22 e2 25 17 37 ed 3d [.&b%.%.#.".%.7.=]
  | | | |       145440: e2 2f 68 6f a0 68 4b 72 91 65 b1 65 36 71 20 73 [./ho.hKr.e.e6q s]
  | | | |       145450: d1 31 a8 30 05 32 12 30 ae 2f 1c 31 15 34 be 33 [.1.0.2.0./.1.4.3]
  | | | |       145460: ba 38 aa 59 b3 37 b5 1d af 1e d4 2b f1 5f e9 5f [.8.Y.7.....+._._]
  | | | |       145470: 45 59 b0 43 01 36 c5 3a 2b 3c b0 3f 83 43 3a 3d [EY.C.6.:+<.?.C:=]
  | | | |       145480: 62 36 22 38 c4 3a c2 39 1f 37 03 33 1b 37 7a 37 [b6"8.:.9.7.3.7z7]
  | | | |       145490: 1b 37 67 33 c7 34 ad 37 83 3a fb 38 56 3a 85 34 [.7g3.4.7.:.8V:.4]
  | | | |       1454a0: 02 36 c8 34 2e 35 59 38 b6 38 93 38 7a 36 da 38 [.6.4.5Y8.8.8z6.8]
  | | | |       1454b0: 8f 3b 5d 3c 7d 3b e8 3b e6 39 be 38 24 3a 4b 35 [.;]<};.;.9.8$:K5]
  | | | |       1454c0: ab 3a 24 3b 9a 3a 46 36 51 32 3c 32 bb 31 06 30 [.:$;.:F6Q2<2.1.0]
  | | | |       1454d0: fd 2d 72 31 36 32 a7 33 c9 31 24 32 43 35 54 38 [.-r162.3.1$2C5T8]
  | | | |       1454e0: 32 3d 59 3a 09 3f 12 3e a4 39 2a 35 85 35 f0 32 [2=Y:.?.>.9*5.5.2]
  | | | |       1454f0: bd 33 36 36 6c 37 62 35 f5 30 59 33 9a 37 3b 37 [.366l7b5.0Y3.7;7]
  | | | |       145500: 4b 39 81 38 a3 3b df 3c 8d 3c d4 3b 18 3a a8 3d [K9.8.;.<.<.;.:.=]
  | | | |       145510: a6 3b 82 3c d9 39 bb 3e 28 3c c0 3d 4b 3b 93 39 [.;.<.9.>(<.=K;.9]
  | | | |       145520: e0 36 70 36 12 39 f1 33 29 35 51 39 92 31 9d 34 [.6p6.9.3)5Q9.1.4]
  | | | |       145530: 78 0e 78 0e 78 0e 78 0e 78 0e 78 0e 78 0e 78 0e [x.x.x.x.x.x.x.x.]
  | | | |       145540: 71 24 85 24 bd 26 40 27 a4 25 ca 28 13 2b bd 2c [q$.$.&@'.%.(.+.,]
  | | | |       145550: 3b 2b 00 2f 26 51 aa 64 8c 4b f4 32 cf 29 f3 28 [;+./&Q.d.K.2.).(]
  | | | |       145560: 13 2b b5 2c dd 2b aa 2c 88 2c b0 1f a7 26 1d 23 [.+.,.+.,.,...&.#]
  | | | |       145570: 5e 23 40 21 ec 22 bd 22 9a 28 71 33 49 3b 72 3e [^#@!.".".(q3I;r>]
  | | | |       145580: 18 34 68 6a fb 69 69 69 50 63 60 64 b0 67 81 6c [.4hj.iiiPc`d.g.l]
  | | | |       145590: 50 31 42 34 d9 32 6e 2f 45 31 20 32 41 37 b6 34 [P1B4.2n/E1 2A7.4]
  | | | |       1455a0: a0 37 c5 55 5f 3e fb 47 ee 4c 46 50 fb 3d e8 3a [.7.U_>.G.LFP.=.:]
  | | | |       1455b0: fa 3a 62 39 a6 37 0a 3b 85 3d c5 3f bd 42 01 3f [.:b9.7.;.=.?.B.?]
  | | | |       1455c0: 59 39 af 39 76 39 d4 37 78 36 00 38 fe 37 17 37 [Y9.9v9.7x6.8.7.7]
  | | | |       1455d0: 84 36 7b 36 4a 34 a5 36 d4 3b 29 3f 53 3c fb 35 [.6{6J4.6.;)?S<.5]
  | | | |       1455e0: 76 35 cf 35 a9 37 ab 37 db 38 cb 36 75 34 ae 37 [v5.5.7.7.8.6u4.7]
  | | | |       1455f0: 1e 3a c8 3b 1e 3a b1 3a 08 39 a1 38 29 37 1c 33 [.:.;.:.:.9.8)7.3]
  | | | |       145600: f0 34 79 33 4a 36 17 33 32 32 11 33 ef 30 6d 30 [.4y3J6.322.3.0m0]
  | | | |       145610: 98 2f 16 33 dd 33 9d 30 82 30 06 31 55 36 e6 37 [./.3.3.0.0.1U6.7]
  | | | |       145620: e5 39 f5 39 dd 3b 51 3e 90 35 ac 32 c1 35 91 32 [.9.9.;Q>.5.2.5.2]
  | | | |       145630: 39 36 10 36 25 33 5e 33 eb 2f dd 2e 6b 32 5e 35 [96.6%3^3./..k2^5]
  | | | |       145640: 4f 38 04 39 17 3b 55 3b ff 3b fb 3a 9c 36 6d 3b [O8.9.;U;.;.:.6m;]
  | | | |       145650: f3 37 1e 3a ee 3a 91 3b c6 3a b8 3c 64 39 78 37 [.7.:.:.;.:.<d9x7]
  | | | |       145660: 26 39 27 36 2c 3b 1b 3b f6 36 40 39 a1 36 48 36 [&9'6,;.;.6@9.6H6]
  | | | |       145670: 71 24 71 24 71 24 71 24 71 24 71 24 71 24 71 24 [q$q$q$q$q$q$q$q$]
  | | | |       145680: 37 29 38 25 d2 25 77 27 01 24 89 29 5b 29 14 42 [7)8%.%w'.$.)[).B]
  | | | |       145690: e2 5c eb 59 53 34 6f 1e a5 22 42 34 48 2a 30 2b [.\.YS4o.."B4H*0+]
  | | | |       1456a0: ef 2b 7e 2c 6f 2b 6b 2c 2e 2e 80 1f b3 26 02 20 [.+~,o+k,.....&. ]
  | | | |       1456b0: 95 20 ce 21 23 2b e3 27 00 2d de 3a b5 3e ca 3e [. .!#+.'.-.:.>.>]
  | | | |       1456c0: aa 39 92 60 dc 67 30 64 99 63 72 64 cd 6c c4 6e [.9.`.g0d.crd.l.n]
  | | | |       1456d0: d0 30 6a 31 11 33 bc 34 8c 33 15 36 41 39 97 39 [.0j1.3.4.3.6A9.9]
  | | | |       1456e0: 16 3a 74 3f 67 4c fa 38 99 39 e3 38 e1 3c 7e 39 [.:t?gL.8.9.8.<~9]
  | | | |       1456f0: 2d 38 d3 36 ff 38 62 3b bd 3a 7e 3c 24 40 21 3d [-8.6.8b;.:~<$@!=]
  | | | |       145700: e4 39 40 39 86 38 d4 35 ab 38 e1 38 22 3a b2 3a [.9@9.8.5.8.8":.:]
  | | | |       145710: 06 39 19 35 b9 32 e3 34 36 39 3e 3c fa 3a d9 36 [.9.5.2.469><.:.6]
  | | | |       145720: 27 37 bd 36 d9 31 d9 34 1a 38 66 38 ae 38 46 35 ['7.6.1.4.8f8.8F5]
  | | | |       145730: 85 39 27 3a 5d 39 02 3a fd 36 50 36 60 37 37 37 [.9':]9.:.6P6`777]
  | | | |       145740: 00 36 aa 33 2a 34 ae 35 a5 36 a1 33 c4 33 10 30 [.6.3*4.5.6.3.3.0]
  | | | |       145750: 16 2e 80 34 a5 32 43 31 b4 2f e2 2e 05 36 9e 34 [...4.2C1./...6.4]
  | | | |       145760: 73 37 40 3c 35 3b 95 39 32 36 29 37 5a 34 73 32 [s7@<5;.926)7Z4s2]
  | | | |       145770: 8f 39 61 34 d4 34 64 33 64 32 0c 30 bf 33 bb 36 [.9a4.4d3d2.0.3.6]
  | | | |       145780: 1d 37 7e 37 13 37 64 36 d6 37 07 38 e4 33 84 3a [.7~7.7d6.7.8.3.:]
  | | | |       145790: 42 3c c3 3a f0 3a a9 38 46 3a e2 3c 22 39 61 33 [B<.:.:.8F:.<"9a3]
  | | | |       1457a0: a7 34 84 35 49 39 90 3b 57 39 5e 38 a2 3a 8f 34 [.4.5I9.;W9^8.:.4]
  | | | |       1457b0: 37 29 37 29 37 29 37 29 37 29 37 29 37 29 37 29 [7)7)7)7)7)7)7)7)]
  | | | |       1457c0: b6 26 fd 22 31 29 b8 29 4b 2e 21 46 0d 55 57 3f [.&."1).)K.!F.UW?]
  | | | |       1457d0: 01 23 76 1e ba 1e d3 20 43 40 75 38 c8 28 50 29 [.#v.... C@u8.(P)]
  | | | |       1457e0: 60 29 8a 27 f4 29 fb 2e 1a 2c cb 1f 45 2c 43 21 [`).'.)...,..E,C!]
  | | | |       1457f0: e4 22 bc 24 01 2d 78 28 25 2e a9 41 06 45 55 43 [.".$.-x(%..A.EUC]
  | | | |       145800: e5 38 d6 54 f0 65 ef 65 28 63 d7 65 14 6f ef 6a [.8.T.e.e(c.e.o.j]
  | | | |       145810: 1b 33 ef 34 e7 35 42 36 21 32 43 38 49 3c 8e 3b [.3.4.5B6!2C8I<.;]
  | | | |       145820: a4 38 f4 2d 31 3d f4 39 f0 37 0f 37 43 34 1f 33 [.8.-1=.9.7.7C4.3]
  | | | |       145830: 90 30 97 33 1a 38 13 38 cd 3a e1 41 9e 3f e2 3a [.0.3.8.8.:.A.?.:]
  | | | |       145840: a8 38 e0 36 87 38 ea 35 57 37 e4 39 b6 39 3c 3c [.8.6.8.5W7.9.9<<]
  | | | |       145850: 7a 3a e7 37 2c 33 14 35 b2 36 c0 37 d5 37 a3 34 [z:.7,3.5.6.7.7.4]
  | | | |       145860: 80 39 87 35 2e 34 d5 35 42 34 27 35 19 36 fe 35 [.9.5.4.5B4'5.6.5]
  | | | |       145870: 50 39 d6 3a b6 37 23 3b 79 37 a7 37 89 35 eb 35 [P9.:.7#;y7.7.5.5]
  | | | |       145880: 16 36 55 34 e0 32 0e 36 9b 36 7b 31 e9 31 f1 31 [.6U4.2.6.6{1.1.1]
  | | | |       145890: 7a 31 21 35 76 32 aa 2f 63 30 14 31 5d 33 f5 36 [z1!5v2./c0.1]3.6]
  | | | |       1458a0: 63 38 df 3b 8d 38 13 3a de 38 ad 37 68 31 f6 30 [c8.;.8.:.8.7h1.0]
  | | | |       1458b0: ca 35 20 35 20 38 2a 37 c4 2f f9 31 cd 35 5c 38 [.5 5 8*7./.1.5\8]
  | | | |       1458c0: 3b 36 9b 37 14 36 2e 36 28 36 f0 34 77 31 01 3b [;6.7.6.6(6.4w1.;]
  | | | |       1458d0: 53 3d 76 37 f3 38 0f 37 4f 3b 6c 3c 9d 36 98 33 [S=v7.8.7O;l<.6.3]
  | | | |       1458e0: b1 37 38 36 d0 36 a7 3a cb 39 ad 39 f5 36 c3 34 [.786.6.:.9.9.6.4]
  | | | |       1458f0: b6 26 b6 26 b6 26 b6 26 b6 26 b6 26 b6 26 b6 26 [.&.&.&.&.&.&.&.&]
  | | | |       145900: fa 24 ec 24 60 43 d1 58 2e 54 df 28 2f 1c d8 1e [.$.$`C.X.T.(/...]
  | | | |       145910: 87 1f 8e 21 48 4b 7b 41 1d 66 7f 3b d0 2a b5 2c [...!HK{A.f.;.*.,]
  | | | |       145920: 31 2a 0b 2a c0 2e 87 30 a5 2d 6d 20 6e 2b 78 24 [1*.*...0.-m n+x$]
  | | | |       145930: d1 24 e7 25 72 2d 75 2a 11 31 c6 45 db 4f f6 45 [.$.%r-u*.1.E.O.E]
  | | | |       145940: f6 3a 6f 47 6d 68 22 66 42 62 39 64 41 68 fb 65 [.:oGmh"fBb9dAh.e]
  | | | |       145950: 23 36 9a 37 99 36 39 38 42 35 a3 37 43 39 a6 3a [#6.7.698B5.7C9.:]
  | | | |       145960: ee 3a 97 38 23 3f 03 37 c6 33 29 35 9c 34 66 35 [.:.8#?.7.3)5.4f5]
  | | | |       145970: ce 33 7f 34 d7 36 ae 38 9c 38 17 42 be 3c 30 38 [.3.4.6.8.8.B.<08]
  | | | |       145980: 91 39 15 38 20 3a ae 3a 4c 3a e8 39 01 3a 15 3c [.9.8 :.:L:.9.:.<]
  | | | |       145990: 97 3a 78 34 94 30 e2 36 0f 37 98 39 43 37 63 35 [.:x4.0.6.7.9C7c5]
  | | | |       1459a0: 31 38 5e 34 a3 34 1f 30 e8 31 e8 33 24 36 3f 36 [18^4.4.0.1.3$6?6]
  | | | |       1459b0: 96 38 36 3b 7b 3b 30 3a 69 35 82 37 21 35 a1 32 [.86;{;0:i5.7!5.2]
  | | | |       1459c0: b4 36 9b 34 7f 32 48 36 86 34 47 31 eb 30 05 34 [.6.4.2H6.4G1.0.4]
  | | | |       1459d0: e4 31 37 32 7c 31 f0 2c 00 2f 03 33 22 35 21 39 [.172|1.,./.3"5!9]
  | | | |       1459e0: 26 3a 40 39 c7 36 75 39 ad 39 d8 37 c7 30 36 32 [&:@9.6u9.9.7.062]
  | | | |       1459f0: 25 39 3b 3b d7 39 2d 36 37 33 e6 34 c1 36 3c 3a [%9;;.9-673.4.6<:]
  | | | |       145a00: db 38 de 38 a5 38 f6 39 f2 37 f9 32 cf 33 fa 38 [.8.8.8.9.7.2.3.8]
  | | | |       145a10: 79 3c 81 39 4a 38 f2 39 12 39 58 39 c6 36 3c 35 [y<.9J8.9.9X9.6<5]
  | | | |       145a20: c3 37 a8 34 53 38 f4 39 6e 39 ba 37 2c 34 f3 32 [.7.4S8.9n9.7,4.2]
  | | | |       145a30: fa 24 fa 24 fa 24 fa 24 fa 24 fa 24 fa 24 fa 24 [.$.$.$.$.$.$.$.$]
  | | | |       145a40: 66 4f cd 4b eb 37 01 18 29 19 fa 18 6e 22 e6 2f [fO.K.7..)...n"./]
  | | | |       145a50: 3f 39 d7 2d 91 64 81 4c c3 63 a4 3c a3 2d 06 2a [?9.-.d.L.c.<.-.*]
  | | | |       145a60: ad 28 2a 2c 52 2d e7 2f 76 2d a2 20 6d 2a 39 24 [.(*,R-./v-. m*9$]
  | | | |       145a70: 13 24 61 28 e1 2e 21 29 7a 30 e5 45 8e 46 4c 3e [.$a(..!)z0.E.FL>]
  | | | |       145a80: 04 3c ee 3f 99 67 8c 64 60 62 a2 6b 7d 74 8f 4f [.<.?.g.d`b.k}t.O]
  | | | |       145a90: 77 3c 18 36 1a 36 ef 3c f4 37 d9 34 a2 35 37 38 [w<.6.6.<.7.4.578]
  | | | |       145aa0: 37 3d 8d 3a 64 39 77 37 7f 34 3a 38 93 38 46 37 [7=.:d9w7.4:8.8F7]
  | | | |       145ab0: dc 37 0e 36 c0 36 85 39 c3 37 a9 3d 16 39 0d 37 [.7.6.6.9.7.=.9.7]
  | | | |       145ac0: 46 38 31 37 54 37 dd 3a 6a 3c 32 38 bb 39 0e 39 [F817T7.:j<28.9.9]
  | | | |       145ad0: b4 35 5b 35 2a 34 15 36 8f 37 2e 36 d0 33 53 31 [.5[5*4.6.7.6.3S1]
  | | | |       145ae0: 71 33 32 32 77 31 15 2f 94 32 c0 35 4b 37 50 38 [q322w1./.2.5K7P8]
  | | | |       145af0: d1 3a a5 3a 72 3a fc 39 1d 38 ce 35 bd 33 ed 32 [.:.:r:.9.8.5.3.2]
  | | | |       145b00: 13 33 4b 32 f7 34 47 36 2a 34 90 30 3e 30 29 32 [.3K2.4G6*4.0>0)2]
  | | | |       145b10: ff 31 92 34 74 34 72 30 3b 31 16 33 47 38 fc 3a [.1.4t4r0;1.3G8.:]
  | | | |       145b20: 19 38 ae 39 76 35 e2 39 91 3b 19 3a e4 35 c2 33 [.8.9v5.9.;.:.5.3]
  | | | |       145b30: e3 37 a0 37 d6 36 db 36 6e 36 dc 36 18 36 f0 36 [.7.7.6.6n6.6.6.6]
  | | | |       145b40: f2 38 18 38 fb 37 9b 39 41 3b bc 33 e6 32 83 37 [.8.8.7.9A;.3.2.7]
  | | | |       145b50: 3d 3c 1e 39 7e 36 d8 37 77 36 ea 39 47 36 85 34 [=<.9~6.7w6.9G6.4]
  | | | |       145b60: 93 34 eb 37 39 3a a2 3b c7 3b a0 37 65 33 53 34 [.4.79:.;.;.7e3S4]
  | | | |       145b70: 66 4f 66 4f 66 4f 66 4f 66 4f 66 4f 66 4f 66 4f [fOfOfOfOfOfOfOfO]
  | | | |       145b80: d6 1e 22 18 4a 17 bc 17 66 1b 2e 1c a3 2b 27 3f [..".J...f....+'?]
  | | | |       145b90: 00 48 05 31 44 65 f3 4d d0 62 2c 3f 49 2b 8a 2b [.H.1De.M.b,?I+.+]
  | | | |       145ba0: b8 29 57 2e 63 2d 37 2f 11 2c ae 1e 2f 2b 82 24 [.)W.c-7/.,../+.$]
  | | | |       145bb0: 59 27 23 2c d6 31 da 2c 40 32 b2 3e a8 32 41 3e [Y'#,.1.,@2.>.2A>]
  | | | |       145bc0: 93 41 ba 3f 1c 6d 7e 79 e1 6d 37 57 c0 38 4a 37 [.A.?.m~y.m7W.8J7]
  | | | |       145bd0: 6c 3b 8b 37 5b 39 24 3d 74 37 20 37 70 34 be 35 [l;.7[9$=t7 7p4.5]
  | | | |       145be0: 0f 3d c3 3a c0 3a 4c 39 cd 38 b1 37 50 35 90 39 [.=.:.:L9.8.7P5.9]
  | | | |         [snip 2576 bytes]
  | | | | 152) Olympus_ImageProcessing_0x1105 = 160 0 152 114
  | | | |     - Tag 0x1105 (4 bytes, int8u[4]):
  | | | |         181a: a0 00 98 72                                     [...r]
  | | | | 153) Olympus_ImageProcessing_0x1106 = 0 0 0 0
  | | | |     - Tag 0x1106 (4 bytes, int8u[4]):
  | | | |         1826: 00 00 00 00                                     [....]
  | | | | 154) Olympus_ImageProcessing_0x1107 = 131 135
  | | | |     - Tag 0x1107 (4 bytes, int16u[2]):
  | | | |         1832: 83 00 87 00                                     [....]
  | | | | 155) Olympus_ImageProcessing_0x1108 = 2464 3 0 238 251 32 21 25
  | | | |     - Tag 0x1108 (16 bytes, int16u[8]):
  | | | |         2bc0: a0 09 03 00 00 00 ee 00 fb 00 20 00 15 00 19 00 [.......... .....]
  | | | | 156) Olympus_ImageProcessing_0x1109 = 146 118 203 88 0 0 147 116 145 118 128 139 117 151 106 166
  | | | |     - Tag 0x1109 (32 bytes, int16u[16]):
  | | | |         2bd0: 92 00 76 00 cb 00 58 00 00 00 00 00 93 00 74 00 [..v...X.......t.]
  | | | |         2be0: 91 00 76 00 80 00 8b 00 75 00 97 00 6a 00 a6 00 [..v.....u...j...]
  | | | | 157) Olympus_ImageProcessing_0x110a = 2109
  | | | |     - Tag 0x110a (2 bytes, int16s[1]):
  | | | |         1856: 3d 08                                           [=.]
  | | | | 158) Olympus_ImageProcessing_0x110b = 0 4 32 117 0
  | | | |     - Tag 0x110b (10 bytes, int16u[5]):
  | | | |         2bf2: 00 00 04 00 20 00 75 00 00 00                   [.... .u...]
  | | | | 159) Olympus_ImageProcessing_0x110c = 180 0 0 0
  | | | |     - Tag 0x110c (8 bytes, int16u[4]):
  | | | |         2bfc: b4 00 00 00 00 00 00 00                         [........]
  | | | | 160) Olympus_ImageProcessing_0x110d = 5111
  | | | |     - Tag 0x110d (2 bytes, int16u[1]):
  | | | |         187a: f7 13                                           [..]
  | | | | 161) Olympus_ImageProcessing_0x110e = 546 0 0 47 50 32 21 1
  | | | |     - Tag 0x110e (16 bytes, int16u[8]):
  | | | |         2c06: 22 02 00 00 00 00 2f 00 32 00 20 00 15 00 01 00 ["...../.2. .....]
  | | | | 162) Olympus_ImageProcessing_0x110f = 0 2493 41
  | | | |     - Tag 0x110f (6 bytes, int16u[3]):
  | | | |         2c16: 00 00 bd 09 29 00                               [....).]
  | | | | 163) Olympus_ImageProcessing_0x1110 = 0 4 3 3 128 133 137 23 132 143
  | | | |     - Tag 0x1110 (20 bytes, int16u[10]):
  | | | |         2c1c: 00 00 04 00 03 00 03 00 80 00 85 00 89 00 17 00 [................]
  | | | |         2c2c: 84 00 8f 00                                     [....]
  | | | | 164) AspectRatio = 1 1
  | | | |     - Tag 0x1112 (2 bytes, int8u[2]):
  | | | |         18aa: 01 01                                           [..]
  | | | | 165) AspectFrame = 0 0 3647 2735
  | | | |     - Tag 0x1113 (8 bytes, int16u[4]):
  | | | |         2c32: 00 00 00 00 3f 0e af 0a                         [....?...]
  | | | | 166) Olympus_ImageProcessing_0x1114 = 0
  | | | |     - Tag 0x1114 (1 bytes, int8u[1]):
  | | | |         18c2: 00                                              [.]
  | | | | 167) Olympus_ImageProcessing_0x1115 = 0 0
  | | | |     - Tag 0x1115 (4 bytes, int16u[2]):
  | | | |         18ce: 00 00 00 00                                     [....]
  | | | | 168) Olympus_ImageProcessing_0x1116 = 0 0
  | | | |     - Tag 0x1116 (4 bytes, int16u[2]):
  | | | |         18da: 00 00 00 00                                     [....]
  | | | | 169) Olympus_ImageProcessing_0x1117 = 0 0
  | | | |     - Tag 0x1117 (8 bytes, int32u[2]):
  | | | |         2c44: 00 00 00 00 00 00 00 00                         [........]
  | | | | 170) Olympus_ImageProcessing_0x1118 = 0 0
  | | | |     - Tag 0x1118 (4 bytes, int16s[2]):
  | | | |         18f2: 00 00 00 00                                     [....]
  | | | | 171) Olympus_ImageProcessing_0x1119 = 0 0
  | | | |     - Tag 0x1119 (2 bytes, int8u[2]):
  | | | |         18fe: 00 00                                           [..]
  | | | | 172) Olympus_ImageProcessing_0x111a = 1 1
  | | | |     - Tag 0x111a (2 bytes, int8u[2]):
  | | | |         190a: 01 01                                           [..]
  | | | | 173) Olympus_ImageProcessing_0x111b = 
  | | | |     - Tag 0x111b (170 bytes, undef[170]):
  | | | |         2c54: 00 00 00 00 00 00 00 00 00 00 00 00 00 00 00 00 [................]
  | | | |         2c64: 00 00 00 00 00 00 00 00 00 00 00 00 00 00 00 00 [................]
  | | | |         2c74: 00 00 00 00 00 00 00 00 00 00 00 00 00 00 00 00 [................]
  | | | |         2c84: 00 00 00 00 00 00 00 00 00 00 00 00 00 00 00 00 [................]
  | | | |         2c94: 00 00 00 00 00 00 00 00 00 00 00 00 00 00 00 00 [................]
  | | | |         2ca4: 00 00 00 00 00 00 00 00 00 00 00 00 00 00 00 00 [................]
  | | | |         2cb4: 00 00 00 00 00 00 00 00 00 00 00 00 00 00 00 00 [................]
  | | | |         2cc4: 00 00 00 00 00 00 00 00 00 00 00 00 00 00 00 00 [................]
  | | | |         2cd4: 00 00 00 00 00 00 00 00 00 00 00 00 00 00 00 00 [................]
  | | | |         2ce4: 00 00 00 00 00 00 00 00 00 00 00 00 00 00 00 00 [................]
  | | | |         2cf4: 00 00 00 00 00 00 00 00 00 00                   [..........]
  | | | | 174) Olympus_ImageProcessing_0x111d = 1199 140 121 0 0 1902 50 0 131 135
  | | | |     - Tag 0x111d (20 bytes, int16u[10]):
  | | | |         2cfe: af 04 8c 00 79 00 00 00 00 00 6e 07 32 00 00 00 [....y.....n.2...]
  | | | |         2d0e: 83 00 87 00                                     [....]
  | | | | 175) Olympus_ImageProcessing_0x111e = 108 167 119 151 128 140 141 126 160 108 207 82 117 152 135 127 133 101
  | | | |     - Tag 0x111e (36 bytes, int16u[18]):
  | | | |         2d12: 6c 00 a7 00 77 00 97 00 80 00 8c 00 8d 00 7e 00 [l...w.........~.]
  | | | |         2d22: a0 00 6c 00 cf 00 52 00 75 00 98 00 87 00 7f 00 [..l...R.u.......]
  | | | |         2d32: 85 00 65 00                                     [..e.]
  | | | | 176) FacesDetected = 0 0 0
  | | | |     - Tag 0x1200 (12 bytes, int32u[3]):
  | | | |         2d38: 00 00 00 00 00 00 00 00 00 00 00 00             [............]
  | | | | 177) FaceDetectArea = 0 0 0 0 0 0 0 0 0 0 0 0 0 0 0 0 0 0 0 0 0 0 0 0 0 0 0 0 0 0 0 0 0 0 0 0 0 0 0 0 0 0 0 0 0 0 0 0 0 0 0 0 0 0 0 0 0 0 0 0 0 0 0 0 0 0 0 0 0 0 0 0 0 0 0 0 0 0 0 0 0 0 0 0 0 0 0 0 0 0 0 0 0 0 0 0 0 0 0 0 0 0 0 0 0 0 0 0 0 0 0 0 0 0 0 0 0 0 0 0 0 0 0 0 0 0 0 0 0 0 0 0 0 0 0 0 0 0 0 0 0 0 0 0 0 0 0 0 0 0 0 0 0 0 0 0 0 0 0 0 0 0 0 0 0 0 0 0 0 0 0 0 0 0 0 0 0 0 0 0 0 0 0 0 0 0 0 0 0 0 0 0
  | | | |     - Tag 0x1201 (384 bytes, int16u[192]):
  | | | |         2d44: 00 00 00 00 00 00 00 00 00 00 00 00 00 00 00 00 [................]
  | | | |         2d54: 00 00 00 00 00 00 00 00 00 00 00 00 00 00 00 00 [................]
  | | | |         2d64: 00 00 00 00 00 00 00 00 00 00 00 00 00 00 00 00 [................]
  | | | |         2d74: 00 00 00 00 00 00 00 00 00 00 00 00 00 00 00 00 [................]
  | | | |         2d84: 00 00 00 00 00 00 00 00 00 00 00 00 00 00 00 00 [................]
  | | | |         2d94: 00 00 00 00 00 00 00 00 00 00 00 00 00 00 00 00 [................]
  | | | |         2da4: 00 00 00 00 00 00 00 00 00 00 00 00 00 00 00 00 [................]
  | | | |         2db4: 00 00 00 00 00 00 00 00 00 00 00 00 00 00 00 00 [................]
  | | | |         2dc4: 00 00 00 00 00 00 00 00 00 00 00 00 00 00 00 00 [................]
  | | | |         2dd4: 00 00 00 00 00 00 00 00 00 00 00 00 00 00 00 00 [................]
  | | | |         2de4: 00 00 00 00 00 00 00 00 00 00 00 00 00 00 00 00 [................]
  | | | |         2df4: 00 00 00 00 00 00 00 00 00 00 00 00 00 00 00 00 [................]
  | | | |         2e04: 00 00 00 00 00 00 00 00 00 00 00 00 00 00 00 00 [................]
  | | | |         2e14: 00 00 00 00 00 00 00 00 00 00 00 00 00 00 00 00 [................]
  | | | |         2e24: 00 00 00 00 00 00 00 00 00 00 00 00 00 00 00 00 [................]
  | | | |         2e34: 00 00 00 00 00 00 00 00 00 00 00 00 00 00 00 00 [................]
  | | | |         2e44: 00 00 00 00 00 00 00 00 00 00 00 00 00 00 00 00 [................]
  | | | |         2e54: 00 00 00 00 00 00 00 00 00 00 00 00 00 00 00 00 [................]
  | | | |         2e64: 00 00 00 00 00 00 00 00 00 00 00 00 00 00 00 00 [................]
  | | | |         2e74: 00 00 00 00 00 00 00 00 00 00 00 00 00 00 00 00 [................]
  | | | |         2e84: 00 00 00 00 00 00 00 00 00 00 00 00 00 00 00 00 [................]
  | | | |         2e94: 00 00 00 00 00 00 00 00 00 00 00 00 00 00 00 00 [................]
  | | | |         2ea4: 00 00 00 00 00 00 00 00 00 00 00 00 00 00 00 00 [................]
  | | | |         2eb4: 00 00 00 00 00 00 00 00 00 00 00 00 00 00 00 00 [................]
  | | | | 178) MaxFaces = 8 8 0
  | | | |     - Tag 0x1202 (12 bytes, int32u[3]):
  | | | |         2ec4: 08 00 00 00 08 00 00 00 00 00 00 00             [............]
  | | | | 179) FaceDetectFrameSize = 0 0 0 0 0 0
  | | | |     - Tag 0x1203 (12 bytes, int16u[6]):
  | | | |         2ed0: 00 00 00 00 00 00 00 00 00 00 00 00             [............]
  | | | | 180) Olympus_ImageProcessing_0x1204 = 2 0
  | | | |     - Tag 0x1204 (4 bytes, int16s[2]):
  | | | |         196a: 02 00 00 00                                     [....]
  | | | | 181) Olympus_ImageProcessing_0x1205 = 1
  | | | |     - Tag 0x1205 (2 bytes, int16s[1]):
  | | | |         1976: 01 00                                           [..]
  | | | | 182) Olympus_ImageProcessing_0x1206 = 2 120 0 200 0
  | | | |     - Tag 0x1206 (10 bytes, int16s[5]):
  | | | |         2ee2: 02 00 78 00 00 00 c8 00 00 00                   [..x.......]
  | | | | 183) FaceDetectFrameCrop = 0 0 0 0 0 0 0 0 0 0 0 0
  | | | |     - Tag 0x1207 (24 bytes, int16s[12]):
  | | | |         2eec: 00 00 00 00 00 00 00 00 00 00 00 00 00 00 00 00 [................]
  | | | |         2efc: 00 00 00 00 00 00 00 00                         [........]
  | | | | 184) Olympus_ImageProcessing_0x1208 = 0 0 0 0 0 0 0 0
  | | | |     - Tag 0x1208 (16 bytes, int16s[8]):
  | | | |         2f04: 00 00 00 00 00 00 00 00 00 00 00 00 00 00 00 00 [................]
  | | | | 185) Olympus_ImageProcessing_0x1209 = 0
  | | | |     - Tag 0x1209 (1 bytes, int8u[1]):
  | | | |         19a6: 00                                              [.]
  | | | | 186) Olympus_ImageProcessing_0x120a = 0 0
  | | | |     - Tag 0x120a (4 bytes, int16u[2]):
  | | | |         19b2: 00 00 00 00                                     [....]
  | | | | 187) Olympus_ImageProcessing_0x120b = 0
  | | | |     - Tag 0x120b (2 bytes, int16s[1]):
  | | | |         19be: 00 00                                           [..]
  | | | | 188) Olympus_ImageProcessing_0x1300 = 0 0 0 0
  | | | |     - Tag 0x1300 (8 bytes, int16s[4]):
  | | | |         2f1c: 00 00 00 00 00 00 00 00                         [........]
  | | | | 189) Olympus_ImageProcessing_0x1301 = 10 0
  | | | |     - Tag 0x1301 (4 bytes, int16u[2]):
  | | | |         19d6: 0a 00 00 00                                     [....]
  | | | | 190) Olympus_ImageProcessing_0x1302 = 2254 0
  | | | |     - Tag 0x1302 (4 bytes, int16s[2]):
  | | | |         19e2: ce 08 00 00                                     [....]
  | | | | 191) Olympus_ImageProcessing_0x1303 = 2102 0
  | | | |     - Tag 0x1303 (4 bytes, int16s[2]):
  | | | |         19ee: 36 08 00 00                                     [6...]
  | | | | 192) Olympus_ImageProcessing_0x1304 = 2097 0
  | | | |     - Tag 0x1304 (4 bytes, int16s[2]):
  | | | |         19fa: 31 08 00 00                                     [1...]
  | | | | 193) Olympus_ImageProcessing_0x1305 = 30 40 0 0
  | | | |     - Tag 0x1305 (8 bytes, int16u[4]):
  | | | |         2f34: 1e 00 28 00 00 00 00 00                         [..(.....]
  | | | | 194) CameraTemperature = 0
  | | | |     - Tag 0x1306 (2 bytes, int16u[1] read as int16s[1]):
  | | | |         1a12: 00 00                                           [..]
  | | | | 195) Olympus_ImageProcessing_0x1307 = 0
  | | | |     - Tag 0x1307 (2 bytes, int16u[1]):
  | | | |         1a1e: 00 00                                           [..]
  | | | | 196) Olympus_ImageProcessing_0x1308 = 2525
  | | | |     - Tag 0x1308 (2 bytes, int16s[1]):
  | | | |         1a2a: dd 09                                           [..]
  | | | | 197) Olympus_ImageProcessing_0x1400 = 0 0 0
  | | | |     - Tag 0x1400 (6 bytes, int16s[3]):
  | | | |         2f8a: 00 00 00 00 00 00                               [......]
  | | | | 198) Olympus_ImageProcessing_0x1401 = 30 35 30 35 30 35 10 60 10 60
  | | | |     - Tag 0x1401 (20 bytes, int16u[10]):
  | | | |         2f42: 1e 00 23 00 1e 00 23 00 1e 00 23 00 0a 00 3c 00 [..#...#...#...<.]
  | | | |         2f52: 0a 00 3c 00                                     [..<.]
  | | | | 199) Olympus_ImageProcessing_0x1402 = 60 60 60 60 60 60 0 85 0 85
  | | | |     - Tag 0x1402 (20 bytes, int16s[10]):
  | | | |         2f56: 3c 00 3c 00 3c 00 3c 00 3c 00 3c 00 00 00 55 00 [<.<.<.<.<.<...U.]
  | | | |         2f66: 00 00 55 00                                     [..U.]
  | | | | 200) Olympus_ImageProcessing_0x1403 = 60 60 60 60 60 60 60 60 60 60
  | | | |     - Tag 0x1403 (20 bytes, int16u[10]):
  | | | |         2f6a: 3c 00 3c 00 3c 00 3c 00 3c 00 3c 00 3c 00 3c 00 [<.<.<.<.<.<.<.<.]
  | | | |         2f7a: 3c 00 3c 00                                     [<.<.]
  | | | | 201) Olympus_ImageProcessing_0x1404 = 50 50
  | | | |     - Tag 0x1404 (4 bytes, int16u[2]):
  | | | |         1a66: 32 00 32 00                                     [2.2.]
  | | | | 202) Olympus_ImageProcessing_0x1405 = 50 50
  | | | |     - Tag 0x1405 (4 bytes, int16u[2]):
  | | | |         1a72: 32 00 32 00                                     [2.2.]
  | | | | 203) Olympus_ImageProcessing_0x1406 = 0 0
  | | | |     - Tag 0x1406 (4 bytes, int16u[2]):
  | | | |         1a7e: 00 00 00 00                                     [....]
  | | | | 204) Olympus_ImageProcessing_0x1407 = 0 0
  | | | |     - Tag 0x1407 (4 bytes, int16u[2]):
  | | | |         1a8a: 00 00 00 00                                     [....]
  | | | | 205) Olympus_ImageProcessing_0x1408 = -7 6 -7 7 -7 7
  | | | |     - Tag 0x1408 (12 bytes, int16s[6]):
  | | | |         2f90: f9 ff 06 00 f9 ff 07 00 f9 ff 07 00             [............]
  | | | | 206) Olympus_ImageProcessing_0x1409 = 1008 2032 3056 4096 5120 6144 7168 520 512 512 504 512 512 512 512
  | | | |     - Tag 0x1409 (30 bytes, int16u[15]):
  | | | |         2f9c: f0 03 f0 07 f0 0b 00 10 00 14 00 18 00 1c 08 02 [................]
  | | | |         2fac: 00 02 00 02 f8 01 00 02 00 02 00 02 00 02       [..............]
  | | | | 207) Olympus_ImageProcessing_0x1500 = 12 12 12
  | | | |     - Tag 0x1500 (3 bytes, int8u[3]):
  | | | |         1aae: 0c 0c 0c                                        [...]
  | | | | 208) Olympus_ImageProcessing_0x1501 = 0 0 0
  | | | |     - Tag 0x1501 (3 bytes, int8u[3]):
  | | | |         1aba: 00 00 00                                        [...]
  | | | | 209) Olympus_ImageProcessing_0x1502 = 19
  | | | |     - Tag 0x1502 (1 bytes, int8u[1]):
  | | | |         1ac6: 13                                              [.]
  | | | | 210) Olympus_ImageProcessing_0x1503 = 197 132 19 197 132 19 197 132 19 197 132 19
  | | | |     - Tag 0x1503 (24 bytes, int16s[12]):
  | | | |         2fc2: c5 00 84 00 13 00 c5 00 84 00 13 00 c5 00 84 00 [................]
  | | | |         2fd2: 13 00 c5 00 84 00 13 00                         [........]
  | | | | 211) Olympus_ImageProcessing_0x1504 = 0 0 0 0
  | | | |     - Tag 0x1504 (4 bytes, int8u[4]):
  | | | |         1ade: 00 00 00 00                                     [....]
  | | | | 212) Olympus_ImageProcessing_0x1505 = 247 247 247 247
  | | | |     - Tag 0x1505 (8 bytes, int16s[4]):
  | | | |         2fde: f7 00 f7 00 f7 00 f7 00                         [........]
  | | | | 213) Olympus_ImageProcessing_0x1506 = 0 0 0 0 0 0 0 0 0 0 0 0
  | | | |     - Tag 0x1506 (24 bytes, int16u[12]):
  | | | |         2fe6: 00 00 00 00 00 00 00 00 00 00 00 00 00 00 00 00 [................]
  | | | |         2ff6: 00 00 00 00 00 00 00 00                         [........]
  | | | | 214) Olympus_ImageProcessing_0x1507 = 0
  | | | |     - Tag 0x1507 (2 bytes, int16u[1]):
  | | | |         1b02: 00 00                                           [..]
  | | | | 215) Olympus_ImageProcessing_0x1508 = 0 0 0
  | | | |     - Tag 0x1508 (6 bytes, int16s[3]):
  | | | |         3000: 00 00 00 00 00 00                               [......]
  | | | | 216) Olympus_ImageProcessing_0x1509 = 0
  | | | |     - Tag 0x1509 (2 bytes, int16u[1]):
  | | | |         1b1a: 00 00                                           [..]
  | | | | 217) Olympus_ImageProcessing_0x150a = 0 0 0 0.9912109375
  | | | |     - Tag 0x150a (16 bytes, float[4]):
  | | | |         3008: 00 00 00 00 00 00 00 00 00 00 00 00 00 c0 7d 3f [..............}?]
  | | | | 218) Olympus_ImageProcessing_0x150b = 0
  | | | |     - Tag 0x150b (1 bytes, int8u[1]):
  | | | |         1b32: 00                                              [.]
  | | | 7)  FocusInfoIFD (SubDirectory) -->
  | | |     - Tag 0x2050 (4 bytes, ifd[1]):
  | | |         0cce: d6 0e 00 00                                     [....]
  | | | + [MakerNotes directory with 81 entries, Little-endian]
  | | | | 0)  FocusInfoVersion = 0100
  | | | |     - Tag 0x0000 (4 bytes, undef[4]):
  | | | |         1b44: 30 31 30 30                                     [0100]
  | | | | 1)  Olympus_FocusInfo_0x0200 = 2406 2406
  | | | |     - Tag 0x0200 (4 bytes, int16s[2]):
  | | | |         1b50: 66 09 66 09                                     [f.f.]
  | | | | 2)  Olympus_FocusInfo_0x0201 = 1280 1280 1280
  | | | |     - Tag 0x0201 (6 bytes, int16s[3]):
  | | | |         3026: 00 05 00 05 00 05                               [......]
  | | | | 3)  Olympus_FocusInfo_0x0202 = 1004 1004
  | | | |     - Tag 0x0202 (4 bytes, int16s[2]):
  | | | |         1b68: ec 03 ec 03                                     [....]
  | | | | 4)  Olympus_FocusInfo_0x0203 = 2130 0
  | | | |     - Tag 0x0203 (4 bytes, int16s[2]):
  | | | |         1b74: 52 08 00 00                                     [R...]
  | | | | 5)  Olympus_FocusInfo_0x0204 = 2102 2153 17 0 0 1 255 255 255 255 255 255 255 255 255 255 255 255 255 255 255 255 63 254 255 248 255 227 255 143 255 255 255 255 255 255 255 255 255 255 255 255 255 255 255 255 15 0 0 0 0 2161 2437 1280 1004 0 1004 777 2161 11 2472 2092 1004 777 2130 2406 1280 1004 0 0 0 0 0 0 0 0 0 0 0 0 0 0 0
  | | | |     - Tag 0x0204 (166 bytes, int16s[83]):
  | | | |         3034: 36 08 69 08 11 00 00 00 00 00 01 00 ff 00 ff 00 [6.i.............]
  | | | |         3044: ff 00 ff 00 ff 00 ff 00 ff 00 ff 00 ff 00 ff 00 [................]
  | | | |         3054: ff 00 ff 00 ff 00 ff 00 ff 00 ff 00 3f 00 fe 00 [............?...]
  | | | |         3064: ff 00 f8 00 ff 00 e3 00 ff 00 8f 00 ff 00 ff 00 [................]
  | | | |         3074: ff 00 ff 00 ff 00 ff 00 ff 00 ff 00 ff 00 ff 00 [................]
  | | | |         3084: ff 00 ff 00 ff 00 ff 00 ff 00 ff 00 0f 00 00 00 [................]
  | | | |         3094: 00 00 00 00 00 00 71 08 85 09 00 05 ec 03 00 00 [......q.........]
  | | | |         30a4: ec 03 09 03 71 08 0b 00 a8 09 2c 08 ec 03 09 03 [....q.....,.....]
  | | | |         30b4: 52 08 66 09 00 05 ec 03 00 00 00 00 00 00 00 00 [R.f.............]
  | | | |         30c4: 00 00 00 00 00 00 00 00 00 00 00 00 00 00 00 00 [................]
  | | | |         30d4: 00 00 00 00 00 00                               [......]
  | | | | 6)  Olympus_FocusInfo_0x0205 = 0
  | | | |     - Tag 0x0205 (2 bytes, int16s[1]):
  | | | |         1b8c: 00 00                                           [..]
  | | | | 7)  Olympus_FocusInfo_0x0206 = 0
  | | | |     - Tag 0x0206 (2 bytes, int16s[1]):
  | | | |         1b98: 00 00                                           [..]
  | | | | 8)  Olympus_FocusInfo_0x0207 = 0
  | | | |     - Tag 0x0207 (2 bytes, int16u[1]):
  | | | |         1ba4: 00 00                                           [..]
  | | | | 9)  AutoFocus = 0
  | | | |     - Tag 0x0209 (2 bytes, int16u[1]):
  | | | |         1bb0: 00 00                                           [..]
  | | | | 10) Olympus_FocusInfo_0x020a = 0
  | | | |     - Tag 0x020a (2 bytes, int16u[1]):
  | | | |         1bbc: 00 00                                           [..]
  | | | | 11) Olympus_FocusInfo_0x020b = 256
  | | | |     - Tag 0x020b (2 bytes, int16u[1]):
  | | | |         1bc8: 00 01                                           [..]
  | | | | 12) Olympus_FocusInfo_0x020c = 0 0
  | | | |     - Tag 0x020c (4 bytes, int16s[2]):
  | | | |         1bd4: 00 00 00 00                                     [....]
  | | | | 13) Olympus_FocusInfo_0x020d = 0
  | | | |     - Tag 0x020d (4 bytes, int32u[1]):
  | | | |         1be0: 00 00 00 00                                     [....]
  | | | | 14) Olympus_FocusInfo_0x020e = 0 0 0 0 0
  | | | |     - Tag 0x020e (20 bytes, int32u[5]):
  | | | |         30e4: 00 00 00 00 00 00 00 00 00 00 00 00 00 00 00 00 [................]
  | | | |         30f4: 00 00 00 00                                     [....]
  | | | | 15) Olympus_FocusInfo_0x020f = 0 0 157680896 139591680 65798147
  | | | |     - Tag 0x020f (20 bytes, int32u[5]):
  | | | |         30f8: 00 00 00 00 00 00 00 00 00 05 66 09 00 00 52 08 [..........f...R.]
  | | | |         3108: 03 00 ec 03                                     [....]
  | | | | 16) SceneDetect = 0
  | | | |     - Tag 0x0210 (2 bytes, int16u[1]):
  | | | |         1c04: 00 00                                           [..]
  | | | | 17) SceneArea = 0 0 0 0 0 0 0 67112976
  | | | |     - Tag 0x0211 (32 bytes, int32u[8]):
  | | | |         3110: 00 00 00 00 00 00 00 00 00 00 00 00 00 00 00 00 [................]
  | | | |         3120: 00 00 00 00 00 00 00 00 00 00 00 00 10 10 00 04 [................]
  | | | | 18) SceneDetectData = 0 0 0 0 0 0 0 0 0 0 0 0 0 0 0 0 0 0 0 0 0 0 0 0 0 0 0 0 0 0 0 0 0 0 0 0 0 0 0 0 0 0 0 0 0 0 0 0 0 0 0 0 0 0 0 0 0 0 0 0 0 0 0 0 0 0 0 0 0 0 0 0 0 0 0 0 0 0 0 0 0 0 0 0 0 0 0 0 0 0 0 0 0 0 0 0 0 0 0 0 0 0 0 0 0 0 0 0 0 0 0 0 0 0 0 0 0 0 0 0 0 0 0 0 0 0 0 0 0 0 0 0 0 0 0 0 0 0 0 0 0 0 0 0 0 0 0 0 0 0 0 0 0 0 0 0 0 0 0 0 0 0 0 0 0 0 0 0 0 0 0 0 0 0 0 0 0 0 0 0 0 0 0 0 0 0 0 0 0 0 0 0 0 0 0 0 0 0 0 0 0 0 0 0 0 0 0 0 0 0 0 0 0 0 0 0 0 0 0 0 0 0 0 0 0 0 0 0 0 0 0 0 0 0 0 0 0 0 0 0 0 0 0 0 0 0 0 0 0 0 0 0 0 0 0 0 0 0 0 0 0 0 0 0 0 0 0 0 0 0 0 0 0 0 0 0 0 0 0 0 0 0 0 0 0 0 0 0 0 0 0 0 0 0 0 0 0 0 0 0 0 0 0 0 0 0 0 0 0 0 0 0 0 0 0 0 0 0 0 0 0 0 0 0 0 0 0 0 0 0 0 0 0 0 0 0 0 0 0 0 0 0 0 0 0 0 0 0 0 0 0 0 0 0 0 0 0 0 0 0 0 0 0 0 0 0 0 0 0 0 0 0 0 0 0 0 0 0 0 0 0 0 0 0 0 0 0 0 0 0 0 0 0 0 0 0 0 0 0 0 0 0 0 0 0 0 0 0 0 0 0 0 0 0 0 0 0 0 0 0 0 0 0 0 0 0 0 0 0 0 0 0 0 0 0 0 0 0 0 0 0 0 0 0 0 0 0 0 0 0 0 0 0 0 0 0 0 0 0 0 0 0 0 0 0 0 0 0 0 0 0 0 0 0 0 0 0 0 0 0 0 0 0 0 0 0 0 0 0 0 0 0 0 0 0 0 0 0 0 0 0 0 0 0 0 0 0 0 0 0 0 0 0 0 16 0 0 0 0 0 0 0 0 0 0 0 0 0 0 0 0 0 0 0 0 0 0 0 0 0 0 0 0 0 0 0 0 0 0 0 0 0 0 0 0 0 0 0 173214109 165284291 171707080 170396203 169478696 169937426 168954375 169478692 170396196 172165426 170592747 170134045 169478689 168692250 168495623 168954371 168233498 169937444 168692181 168692223 168954382 169216555 168233508 166922739 169675259 168495649 169216541 169216397 168495619 168495611 165808639 167709171 168954371 171969053 170592818 171313747 168495578 167447039 164104648 166398434 167971319 179309151 157616673 163776755 177015310 160238050 158796162 148769091 171051553 170396243 175901297 143788450 159844150 175901163 143460794 134154300 135399575 161286467 166136259 164694481 156043624 157223215 160565611 124061699 131729324 160237786 164432300 164694481 166922672 160238005 155781506 156633433 124454736 146737109 157812790 178391518 169478407 124848424 157026396 120522642 150407435 123471676 137496439 120980983 146999426 146081905 101582931 155387639 111937215 117901202 117376730 120522553 12327[snip]
  | | | |     - Tag 0x0212 (2880 bytes, int32u[720]):
  | | | |         3130: 00 00 00 00 00 00 00 00 00 00 00 00 00 00 00 00 [................]
  | | | |         3140: 00 00 00 00 00 00 00 00 00 00 00 00 00 00 00 00 [................]
  | | | |         3150: 00 00 00 00 00 00 00 00 00 00 00 00 00 00 00 00 [................]
  | | | |         3160: 00 00 00 00 00 00 00 00 00 00 00 00 00 00 00 00 [................]
  | | | |         3170: 00 00 00 00 00 00 00 00 00 00 00 00 00 00 00 00 [................]
  | | | |         3180: 00 00 00 00 00 00 00 00 00 00 00 00 00 00 00 00 [................]
  | | | |         3190: 00 00 00 00 00 00 00 00 00 00 00 00 00 00 00 00 [................]
  | | | |         31a0: 00 00 00 00 00 00 00 00 00 00 00 00 00 00 00 00 [................]
  | | | |         31b0: 00 00 00 00 00 00 00 00 00 00 00 00 00 00 00 00 [................]
  | | | |         31c0: 00 00 00 00 00 00 00 00 00 00 00 00 00 00 00 00 [................]
  | | | |         31d0: 00 00 00 00 00 00 00 00 00 00 00 00 00 00 00 00 [................]
  | | | |         31e0: 00 00 00 00 00 00 00 00 00 00 00 00 00 00 00 00 [................]
  | | | |         31f0: 00 00 00 00 00 00 00 00 00 00 00 00 00 00 00 00 [................]
  | | | |         3200: 00 00 00 00 00 00 00 00 00 00 00 00 00 00 00 00 [................]
  | | | |         3210: 00 00 00 00 00 00 00 00 00 00 00 00 00 00 00 00 [................]
  | | | |         3220: 00 00 00 00 00 00 00 00 00 00 00 00 00 00 00 00 [................]
  | | | |         3230: 00 00 00 00 00 00 00 00 00 00 00 00 00 00 00 00 [................]
  | | | |         3240: 00 00 00 00 00 00 00 00 00 00 00 00 00 00 00 00 [................]
  | | | |         3250: 00 00 00 00 00 00 00 00 00 00 00 00 00 00 00 00 [................]
  | | | |         3260: 00 00 00 00 00 00 00 00 00 00 00 00 00 00 00 00 [................]
  | | | |         3270: 00 00 00 00 00 00 00 00 00 00 00 00 00 00 00 00 [................]
  | | | |         3280: 00 00 00 00 00 00 00 00 00 00 00 00 00 00 00 00 [................]
  | | | |         3290: 00 00 00 00 00 00 00 00 00 00 00 00 00 00 00 00 [................]
  | | | |         32a0: 00 00 00 00 00 00 00 00 00 00 00 00 00 00 00 00 [................]
  | | | |         32b0: 00 00 00 00 00 00 00 00 00 00 00 00 00 00 00 00 [................]
  | | | |         32c0: 00 00 00 00 00 00 00 00 00 00 00 00 00 00 00 00 [................]
  | | | |         32d0: 00 00 00 00 00 00 00 00 00 00 00 00 00 00 00 00 [................]
  | | | |         32e0: 00 00 00 00 00 00 00 00 00 00 00 00 00 00 00 00 [................]
  | | | |         32f0: 00 00 00 00 00 00 00 00 00 00 00 00 00 00 00 00 [................]
  | | | |         3300: 00 00 00 00 00 00 00 00 00 00 00 00 00 00 00 00 [................]
  | | | |         3310: 00 00 00 00 00 00 00 00 00 00 00 00 00 00 00 00 [................]
  | | | |         3320: 00 00 00 00 00 00 00 00 00 00 00 00 00 00 00 00 [................]
  | | | |         3330: 00 00 00 00 00 00 00 00 00 00 00 00 00 00 00 00 [................]
  | | | |         3340: 00 00 00 00 00 00 00 00 00 00 00 00 00 00 00 00 [................]
  | | | |         3350: 00 00 00 00 00 00 00 00 00 00 00 00 00 00 00 00 [................]
  | | | |         3360: 00 00 00 00 00 00 00 00 00 00 00 00 00 00 00 00 [................]
  | | | |         3370: 00 00 00 00 00 00 00 00 00 00 00 00 00 00 00 00 [................]
  | | | |         3380: 00 00 00 00 00 00 00 00 00 00 00 00 00 00 00 00 [................]
  | | | |         3390: 00 00 00 00 00 00 00 00 00 00 00 00 00 00 00 00 [................]
  | | | |         33a0: 00 00 00 00 00 00 00 00 00 00 00 00 00 00 00 00 [................]
  | | | |         33b0: 00 00 00 00 00 00 00 00 00 00 00 00 00 00 00 00 [................]
  | | | |         33c0: 00 00 00 00 00 00 00 00 00 00 00 00 00 00 00 00 [................]
  | | | |         33d0: 00 00 00 00 00 00 00 00 00 00 00 00 00 00 00 00 [................]
  | | | |         33e0: 00 00 00 00 00 00 00 00 00 00 00 00 00 00 00 00 [................]
  | | | |         33f0: 00 00 00 00 00 00 00 00 00 00 00 00 00 00 00 00 [................]
  | | | |         3400: 00 00 00 00 00 00 00 00 00 00 00 00 00 00 00 00 [................]
  | | | |         3410: 00 00 00 00 00 00 00 00 00 00 00 00 00 00 00 00 [................]
  | | | |         3420: 00 00 00 00 00 00 00 00 00 00 00 00 00 00 00 00 [................]
  | | | |         3430: 00 00 00 00 00 00 00 00 00 00 00 00 00 00 00 00 [................]
  | | | |         3440: 00 00 00 00 00 00 00 00 00 00 00 00 00 00 00 00 [................]
  | | | |         3450: 00 00 00 00 00 00 00 00 00 00 00 00 00 00 00 00 [................]
  | | | |         3460: 00 00 00 00 00 00 00 00 00 00 00 00 00 00 00 00 [................]
  | | | |         3470: 00 00 00 00 00 00 00 00 00 00 00 00 00 00 00 00 [................]
  | | | |         3480: 00 00 00 00 00 00 00 00 00 00 00 00 00 00 00 00 [................]
  | | | |         3490: 00 00 00 00 00 00 00 00 00 00 00 00 00 00 00 00 [................]
  | | | |         34a0: 00 00 00 00 00 00 00 00 00 00 00 00 00 00 00 00 [................]
  | | | |         34b0: 00 00 00 00 00 00 00 00 00 00 00 00 00 00 00 00 [................]
  | | | |         34c0: 00 00 00 00 00 00 00 00 00 00 00 00 00 00 00 00 [................]
  | | | |         34d0: 00 00 00 00 00 00 00 00 00 00 00 00 00 00 00 00 [................]
  | | | |         34e0: 00 00 00 00 00 00 00 00 00 00 00 00 00 00 00 00 [................]
  | | | |         34f0: 00 00 00 00 00 00 00 00 00 00 00 00 00 00 00 00 [................]
  | | | |         3500: 00 00 00 00 00 00 00 00 00 00 00 00 00 00 00 00 [................]
  | | | |         3510: 00 00 00 00 00 00 00 00 00 00 00 00 00 00 00 00 [................]
  | | | |         3520: 00 00 00 00 00 00 00 00 00 00 00 00 00 00 00 00 [................]
  | | | |         3530: 00 00 00 00 00 00 00 00 00 00 00 00 00 00 00 00 [................]
  | | | |         3540: 00 00 00 00 00 00 00 00 00 00 00 00 00 00 00 00 [................]
  | | | |         3550: 00 00 00 00 00 00 00 00 00 00 00 00 00 00 00 00 [................]
  | | | |         3560: 00 00 00 00 00 00 00 00 00 00 00 00 00 00 00 00 [................]
  | | | |         3570: 00 00 00 00 00 00 00 00 00 00 00 00 00 00 00 00 [................]
  | | | |         3580: 00 00 00 00 00 00 00 00 00 00 00 00 00 00 00 00 [................]
  | | | |         3590: 00 00 00 00 00 00 00 00 00 00 00 00 00 00 00 00 [................]
  | | | |         35a0: 00 00 00 00 00 00 00 00 00 00 00 00 00 00 00 00 [................]
  | | | |         35b0: 00 00 00 00 00 00 00 00 00 00 00 00 00 00 00 00 [................]
  | | | |         35c0: 00 00 00 00 00 00 00 00 00 00 00 00 00 00 00 00 [................]
  | | | |         35d0: 00 00 00 00 00 00 00 00 00 00 00 00 00 00 00 00 [................]
  | | | |         35e0: 00 00 00 00 00 00 00 00 00 00 00 00 00 00 00 00 [................]
  | | | |         35f0: 00 00 00 00 00 00 00 00 00 00 00 00 00 00 00 00 [................]
  | | | |         3600: 00 00 00 00 00 00 00 00 00 00 00 00 00 00 00 00 [................]
  | | | |         3610: 00 00 00 00 00 00 00 00 00 00 00 00 00 00 00 00 [................]
  | | | |         3620: 00 00 00 00 00 00 00 00 00 00 00 00 00 00 00 00 [................]
  | | | |         3630: 00 00 00 00 00 00 00 00 00 00 00 00 00 00 00 00 [................]
  | | | |         3640: 00 00 00 00 00 00 00 00 00 00 00 00 00 00 00 00 [................]
  | | | |         3650: 00 00 00 00 00 00 00 00 00 00 00 00 00 00 00 00 [................]
  | | | |         3660: 00 00 00 00 00 00 00 00 00 00 00 00 00 00 00 00 [................]
  | | | |         3670: 00 00 00 00 00 00 00 00 00 00 00 00 00 00 00 00 [................]
  | | | |         3680: 00 00 00 00 00 00 00 00 00 00 00 00 00 00 00 00 [................]
  | | | |         3690: 00 00 00 00 00 00 00 00 00 00 00 00 00 00 00 00 [................]
  | | | |         36a0: 00 00 00 00 00 00 00 00 00 00 00 00 00 00 00 00 [................]
  | | | |         36b0: 00 00 00 00 00 00 00 00 00 00 00 00 00 00 00 00 [................]
  | | | |         36c0: 00 00 00 00 00 00 00 00 00 00 00 00 00 00 00 00 [................]
  | | | |         36d0: 00 00 00 00 00 00 00 00 00 00 00 00 00 00 00 00 [................]
  | | | |         36e0: 00 00 00 00 00 00 00 00 00 00 00 00 00 00 00 00 [................]
  | | | |         36f0: 00 00 00 00 00 00 00 00 00 00 00 00 00 00 00 00 [................]
  | | | |         3700: 00 00 00 00 00 00 00 00 00 00 00 00 00 00 00 00 [................]
  | | | |         3710: 00 00 00 00 00 00 00 00 00 00 00 00 00 00 00 00 [................]
  | | | |         3720: 00 00 00 00 00 00 00 00 00 00 00 00 00 00 00 00 [................]
  | | | |         3730: 00 00 00 00 00 00 00 00 00 00 00 00 00 00 00 00 [................]
  | | | |         3740: 00 00 00 00 00 00 00 00 00 00 00 00 00 00 00 00 [................]
  | | | |         3750: 00 00 00 00 00 00 00 00 00 00 00 00 00 00 00 00 [................]
  | | | |         3760: 00 00 00 00 00 00 00 00 00 00 00 00 00 00 00 00 [................]
  | | | |         3770: 00 00 00 00 00 00 00 00 00 00 00 00 00 00 00 00 [................]
  | | | |         3780: 00 00 00 00 00 00 00 00 00 00 00 00 00 00 00 00 [................]
  | | | |         3790: 00 00 00 00 00 00 00 00 00 00 00 00 00 00 00 00 [................]
  | | | |         37a0: 00 00 00 00 00 00 00 00 00 00 00 00 00 00 00 00 [................]
  | | | |         37b0: 00 00 00 00 00 00 00 00 00 00 00 00 00 00 00 00 [................]
  | | | |         37c0: 00 00 00 00 00 00 00 00 00 00 00 00 00 00 00 00 [................]
  | | | |         37d0: 00 00 00 00 00 00 00 00 00 00 00 00 00 00 00 00 [................]
  | | | |         37e0: 00 00 00 00 00 00 00 00 00 00 00 00 00 00 00 00 [................]
  | | | |         37f0: 00 00 00 00 00 00 00 00 00 00 00 00 00 00 00 00 [................]
  | | | |         3800: 00 00 00 00 00 00 00 00 00 00 00 00 00 00 00 00 [................]
  | | | |         3810: 00 00 00 00 00 00 00 00 00 00 00 00 00 00 00 00 [................]
  | | | |         3820: 00 00 00 00 00 00 00 00 00 00 00 00 00 00 00 00 [................]
  | | | |         3830: 00 00 00 00 00 00 00 00 00 00 00 00 00 00 00 00 [................]
  | | | |         3840: 00 00 00 00 00 00 00 00 00 00 00 00 00 00 00 00 [................]
  | | | |         3850: 00 00 00 00 00 00 00 00 00 00 00 00 00 00 00 00 [................]
  | | | |         3860: 00 00 00 00 00 00 00 00 00 00 00 00 00 00 00 00 [................]
  | | | |         3870: 00 00 00 00 00 00 00 00 00 00 00 00 00 00 00 00 [................]
  | | | |         3880: 00 00 00 00 00 00 00 00 00 00 00 00 00 00 00 00 [................]
  | | | |         3890: 00 00 00 00 00 00 00 00 00 00 00 00 00 00 00 00 [................]
  | | | |         38a0: 00 00 00 00 00 00 00 00 00 00 00 00 00 00 00 00 [................]
  | | | |         38b0: 00 00 00 00 00 00 00 00 00 00 00 00 00 00 00 00 [................]
  | | | |         38c0: 00 00 00 00 00 00 00 00 00 00 00 00 00 00 00 00 [................]
  | | | |         38d0: 00 00 00 00 00 00 00 00 00 00 00 00 00 00 00 00 [................]
  | | | |         38e0: 00 00 00 00 00 00 00 00 00 00 00 00 00 00 00 00 [................]
  | | | |         38f0: 00 00 00 00 00 00 00 00 00 00 00 00 00 00 00 00 [................]
  | | | |         3900: 00 00 00 00 00 00 00 00 00 00 00 00 00 00 00 00 [................]
  | | | |         3910: 00 00 00 00 00 00 00 00 00 00 00 00 00 00 00 00 [................]
  | | | |         [snip 848 bytes]
  | | | | 19) Olympus_FocusInfo_0x0213 = 0
  | | | |     - Tag 0x0213 (2 bytes, int16u[1]):
  | | | |         1c28: 00 00                                           [..]
  | | | | 20) Olympus_FocusInfo_0x0214 = 256
  | | | |     - Tag 0x0214 (2 bytes, int16u[1]):
  | | | |         1c34: 00 01                                           [..]
  | | | | 21) Olympus_FocusInfo_0x0215 = 0
  | | | |     - Tag 0x0215 (2 bytes, int16u[1]):
  | | | |         1c40: 00 00                                           [..]
  | | | | 22) Olympus_FocusInfo_0x0219 = 0 0 0 0
  | | | |     - Tag 0x0219 (8 bytes, int16s[4]):
  | | | |         3c8a: 00 00 00 00 00 00 00 00                         [........]
  | | | | 23) Olympus_FocusInfo_0x021a = 743 714 608 475
  | | | |     - Tag 0x021a (8 bytes, int16s[4]):
  | | | |         3c92: e7 02 ca 02 60 02 db 01                         [....`...]
  | | | | 24) Olympus_FocusInfo_0x021b = 728 661 541
  | | | |     - Tag 0x021b (6 bytes, int16s[3]):
  | | | |         3c9a: d8 02 95 02 1d 02                               [......]
  | | | | 25) ZoomStepCount = 12
  | | | |     - Tag 0x0300 (2 bytes, int16u[1]):
  | | | |         1c70: 0c 00                                           [..]
  | | | | 26) FocusStepCount = 1158
  | | | |     - Tag 0x0301 (2 bytes, int16u[1]):
  | | | |         1c7c: 86 04                                           [..]
  | | | | 27) Olympus_FocusInfo_0x0302 = 0
  | | | |     - Tag 0x0302 (2 bytes, int16u[1]):
  | | | |         1c88: 00 00                                           [..]
  | | | | 28) FocusStepInfinity = 1154
  | | | |     - Tag 0x0303 (2 bytes, int16u[1]):
  | | | |         1c94: 82 04                                           [..]
  | | | | 29) FocusStepNear = 1309
  | | | |     - Tag 0x0304 (2 bytes, int16u[1]):
  | | | |         1ca0: 1d 05                                           [..]
  | | | | 30) FocusDistance = 100350 10
  | | | |     - Tag 0x0305 (8 bytes, rational64u[1] read as int32u[2]):
  | | | |         3cac: fe 87 01 00 0a 00 00 00                         [........]
  | | | | 31) Olympus_FocusInfo_0x0307 = 0
  | | | |     - Tag 0x0307 (2 bytes, int16u[1]):
  | | | |         1cb8: 00 00                                           [..]
  | | | | 32) AFPoint = 0
  | | | |     - Tag 0x0308 (2 bytes, int16u[1]):
  | | | |         1cc4: 00 00                                           [..]
  | | | | 33) Olympus_FocusInfo_0x0309 = 0
  | | | |     - Tag 0x0309 (2 bytes, int16u[1]):
  | | | |         1cd0: 00 00                                           [..]
  | | | | 34) Olympus_FocusInfo_0x030a = 0 0 0 0 0 0 0 0 0 0 0 0 0 0 0 0 0 0 0 0
  | | | |     - Tag 0x030a (40 bytes, int16s[20]):
  | | | |         3cf0: 00 00 00 00 00 00 00 00 00 00 00 00 00 00 00 00 [................]
  | | | |         3d00: 00 00 00 00 00 00 00 00 00 00 00 00 00 00 00 00 [................]
  | | | |         3d10: 00 00 00 00 00 00 00 00                         [........]
  | | | | 35) Olympus_FocusInfo_0x030b = 0
  | | | |     - Tag 0x030b (2 bytes, int16u[1]):
  | | | |         1ce8: 00 00                                           [..]
  | | | | 36) Olympus_FocusInfo_0x030c = 0 0
  | | | |     - Tag 0x030c (4 bytes, int16u[2]):
  | | | |         1cf4: 00 00 00 00                                     [....]
  | | | | 37) Olympus_FocusInfo_0x030d = 0 0 0 0 0 0 0 0 0 0 0 0 0 0 0 0 0 0 0 0 0 0
  | | | |     - Tag 0x030d (44 bytes, int16u[22]):
  | | | |         3d1a: 00 00 00 00 00 00 00 00 00 00 00 00 00 00 00 00 [................]
  | | | |         3d2a: 00 00 00 00 00 00 00 00 00 00 00 00 00 00 00 00 [................]
  | | | |         3d3a: 00 00 00 00 00 00 00 00 00 00 00 00             [............]
  | | | | 38) Olympus_FocusInfo_0x030e = 0
  | | | |     - Tag 0x030e (2 bytes, int16u[1]):
  | | | |         1d0c: 00 00                                           [..]
  | | | | 39) Olympus_FocusInfo_0x030f = 400 0 0 0
  | | | |     - Tag 0x030f (8 bytes, int16s[4]):
  | | | |         3cbe: 90 01 00 00 00 00 00 00                         [........]
  | | | | 40) Olympus_FocusInfo_0x0311 = 0
  | | | |     - Tag 0x0311 (2 bytes, int16u[1]):
  | | | |         1d24: 00 00                                           [..]
  | | | | 41) Olympus_FocusInfo_0x0312 = 51 833
  | | | |     - Tag 0x0312 (4 bytes, int16u[2]):
  | | | |         1d30: 33 00 41 03                                     [3.A.]
  | | | | 42) Olympus_FocusInfo_0x0313 = 1134
  | | | |     - Tag 0x0313 (2 bytes, int16s[1]):
  | | | |         1d3c: 6e 04                                           [n.]
  | | | | 43) Olympus_FocusInfo_0x0314 = 9
  | | | |     - Tag 0x0314 (2 bytes, int16u[1]):
  | | | |         1d48: 09 00                                           [..]
  | | | | 44) Olympus_FocusInfo_0x0315 = 0
  | | | |     - Tag 0x0315 (2 bytes, int16s[1]):
  | | | |         1d54: 00 00                                           [..]
  | | | | 45) Olympus_FocusInfo_0x0316 = 2350 0 0 0 0 0 0 0 0 0
  | | | |     - Tag 0x0316 (20 bytes, int16s[10]):
  | | | |         3cd4: 2e 09 00 00 00 00 00 00 00 00 00 00 00 00 00 00 [................]
  | | | |         3ce4: 00 00 00 00                                     [....]
  | | | | 46) Olympus_FocusInfo_0x0318 = 0
  | | | |     - Tag 0x0318 (2 bytes, int16u[1]):
  | | | |         1d6c: 00 00                                           [..]
  | | | | 47) Olympus_FocusInfo_0x0319 = 0
  | | | |     - Tag 0x0319 (2 bytes, int16u[1]):
  | | | |         1d78: 00 00                                           [..]
  | | | | 48) Olympus_FocusInfo_0x031a = 0 0 0 0 0 0 0 0 0 0 0 0 0 0 0 0 0 0 0 0 0 0 0 0 0 0 0 0 0 0 0 0 0 0 0 0 0 0 0 0 0 0 0 0 0 0 0 0 0 0 0 0 0 0 0 0 0 0 0 0 0 0 0 0 0 0 0 0 0 0 0 0 0 0 0 0 0 0 0 0 0 0 0 0
  | | | |     - Tag 0x031a (168 bytes, int16u[84]):
  | | | |         3d4c: 00 00 00 00 00 00 00 00 00 00 00 00 00 00 00 00 [................]
  | | | |         3d5c: 00 00 00 00 00 00 00 00 00 00 00 00 00 00 00 00 [................]
  | | | |         3d6c: 00 00 00 00 00 00 00 00 00 00 00 00 00 00 00 00 [................]
  | | | |         3d7c: 00 00 00 00 00 00 00 00 00 00 00 00 00 00 00 00 [................]
  | | | |         3d8c: 00 00 00 00 00 00 00 00 00 00 00 00 00 00 00 00 [................]
  | | | |         3d9c: 00 00 00 00 00 00 00 00 00 00 00 00 00 00 00 00 [................]
  | | | |         3dac: 00 00 00 00 00 00 00 00 00 00 00 00 00 00 00 00 [................]
  | | | |         3dbc: 00 00 00 00 00 00 00 00 00 00 00 00 00 00 00 00 [................]
  | | | |         3dcc: 00 00 00 00 00 00 00 00 00 00 00 00 00 00 00 00 [................]
  | | | |         3ddc: 00 00 00 00 00 00 00 00 00 00 00 00 00 00 00 00 [................]
  | | | |         3dec: 00 00 00 00 00 00 00 00                         [........]
  | | | | 49) AFPointDetails = 0
  | | | |     - Tag 0x031b (2 bytes, int16u[1]):
  | | | |         1d90: 00 00                                           [..]
  | | | | 50) Olympus_FocusInfo_0x031c = 0
  | | | |     - Tag 0x031c (2 bytes, int16s[1]):
  | | | |         1d9c: 00 00                                           [..]
  | | | | 51) Olympus_FocusInfo_0x031d = 1160
  | | | |     - Tag 0x031d (2 bytes, int16s[1]):
  | | | |         1da8: 88 04                                           [..]
  | | | | 52) Olympus_FocusInfo_0x031e = 1160
  | | | |     - Tag 0x031e (2 bytes, int16s[1]):
  | | | |         1db4: 88 04                                           [..]
  | | | | 53) Olympus_FocusInfo_0x0320 = 0 0 0 0 0 0 0 0 0 0 0 0 0 0 0 0
  | | | |     - Tag 0x0320 (32 bytes, int16u[16]):
  | | | |         3df6: 00 00 00 00 00 00 00 00 00 00 00 00 00 00 00 00 [................]
  | | | |         3e06: 00 00 00 00 00 00 00 00 00 00 00 00 00 00 00 00 [................]
  | | | | 54) Olympus_FocusInfo_0x0321 = 1160
  | | | |     - Tag 0x0321 (2 bytes, int16s[1]):
  | | | |         1dcc: 88 04                                           [..]
  | | | | 55) Olympus_FocusInfo_0x0322 = 0
  | | | |     - Tag 0x0322 (2 bytes, int16s[1]):
  | | | |         1dd8: 00 00                                           [..]
  | | | | 56) Olympus_FocusInfo_0x0323 = 0
  | | | |     - Tag 0x0323 (2 bytes, int16s[1]):
  | | | |         1de4: 00 00                                           [..]
  | | | | 57) Olympus_FocusInfo_0x0324 = 1216
  | | | |     - Tag 0x0324 (2 bytes, int16s[1]):
  | | | |         1df0: c0 04                                           [..]
  | | | | 58) Olympus_FocusInfo_0x0325 = 0 0 0 0 0 0 0 0
  | | | |     - Tag 0x0325 (16 bytes, int16u[8]):
  | | | |         3e16: 00 00 00 00 00 00 00 00 00 00 00 00 00 00 00 00 [................]
  | | | | 59) Olympus_FocusInfo_0x0326 = 0 0 0 0 0 0 0 0
  | | | |     - Tag 0x0326 (16 bytes, int16u[8]):
  | | | |         3e26: 00 00 00 00 00 00 00 00 00 00 00 00 00 00 00 00 [................]
  | | | | 60) Olympus_FocusInfo_0x0327 = 0
  | | | |     - Tag 0x0327 (2 bytes, int16u[1]):
  | | | |         1e14: 00 00                                           [..]
  | | | | 61) AFInfo (SubDirectory) -->
  | | | |     - Tag 0x0328 (256 bytes, undef[256]):
  | | | |         3e36: 00 00 00 00 00 00 00 00 00 00 00 00 00 00 00 00 [................]
  | | | |         3e46: 00 00 00 00 00 00 00 00 00 00 00 00 00 00 00 00 [................]
  | | | |         3e56: 00 00 00 00 00 00 00 00 00 00 00 00 00 00 00 00 [................]
  | | | |         3e66: 00 00 00 00 00 00 00 00 00 00 00 00 00 00 00 00 [................]
  | | | |         3e76: 00 00 00 00 00 00 00 00 00 00 00 00 00 00 00 00 [................]
  | | | |         3e86: 00 00 00 00 00 00 00 00 00 00 00 00 00 00 00 00 [................]
  | | | |         3e96: 00 00 00 00 00 00 00 00 00 00 00 00 00 00 00 00 [................]
  | | | |         3ea6: 00 00 00 00 00 00 00 00 00 00 00 00 00 00 00 00 [................]
  | | | |         3eb6: 00 00 00 00 00 00 00 00 00 00 00 00 00 00 00 00 [................]
  | | | |         3ec6: 00 00 00 00 00 00 00 00 00 00 00 00 00 00 00 00 [................]
  | | | |         3ed6: 00 00 00 00 00 00 00 00 00 00 00 00 00 00 00 00 [................]
  | | | |         3ee6: 00 00 00 00 00 00 00 00 00 00 00 00 00 00 00 00 [................]
  | | | |         3ef6: 00 00 00 00 00 00 00 00 00 00 00 00 00 00 00 00 [................]
  | | | |         3f06: 00 00 00 00 00 00 00 00 00 00 00 00 00 00 00 00 [................]
  | | | |         3f16: 00 00 00 00 00 00 00 00 00 00 00 00 00 00 00 00 [................]
  | | | |         3f26: 00 00 00 00 00 00 00 00 00 00 00 00 00 00 00 00 [................]
  | | | | + [BinaryData directory, 256 bytes, Little-endian]
  | | | | 62) Olympus_FocusInfo_0x0402 = 0
  | | | |     - Tag 0x0402 (2 bytes, int16u[1]):
  | | | |         1e2c: 00 00                                           [..]
  | | | | 63) Olympus_FocusInfo_0x1200 = 40
  | | | |     - Tag 0x1200 (2 bytes, int16u[1]):
  | | | |         1e38: 28 00                                           [(.]
  | | | | 64) ExternalFlash = 0 0
  | | | |     - Tag 0x1201 (4 bytes, int16u[2]):
  | | | |         1e44: 00 00 00 00                                     [....]
  | | | | 65) Olympus_FocusInfo_0x1202 = 0
  | | | |     - Tag 0x1202 (2 bytes, int16u[1]):
  | | | |         1e50: 00 00                                           [..]
  | | | | 66) ExternalFlashGuideNumber = 0 (0/1)
  | | | |     - Tag 0x1203 (8 bytes, rational64s[1]):
  | | | |         3f5c: 00 00 00 00 01 00 00 00                         [........]
  | | | | 67) ExternalFlashBounce = 0
  | | | |     - Tag 0x1204 (2 bytes, int16u[1]):
  | | | |         1e68: 00 00                                           [..]
  | | | | 68) ExternalFlashZoom = 0 (0/1)
  | | | |     - Tag 0x1205 (8 bytes, rational64u[1]):
  | | | |         3f68: 00 00 00 00 01 00 00 00                         [........]
  | | | | 69) Olympus_FocusInfo_0x1206 = 0
  | | | |     - Tag 0x1206 (2 bytes, int16u[1]):
  | | | |         1e80: 00 00                                           [..]
  | | | | 70) Olympus_FocusInfo_0x1207 = 0
  | | | |     - Tag 0x1207 (2 bytes, int16u[1]):
  | | | |         1e8c: 00 00                                           [..]
  | | | | 71) InternalFlash = 0
  | | | |     - Tag 0x1208 (2 bytes, int16u[1]):
  | | | |         1e98: 00 00                                           [..]
  | | | | 72) ManualFlash = 0 1
  | | | |     - Tag 0x1209 (4 bytes, int16u[2]):
  | | | |         1ea4: 00 00 01 00                                     [....]
  | | | | 73) MacroLED = 0
  | | | |     - Tag 0x120a (2 bytes, int16u[1]):
  | | | |         1eb0: 00 00                                           [..]
  | | | | 74) SensorTemperature = 0
  | | | |     - Tag 0x1500 (2 bytes, int16s[1]):
  | | | |         1ebc: 00 00                                           [..]
  | | | | 75) Olympus_FocusInfo_0x1501 = 2 102
  | | | |     - Tag 0x1501 (8 bytes, int32u[2]):
  | | | |         3f80: 02 00 00 00 66 00 00 00                         [....f...]
  | | | | 76) Olympus_FocusInfo_0x1502 = 0
  | | | |     - Tag 0x1502 (2 bytes, int16u[1]):
  | | | |         1ed4: 00 00                                           [..]
  | | | | 77) Olympus_FocusInfo_0x1600 = .11..;........................
  | | | |     - Tag 0x1600 (80 bytes, undef[80]):
  | | | |         3f8a: 15 31 31 00 00 e7 01 3b 01 80 01 b1 0c f5 07 88 [.11....;........]
  | | | |         3f9a: 82 a9 00 a1 00 02 02 02 02 a9 00 a1 00 a9 00 a3 [................]
  | | | |         3faa: 00 00 00 00 00 00 00 02 00 03 00 00 01 00 00 00 [................]
  | | | |         3fba: ff ff 00 00 00 00 00 00 00 00 00 00 00 00 00 00 [................]
  | | | |         3fca: 00 00 00 00 00 00 00 00 00 00 00 00 00 00 00 00 [................]
  | | | | 78) Olympus_FocusInfo_0x1700 = 0 0 0 0
  | | | |     - Tag 0x1700 (4 bytes, int8u[4]):
  | | | |         1eec: 00 00 00 00                                     [....]
  | | | | 79) Olympus_FocusInfo_0x1800 = 0
  | | | |     - Tag 0x1800 (4 bytes, int32u[1]):
  | | | |         1ef8: 00 00 00 00                                     [....]
  | | | | 80) Olympus_FocusInfo_0x1801 = 21314
  | | | |     - Tag 0x1801 (4 bytes, int32u[1]):
  | | | |         1f04: 42 53 00 00                                     [BS..]
  | | 14) UserComment =                                                                                                                      
  | |     - Tag 0x9286 (125 bytes, undef[125]):
  | |         0b30: 00 00 00 00 00 00 00 00 20 20 20 20 20 20 20 20 [........        ]
  | |         0b40: 20 20 20 20 20 20 20 20 20 20 20 20 20 20 20 20 [                ]
  | |         0b50: 20 20 20 20 20 20 20 20 20 20 20 20 20 20 20 20 [                ]
  | |         0b60: 20 20 20 20 20 20 20 20 20 20 20 20 20 20 20 20 [                ]
  | |         0b70: 20 20 20 20 20 20 20 20 20 20 20 20 20 20 20 20 [                ]
  | |         0b80: 20 20 20 20 20 20 20 20 20 20 20 20 20 20 20 20 [                ]
  | |         0b90: 20 20 20 20 20 20 20 20 20 20 20 20 20 20 20 20 [                ]
  | |         0ba0: 20 20 20 20 20 20 20 20 20 20 20 20 20          [             ]
  | | 15) FlashpixVersion = 0100
  | |     - Tag 0xa000 (4 bytes, undef[4]):
  | |         01e0: 30 31 30 30                                     [0100]
  | | 16) ColorSpace = 1
  | |     - Tag 0xa001 (2 bytes, int16u[1]):
  | |         01ec: 01 00                                           [..]
  | | 17) FileSource = 3
  | |     - Tag 0xa300 (1 bytes, undef[1]):
  | |         01f8: 03                                              [.]
  | | 18) CFAPattern = .....
  | |     - Tag 0xa302 (8 bytes, undef[8]):
  | |         0c0d: 02 00 02 00 00 01 01 02                         [........]
  | | 19) CustomRendered = 1
  | |     - Tag 0xa401 (2 bytes, int16u[1]):
  | |         0210: 01 00                                           [..]
  | | 20) ExposureMode = 0
  | |     - Tag 0xa402 (2 bytes, int16u[1]):
  | |         021c: 00 00                                           [..]
  | | 21) WhiteBalance = 1
  | |     - Tag 0xa403 (2 bytes, int16u[1]):
  | |         0228: 01 00                                           [..]
  | | 22) DigitalZoomRatio = 1 (100/100)
  | |     - Tag 0xa404 (8 bytes, rational64u[1]):
  | |         0c1c: 64 00 00 00 64 00 00 00                         [d...d...]
  | | 23) FocalLengthIn35mmFormat = 71
  | |     - Tag 0xa405 (2 bytes, int16u[1]):
  | |         0240: 47 00                                           [G.]
  | | 24) SceneCaptureType = 0
  | |     - Tag 0xa406 (2 bytes, int16u[1]):
  | |         024c: 00 00                                           [..]
  | | 25) GainControl = 0
  | |     - Tag 0xa407 (2 bytes, int16u[1]):
  | |         0258: 00 00                                           [..]
  | | 26) Contrast = 0
  | |     - Tag 0xa408 (2 bytes, int16u[1]):
  | |         0264: 00 00                                           [..]
  | | 27) Saturation = 0
  | |     - Tag 0xa409 (2 bytes, int16u[1]):
  | |         0270: 00 00                                           [..]
  | | 28) Sharpness = 0
  | |     - Tag 0xa40a (2 bytes, int16u[1]):
  | |         027c: 00 00                                           [..]
  | 22) PrintIM (SubDirectory) -->
  |     - Tag 0xc4a5 (528 bytes, undef[528]):
  |         08bc: 50 72 69 6e 74 49 4d 00 30 33 30 30 00 00 1c 00 [PrintIM.0300....]
  |         08cc: 01 00 12 00 12 00 02 00 01 00 00 00 03 00 f0 00 [................]
  |         08dc: 00 00 07 00 00 00 00 00 08 00 00 00 00 00 09 00 [................]
  |         08ec: 00 00 00 00 0a 00 00 00 00 00 0b 00 38 01 00 00 [............8...]
  |         08fc: 0c 00 00 00 00 00 0d 00 00 00 00 00 0e 00 50 01 [..............P.]
  |         090c: 00 00 10 00 60 01 00 00 20 00 b4 01 00 00 00 01 [....`... .......]
  |         091c: 03 00 00 00 01 01 00 00 00 00 10 01 80 00 00 00 [................]
  |         092c: 00 02 00 00 00 00 07 02 00 00 00 00 08 02 00 00 [................]
  |         093c: 00 00 09 02 00 00 00 00 0a 02 00 00 00 00 0b 02 [................]
  |         094c: f8 01 00 00 0d 02 00 00 00 00 20 02 d6 01 00 00 [.......... .....]
  |         095c: 00 03 03 00 00 00 01 03 00 00 00 00 10 03 80 00 [................]
  |         096c: 00 00 00 04 00 00 00 00 0d 02 00 00 00 00 20 02 [.............. .]
  |         097c: d6 01 00 00 00 03 03 00 00 00 01 03 00 00 00 00 [................]
  |         098c: 00 00 83 00 00 00 00 00 83 00 00 00 00 00 83 00 [................]
  |         099c: 00 00 10 03 80 00 00 00 00 04 00 00 00 00 00 00 [................]
  |         09ac: 09 11 00 00 10 27 00 00 0b 0f 00 00 10 27 00 00 [.....'.......'..]
  |         09bc: 97 05 00 00 10 27 00 00 b0 08 00 00 10 27 00 00 [.....'.......'..]
  |         09cc: 01 1c 00 00 10 27 00 00 5e 02 00 00 10 27 00 00 [.....'..^....'..]
  |         09dc: 8b 00 00 00 10 27 00 00 cb 03 00 00 10 27 00 00 [.....'.......'..]
  |         09ec: e5 1b 00 00 10 27 00 00 00 00 00 00 00 00 00 00 [.....'..........]
  |         09fc: 00 00 00 00 00 00 00 00 00 00 00 00 00 00 00 00 [................]
  |         0a0c: 00 00 00 00 00 00 00 00 00 00 00 00 00 00 00 00 [................]
  |         0a1c: 04 00 00 00 00 00 00 00 00 00 00 00 00 00 00 00 [................]
  |         0a2c: 00 00 00 00 00 00 00 00 00 00 00 00 00 00 00 00 [................]
  |         0a3c: 00 00 00 00 00 00 00 00 00 00 00 00 00 00 00 00 [................]
  |         0a4c: 00 00 00 00 00 00 00 00 00 00 00 00 00 00 00 00 [................]
  |         0a5c: 00 00 00 00 00 00 00 00 00 00 00 00 00 00 00 00 [................]
  |         0a6c: 00 00 00 00 05 05 05 00 00 00 40 40 80 80 c0 c0 [..........@@....]
  |         0a7c: ff ff 00 00 40 40 80 80 c0 c0 ff ff 00 00 40 40 [....@@........@@]
  |         0a8c: 80 80 c0 c0 ff ff 05 05 05 00 00 00 40 40 80 80 [............@@..]
  |         0a9c: c0 c0 ff ff 00 00 40 40 80 80 c0 c0 ff ff 00 00 [......@@........]
  |         0aac: 40 40 80 80 c0 c0 ff ff 00 00 00 00 00 00 00 00 [@@..............]
  |         0abc: 00 00 00 00 00 00 00 00 00 00 00 00 00 00 00 00 [................]
  | + [PrintIM directory with 28 entries]
  | | PrintIMVersion = 0300
  | | - Tag 'PrintIMVersion' (4 bytes):
  | |     0008: 30 33 30 30                                     [0300]
  | | 0)  PrintIM_0x0001 = 1179666
  | |     - Tag 0x0001 (4 bytes):
  | |         0012: 12 00 12 00                                     [....]
  | | 1)  PrintIM_0x0002 = 1
  | |     - Tag 0x0002 (4 bytes):
  | |         0018: 01 00 00 00                                     [....]
  | | 2)  PrintIM_0x0003 = 240
  | |     - Tag 0x0003 (4 bytes):
  | |         001e: f0 00 00 00                                     [....]
  | | 3)  PrintIM_0x0007 = 0
  | |     - Tag 0x0007 (4 bytes):
  | |         0024: 00 00 00 00                                     [....]
  | | 4)  PrintIM_0x0008 = 0
  | |     - Tag 0x0008 (4 bytes):
  | |         002a: 00 00 00 00                                     [....]
  | | 5)  PrintIM_0x0009 = 0
  | |     - Tag 0x0009 (4 bytes):
  | |         0030: 00 00 00 00                                     [....]
  | | 6)  PrintIM_0x000a = 0
  | |     - Tag 0x000a (4 bytes):
  | |         0036: 00 00 00 00                                     [....]
  | | 7)  PrintIM_0x000b = 312
  | |     - Tag 0x000b (4 bytes):
  | |         003c: 38 01 00 00                                     [8...]
  | | 8)  PrintIM_0x000c = 0
  | |     - Tag 0x000c (4 bytes):
  | |         0042: 00 00 00 00                                     [....]
  | | 9)  PrintIM_0x000d = 0
  | |     - Tag 0x000d (4 bytes):
  | |         0048: 00 00 00 00                                     [....]
  | | 10) PrintIM_0x000e = 336
  | |     - Tag 0x000e (4 bytes):
  | |         004e: 50 01 00 00                                     [P...]
  | | 11) PrintIM_0x0010 = 352
  | |     - Tag 0x0010 (4 bytes):
  | |         0054: 60 01 00 00                                     [`...]
  | | 12) PrintIM_0x0020 = 436
  | |     - Tag 0x0020 (4 bytes):
  | |         005a: b4 01 00 00                                     [....]
  | | 13) PrintIM_0x0100 = 3
  | |     - Tag 0x0100 (4 bytes):
  | |         0060: 03 00 00 00                                     [....]
  | | 14) PrintIM_0x0101 = 0
  | |     - Tag 0x0101 (4 bytes):
  | |         0066: 00 00 00 00                                     [....]
  | | 15) PrintIM_0x0110 = 128
  | |     - Tag 0x0110 (4 bytes):
  | |         006c: 80 00 00 00                                     [....]
  | | 16) PrintIM_0x0200 = 0
  | |     - Tag 0x0200 (4 bytes):
  | |         0072: 00 00 00 00                                     [....]
  | | 17) PrintIM_0x0207 = 0
  | |     - Tag 0x0207 (4 bytes):
  | |         0078: 00 00 00 00                                     [....]
  | | 18) PrintIM_0x0208 = 0
  | |     - Tag 0x0208 (4 bytes):
  | |         007e: 00 00 00 00                                     [....]
  | | 19) PrintIM_0x0209 = 0
  | |     - Tag 0x0209 (4 bytes):
  | |         0084: 00 00 00 00                                     [....]
  | | 20) PrintIM_0x020a = 0
  | |     - Tag 0x020a (4 bytes):
  | |         008a: 00 00 00 00                                     [....]
  | | 21) PrintIM_0x020b = 504
  | |     - Tag 0x020b (4 bytes):
  | |         0090: f8 01 00 00                                     [....]
  | | 22) PrintIM_0x020d = 0
  | |     - Tag 0x020d (4 bytes):
  | |         0096: 00 00 00 00                                     [....]
  | | 23) PrintIM_0x0220 = 470
  | |     - Tag 0x0220 (4 bytes):
  | |         009c: d6 01 00 00                                     [....]
  | | 24) PrintIM_0x0300 = 3
  | |     - Tag 0x0300 (4 bytes):
  | |         00a2: 03 00 00 00                                     [....]
  | | 25) PrintIM_0x0301 = 0
  | |     - Tag 0x0301 (4 bytes):
  | |         00a8: 00 00 00 00                                     [....]
  | | 26) PrintIM_0x0310 = 128
  | |     - Tag 0x0310 (4 bytes):
  | |         00ae: 80 00 00 00                                     [....]
  | | 27) PrintIM_0x0400 = 0
  | |     - Tag 0x0400 (4 bytes):
  | |         00b4: 00 00 00 00                                     [....]
