  ExifToolVersion = 13.59
  FileName = media_57.cr2
  Directory = C:/Users/micro/IdeaProjects/kim/src/commonTest/resources/de/stefan_oltmann/kim/testdata/full
  FileSize = 26009918
  FileModifyDate = 1776264337.71126
  FileAccessDate = 1786601582.58984
  FileCreateDate = 1776264337.63115
  FilePermissions = 33206
  FileType = CR2
  FileTypeExtension = CR2
  MIMEType = image/x-canon-cr2
  ExifByteOrder = II
  + [IFD0 directory with 17 entries, Little-endian]
  | 0)  ImageWidth = 5184
  |     - Tag 0x0100 (2 bytes, int16u[1]):
  |         001a: 40 14                                           [@.]
  | 1)  ImageHeight = 3456
  |     - Tag 0x0101 (2 bytes, int16u[1]):
  |         0026: 80 0d                                           [..]
  | 2)  BitsPerSample = 8 8 8
  |     - Tag 0x0102 (6 bytes, int16u[3]):
  |         00e2: 08 00 08 00 08 00                               [......]
  | 3)  Compression = 6
  |     - Tag 0x0103 (2 bytes, int16u[1]):
  |         003e: 06 00                                           [..]
  | 4)  Make = Canon
  |     - Tag 0x010f (6 bytes, string[6]):
  |         00e8: 43 61 6e 6f 6e 00                               [Canon.]
  | 5)  Model = Canon EOS 60D
  |     - Tag 0x0110 (14 bytes, string[14]):
  |         00ee: 43 61 6e 6f 6e 20 45 4f 53 20 36 30 44 00       [Canon EOS 60D.]
  | 6)  PreviewImageStart = 66404
  |     - Tag 0x0111 (4 bytes, int32u[1]):
  |         0062: 64 03 01 00                                     [d...]
  | 7)  Orientation = 1
  |     - Tag 0x0112 (2 bytes, int16u[1]):
  |         006e: 01 00                                           [..]
  | 8)  PreviewImageLength = 3235038
  |     - Tag 0x0117 (4 bytes, int32u[1]):
  |         007a: de 5c 31 00                                     [.\1.]
  | 9)  XResolution = 72 (72/1)
  |     - Tag 0x011a (8 bytes, rational64u[1]):
  |         010e: 48 00 00 00 01 00 00 00                         [H.......]
  | 10) YResolution = 72 (72/1)
  |     - Tag 0x011b (8 bytes, rational64u[1]):
  |         0116: 48 00 00 00 01 00 00 00                         [H.......]
  | 11) ResolutionUnit = 2
  |     - Tag 0x0128 (2 bytes, int16u[1]):
  |         009e: 02 00                                           [..]
  | 12) ModifyDate = 2021:12:06 05:27:33
  |     - Tag 0x0132 (20 bytes, string[20]):
  |         011e: 32 30 32 31 3a 31 32 3a 30 36 20 30 35 3a 32 37 [2021:12:06 05:27]
  |         012e: 3a 33 33 00                                     [:33.]
  | 13) Artist = Stefan Oltmann
  |     - Tag 0x013b (15 bytes, string[15]):
  |         0132: 53 74 65 66 61 6e 20 4f 6c 74 6d 61 6e 6e 00    [Stefan Oltmann.]
  | 14) ApplicationNotes (SubDirectory) -->
  |     - Tag 0x02bc (8192 bytes, int8u[8192] read as undef[8192]):
  |         b774: 3c 3f 78 70 61 63 6b 65 74 20 62 65 67 69 6e 3d [<?xpacket begin=]
  |         b784: 27 ef bb bf 27 20 69 64 3d 27 57 35 4d 30 4d 70 ['...' id='W5M0Mp]
  |         b794: 43 65 68 69 48 7a 72 65 53 7a 4e 54 63 7a 6b 63 [CehiHzreSzNTczkc]
  |         b7a4: 39 64 27 3f 3e 3c 78 3a 78 6d 70 6d 65 74 61 20 [9d'?><x:xmpmeta ]
  |         b7b4: 78 6d 6c 6e 73 3a 78 3d 22 61 64 6f 62 65 3a 6e [xmlns:x="adobe:n]
  |         b7c4: 73 3a 6d 65 74 61 2f 22 3e 3c 72 64 66 3a 52 44 [s:meta/"><rdf:RD]
  |         b7d4: 46 20 78 6d 6c 6e 73 3a 72 64 66 3d 22 68 74 74 [F xmlns:rdf="htt]
  |         b7e4: 70 3a 2f 2f 77 77 77 2e 77 33 2e 6f 72 67 2f 31 [p://www.w3.org/1]
  |         b7f4: 39 39 39 2f 30 32 2f 32 32 2d 72 64 66 2d 73 79 [999/02/22-rdf-sy]
  |         b804: 6e 74 61 78 2d 6e 73 23 22 3e 3c 72 64 66 3a 44 [ntax-ns#"><rdf:D]
  |         b814: 65 73 63 72 69 70 74 69 6f 6e 20 72 64 66 3a 61 [escription rdf:a]
  |         b824: 62 6f 75 74 3d 22 22 20 78 6d 6c 6e 73 3a 78 6d [bout="" xmlns:xm]
  |         b834: 70 3d 22 68 74 74 70 3a 2f 2f 6e 73 2e 61 64 6f [p="http://ns.ado]
  |         b844: 62 65 2e 63 6f 6d 2f 78 61 70 2f 31 2e 30 2f 22 [be.com/xap/1.0/"]
  |         b854: 3e 3c 78 6d 70 3a 52 61 74 69 6e 67 3e 30 3c 2f [><xmp:Rating>0</]
  |         b864: 78 6d 70 3a 52 61 74 69 6e 67 3e 3c 2f 72 64 66 [xmp:Rating></rdf]
  |         b874: 3a 44 65 73 63 72 69 70 74 69 6f 6e 3e 3c 2f 72 [:Description></r]
  |         b884: 64 66 3a 52 44 46 3e 3c 2f 78 3a 78 6d 70 6d 65 [df:RDF></x:xmpme]
  |         b894: 74 61 3e 20 20 20 20 20 20 20 20 20 20 20 20 20 [ta>             ]
  |         b8a4: 20 20 20 20 20 20 20 20 20 20 20 20 20 20 20 20 [                ]
  |         b8b4: 20 20 20 20 20 20 20 20 20 20 20 20 20 20 20 20 [                ]
  |         b8c4: 20 20 20 20 20 20 20 20 20 20 20 20 20 20 20 20 [                ]
  |         b8d4: 20 20 20 20 20 20 20 20 20 20 20 20 20 20 20 20 [                ]
  |         b8e4: 20 20 20 20 20 20 20 20 20 20 20 20 20 20 20 20 [                ]
  |         b8f4: 20 20 20 20 20 20 20 20 20 20 20 20 20 20 20 20 [                ]
  |         b904: 20 20 20 20 20 20 20 20 20 20 20 20 20 20 20 20 [                ]
  |         b914: 20 20 20 0a 20 20 20 20 20 20 20 20 20 20 20 20 [   .            ]
  |         b924: 20 20 20 20 20 20 20 20 20 20 20 20 20 20 20 20 [                ]
  |         b934: 20 20 20 20 20 20 20 20 20 20 20 20 20 20 20 20 [                ]
  |         b944: 20 20 20 20 20 20 20 20 20 20 20 20 20 20 20 20 [                ]
  |         b954: 20 20 20 20 20 20 20 20 20 20 20 20 20 20 20 20 [                ]
  |         b964: 20 20 20 20 20 20 20 20 20 20 20 20 20 20 20 20 [                ]
  |         b974: 20 20 20 20 20 20 20 20 20 20 20 20 20 20 20 20 [                ]
  |         b984: 20 20 20 20 20 20 20 20 20 20 20 20 20 20 20 20 [                ]
  |         b994: 20 20 20 20 0a 20 20 20 20 20 20 20 20 20 20 20 [    .           ]
  |         b9a4: 20 20 20 20 20 20 20 20 20 20 20 20 20 20 20 20 [                ]
  |         b9b4: 20 20 20 20 20 20 20 20 20 20 20 20 20 20 20 20 [                ]
  |         b9c4: 20 20 20 20 20 20 20 20 20 20 20 20 20 20 20 20 [                ]
  |         b9d4: 20 20 20 20 20 20 20 20 20 20 20 20 20 20 20 20 [                ]
  |         b9e4: 20 20 20 20 20 20 20 20 20 20 20 20 20 20 20 20 [                ]
  |         b9f4: 20 20 20 20 20 20 20 20 20 20 20 20 20 20 20 20 [                ]
  |         ba04: 20 20 20 20 20 20 20 20 20 20 20 20 20 20 20 20 [                ]
  |         ba14: 20 20 20 20 20 0a 20 20 20 20 20 20 20 20 20 20 [     .          ]
  |         ba24: 20 20 20 20 20 20 20 20 20 20 20 20 20 20 20 20 [                ]
  |         ba34: 20 20 20 20 20 20 20 20 20 20 20 20 20 20 20 20 [                ]
  |         ba44: 20 20 20 20 20 20 20 20 20 20 20 20 20 20 20 20 [                ]
  |         ba54: 20 20 20 20 20 20 20 20 20 20 20 20 20 20 20 20 [                ]
  |         ba64: 20 20 20 20 20 20 20 20 20 20 20 20 20 20 20 20 [                ]
  |         ba74: 20 20 20 20 20 20 20 20 20 20 20 20 20 20 20 20 [                ]
  |         ba84: 20 20 20 20 20 20 20 20 20 20 20 20 20 20 20 20 [                ]
  |         ba94: 20 20 20 20 20 20 0a 20 20 20 20 20 20 20 20 20 [      .         ]
  |         baa4: 20 20 20 20 20 20 20 20 20 20 20 20 20 20 20 20 [                ]
  |         bab4: 20 20 20 20 20 20 20 20 20 20 20 20 20 20 20 20 [                ]
  |         bac4: 20 20 20 20 20 20 20 20 20 20 20 20 20 20 20 20 [                ]
  |         bad4: 20 20 20 20 20 20 20 20 20 20 20 20 20 20 20 20 [                ]
  |         bae4: 20 20 20 20 20 20 20 20 20 20 20 20 20 20 20 20 [                ]
  |         baf4: 20 20 20 20 20 20 20 20 20 20 20 20 20 20 20 20 [                ]
  |         bb04: 20 20 20 20 20 20 20 20 20 20 20 20 20 20 20 20 [                ]
  |         bb14: 20 20 20 20 20 20 20 0a 20 20 20 20 20 20 20 20 [       .        ]
  |         bb24: 20 20 20 20 20 20 20 20 20 20 20 20 20 20 20 20 [                ]
  |         bb34: 20 20 20 20 20 20 20 20 20 20 20 20 20 20 20 20 [                ]
  |         bb44: 20 20 20 20 20 20 20 20 20 20 20 20 20 20 20 20 [                ]
  |         bb54: 20 20 20 20 20 20 20 20 20 20 20 20 20 20 20 20 [                ]
  |         bb64: 20 20 20 20 20 20 20 20 20 20 20 20 20 20 20 20 [                ]
  |         bb74: 20 20 20 20 20 20 20 20 20 20 20 20 20 20 20 20 [                ]
  |         bb84: 20 20 20 20 20 20 20 20 20 20 20 20 20 20 20 20 [                ]
  |         bb94: 20 20 20 20 20 20 20 20 0a 20 20 20 20 20 20 20 [        .       ]
  |         bba4: 20 20 20 20 20 20 20 20 20 20 20 20 20 20 20 20 [                ]
  |         bbb4: 20 20 20 20 20 20 20 20 20 20 20 20 20 20 20 20 [                ]
  |         bbc4: 20 20 20 20 20 20 20 20 20 20 20 20 20 20 20 20 [                ]
  |         bbd4: 20 20 20 20 20 20 20 20 20 20 20 20 20 20 20 20 [                ]
  |         bbe4: 20 20 20 20 20 20 20 20 20 20 20 20 20 20 20 20 [                ]
  |         bbf4: 20 20 20 20 20 20 20 20 20 20 20 20 20 20 20 20 [                ]
  |         bc04: 20 20 20 20 20 20 20 20 20 20 20 20 20 20 20 20 [                ]
  |         bc14: 20 20 20 20 20 20 20 20 20 0a 20 20 20 20 20 20 [         .      ]
  |         bc24: 20 20 20 20 20 20 20 20 20 20 20 20 20 20 20 20 [                ]
  |         bc34: 20 20 20 20 20 20 20 20 20 20 20 20 20 20 20 20 [                ]
  |         bc44: 20 20 20 20 20 20 20 20 20 20 20 20 20 20 20 20 [                ]
  |         bc54: 20 20 20 20 20 20 20 20 20 20 20 20 20 20 20 20 [                ]
  |         bc64: 20 20 20 20 20 20 20 20 20 20 20 20 20 20 20 20 [                ]
  |         bc74: 20 20 20 20 20 20 20 20 20 20 20 20 20 20 20 20 [                ]
  |         bc84: 20 20 20 20 20 20 20 20 20 20 20 20 20 20 20 20 [                ]
  |         bc94: 20 20 20 20 20 20 20 20 20 20 0a 20 20 20 20 20 [          .     ]
  |         bca4: 20 20 20 20 20 20 20 20 20 20 20 20 20 20 20 20 [                ]
  |         bcb4: 20 20 20 20 20 20 20 20 20 20 20 20 20 20 20 20 [                ]
  |         bcc4: 20 20 20 20 20 20 20 20 20 20 20 20 20 20 20 20 [                ]
  |         bcd4: 20 20 20 20 20 20 20 20 20 20 20 20 20 20 20 20 [                ]
  |         bce4: 20 20 20 20 20 20 20 20 20 20 20 20 20 20 20 20 [                ]
  |         bcf4: 20 20 20 20 20 20 20 20 20 20 20 20 20 20 20 20 [                ]
  |         bd04: 20 20 20 20 20 20 20 20 20 20 20 20 20 20 20 20 [                ]
  |         bd14: 20 20 20 20 20 20 20 20 20 20 20 0a 20 20 20 20 [           .    ]
  |         bd24: 20 20 20 20 20 20 20 20 20 20 20 20 20 20 20 20 [                ]
  |         bd34: 20 20 20 20 20 20 20 20 20 20 20 20 20 20 20 20 [                ]
  |         bd44: 20 20 20 20 20 20 20 20 20 20 20 20 20 20 20 20 [                ]
  |         bd54: 20 20 20 20 20 20 20 20 20 20 20 20 20 20 20 20 [                ]
  |         bd64: 20 20 20 20 20 20 20 20 20 20 20 20 20 20 20 20 [                ]
  |         bd74: 20 20 20 20 20 20 20 20 20 20 20 20 20 20 20 20 [                ]
  |         bd84: 20 20 20 20 20 20 20 20 20 20 20 20 20 20 20 20 [                ]
  |         bd94: 20 20 20 20 20 20 20 20 20 20 20 20 0a 20 20 20 [            .   ]
  |         bda4: 20 20 20 20 20 20 20 20 20 20 20 20 20 20 20 20 [                ]
  |         bdb4: 20 20 20 20 20 20 20 20 20 20 20 20 20 20 20 20 [                ]
  |         bdc4: 20 20 20 20 20 20 20 20 20 20 20 20 20 20 20 20 [                ]
  |         bdd4: 20 20 20 20 20 20 20 20 20 20 20 20 20 20 20 20 [                ]
  |         bde4: 20 20 20 20 20 20 20 20 20 20 20 20 20 20 20 20 [                ]
  |         bdf4: 20 20 20 20 20 20 20 20 20 20 20 20 20 20 20 20 [                ]
  |         be04: 20 20 20 20 20 20 20 20 20 20 20 20 20 20 20 20 [                ]
  |         be14: 20 20 20 20 20 20 20 20 20 20 20 20 20 0a 20 20 [             .  ]
  |         be24: 20 20 20 20 20 20 20 20 20 20 20 20 20 20 20 20 [                ]
  |         be34: 20 20 20 20 20 20 20 20 20 20 20 20 20 20 20 20 [                ]
  |         be44: 20 20 20 20 20 20 20 20 20 20 20 20 20 20 20 20 [                ]
  |         be54: 20 20 20 20 20 20 20 20 20 20 20 20 20 20 20 20 [                ]
  |         be64: 20 20 20 20 20 20 20 20 20 20 20 20 20 20 20 20 [                ]
  |         be74: 20 20 20 20 20 20 20 20 20 20 20 20 20 20 20 20 [                ]
  |         be84: 20 20 20 20 20 20 20 20 20 20 20 20 20 20 20 20 [                ]
  |         be94: 20 20 20 20 20 20 20 20 20 20 20 20 20 20 0a 20 [              . ]
  |         bea4: 20 20 20 20 20 20 20 20 20 20 20 20 20 20 20 20 [                ]
  |         beb4: 20 20 20 20 20 20 20 20 20 20 20 20 20 20 20 20 [                ]
  |         bec4: 20 20 20 20 20 20 20 20 20 20 20 20 20 20 20 20 [                ]
  |         bed4: 20 20 20 20 20 20 20 20 20 20 20 20 20 20 20 20 [                ]
  |         bee4: 20 20 20 20 20 20 20 20 20 20 20 20 20 20 20 20 [                ]
  |         bef4: 20 20 20 20 20 20 20 20 20 20 20 20 20 20 20 20 [                ]
  |         bf04: 20 20 20 20 20 20 20 20 20 20 20 20 20 20 20 20 [                ]
  |         bf14: 20 20 20 20 20 20 20 20 20 20 20 20 20 20 20 0a [               .]
  |         bf24: 20 20 20 20 20 20 20 20 20 20 20 20 20 20 20 20 [                ]
  |         bf34: 20 20 20 20 20 20 20 20 20 20 20 20 20 20 20 20 [                ]
  |         bf44: 20 20 20 20 20 20 20 20 20 20 20 20 20 20 20 20 [                ]
  |         bf54: 20 20 20 20 20 20 20 20 20 20 20 20 20 20 20 20 [                ]
  |         [snip 6160 bytes]
  | + [XMP directory, 8192 bytes]
  | | Rating = 0
  | | - Tag 'x:xmpmeta/rdf:RDF/rdf:Description/xmp:Rating'
  | 15) Copyright = Stefan Oltmann
  |     - Tag 0x8298 (15 bytes, string[15] read as undef[15]):
  |         0172: 53 74 65 66 61 6e 20 4f 6c 74 6d 61 6e 6e 00    [Stefan Oltmann.]
  | 16) ExifOffset (SubDirectory) -->
  |     - Tag 0x8769 (4 bytes, int32u[1]):
  |         00da: b2 01 00 00                                     [....]
  | + [ExifIFD directory with 38 entries, Little-endian]
  | | 0)  ExposureTime = 0.01666666667 (1/60)
  | |     - Tag 0x829a (8 bytes, rational64u[1]):
  | |         0380: 01 00 00 00 3c 00 00 00                         [....<...]
  | | 1)  FNumber = 5 (5/1)
  | |     - Tag 0x829d (8 bytes, rational64u[1]):
  | |         0388: 05 00 00 00 01 00 00 00                         [........]
  | | 2)  ExposureProgram = 3
  | |     - Tag 0x8822 (2 bytes, int16u[1]):
  | |         01d4: 03 00                                           [..]
  | | 3)  ISO = 400
  | |     - Tag 0x8827 (2 bytes, int16u[1]):
  | |         01e0: 90 01                                           [..]
  | | 4)  SensitivityType = 2
  | |     - Tag 0x8830 (2 bytes, int16u[1]):
  | |         01ec: 02 00                                           [..]
  | | 5)  RecommendedExposureIndex = 400
  | |     - Tag 0x8832 (4 bytes, int32u[1]):
  | |         01f8: 90 01 00 00                                     [....]
  | | 6)  ExifVersion = 0230
  | |     - Tag 0x9000 (4 bytes, undef[4]):
  | |         0204: 30 32 33 30                                     [0230]
  | | 7)  DateTimeOriginal = 2021:12:06 05:27:33
  | |     - Tag 0x9003 (20 bytes, string[20]):
  | |         0390: 32 30 32 31 3a 31 32 3a 30 36 20 30 35 3a 32 37 [2021:12:06 05:27]
  | |         03a0: 3a 33 33 00                                     [:33.]
  | | 8)  CreateDate = 2021:12:06 05:27:33
  | |     - Tag 0x9004 (20 bytes, string[20]):
  | |         03a4: 32 30 32 31 3a 31 32 3a 30 36 20 30 35 3a 32 37 [2021:12:06 05:27]
  | |         03b4: 3a 33 33 00                                     [:33.]
  | | 9)  ComponentsConfiguration = 1 2 3 0
  | |     - Tag 0x9101 (4 bytes, undef[4] read as int8u[4]):
  | |         0228: 01 02 03 00                                     [....]
  | | 10) ShutterSpeedValue = 6 (393216/65536)
  | |     - Tag 0x9201 (8 bytes, rational64s[1]):
  | |         03b8: 00 00 06 00 00 00 01 00                         [........]
  | | 11) ApertureValue = 4.625 (303104/65536)
  | |     - Tag 0x9202 (8 bytes, rational64u[1]):
  | |         03c0: 00 a0 04 00 00 00 01 00                         [........]
  | | 12) ExposureCompensation = 0 (0/1)
  | |     - Tag 0x9204 (8 bytes, rational64s[1]):
  | |         03c8: 00 00 00 00 01 00 00 00                         [........]
  | | 13) MeteringMode = 5
  | |     - Tag 0x9207 (2 bytes, int16u[1]):
  | |         0258: 05 00                                           [..]
  | | 14) Flash = 16
  | |     - Tag 0x9209 (2 bytes, int16u[1]):
  | |         0264: 10 00                                           [..]
  | | 15) FocalLength = 24 (24/1)
  | |     - Tag 0x920a (8 bytes, rational64u[1]):
  | |         03d0: 18 00 00 00 01 00 00 00                         [........]
  | | 16) MakerNoteCanon (SubDirectory) -->
  | |     - Tag 0x927c (45204 bytes, undef[45204]):
  | |         03d8: 29 00 01 00 03 00 31 00 00 00 ca 05 00 00 02 00 [).....1.........]
  | |         03e8: 03 00 04 00 00 00 2c 06 00 00 03 00 03 00 04 00 [......,.........]
  | |         03f8: 00 00 34 06 00 00 04 00 03 00 22 00 00 00 3c 06 [..4......."...<.]
  | |         0408: 00 00 06 00 02 00 0e 00 00 00 80 06 00 00 07 00 [................]
  | |         0418: 02 00 18 00 00 00 a0 06 00 00 09 00 02 00 20 00 [.............. .]
  | |         0428: 00 00 b8 06 00 00 0c 00 04 00 01 00 00 00 63 b3 [..............c.]
  | |         0438: 3c 5e 0d 00 07 00 00 06 00 00 d8 06 00 00 10 00 [<^..............]
  | |         0448: 04 00 01 00 00 00 87 02 00 80 13 00 03 00 04 00 [................]
  | |         0458: 00 00 d8 0c 00 00 15 00 04 00 01 00 00 00 00 00 [................]
  | |         0468: 00 a0 19 00 03 00 01 00 00 00 01 00 00 00 26 00 [..............&.]
  | |         0478: 03 00 30 00 00 00 e0 0c 00 00 83 00 04 00 01 00 [..0.............]
  | |         0488: 00 00 00 00 00 00 93 00 03 00 1b 00 00 00 a0 0f [................]
  | |         0498: 00 00 95 00 02 00 46 00 00 00 d6 0f 00 00 96 00 [......F.........]
  | |         04a8: 02 00 10 00 00 00 1c 10 00 00 97 00 07 00 00 04 [................]
  | |         04b8: 00 00 2c 10 00 00 98 00 03 00 04 00 00 00 2c 14 [..,...........,.]
  | |         04c8: 00 00 99 00 04 00 4a 00 00 00 34 14 00 00 9a 00 [......J...4.....]
  | |         04d8: 04 00 05 00 00 00 5c 15 00 00 a0 00 03 00 0e 00 [......\.........]
  | |         04e8: 00 00 70 15 00 00 aa 00 03 00 06 00 00 00 8c 15 [..p.............]
  | |         04f8: 00 00 b4 00 03 00 01 00 00 00 01 00 00 00 d0 00 [................]
  | |         0508: 04 00 01 00 00 00 00 00 00 00 e0 00 03 00 11 00 [................]
  | |         0518: 00 00 98 15 00 00 01 40 03 00 42 05 00 00 ba 15 [.......@..B.....]
  | |         0528: 00 00 02 40 03 00 da 28 00 00 3e 20 00 00 05 40 [...@...(..> ...@]
  | |         0538: 07 00 58 40 00 00 f2 71 00 00 08 40 03 00 03 00 [..X@...q...@....]
  | |         0548: 00 00 4a b2 00 00 09 40 03 00 03 00 00 00 50 b2 [..J....@......P.]
  | |         0558: 00 00 10 40 02 00 20 00 00 00 56 b2 00 00 11 40 [...@.. ...V....@]
  | |         0568: 07 00 fc 00 00 00 76 b2 00 00 12 40 02 00 20 00 [......v....@.. .]
  | |         0578: 00 00 72 b3 00 00 15 40 07 00 74 00 00 00 92 b3 [..r....@..t.....]
  | |         0588: 00 00 16 40 04 00 06 00 00 00 06 b4 00 00 17 40 [...@...........@]
  | |         0598: 04 00 02 00 00 00 1e b4 00 00 18 40 04 00 03 00 [...........@....]
  | |         05a8: 00 00 26 b4 00 00 19 40 07 00 1e 00 00 00 32 b4 [..&....@......2.]
  | |         05b8: 00 00 20 40 04 00 05 00 00 00 50 b4 00 00 00 00 [.. @......P.....]
  | |         05c8: 00 00 62 00 02 00 00 00 04 00 00 00 05 00 00 00 [..b.............]
  | |         05d8: 01 00 00 00 07 00 00 00 01 00 00 00 00 00 00 00 [................]
  | |         05e8: ff 7f ff 7f 03 00 02 00 00 00 03 00 ff ff e8 01 [................]
  | |         05f8: 55 00 0f 00 01 00 84 00 30 01 00 00 00 00 00 00 [U.......0.......]
  | |         0608: 00 00 ff ff ff ff ff ff 00 00 00 00 00 00 00 00 [................]
  | |         0618: ff ff ff ff 00 00 00 00 ff 7f ff ff ff ff 00 00 [................]
  | |         0628: 00 00 03 00 00 00 18 00 c6 22 ea 4c 00 00 00 00 [.........".L....]
  | |         0638: 00 00 00 00 44 00 00 00 e0 00 7c 00 94 00 c0 00 [....D.....|.....]
  | |         0648: 00 00 00 00 03 00 00 00 08 00 08 00 95 00 00 00 [................]
  | |         0658: 00 00 00 00 00 00 00 00 00 00 00 00 00 00 98 00 [................]
  | |         0668: c4 00 75 00 00 00 00 00 f8 00 ff ff ff ff ff ff [..u.............]
  | |         0678: ff ff 00 00 00 00 00 00 43 61 6e 6f 6e 20 45 4f [........Canon EO]
  | |         0688: 53 20 36 30 44 00 00 00 00 00 00 00 00 00 00 00 [S 60D...........]
  | |         0698: 00 00 00 00 00 00 00 00 46 69 72 6d 77 61 72 65 [........Firmware]
  | |         06a8: 20 56 65 72 73 69 6f 6e 20 31 2e 31 2e 31 00 00 [ Version 1.1.1..]
  | |         06b8: 53 74 65 66 61 6e 20 4f 6c 74 6d 61 6e 6e 00 00 [Stefan Oltmann..]
  | |         06c8: 00 00 00 00 00 00 00 00 00 00 00 00 00 00 00 00 [................]
  | |         06d8: aa aa 69 2e 68 2d 58 00 75 77 00 03 00 00 00 00 [..i.h-X.uw......]
  | |         06e8: 00 00 00 00 00 06 00 00 00 95 ba 6d 7a 7c 00 18 [...........mz|..]
  | |         06f8: 7e 01 00 00 00 00 00 00 00 00 00 01 bb bb 01 01 [~...............]
  | |         0708: 00 00 00 00 01 01 00 00 00 00 00 00 00 00 00 00 [................]
  | |         0718: 00 00 00 00 00 40 d0 00 00 00 00 00 19 47 00 00 [.....@.......G..]
  | |         0728: 00 00 00 7f 00 00 30 00 2d 00 0c cc cc 02 00 00 [......0.-.......]
  | |         0738: 00 03 00 00 00 04 00 00 00 58 00 00 00 00 00 00 [.........X......]
  | |         0748: 00 00 01 00 00 00 00 00 00 00 00 00 00 88 13 00 [................]
  | |         0758: 00 00 00 00 00 00 00 00 00 07 00 00 00 07 00 00 [................]
  | |         0768: 00 07 00 00 00 03 00 00 00 03 00 00 00 03 00 00 [................]
  | |         0778: 00 00 00 00 00 01 00 00 00 00 00 00 00 01 00 00 [................]
  | |         0788: 00 81 00 00 00 01 00 00 00 01 00 00 00 01 00 00 [................]
  | |         0798: 00 00 00 00 00 00 00 00 00 04 00 00 00 06 00 00 [................]
  | |         07a8: 00 00 00 df ff 06 00 05 00 00 00 ff 7e 00 00 00 [............~...]
  | |         07b8: 00 00 00 00 00 01 29 54 01 e8 00 0f 00 55 91 77 [......)T.....U.w]
  | |         07c8: ba ef 08 ff ff ff ff ff ff 02 00 00 00 00 00 00 [................]
  | |         07d8: 00 00 00 00 00 00 00 00 00 00 00 00 00 00 00 00 [................]
  | |         07e8: 00 00 00 00 00 01 00 00 00 40 14 00 00 80 0d 00 [.........@......]
  | |         07f8: 00 34 10 00 00 74 09 00 00 06 02 00 00 b3 02 00 [.4...t..........]
  | |         0808: 00 d0 02 00 00 e0 01 00 00 00 00 00 00 00 00 00 [................]
  | |         0818: 00 d0 02 00 00 e0 01 00 00 d0 02 00 00 e0 01 00 [................]
  | |         0828: 00 00 00 00 00 00 00 00 00 d0 02 00 00 e0 01 00 [................]
  | |         0838: 00 00 00 00 00 00 00 00 00 01 00 00 00 00 00 00 [................]
  | |         0848: 00 01 00 00 00 00 00 00 00 00 00 00 00 00 00 00 [................]
  | |         0858: 00 00 00 00 00 00 02 00 00 00 01 00 00 01 00 02 [................]
  | |         0868: 01 00 00 00 00 00 00 00 00 31 2e 31 2e 31 00 36 [.........1.1.1.6]
  | |         0878: 43 28 32 66 29 00 00 00 00 53 74 65 66 61 6e 20 [C(2f)....Stefan ]
  | |         0888: 4f 6c 74 6d 61 6e 6e 00 61 00 00 00 00 00 00 00 [Oltmann.a.......]
  | |         0898: 00 00 00 00 00 00 00 00 00 8e 00 00 00 65 00 00 [.............e..]
  | |         08a8: 00 64 00 00 00 00 00 00 00 17 21 00 00 00 00 00 [.d........!.....]
  | |         08b8: 00 64 00 00 00 66 00 00 00 64 00 00 00 08 00 00 [.d...f...d......]
  | |         08c8: 00 08 00 00 00 08 00 00 00 08 00 00 00 01 00 00 [................]
  | |         08d8: 00 00 00 00 00 00 00 00 00 00 00 00 00 00 00 00 [................]
  | |         08e8: 00 00 00 00 00 00 00 00 00 00 00 00 00 00 00 00 [................]
  | |         08f8: 00 e9 01 00 04 00 04 9f 02 00 00 00 00 00 00 00 [................]
  | |         0908: 00 00 00 00 00 00 00 00 00 00 00 00 00 00 00 00 [................]
  | |         0918: 00 00 00 00 00 00 00 00 00 00 00 00 00 00 00 00 [................]
  | |         0928: 00 00 00 00 00 e9 01 00 04 00 04 9f 02 00 00 00 [................]
  | |         0938: 00 00 00 00 00 00 00 00 00 00 00 00 00 00 00 00 [................]
  | |         0948: 00 00 00 00 00 00 00 00 00 00 00 00 00 00 00 00 [................]
  | |         0958: 00 00 00 00 00 00 00 00 00 e9 01 00 04 00 04 9f [................]
  | |         0968: 02 00 00 00 00 00 00 00 00 00 00 00 00 00 00 00 [................]
  | |         0978: 00 00 00 00 00 00 00 00 00 00 00 00 00 00 00 00 [................]
  | |         0988: 00 00 00 00 00 00 00 00 00 00 00 00 00 e9 01 00 [................]
  | |         0998: 04 00 04 9f 02 00 00 00 00 00 00 00 00 00 00 00 [................]
  | |         09a8: 00 00 00 00 00 00 00 00 00 00 00 00 00 00 00 00 [................]
  | |         09b8: 00 00 00 00 00 00 00 00 00 00 00 00 00 00 00 00 [................]
  | |         09c8: 00 e9 01 00 04 00 04 9f 02 00 00 00 00 00 00 00 [................]
  | |         09d8: 00 00 00 00 00 00 00 00 00 01 00 00 00 00 00 00 [................]
  | |         09e8: 00 00 00 00 00 00 00 00 00 00 00 00 00 01 00 00 [................]
  | |         09f8: 00 00 00 00 00 03 00 00 00 00 00 00 00 00 00 00 [................]
  | |         0a08: 00 ef be ad de ef be ad de 00 00 00 00 02 00 00 [................]
  | |         0a18: 00 00 00 00 00 00 00 00 00 ef be ad de ef be ad [................]
  | |         0a28: de 00 00 00 00 04 00 00 00 00 00 00 00 00 00 00 [................]
  | |         0a38: 00 ef be ad de ef be ad de 00 00 00 00 00 00 00 [................]
  | |         0a48: 00 00 00 00 00 00 00 00 00 ef be ad de ef be ad [................]
  | |         0a58: de 00 00 00 00 00 00 00 00 00 00 00 00 00 00 00 [................]
  | |         0a68: 00 ef be ad de ef be ad de 00 00 00 00 03 00 00 [................]
  | |         0a78: 00 ef be ad de ef be ad de 00 00 00 00 00 00 00 [................]
  | |         0a88: 00 00 00 00 00 00 00 00 00 00 00 00 00 00 00 00 [................]
  | |         0a98: 00 00 00 00 00 00 00 00 00 00 00 00 00 03 00 00 [................]
  | |         0aa8: 00 00 00 00 00 00 00 00 00 00 00 00 00 00 00 00 [................]
  | |         0ab8: 00 00 00 00 00 03 00 00 00 00 00 00 00 00 00 00 [................]
  | |         0ac8: 00 00 00 00 00 00 00 00 00 00 00 00 00 03 00 00 [................]
  | |         0ad8: 00 00 00 00 00 00 00 00 00 00 00 00 00 00 00 00 [................]
  | |         0ae8: 00 81 00 81 00 81 00 00 00 ff ff ff ff ff ff ff [................]
  | |         0af8: ff 00 00 00 00 00 00 00 00 00 00 00 00 00 00 00 [................]
  | |         0b08: 00 00 00 00 00 00 00 00 00 00 00 00 00 00 00 00 [................]
  | |         0b18: 00 00 04 00 04 00 04 00 04 00 00 00 00 00 00 00 [................]
  | |         0b28: 00 00 00 00 00 00 00 00 00 00 00 00 00 00 00 00 [................]
  | |         0b38: 00 00 00 00 00 00 00 00 00 00 04 00 04 00 04 00 [................]
  | |         0b48: 04 00 00 00 00 00 00 00 00 00 00 00 00 00 00 00 [................]
  | |         0b58: 00 00 00 00 00 00 00 00 00 00 00 00 00 00 00 00 [................]
  | |         0b68: 00 00 04 00 04 00 04 00 04 00 00 00 00 00 00 00 [................]
  | |         0b78: 00 00 00 00 00 00 00 00 00 00 00 00 00 00 00 00 [................]
  | |         0b88: 00 00 00 00 00 00 00 00 00 00 04 00 04 00 04 00 [................]
  | |         0b98: 04 00 00 00 00 00 00 00 00 00 00 00 00 00 00 00 [................]
  | |         0ba8: 00 00 00 00 00 00 00 00 00 00 00 00 00 00 00 00 [................]
  | |         0bb8: 00 00 04 00 04 00 04 00 04 00 00 00 00 00 00 00 [................]
  | |         [snip 43172 bytes]
  | | + [MakerNotes directory with 41 entries, Little-endian]
  | | | 0)  CanonCameraSettings (SubDirectory) -->
  | | |     - Tag 0x0001 (98 bytes, int16u[49] read as undef[98]):
  | | |         05ca: 62 00 02 00 00 00 04 00 00 00 05 00 00 00 01 00 [b...............]
  | | |         05da: 00 00 07 00 00 00 01 00 00 00 00 00 00 00 ff 7f [................]
  | | |         05ea: ff 7f 03 00 02 00 00 00 03 00 ff ff e8 01 55 00 [..............U.]
  | | |         05fa: 0f 00 01 00 84 00 30 01 00 00 00 00 00 00 00 00 [......0.........]
  | | |         060a: ff ff ff ff ff ff 00 00 00 00 00 00 00 00 ff ff [................]
  | | |         061a: ff ff 00 00 00 00 ff 7f ff ff ff ff 00 00 00 00 [................]
  | | |         062a: 03 00                                           [..]
  | | | + [BinaryData directory, 98 bytes, Little-endian]
  | | | | MacroMode = 2
  | | | | - Tag 0x0001 (2 bytes, int16s[1]):
  | | | |     05cc: 02 00                                           [..]
  | | | | SelfTimer = 0
  | | | | - Tag 0x0002 (2 bytes, int16s[1]):
  | | | |     05ce: 00 00                                           [..]
  | | | | Quality = 4
  | | | | - Tag 0x0003 (2 bytes, int16s[1]):
  | | | |     05d0: 04 00                                           [..]
  | | | | CanonFlashMode = 0
  | | | | - Tag 0x0004 (2 bytes, int16s[1]):
  | | | |     05d2: 00 00                                           [..]
  | | | | ContinuousDrive = 5
  | | | | - Tag 0x0005 (2 bytes, int16s[1]):
  | | | |     05d4: 05 00                                           [..]
  | | | | FocusMode = 1
  | | | | - Tag 0x0007 (2 bytes, int16s[1]):
  | | | |     05d8: 01 00                                           [..]
  | | | | RecordMode = 7
  | | | | - Tag 0x0009 (2 bytes, int16s[1]):
  | | | |     05dc: 07 00                                           [..]
  | | | | CanonImageSize = 0
  | | | | - Tag 0x000a (2 bytes, int16s[1]):
  | | | |     05de: 00 00                                           [..]
  | | | | EasyMode = 1
  | | | | - Tag 0x000b (2 bytes, int16s[1]):
  | | | |     05e0: 01 00                                           [..]
  | | | | DigitalZoom = 0
  | | | | - Tag 0x000c (2 bytes, int16s[1]):
  | | | |     05e2: 00 00                                           [..]
  | | | | Contrast = 0
  | | | | - Tag 0x000d (2 bytes, int16s[1]):
  | | | |     05e4: 00 00                                           [..]
  | | | | Saturation = 0
  | | | | - Tag 0x000e (2 bytes, int16s[1]):
  | | | |     05e6: 00 00                                           [..]
  | | | | Sharpness = 32767
  | | | | - Tag 0x000f (2 bytes, int16s[1]):
  | | | |     05e8: ff 7f                                           [..]
  | | | | CameraISO = 32767
  | | | | - Tag 0x0010 (2 bytes, int16s[1]):
  | | | |     05ea: ff 7f                                           [..]
  | | | | MeteringMode = 3
  | | | | - Tag 0x0011 (2 bytes, int16s[1]):
  | | | |     05ec: 03 00                                           [..]
  | | | | FocusRange = 2
  | | | | - Tag 0x0012 (2 bytes, int16s[1]):
  | | | |     05ee: 02 00                                           [..]
  | | | | AFPoint = 0
  | | | | - Tag 0x0013 (2 bytes, int16s[1]):
  | | | |     05f0: 00 00                                           [..]
  | | | | CanonExposureMode = 3
  | | | | - Tag 0x0014 (2 bytes, int16s[1]):
  | | | |     05f2: 03 00                                           [..]
  | | | | LensType = 488
  | | | | - Tag 0x0016 (2 bytes, int16u[1]):
  | | | |     05f6: e8 01                                           [..]
  | | | | MaxFocalLength = 85
  | | | | - Tag 0x0017 (2 bytes, int16u[1]):
  | | | |     05f8: 55 00                                           [U.]
  | | | | MinFocalLength = 15
  | | | | - Tag 0x0018 (2 bytes, int16u[1]):
  | | | |     05fa: 0f 00                                           [..]
  | | | | FocalUnits = 1
  | | | | - Tag 0x0019 (2 bytes, int16s[1]):
  | | | |     05fc: 01 00                                           [..]
  | | | | MaxAperture = 132
  | | | | - Tag 0x001a (2 bytes, int16s[1]):
  | | | |     05fe: 84 00                                           [..]
  | | | | MinAperture = 304
  | | | | - Tag 0x001b (2 bytes, int16s[1]):
  | | | |     0600: 30 01                                           [0.]
  | | | | FlashModel = 0
  | | | | - Tag 0x001c, mask 0x7f (2 bytes, int16s[1]):
  | | | |     0602: 00 00                                           [..]
  | | | | FlashBits = 0
  | | | | - Tag 0x001d (2 bytes, int16s[1]):
  | | | |     0604: 00 00                                           [..]
  | | | | FocusContinuous = -1
  | | | | - Tag 0x0020 (2 bytes, int16s[1]):
  | | | |     060a: ff ff                                           [..]
  | | | | AESetting = -1
  | | | | - Tag 0x0021 (2 bytes, int16s[1]):
  | | | |     060c: ff ff                                           [..]
  | | | | ImageStabilization = -1
  | | | | - Tag 0x0022 (2 bytes, int16s[1]):
  | | | |     060e: ff ff                                           [..]
  | | | | DisplayAperture = 0
  | | | | - Tag 0x0023 (2 bytes, int16s[1]):
  | | | |     0610: 00 00                                           [..]
  | | | | ZoomSourceWidth = 0
  | | | | - Tag 0x0024 (2 bytes, int16s[1]):
  | | | |     0612: 00 00                                           [..]
  | | | | ZoomTargetWidth = 0
  | | | | - Tag 0x0025 (2 bytes, int16s[1]):
  | | | |     0614: 00 00                                           [..]
  | | | | SpotMeteringMode = -1
  | | | | - Tag 0x0027 (2 bytes, int16s[1]):
  | | | |     0618: ff ff                                           [..]
  | | | | PhotoEffect = -1
  | | | | - Tag 0x0028 (2 bytes, int16s[1]):
  | | | |     061a: ff ff                                           [..]
  | | | | ManualFlashOutput = 0
  | | | | - Tag 0x0029 (2 bytes, int16s[1]):
  | | | |     061c: 00 00                                           [..]
  | | | | ColorTone = 0
  | | | | - Tag 0x002a (2 bytes, int16s[1]):
  | | | |     061e: 00 00                                           [..]
  | | | | SRAWQuality = 0
  | | | | - Tag 0x002e (2 bytes, int16s[1]):
  | | | |     0626: 00 00                                           [..]
  | | | 1)  CanonFocalLength (SubDirectory) -->
  | | |     - Tag 0x0002 (8 bytes, int16u[4] read as undef[8]):
  | | |         062c: 00 00 18 00 c6 22 ea 4c                         [.....".L]
  | | | + [BinaryData directory, 8 bytes, Little-endian]
  | | | | FocalType = 0
  | | | | - Tag 0x0000 (2 bytes, int16u[1]):
  | | | |     062c: 00 00                                           [..]
  | | | | FocalLength = 24
  | | | | - Tag 0x0001 (2 bytes, int16u[1]):
  | | | |     062e: 18 00                                           [..]
  | | | | FocalPlaneXUnknown = 8902
  | | | | - Tag 0x0002 (2 bytes, int16u[1]):
  | | | |     0630: c6 22                                           [."]
  | | | | FocalPlaneYUnknown = 19690
  | | | | - Tag 0x0003 (2 bytes, int16u[1]):
  | | | |     0632: ea 4c                                           [.L]
  | | | 2)  CanonFlashInfo = 0 0 0 0
  | | |     - Tag 0x0003 (8 bytes, int16u[4]):
  | | |         0634: 00 00 00 00 00 00 00 00                         [........]
  | | | 3)  CanonShotInfo (SubDirectory) -->
  | | |     - Tag 0x0004 (68 bytes, int16u[34] read as undef[68]):
  | | |         063c: 44 00 00 00 e0 00 7c 00 94 00 c0 00 00 00 00 00 [D.....|.........]
  | | |         064c: 03 00 00 00 08 00 08 00 95 00 00 00 00 00 00 00 [................]
  | | |         065c: 00 00 00 00 00 00 00 00 00 00 98 00 c4 00 75 00 [..............u.]
  | | |         066c: 00 00 00 00 f8 00 ff ff ff ff ff ff ff ff 00 00 [................]
  | | |         067c: 00 00 00 00                                     [....]
  | | | + [BinaryData directory, 68 bytes, Little-endian]
  | | | | AutoISO = 0
  | | | | - Tag 0x0001 (2 bytes, int16s[1]):
  | | | |     063e: 00 00                                           [..]
  | | | | BaseISO = 224
  | | | | - Tag 0x0002 (2 bytes, int16s[1]):
  | | | |     0640: e0 00                                           [..]
  | | | | MeasuredEV = 124
  | | | | - Tag 0x0003 (2 bytes, int16s[1]):
  | | | |     0642: 7c 00                                           [|.]
  | | | | TargetAperture = 148
  | | | | - Tag 0x0004 (2 bytes, int16s[1]):
  | | | |     0644: 94 00                                           [..]
  | | | | TargetExposureTime = 192
  | | | | - Tag 0x0005 (2 bytes, int16s[1]):
  | | | |     0646: c0 00                                           [..]
  | | | | ExposureCompensation = 0
  | | | | - Tag 0x0006 (2 bytes, int16s[1]):
  | | | |     0648: 00 00                                           [..]
  | | | | WhiteBalance = 0
  | | | | - Tag 0x0007 (2 bytes, int16s[1]):
  | | | |     064a: 00 00                                           [..]
  | | | | SlowShutter = 3
  | | | | - Tag 0x0008 (2 bytes, int16s[1]):
  | | | |     064c: 03 00                                           [..]
  | | | | SequenceNumber = 0
  | | | | - Tag 0x0009 (2 bytes, int16s[1]):
  | | | |     064e: 00 00                                           [..]
  | | | | OpticalZoomCode = 8
  | | | | - Tag 0x000a (2 bytes, int16s[1]):
  | | | |     0650: 08 00                                           [..]
  | | | | CameraTemperature = 149
  | | | | - Tag 0x000c (2 bytes, int16s[1]):
  | | | |     0654: 95 00                                           [..]
  | | | | FlashGuideNumber = 0
  | | | | - Tag 0x000d (2 bytes, int16s[1]):
  | | | |     0656: 00 00                                           [..]
  | | | | AFPointsInFocus = 0
  | | | | - Tag 0x000e (2 bytes, int16s[1]):
  | | | |     0658: 00 00                                           [..]
  | | | | FlashExposureComp = 0
  | | | | - Tag 0x000f (2 bytes, int16s[1]):
  | | | |     065a: 00 00                                           [..]
  | | | | AutoExposureBracketing = 0
  | | | | - Tag 0x0010 (2 bytes, int16s[1]):
  | | | |     065c: 00 00                                           [..]
  | | | | AEBBracketValue = 0
  | | | | - Tag 0x0011 (2 bytes, int16s[1]):
  | | | |     065e: 00 00                                           [..]
  | | | | ControlMode = 0
  | | | | - Tag 0x0012 (2 bytes, int16s[1]):
  | | | |     0660: 00 00                                           [..]
  | | | | FocusDistanceUpper = 0
  | | | | - Tag 0x0013 (2 bytes, int16u[1]):
  | | | |     0662: 00 00                                           [..]
  | | | | FNumber = 152
  | | | | - Tag 0x0015 (2 bytes, int16s[1]):
  | | | |     0666: 98 00                                           [..]
  | | | | ExposureTime = 196
  | | | | - Tag 0x0016 (2 bytes, int16s[1]):
  | | | |     0668: c4 00                                           [..]
  | | | | MeasuredEV2 = 117
  | | | | - Tag 0x0017 (2 bytes, int16s[1]):
  | | | |     066a: 75 00                                           [u.]
  | | | | BulbDuration = 0
  | | | | - Tag 0x0018 (2 bytes, int16s[1]):
  | | | |     066c: 00 00                                           [..]
  | | | | CameraType = 248
  | | | | - Tag 0x001a (2 bytes, int16s[1]):
  | | | |     0670: f8 00                                           [..]
  | | | | AutoRotate = -1
  | | | | - Tag 0x001b (2 bytes, int16s[1]):
  | | | |     0672: ff ff                                           [..]
  | | | | NDFilter = -1
  | | | | - Tag 0x001c (2 bytes, int16s[1]):
  | | | |     0674: ff ff                                           [..]
  | | | | SelfTimer2 = -1
  | | | | - Tag 0x001d (2 bytes, int16s[1]):
  | | | |     0676: ff ff                                           [..]
  | | | | FlashOutput = 0
  | | | | - Tag 0x0021 (2 bytes, int16s[1]):
  | | | |     067e: 00 00                                           [..]
  | | | 4)  CanonImageType = Canon EOS 60D
  | | |     - Tag 0x0006 (14 bytes, string[14]):
  | | |         0680: 43 61 6e 6f 6e 20 45 4f 53 20 36 30 44 00       [Canon EOS 60D.]
  | | | 5)  CanonFirmwareVersion = Firmware Version 1.1.1
  | | |     - Tag 0x0007 (24 bytes, string[24]):
  | | |         06a0: 46 69 72 6d 77 61 72 65 20 56 65 72 73 69 6f 6e [Firmware Version]
  | | |         06b0: 20 31 2e 31 2e 31 00 00                         [ 1.1.1..]
  | | | 6)  OwnerName = Stefan Oltmann
  | | |     - Tag 0x0009 (32 bytes, string[32]):
  | | |         06b8: 53 74 65 66 61 6e 20 4f 6c 74 6d 61 6e 6e 00 00 [Stefan Oltmann..]
  | | |         06c8: 00 00 00 00 00 00 00 00 00 00 00 00 00 00 00 00 [................]
  | | | 7)  SerialNumber = 1581036387
  | | |     - Tag 0x000c (4 bytes, int32u[1]):
  | | |         0436: 63 b3 3c 5e                                     [c.<^]
  | | | 8)  CanonCameraInfo60D (SubDirectory) -->
  | | |     - Tag 0x000d (1536 bytes, undef[1536]):
  | | |         06d8: aa aa 69 2e 68 2d 58 00 75 77 00 03 00 00 00 00 [..i.h-X.uw......]
  | | |         06e8: 00 00 00 00 00 06 00 00 00 95 ba 6d 7a 7c 00 18 [...........mz|..]
  | | |         06f8: 7e 01 00 00 00 00 00 00 00 00 00 01 bb bb 01 01 [~...............]
  | | |         0708: 00 00 00 00 01 01 00 00 00 00 00 00 00 00 00 00 [................]
  | | |         0718: 00 00 00 00 00 40 d0 00 00 00 00 00 19 47 00 00 [.....@.......G..]
  | | |         0728: 00 00 00 7f 00 00 30 00 2d 00 0c cc cc 02 00 00 [......0.-.......]
  | | |         0738: 00 03 00 00 00 04 00 00 00 58 00 00 00 00 00 00 [.........X......]
  | | |         0748: 00 00 01 00 00 00 00 00 00 00 00 00 00 88 13 00 [................]
  | | |         0758: 00 00 00 00 00 00 00 00 00 07 00 00 00 07 00 00 [................]
  | | |         0768: 00 07 00 00 00 03 00 00 00 03 00 00 00 03 00 00 [................]
  | | |         0778: 00 00 00 00 00 01 00 00 00 00 00 00 00 01 00 00 [................]
  | | |         0788: 00 81 00 00 00 01 00 00 00 01 00 00 00 01 00 00 [................]
  | | |         0798: 00 00 00 00 00 00 00 00 00 04 00 00 00 06 00 00 [................]
  | | |         07a8: 00 00 00 df ff 06 00 05 00 00 00 ff 7e 00 00 00 [............~...]
  | | |         07b8: 00 00 00 00 00 01 29 54 01 e8 00 0f 00 55 91 77 [......)T.....U.w]
  | | |         07c8: ba ef 08 ff ff ff ff ff ff 02 00 00 00 00 00 00 [................]
  | | |         07d8: 00 00 00 00 00 00 00 00 00 00 00 00 00 00 00 00 [................]
  | | |         07e8: 00 00 00 00 00 01 00 00 00 40 14 00 00 80 0d 00 [.........@......]
  | | |         07f8: 00 34 10 00 00 74 09 00 00 06 02 00 00 b3 02 00 [.4...t..........]
  | | |         0808: 00 d0 02 00 00 e0 01 00 00 00 00 00 00 00 00 00 [................]
  | | |         0818: 00 d0 02 00 00 e0 01 00 00 d0 02 00 00 e0 01 00 [................]
  | | |         0828: 00 00 00 00 00 00 00 00 00 d0 02 00 00 e0 01 00 [................]
  | | |         0838: 00 00 00 00 00 00 00 00 00 01 00 00 00 00 00 00 [................]
  | | |         0848: 00 01 00 00 00 00 00 00 00 00 00 00 00 00 00 00 [................]
  | | |         0858: 00 00 00 00 00 00 02 00 00 00 01 00 00 01 00 02 [................]
  | | |         0868: 01 00 00 00 00 00 00 00 00 31 2e 31 2e 31 00 36 [.........1.1.1.6]
  | | |         0878: 43 28 32 66 29 00 00 00 00 53 74 65 66 61 6e 20 [C(2f)....Stefan ]
  | | |         0888: 4f 6c 74 6d 61 6e 6e 00 61 00 00 00 00 00 00 00 [Oltmann.a.......]
  | | |         0898: 00 00 00 00 00 00 00 00 00 8e 00 00 00 65 00 00 [.............e..]
  | | |         08a8: 00 64 00 00 00 00 00 00 00 17 21 00 00 00 00 00 [.d........!.....]
  | | |         08b8: 00 64 00 00 00 66 00 00 00 64 00 00 00 08 00 00 [.d...f...d......]
  | | |         08c8: 00 08 00 00 00 08 00 00 00 08 00 00 00 01 00 00 [................]
  | | |         08d8: 00 00 00 00 00 00 00 00 00 00 00 00 00 00 00 00 [................]
  | | |         08e8: 00 00 00 00 00 00 00 00 00 00 00 00 00 00 00 00 [................]
  | | |         08f8: 00 e9 01 00 04 00 04 9f 02 00 00 00 00 00 00 00 [................]
  | | |         0908: 00 00 00 00 00 00 00 00 00 00 00 00 00 00 00 00 [................]
  | | |         0918: 00 00 00 00 00 00 00 00 00 00 00 00 00 00 00 00 [................]
  | | |         0928: 00 00 00 00 00 e9 01 00 04 00 04 9f 02 00 00 00 [................]
  | | |         0938: 00 00 00 00 00 00 00 00 00 00 00 00 00 00 00 00 [................]
  | | |         0948: 00 00 00 00 00 00 00 00 00 00 00 00 00 00 00 00 [................]
  | | |         0958: 00 00 00 00 00 00 00 00 00 e9 01 00 04 00 04 9f [................]
  | | |         0968: 02 00 00 00 00 00 00 00 00 00 00 00 00 00 00 00 [................]
  | | |         0978: 00 00 00 00 00 00 00 00 00 00 00 00 00 00 00 00 [................]
  | | |         0988: 00 00 00 00 00 00 00 00 00 00 00 00 00 e9 01 00 [................]
  | | |         0998: 04 00 04 9f 02 00 00 00 00 00 00 00 00 00 00 00 [................]
  | | |         09a8: 00 00 00 00 00 00 00 00 00 00 00 00 00 00 00 00 [................]
  | | |         09b8: 00 00 00 00 00 00 00 00 00 00 00 00 00 00 00 00 [................]
  | | |         09c8: 00 e9 01 00 04 00 04 9f 02 00 00 00 00 00 00 00 [................]
  | | |         09d8: 00 00 00 00 00 00 00 00 00 01 00 00 00 00 00 00 [................]
  | | |         09e8: 00 00 00 00 00 00 00 00 00 00 00 00 00 01 00 00 [................]
  | | |         09f8: 00 00 00 00 00 03 00 00 00 00 00 00 00 00 00 00 [................]
  | | |         0a08: 00 ef be ad de ef be ad de 00 00 00 00 02 00 00 [................]
  | | |         0a18: 00 00 00 00 00 00 00 00 00 ef be ad de ef be ad [................]
  | | |         0a28: de 00 00 00 00 04 00 00 00 00 00 00 00 00 00 00 [................]
  | | |         0a38: 00 ef be ad de ef be ad de 00 00 00 00 00 00 00 [................]
  | | |         0a48: 00 00 00 00 00 00 00 00 00 ef be ad de ef be ad [................]
  | | |         0a58: de 00 00 00 00 00 00 00 00 00 00 00 00 00 00 00 [................]
  | | |         0a68: 00 ef be ad de ef be ad de 00 00 00 00 03 00 00 [................]
  | | |         0a78: 00 ef be ad de ef be ad de 00 00 00 00 00 00 00 [................]
  | | |         0a88: 00 00 00 00 00 00 00 00 00 00 00 00 00 00 00 00 [................]
  | | |         0a98: 00 00 00 00 00 00 00 00 00 00 00 00 00 03 00 00 [................]
  | | |         0aa8: 00 00 00 00 00 00 00 00 00 00 00 00 00 00 00 00 [................]
  | | |         0ab8: 00 00 00 00 00 03 00 00 00 00 00 00 00 00 00 00 [................]
  | | |         0ac8: 00 00 00 00 00 00 00 00 00 00 00 00 00 03 00 00 [................]
  | | |         0ad8: 00 00 00 00 00 00 00 00 00 00 00 00 00 00 00 00 [................]
  | | |         0ae8: 00 81 00 81 00 81 00 00 00 ff ff ff ff ff ff ff [................]
  | | |         0af8: ff 00 00 00 00 00 00 00 00 00 00 00 00 00 00 00 [................]
  | | |         0b08: 00 00 00 00 00 00 00 00 00 00 00 00 00 00 00 00 [................]
  | | |         0b18: 00 00 04 00 04 00 04 00 04 00 00 00 00 00 00 00 [................]
  | | |         0b28: 00 00 00 00 00 00 00 00 00 00 00 00 00 00 00 00 [................]
  | | |         0b38: 00 00 00 00 00 00 00 00 00 00 04 00 04 00 04 00 [................]
  | | |         0b48: 04 00 00 00 00 00 00 00 00 00 00 00 00 00 00 00 [................]
  | | |         0b58: 00 00 00 00 00 00 00 00 00 00 00 00 00 00 00 00 [................]
  | | |         0b68: 00 00 04 00 04 00 04 00 04 00 00 00 00 00 00 00 [................]
  | | |         0b78: 00 00 00 00 00 00 00 00 00 00 00 00 00 00 00 00 [................]
  | | |         0b88: 00 00 00 00 00 00 00 00 00 00 04 00 04 00 04 00 [................]
  | | |         0b98: 04 00 00 00 00 00 00 00 00 00 00 00 00 00 00 00 [................]
  | | |         0ba8: 00 00 00 00 00 00 00 00 00 00 00 00 00 00 00 00 [................]
  | | |         0bb8: 00 00 04 00 04 00 04 00 04 00 00 00 00 00 00 00 [................]
  | | |         0bc8: 00 45 9f ad 61 3c 03 00 00 04 00 01 00 00 00 00 [.E..a<..........]
  | | |         0bd8: 00 04 00 01 00 00 00 00 00 04 00 01 00 00 00 00 [................]
  | | |         0be8: 00 00 00 00 33 00 00 00 00 00 00 00 00 00 00 00 [....3...........]
  | | |         0bf8: 00 d0 2d 00 00 74 d7 00 00 00 00 00 00 00 00 00 [..-..t..........]
  | | |         0c08: 00 00 00 00 00 00 00 00 00 00 00 00 00 00 00 00 [................]
  | | |         0c18: 00 00 00 00 00 00 00 00 00 00 00 00 00 00 00 00 [................]
  | | |         0c28: 00 00 00 00 00 00 00 00 00 00 00 00 00 00 00 00 [................]
  | | |         0c38: 00 00 00 00 00 00 00 00 00 00 00 00 00 00 00 00 [................]
  | | |         0c48: 00 00 00 00 00 00 00 00 00 00 00 00 00 00 00 00 [................]
  | | |         0c58: 00 00 00 00 00 00 00 00 00 00 00 00 00 00 00 00 [................]
  | | |         0c68: 00 00 00 00 00 00 00 00 00 00 00 00 00 00 00 00 [................]
  | | |         0c78: 00 00 00 00 00 00 00 00 00 00 00 00 00 00 00 00 [................]
  | | |         0c88: 00 00 00 00 00 00 00 00 00 00 00 00 00 00 00 00 [................]
  | | |         0c98: 00 00 00 00 00 00 00 00 00 00 00 00 00 00 00 00 [................]
  | | |         0ca8: 00 00 00 00 00 00 00 00 00 00 00 00 00 00 00 00 [................]
  | | |         0cb8: 00 00 00 00 00 00 00 00 00 00 00 00 00 00 00 00 [................]
  | | |         0cc8: 00 00 00 00 00 00 00 00 00 00 00 00 00 00 00 00 [................]
  | | | + [BinaryData directory, 1536 bytes, Little-endian]
  | | | | FNumber = 46
  | | | | - Tag 0x0003 (1 bytes, int8u[1]):
  | | | |     06db: 2e                                              [.]
  | | | | ExposureTime = 104
  | | | | - Tag 0x0004 (1 bytes, int8u[1]):
  | | | |     06dc: 68                                              [h]
  | | | | ISO = 88
  | | | | - Tag 0x0006 (1 bytes, int8u[1]):
  | | | |     06de: 58                                              [X]
  | | | | CameraTemperature = 149
  | | | | - Tag 0x0019 (1 bytes, int8u[1]):
  | | | |     06f1: 95                                              [.]
  | | | | FocalLength = 24
  | | | | - Tag 0x001e (2 bytes, int16uRev[1]):
  | | | |     06f6: 00 18                                           [..]
  | | | | CameraOrientation = 0
  | | | | - Tag 0x0036 (1 bytes, int8u[1]):
  | | | |     070e: 00                                              [.]
  | | | | FocusDistanceUpper = 48
  | | | | - Tag 0x0055 (2 bytes, int16uRev[1]):
  | | | |     072d: 00 30                                           [.0]
  | | | | FocusDistanceLower = 45
  | | | | - Tag 0x0057 (2 bytes, int16uRev[1]):
  | | | |     072f: 00 2d                                           [.-]
  | | | | ColorTemperature = 5000
  | | | | - Tag 0x007d (2 bytes, int16u[1]):
  | | | |     0755: 88 13                                           [..]
  | | | | LensType = 488
  | | | | - Tag 0x00e8 (2 bytes, int16uRev[1]):
  | | | |     07c0: 01 e8                                           [..]
  | | | | MinFocalLength = 15
  | | | | - Tag 0x00ea (2 bytes, int16uRev[1]):
  | | | |     07c2: 00 0f                                           [..]
  | | | | MaxFocalLength = 85
  | | | | - Tag 0x00ec (2 bytes, int16uRev[1]):
  | | | |     07c4: 00 55                                           [.U]
  | | | | FirmwareVersion = 1.1.1
  | | | | - Tag 0x0199 (6 bytes, string[6]):
  | | | |     0871: 31 2e 31 2e 31 00                               [1.1.1.]
  | | | | FileIndex = 8471
  | | | | - Tag 0x01d9 (4 bytes, int32u[1]):
  | | | |     08b1: 17 21 00 00                                     [.!..]
  | | | | DirectoryIndex = 102
  | | | | - Tag 0x01e5 (4 bytes, int32u[1]):
  | | | |     08bd: 66 00 00 00                                     [f...]
  | | | | PictureStyleInfo (SubDirectory) -->
  | | | | - Tag 0x0321 (735 bytes, int8u[1]):
  | | | |     09f9: 00 00 00 00 03 00 00 00 00 00 00 00 00 00 00 00 [................]
  | | | |     0a09: ef be ad de ef be ad de 00 00 00 00 02 00 00 00 [................]
  | | | |     0a19: 00 00 00 00 00 00 00 00 ef be ad de ef be ad de [................]
  | | | |     0a29: 00 00 00 00 04 00 00 00 00 00 00 00 00 00 00 00 [................]
  | | | |     0a39: ef be ad de ef be ad de 00 00 00 00 00 00 00 00 [................]
  | | | |     0a49: 00 00 00 00 00 00 00 00 ef be ad de ef be ad de [................]
  | | | |     0a59: 00 00 00 00 00 00 00 00 00 00 00 00 00 00 00 00 [................]
  | | | |     0a69: ef be ad de ef be ad de 00 00 00 00 03 00 00 00 [................]
  | | | |     0a79: ef be ad de ef be ad de 00 00 00 00 00 00 00 00 [................]
  | | | |     0a89: 00 00 00 00 00 00 00 00 00 00 00 00 00 00 00 00 [................]
  | | | |     0a99: 00 00 00 00 00 00 00 00 00 00 00 00 03 00 00 00 [................]
  | | | |     0aa9: 00 00 00 00 00 00 00 00 00 00 00 00 00 00 00 00 [................]
  | | | |     0ab9: 00 00 00 00 03 00 00 00 00 00 00 00 00 00 00 00 [................]
  | | | |     0ac9: 00 00 00 00 00 00 00 00 00 00 00 00 03 00 00 00 [................]
  | | | |     0ad9: 00 00 00 00 00 00 00 00 00 00 00 00 00 00 00 00 [................]
  | | | |     0ae9: 81 00 81 00 81 00 00 00 ff ff ff ff ff ff ff ff [................]
  | | | |     0af9: 00 00 00 00 00 00 00 00 00 00 00 00 00 00 00 00 [................]
  | | | |     0b09: 00 00 00 00 00 00 00 00 00 00 00 00 00 00 00 00 [................]
  | | | |     0b19: 00 04 00 04 00 04 00 04 00 00 00 00 00 00 00 00 [................]
  | | | |     0b29: 00 00 00 00 00 00 00 00 00 00 00 00 00 00 00 00 [................]
  | | | |     0b39: 00 00 00 00 00 00 00 00 00 04 00 04 00 04 00 04 [................]
  | | | |     0b49: 00 00 00 00 00 00 00 00 00 00 00 00 00 00 00 00 [................]
  | | | |     0b59: 00 00 00 00 00 00 00 00 00 00 00 00 00 00 00 00 [................]
  | | | |     0b69: 00 04 00 04 00 04 00 04 00 00 00 00 00 00 00 00 [................]
  | | | |     0b79: 00 00 00 00 00 00 00 00 00 00 00 00 00 00 00 00 [................]
  | | | |     0b89: 00 00 00 00 00 00 00 00 00 04 00 04 00 04 00 04 [................]
  | | | |     0b99: 00 00 00 00 00 00 00 00 00 00 00 00 00 00 00 00 [................]
  | | | |     0ba9: 00 00 00 00 00 00 00 00 00 00 00 00 00 00 00 00 [................]
  | | | |     0bb9: 00 04 00 04 00 04 00 04 00 00 00 00 00 00 00 00 [................]
  | | | |     0bc9: 45 9f ad 61 3c 03 00 00 04 00 01 00 00 00 00 00 [E..a<...........]
  | | | |     0bd9: 04 00 01 00 00 00 00 00 04 00 01 00 00 00 00 00 [................]
  | | | |     0be9: 00 00 00 33 00 00 00 00 00 00 00 00 00 00 00 00 [...3............]
  | | | |     0bf9: d0 2d 00 00 74 d7 00 00 00 00 00 00 00 00 00 00 [.-..t...........]
  | | | |     0c09: 00 00 00 00 00 00 00 00 00 00 00 00 00 00 00 00 [................]
  | | | |     0c19: 00 00 00 00 00 00 00 00 00 00 00 00 00 00 00 00 [................]
  | | | |     0c29: 00 00 00 00 00 00 00 00 00 00 00 00 00 00 00 00 [................]
  | | | |     0c39: 00 00 00 00 00 00 00 00 00 00 00 00 00 00 00 00 [................]
  | | | |     0c49: 00 00 00 00 00 00 00 00 00 00 00 00 00 00 00 00 [................]
  | | | |     0c59: 00 00 00 00 00 00 00 00 00 00 00 00 00 00 00 00 [................]
  | | | |     0c69: 00 00 00 00 00 00 00 00 00 00 00 00 00 00 00 00 [................]
  | | | |     0c79: 00 00 00 00 00 00 00 00 00 00 00 00 00 00 00 00 [................]
  | | | |     0c89: 00 00 00 00 00 00 00 00 00 00 00 00 00 00 00 00 [................]
  | | | |     0c99: 00 00 00 00 00 00 00 00 00 00 00 00 00 00 00 00 [................]
  | | | |     0ca9: 00 00 00 00 00 00 00 00 00 00 00 00 00 00 00 00 [................]
  | | | |     0cb9: 00 00 00 00 00 00 00 00 00 00 00 00 00 00 00 00 [................]
  | | | |     0cc9: 00 00 00 00 00 00 00 00 00 00 00 00 00 00 00    [...............]
  | | | | + [BinaryData directory, 735 bytes, Little-endian]
  | | | | | ContrastStandard = 0
  | | | | | - Tag 0x0000 (4 bytes, int32s[1]):
  | | | | |     09f9: 00 00 00 00                                     [....]
  | | | | | SharpnessStandard = 3
  | | | | | - Tag 0x0004 (4 bytes, int32s[1]):
  | | | | |     09fd: 03 00 00 00                                     [....]
  | | | | | SaturationStandard = 0
  | | | | | - Tag 0x0008 (4 bytes, int32s[1]):
  | | | | |     0a01: 00 00 00 00                                     [....]
  | | | | | ColorToneStandard = 0
  | | | | | - Tag 0x000c (4 bytes, int32s[1]):
  | | | | |     0a05: 00 00 00 00                                     [....]
  | | | | | FilterEffectStandard = -559038737
  | | | | | - Tag 0x0010 (4 bytes, int32s[1]):
  | | | | |     0a09: ef be ad de                                     [....]
  | | | | | ToningEffectStandard = -559038737
  | | | | | - Tag 0x0014 (4 bytes, int32s[1]):
  | | | | |     0a0d: ef be ad de                                     [....]
  | | | | | ContrastPortrait = 0
  | | | | | - Tag 0x0018 (4 bytes, int32s[1]):
  | | | | |     0a11: 00 00 00 00                                     [....]
  | | | | | SharpnessPortrait = 2
  | | | | | - Tag 0x001c (4 bytes, int32s[1]):
  | | | | |     0a15: 02 00 00 00                                     [....]
  | | | | | SaturationPortrait = 0
  | | | | | - Tag 0x0020 (4 bytes, int32s[1]):
  | | | | |     0a19: 00 00 00 00                                     [....]
  | | | | | ColorTonePortrait = 0
  | | | | | - Tag 0x0024 (4 bytes, int32s[1]):
  | | | | |     0a1d: 00 00 00 00                                     [....]
  | | | | | FilterEffectPortrait = -559038737
  | | | | | - Tag 0x0028 (4 bytes, int32s[1]):
  | | | | |     0a21: ef be ad de                                     [....]
  | | | | | ToningEffectPortrait = -559038737
  | | | | | - Tag 0x002c (4 bytes, int32s[1]):
  | | | | |     0a25: ef be ad de                                     [....]
  | | | | | ContrastLandscape = 0
  | | | | | - Tag 0x0030 (4 bytes, int32s[1]):
  | | | | |     0a29: 00 00 00 00                                     [....]
  | | | | | SharpnessLandscape = 4
  | | | | | - Tag 0x0034 (4 bytes, int32s[1]):
  | | | | |     0a2d: 04 00 00 00                                     [....]
  | | | | | SaturationLandscape = 0
  | | | | | - Tag 0x0038 (4 bytes, int32s[1]):
  | | | | |     0a31: 00 00 00 00                                     [....]
  | | | | | ColorToneLandscape = 0
  | | | | | - Tag 0x003c (4 bytes, int32s[1]):
  | | | | |     0a35: 00 00 00 00                                     [....]
  | | | | | FilterEffectLandscape = -559038737
  | | | | | - Tag 0x0040 (4 bytes, int32s[1]):
  | | | | |     0a39: ef be ad de                                     [....]
  | | | | | ToningEffectLandscape = -559038737
  | | | | | - Tag 0x0044 (4 bytes, int32s[1]):
  | | | | |     0a3d: ef be ad de                                     [....]
  | | | | | ContrastNeutral = 0
  | | | | | - Tag 0x0048 (4 bytes, int32s[1]):
  | | | | |     0a41: 00 00 00 00                                     [....]
  | | | | | SharpnessNeutral = 0
  | | | | | - Tag 0x004c (4 bytes, int32s[1]):
  | | | | |     0a45: 00 00 00 00                                     [....]
  | | | | | SaturationNeutral = 0
  | | | | | - Tag 0x0050 (4 bytes, int32s[1]):
  | | | | |     0a49: 00 00 00 00                                     [....]
  | | | | | ColorToneNeutral = 0
  | | | | | - Tag 0x0054 (4 bytes, int32s[1]):
  | | | | |     0a4d: 00 00 00 00                                     [....]
  | | | | | FilterEffectNeutral = -559038737
  | | | | | - Tag 0x0058 (4 bytes, int32s[1]):
  | | | | |     0a51: ef be ad de                                     [....]
  | | | | | ToningEffectNeutral = -559038737
  | | | | | - Tag 0x005c (4 bytes, int32s[1]):
  | | | | |     0a55: ef be ad de                                     [....]
  | | | | | ContrastFaithful = 0
  | | | | | - Tag 0x0060 (4 bytes, int32s[1]):
  | | | | |     0a59: 00 00 00 00                                     [....]
  | | | | | SharpnessFaithful = 0
  | | | | | - Tag 0x0064 (4 bytes, int32s[1]):
  | | | | |     0a5d: 00 00 00 00                                     [....]
  | | | | | SaturationFaithful = 0
  | | | | | - Tag 0x0068 (4 bytes, int32s[1]):
  | | | | |     0a61: 00 00 00 00                                     [....]
  | | | | | ColorToneFaithful = 0
  | | | | | - Tag 0x006c (4 bytes, int32s[1]):
  | | | | |     0a65: 00 00 00 00                                     [....]
  | | | | | FilterEffectFaithful = -559038737
  | | | | | - Tag 0x0070 (4 bytes, int32s[1]):
  | | | | |     0a69: ef be ad de                                     [....]
  | | | | | ToningEffectFaithful = -559038737
  | | | | | - Tag 0x0074 (4 bytes, int32s[1]):
  | | | | |     0a6d: ef be ad de                                     [....]
  | | | | | ContrastMonochrome = 0
  | | | | | - Tag 0x0078 (4 bytes, int32s[1]):
  | | | | |     0a71: 00 00 00 00                                     [....]
  | | | | | SharpnessMonochrome = 3
  | | | | | - Tag 0x007c (4 bytes, int32s[1]):
  | | | | |     0a75: 03 00 00 00                                     [....]
  | | | | | SaturationMonochrome = -559038737
  | | | | | - Tag 0x0080 (4 bytes, int32s[1]):
  | | | | |     0a79: ef be ad de                                     [....]
  | | | | | ColorToneMonochrome = -559038737
  | | | | | - Tag 0x0084 (4 bytes, int32s[1]):
  | | | | |     0a7d: ef be ad de                                     [....]
  | | | | | FilterEffectMonochrome = 0
  | | | | | - Tag 0x0088 (4 bytes, int32s[1]):
  | | | | |     0a81: 00 00 00 00                                     [....]
  | | | | | ToningEffectMonochrome = 0
  | | | | | - Tag 0x008c (4 bytes, int32s[1]):
  | | | | |     0a85: 00 00 00 00                                     [....]
  | | | | | ContrastAuto = 0
  | | | | | - Tag 0x0090 (4 bytes, int32s[1]):
  | | | | |     0a89: 00 00 00 00                                     [....]
  | | | | | SharpnessAuto = 0
  | | | | | - Tag 0x0094 (4 bytes, int32s[1]):
  | | | | |     0a8d: 00 00 00 00                                     [....]
  | | | | | SaturationAuto = 0
  | | | | | - Tag 0x0098 (4 bytes, int32s[1]):
  | | | | |     0a91: 00 00 00 00                                     [....]
  | | | | | ColorToneAuto = 0
  | | | | | - Tag 0x009c (4 bytes, int32s[1]):
  | | | | |     0a95: 00 00 00 00                                     [....]
  | | | | | FilterEffectAuto = 0
  | | | | | - Tag 0x00a0 (4 bytes, int32s[1]):
  | | | | |     0a99: 00 00 00 00                                     [....]
  | | | | | ToningEffectAuto = 0
  | | | | | - Tag 0x00a4 (4 bytes, int32s[1]):
  | | | | |     0a9d: 00 00 00 00                                     [....]
  | | | | | ContrastUserDef1 = 0
  | | | | | - Tag 0x00a8 (4 bytes, int32s[1]):
  | | | | |     0aa1: 00 00 00 00                                     [....]
  | | | | | SharpnessUserDef1 = 3
  | | | | | - Tag 0x00ac (4 bytes, int32s[1]):
  | | | | |     0aa5: 03 00 00 00                                     [....]
  | | | | | SaturationUserDef1 = 0
  | | | | | - Tag 0x00b0 (4 bytes, int32s[1]):
  | | | | |     0aa9: 00 00 00 00                                     [....]
  | | | | | ColorToneUserDef1 = 0
  | | | | | - Tag 0x00b4 (4 bytes, int32s[1]):
  | | | | |     0aad: 00 00 00 00                                     [....]
  | | | | | FilterEffectUserDef1 = 0
  | | | | | - Tag 0x00b8 (4 bytes, int32s[1]):
  | | | | |     0ab1: 00 00 00 00                                     [....]
  | | | | | ToningEffectUserDef1 = 0
  | | | | | - Tag 0x00bc (4 bytes, int32s[1]):
  | | | | |     0ab5: 00 00 00 00                                     [....]
  | | | | | ContrastUserDef2 = 0
  | | | | | - Tag 0x00c0 (4 bytes, int32s[1]):
  | | | | |     0ab9: 00 00 00 00                                     [....]
  | | | | | SharpnessUserDef2 = 3
  | | | | | - Tag 0x00c4 (4 bytes, int32s[1]):
  | | | | |     0abd: 03 00 00 00                                     [....]
  | | | | | SaturationUserDef2 = 0
  | | | | | - Tag 0x00c8 (4 bytes, int32s[1]):
  | | | | |     0ac1: 00 00 00 00                                     [....]
  | | | | | ColorToneUserDef2 = 0
  | | | | | - Tag 0x00cc (4 bytes, int32s[1]):
  | | | | |     0ac5: 00 00 00 00                                     [....]
  | | | | | FilterEffectUserDef2 = 0
  | | | | | - Tag 0x00d0 (4 bytes, int32s[1]):
  | | | | |     0ac9: 00 00 00 00                                     [....]
  | | | | | ToningEffectUserDef2 = 0
  | | | | | - Tag 0x00d4 (4 bytes, int32s[1]):
  | | | | |     0acd: 00 00 00 00                                     [....]
  | | | | | ContrastUserDef3 = 0
  | | | | | - Tag 0x00d8 (4 bytes, int32s[1]):
  | | | | |     0ad1: 00 00 00 00                                     [....]
  | | | | | SharpnessUserDef3 = 3
  | | | | | - Tag 0x00dc (4 bytes, int32s[1]):
  | | | | |     0ad5: 03 00 00 00                                     [....]
  | | | | | SaturationUserDef3 = 0
  | | | | | - Tag 0x00e0 (4 bytes, int32s[1]):
  | | | | |     0ad9: 00 00 00 00                                     [....]
  | | | | | ColorToneUserDef3 = 0
  | | | | | - Tag 0x00e4 (4 bytes, int32s[1]):
  | | | | |     0add: 00 00 00 00                                     [....]
  | | | | | FilterEffectUserDef3 = 0
  | | | | | - Tag 0x00e8 (4 bytes, int32s[1]):
  | | | | |     0ae1: 00 00 00 00                                     [....]
  | | | | | ToningEffectUserDef3 = 0
  | | | | | - Tag 0x00ec (4 bytes, int32s[1]):
  | | | | |     0ae5: 00 00 00 00                                     [....]
  | | | | | UserDef1PictureStyle = 129
  | | | | | - Tag 0x00f0 (2 bytes, int16u[1]):
  | | | | |     0ae9: 81 00                                           [..]
  | | | | | UserDef2PictureStyle = 129
  | | | | | - Tag 0x00f2 (2 bytes, int16u[1]):
  | | | | |     0aeb: 81 00                                           [..]
  | | | | | UserDef3PictureStyle = 129
  | | | | | - Tag 0x00f4 (2 bytes, int16u[1]):
  | | | | |     0aed: 81 00                                           [..]
  | | | 9)  CanonModelID = 2147484295
  | | |     - Tag 0x0010 (4 bytes, int32u[1]):
  | | |         044e: 87 02 00 80                                     [....]
  | | | 10) ThumbnailImageValidArea = 0 159 7 112
  | | |     - Tag 0x0013 (8 bytes, int16u[4]):
  | | |         0cd8: 00 00 9f 00 07 00 70 00                         [......p.]
  | | | 11) SerialNumberFormat = 2684354560
  | | |     - Tag 0x0015 (4 bytes, int32u[1]):
  | | |         0466: 00 00 00 a0                                     [....]
  | | | 12) Canon_0x0019 = 1
  | | |     - Tag 0x0019 (2 bytes, int16u[1]):
  | | |         0472: 01 00                                           [..]
  | | | 13) CanonAFInfo2 (SubDirectory) -->
  | | |     - Tag 0x0026 (96 bytes, int16u[48] read as undef[96]):
  | | |         0ce0: 60 00 02 00 09 00 09 00 40 14 80 0d 40 14 80 0d [`.......@...@...]
  | | |         0cf0: 6c 00 58 00 58 00 58 00 81 00 58 00 58 00 58 00 [l.X.X.X...X.X.X.]
  | | |         0d00: 6c 00 56 00 6b 00 6b 00 6b 00 83 00 6b 00 6b 00 [l.V.k.k.k...k.k.]
  | | |         0d10: 6b 00 56 00 00 00 a4 fc 5c 03 a8 fa 00 00 58 05 [k.V.....\.....X.]
  | | |         0d20: a4 fc 5c 03 00 00 e7 02 89 01 89 01 00 00 00 00 [..\.............]
  | | |         0d30: 00 00 77 fe 77 fe 19 fd 10 00 10 00 00 00 ff ff [..w.w...........]
  | | | + [SerialData directory, 96 bytes]
  | | | | 0)  AFInfoSize = 96
  | | | |     - Tag 0x0000 (2 bytes, int16u[1]):
  | | | |         0ce0: 60 00                                           [`.]
  | | | | 1)  AFAreaMode = 2
  | | | |     - Tag 0x0001 (2 bytes, int16u[1]):
  | | | |         0ce2: 02 00                                           [..]
  | | | | 2)  NumAFPoints = 9
  | | | |     - Tag 0x0002 (2 bytes, int16u[1]):
  | | | |         0ce4: 09 00                                           [..]
  | | | | 3)  ValidAFPoints = 9
  | | | |     - Tag 0x0003 (2 bytes, int16u[1]):
  | | | |         0ce6: 09 00                                           [..]
  | | | | 4)  CanonImageWidth = 5184
  | | | |     - Tag 0x0004 (2 bytes, int16u[1]):
  | | | |         0ce8: 40 14                                           [@.]
  | | | | 5)  CanonImageHeight = 3456
  | | | |     - Tag 0x0005 (2 bytes, int16u[1]):
  | | | |         0cea: 80 0d                                           [..]
  | | | | 6)  AFImageWidth = 5184
  | | | |     - Tag 0x0006 (2 bytes, int16u[1]):
  | | | |         0cec: 40 14                                           [@.]
  | | | | 7)  AFImageHeight = 3456
  | | | |     - Tag 0x0007 (2 bytes, int16u[1]):
  | | | |         0cee: 80 0d                                           [..]
  | | | | 8)  AFAreaWidths = 108 88 88 88 129 88 88 88 108
  | | | |     - Tag 0x0008 (18 bytes, int16s[9]):
  | | | |         0cf0: 6c 00 58 00 58 00 58 00 81 00 58 00 58 00 58 00 [l.X.X.X...X.X.X.]
  | | | |         0d00: 6c 00                                           [l.]
  | | | | 9)  AFAreaHeights = 86 107 107 107 131 107 107 107 86
  | | | |     - Tag 0x0009 (18 bytes, int16s[9]):
  | | | |         0d02: 56 00 6b 00 6b 00 6b 00 83 00 6b 00 6b 00 6b 00 [V.k.k.k...k.k.k.]
  | | | |         0d12: 56 00                                           [V.]
  | | | | 10) AFAreaXPositions = 0 -860 860 -1368 0 1368 -860 860 0
  | | | |     - Tag 0x000a (18 bytes, int16s[9]):
  | | | |         0d14: 00 00 a4 fc 5c 03 a8 fa 00 00 58 05 a4 fc 5c 03 [....\.....X...\.]
  | | | |         0d24: 00 00                                           [..]
  | | | | 11) AFAreaYPositions = 743 393 393 0 0 0 -393 -393 -743
  | | | |     - Tag 0x000b (18 bytes, int16s[9]):
  | | | |         0d26: e7 02 89 01 89 01 00 00 00 00 00 00 77 fe 77 fe [............w.w.]
  | | | |         0d36: 19 fd                                           [..]
  | | | | 12) AFPointsInFocus = 16
  | | | |     - Tag 0x000c (2 bytes, int16s[1]):
  | | | |         0d38: 10 00                                           [..]
  | | | | 13) AFPointsSelected = 16
  | | | |     - Tag 0x000d (2 bytes, int16s[1]):
  | | | |         0d3a: 10 00                                           [..]
  | | | 14) OriginalDecisionDataOffset = 0
  | | |     - Tag 0x0083 (4 bytes, int32u[1]):
  | | |         048a: 00 00 00 00                                     [....]
  | | | 15) CanonFileInfo (SubDirectory) -->
  | | |     - Tag 0x0093 (54 bytes, int16u[27] read as undef[54]):
  | | |         0fa0: 36 00 00 00 00 00 00 00 00 00 00 00 00 00 00 00 [6...............]
  | | |         0fb0: 00 00 00 00 00 00 00 00 00 00 00 00 ff ff ff ff [................]
  | | |         0fc0: 6d 00 00 00 00 00 00 00 30 00 2d 00 00 00 00 00 [m.......0.-.....]
  | | |         0fd0: 00 00 00 00 ff ff                               [......]
  | | | + [BinaryData directory, 54 bytes, Little-endian]
  | | | | BracketMode = 0
  | | | | - Tag 0x0003 (2 bytes, int16s[1]):
  | | | |     0fa6: 00 00                                           [..]
  | | | | BracketValue = 0
  | | | | - Tag 0x0004 (2 bytes, int16s[1]):
  | | | |     0fa8: 00 00                                           [..]
  | | | | BracketShotNumber = 0
  | | | | - Tag 0x0005 (2 bytes, int16s[1]):
  | | | |     0faa: 00 00                                           [..]
  | | | | RawJpgQuality = 0
  | | | | - Tag 0x0006 (2 bytes, int16s[1]):
  | | | |     0fac: 00 00                                           [..]
  | | | | RawJpgSize = 0
  | | | | - Tag 0x0007 (2 bytes, int16s[1]):
  | | | |     0fae: 00 00                                           [..]
  | | | | LongExposureNoiseReduction2 = 0
  | | | | - Tag 0x0008 (2 bytes, int16s[1]):
  | | | |     0fb0: 00 00                                           [..]
  | | | | WBBracketMode = 0
  | | | | - Tag 0x0009 (2 bytes, int16s[1]):
  | | | |     0fb2: 00 00                                           [..]
  | | | | WBBracketValueAB = 0
  | | | | - Tag 0x000c (2 bytes, int16s[1]):
  | | | |     0fb8: 00 00                                           [..]
  | | | | WBBracketValueGM = 0
  | | | | - Tag 0x000d (2 bytes, int16s[1]):
  | | | |     0fba: 00 00                                           [..]
  | | | | FilterEffect = -1
  | | | | - Tag 0x000e (2 bytes, int16s[1]):
  | | | |     0fbc: ff ff                                           [..]
  | | | | ToningEffect = -1
  | | | | - Tag 0x000f (2 bytes, int16s[1]):
  | | | |     0fbe: ff ff                                           [..]
  | | | | LiveViewShooting = 0
  | | | | - Tag 0x0013 (2 bytes, int16s[1]):
  | | | |     0fc6: 00 00                                           [..]
  | | | | FocusDistanceUpper = 48
  | | | | - Tag 0x0014 (2 bytes, int16u[1]):
  | | | |     0fc8: 30 00                                           [0.]
  | | | | FocusDistanceLower = 45
  | | | | - Tag 0x0015 (2 bytes, int16u[1]):
  | | | |     0fca: 2d 00                                           [-.]
  | | | | ShutterMode = 0
  | | | | - Tag 0x0017 (2 bytes, int16s[1]):
  | | | |     0fce: 00 00                                           [..]
  | | | | FlashExposureLock = 0
  | | | | - Tag 0x0019 (2 bytes, int16s[1]):
  | | | |     0fd2: 00 00                                           [..]
  | | | 16) LensModel = EF-S15-85mm f/3.5-5.6 IS USM
  | | |     - Tag 0x0095 (70 bytes, string[70]):
  | | |         0fd6: 45 46 2d 53 31 35 2d 38 35 6d 6d 20 66 2f 33 2e [EF-S15-85mm f/3.]
  | | |         0fe6: 35 2d 35 2e 36 20 49 53 20 55 53 4d 00 00 00 00 [5-5.6 IS USM....]
  | | |         0ff6: 00 00 00 00 00 00 00 00 00 00 00 00 00 00 00 00 [................]
  | | |         1006: 00 00 00 00 00 00 00 00 00 00 00 00 00 00 00 00 [................]
  | | |         1016: 00 00 00 00 00 00                               [......]
  | | | 17) InternalSerialNumber = WB0607529
  | | |     - Tag 0x0096 (16 bytes, string[16]):
  | | |         101c: 57 42 30 36 30 37 35 32 39 00 00 00 00 00 00 00 [WB0607529.......]
  | | | 18) DustRemovalData = 
  | | |     - Tag 0x0097 (1024 bytes, undef[1024]):
  | | |         102c: 00 00 00 00 00 00 00 00 00 00 00 00 00 00 00 00 [................]
  | | |         103c: 00 00 00 00 00 00 00 00 00 00 00 00 00 00 00 00 [................]
  | | |         104c: 00 00 00 00 00 00 00 00 00 00 00 00 00 00 00 00 [................]
  | | |         105c: 00 00 00 00 00 00 00 00 00 00 00 00 00 00 00 00 [................]
  | | |         106c: 00 00 00 00 00 00 00 00 00 00 00 00 00 00 00 00 [................]
  | | |         107c: 00 00 00 00 00 00 00 00 00 00 00 00 00 00 00 00 [................]
  | | |         108c: 00 00 00 00 00 00 00 00 00 00 00 00 00 00 00 00 [................]
  | | |         109c: 00 00 00 00 00 00 00 00 00 00 00 00 00 00 00 00 [................]
  | | |         10ac: 00 00 00 00 00 00 00 00 00 00 00 00 00 00 00 00 [................]
  | | |         10bc: 00 00 00 00 00 00 00 00 00 00 00 00 00 00 00 00 [................]
  | | |         10cc: 00 00 00 00 00 00 00 00 00 00 00 00 00 00 00 00 [................]
  | | |         10dc: 00 00 00 00 00 00 00 00 00 00 00 00 00 00 00 00 [................]
  | | |         10ec: 00 00 00 00 00 00 00 00 00 00 00 00 00 00 00 00 [................]
  | | |         10fc: 00 00 00 00 00 00 00 00 00 00 00 00 00 00 00 00 [................]
  | | |         110c: 00 00 00 00 00 00 00 00 00 00 00 00 00 00 00 00 [................]
  | | |         111c: 00 00 00 00 00 00 00 00 00 00 00 00 00 00 00 00 [................]
  | | |         112c: 00 00 00 00 00 00 00 00 00 00 00 00 00 00 00 00 [................]
  | | |         113c: 00 00 00 00 00 00 00 00 00 00 00 00 00 00 00 00 [................]
  | | |         114c: 00 00 00 00 00 00 00 00 00 00 00 00 00 00 00 00 [................]
  | | |         115c: 00 00 00 00 00 00 00 00 00 00 00 00 00 00 00 00 [................]
  | | |         116c: 00 00 00 00 00 00 00 00 00 00 00 00 00 00 00 00 [................]
  | | |         117c: 00 00 00 00 00 00 00 00 00 00 00 00 00 00 00 00 [................]
  | | |         118c: 00 00 00 00 00 00 00 00 00 00 00 00 00 00 00 00 [................]
  | | |         119c: 00 00 00 00 00 00 00 00 00 00 00 00 00 00 00 00 [................]
  | | |         11ac: 00 00 00 00 00 00 00 00 00 00 00 00 00 00 00 00 [................]
  | | |         11bc: 00 00 00 00 00 00 00 00 00 00 00 00 00 00 00 00 [................]
  | | |         11cc: 00 00 00 00 00 00 00 00 00 00 00 00 00 00 00 00 [................]
  | | |         11dc: 00 00 00 00 00 00 00 00 00 00 00 00 00 00 00 00 [................]
  | | |         11ec: 00 00 00 00 00 00 00 00 00 00 00 00 00 00 00 00 [................]
  | | |         11fc: 00 00 00 00 00 00 00 00 00 00 00 00 00 00 00 00 [................]
  | | |         120c: 00 00 00 00 00 00 00 00 00 00 00 00 00 00 00 00 [................]
  | | |         121c: 00 00 00 00 00 00 00 00 00 00 00 00 00 00 00 00 [................]
  | | |         122c: 00 00 00 00 00 00 00 00 00 00 00 00 00 00 00 00 [................]
  | | |         123c: 00 00 00 00 00 00 00 00 00 00 00 00 00 00 00 00 [................]
  | | |         124c: 00 00 00 00 00 00 00 00 00 00 00 00 00 00 00 00 [................]
  | | |         125c: 00 00 00 00 00 00 00 00 00 00 00 00 00 00 00 00 [................]
  | | |         126c: 00 00 00 00 00 00 00 00 00 00 00 00 00 00 00 00 [................]
  | | |         127c: 00 00 00 00 00 00 00 00 00 00 00 00 00 00 00 00 [................]
  | | |         128c: 00 00 00 00 00 00 00 00 00 00 00 00 00 00 00 00 [................]
  | | |         129c: 00 00 00 00 00 00 00 00 00 00 00 00 00 00 00 00 [................]
  | | |         12ac: 00 00 00 00 00 00 00 00 00 00 00 00 00 00 00 00 [................]
  | | |         12bc: 00 00 00 00 00 00 00 00 00 00 00 00 00 00 00 00 [................]
  | | |         12cc: 00 00 00 00 00 00 00 00 00 00 00 00 00 00 00 00 [................]
  | | |         12dc: 00 00 00 00 00 00 00 00 00 00 00 00 00 00 00 00 [................]
  | | |         12ec: 00 00 00 00 00 00 00 00 00 00 00 00 00 00 00 00 [................]
  | | |         12fc: 00 00 00 00 00 00 00 00 00 00 00 00 00 00 00 00 [................]
  | | |         130c: 00 00 00 00 00 00 00 00 00 00 00 00 00 00 00 00 [................]
  | | |         131c: 00 00 00 00 00 00 00 00 00 00 00 00 00 00 00 00 [................]
  | | |         132c: 00 00 00 00 00 00 00 00 00 00 00 00 00 00 00 00 [................]
  | | |         133c: 00 00 00 00 00 00 00 00 00 00 00 00 00 00 00 00 [................]
  | | |         134c: 00 00 00 00 00 00 00 00 00 00 00 00 00 00 00 00 [................]
  | | |         135c: 00 00 00 00 00 00 00 00 00 00 00 00 00 00 00 00 [................]
  | | |         136c: 00 00 00 00 00 00 00 00 00 00 00 00 00 00 00 00 [................]
  | | |         137c: 00 00 00 00 00 00 00 00 00 00 00 00 00 00 00 00 [................]
  | | |         138c: 00 00 00 00 00 00 00 00 00 00 00 00 00 00 00 00 [................]
  | | |         139c: 00 00 00 00 00 00 00 00 00 00 00 00 00 00 00 00 [................]
  | | |         13ac: 00 00 00 00 00 00 00 00 00 00 00 00 00 00 00 00 [................]
  | | |         13bc: 00 00 00 00 00 00 00 00 00 00 00 00 00 00 00 00 [................]
  | | |         13cc: 00 00 00 00 00 00 00 00 00 00 00 00 00 00 00 00 [................]
  | | |         13dc: 00 00 00 00 00 00 00 00 00 00 00 00 00 00 00 00 [................]
  | | |         13ec: 00 00 00 00 00 00 00 00 00 00 00 00 00 00 00 00 [................]
  | | |         13fc: 00 00 00 00 00 00 00 00 00 00 00 00 00 00 00 00 [................]
  | | |         140c: 00 00 00 00 00 00 00 00 00 00 00 00 00 00 00 00 [................]
  | | |         141c: 00 00 00 00 00 00 00 00 00 00 00 00 00 00 00 00 [................]
  | | | 19) CropInfo (SubDirectory) -->
  | | |     - Tag 0x0098 (8 bytes, int16u[4] read as undef[8]):
  | | |         142c: 00 00 00 00 00 00 00 00                         [........]
  | | | + [BinaryData directory, 8 bytes, Little-endian]
  | | | | CropLeftMargin = 0
  | | | | - Tag 0x0000 (2 bytes, int16u[1]):
  | | | |     142c: 00 00                                           [..]
  | | | | CropRightMargin = 0
  | | | | - Tag 0x0001 (2 bytes, int16u[1]):
  | | | |     142e: 00 00                                           [..]
  | | | | CropTopMargin = 0
  | | | | - Tag 0x0002 (2 bytes, int16u[1]):
  | | | |     1430: 00 00                                           [..]
  | | | | CropBottomMargin = 0
  | | | | - Tag 0x0003 (2 bytes, int16u[1]):
  | | | |     1432: 00 00                                           [..]
  | | | 20) CustomFunctions2 (SubDirectory) -->
  | | |     - Tag 0x0099 (296 bytes, int32u[74] read as undef[296]):
  | | |         1434: 28 01 00 00 04 00 00 00 01 00 00 00 5c 00 00 00 [(...........\...]
  | | |         1444: 07 00 00 00 01 01 00 00 01 00 00 00 00 00 00 00 [................]
  | | |         1454: 02 01 00 00 01 00 00 00 00 00 00 00 03 01 00 00 [................]
  | | |         1464: 01 00 00 00 00 00 00 00 04 01 00 00 01 00 00 00 [................]
  | | |         1474: 00 00 00 00 05 01 00 00 01 00 00 00 00 00 00 00 [................]
  | | |         1484: 08 01 00 00 01 00 00 00 00 00 00 00 0f 01 00 00 [................]
  | | |         1494: 01 00 00 00 00 00 00 00 02 00 00 00 2c 00 00 00 [............,...]
  | | |         14a4: 03 00 00 00 01 02 00 00 01 00 00 00 00 00 00 00 [................]
  | | |         14b4: 02 02 00 00 01 00 00 00 00 00 00 00 03 02 00 00 [................]
  | | |         14c4: 01 00 00 00 00 00 00 00 03 00 00 00 44 00 00 00 [............D...]
  | | |         14d4: 05 00 00 00 05 05 00 00 01 00 00 00 00 00 00 00 [................]
  | | |         14e4: 0f 05 00 00 01 00 00 00 00 00 00 00 10 05 00 00 [................]
  | | |         14f4: 01 00 00 00 00 00 00 00 0e 05 00 00 01 00 00 00 [................]
  | | |         1504: 00 00 00 00 0f 06 00 00 01 00 00 00 00 00 00 00 [................]
  | | |         1514: 04 00 00 00 44 00 00 00 05 00 00 00 01 07 00 00 [....D...........]
  | | |         1524: 01 00 00 00 00 00 00 00 04 07 00 00 01 00 00 00 [................]
  | | |         1534: 05 00 00 00 06 07 00 00 01 00 00 00 00 00 00 00 [................]
  | | |         1544: 0b 08 00 00 01 00 00 00 00 00 00 00 0f 08 00 00 [................]
  | | |         1554: 01 00 00 00 00 00 00 00                         [........]
  | | | + [CanonCustom2 directory with 4 entries, 296 bytes]
  | | | + [CanonCustom2 group 1 directory with 7 entries, 92 bytes]
  | | | | 0)  ExposureLevelIncrements = 0
  | | | |     - Tag 0x0101 (4 bytes, int32u[1])
  | | | | 1)  ISOSpeedIncrements = 0
  | | | |     - Tag 0x0102 (4 bytes, int32u[1])
  | | | | 2)  ISOExpansion = 0
  | | | |     - Tag 0x0103 (4 bytes, int32u[1])
  | | | | 3)  AEBAutoCancel = 0
  | | | |     - Tag 0x0104 (4 bytes, int32u[1])
  | | | | 4)  AEBSequence = 0
  | | | |     - Tag 0x0105 (4 bytes, int32u[1])
  | | | | 5)  SafetyShift = 0
  | | | |     - Tag 0x0108 (4 bytes, int32u[1])
  | | | | 6)  FlashSyncSpeedAv = 0
  | | | |     - Tag 0x010f (4 bytes, int32u[1])
  | | | + [CanonCustom2 group 2 directory with 3 entries, 44 bytes]
  | | | | 0)  LongExposureNoiseReduction = 0
  | | | |     - Tag 0x0201 (4 bytes, int32u[1])
  | | | | 1)  HighISONoiseReduction = 0
  | | | |     - Tag 0x0202 (4 bytes, int32u[1])
  | | | | 2)  HighlightTonePriority = 0
  | | | |     - Tag 0x0203 (4 bytes, int32u[1])
  | | | + [CanonCustom2 group 3 directory with 5 entries, 68 bytes]
  | | | | 0)  LensDriveNoAF = 0
  | | | |     - Tag 0x0505 (4 bytes, int32u[1])
  | | | | 1)  AFPointSelectionMethod = 0
  | | | |     - Tag 0x050f (4 bytes, int32u[1])
  | | | | 2)  SuperimposedDisplay = 0
  | | | |     - Tag 0x0510 (4 bytes, int32u[1])
  | | | | 3)  AFAssistBeam = 0
  | | | |     - Tag 0x050e (4 bytes, int32u[1])
  | | | | 4)  MirrorLockup = 0
  | | | |     - Tag 0x060f (4 bytes, int32u[1])
  | | | + [CanonCustom2 group 4 directory with 5 entries, 68 bytes]
  | | | | 0)  AFAndMeteringButtons = 0
  | | | |     - Tag 0x0701 (4 bytes, int32u[1])
  | | | | 1)  SetButtonWhenShooting = 5
  | | | |     - Tag 0x0704 (4 bytes, int32u[1])
  | | | | 2)  DialDirectionTvAv = 0
  | | | |     - Tag 0x0706 (4 bytes, int32u[1])
  | | | | 3)  FocusingScreen = 0
  | | | |     - Tag 0x080b (4 bytes, int32u[1])
  | | | | 4)  AddOriginalDecisionData = 0
  | | | |     - Tag 0x080f (4 bytes, int32u[1])
  | | | 21) AspectInfo (SubDirectory) -->
  | | |     - Tag 0x009a (20 bytes, int32u[5] read as undef[20]):
  | | |         155c: 00 00 00 00 40 14 00 00 80 0d 00 00 00 00 00 00 [....@...........]
  | | |         156c: 00 00 00 00                                     [....]
  | | | + [BinaryData directory, 20 bytes, Little-endian]
  | | | | AspectRatio = 0
  | | | | - Tag 0x0000 (4 bytes, int32u[1]):
  | | | |     155c: 00 00 00 00                                     [....]
  | | | | CroppedImageWidth = 5184
  | | | | - Tag 0x0001 (4 bytes, int32u[1]):
  | | | |     1560: 40 14 00 00                                     [@...]
  | | | | CroppedImageHeight = 3456
  | | | | - Tag 0x0002 (4 bytes, int32u[1]):
  | | | |     1564: 80 0d 00 00                                     [....]
  | | | | CroppedImageLeft = 0
  | | | | - Tag 0x0003 (4 bytes, int32u[1]):
  | | | |     1568: 00 00 00 00                                     [....]
  | | | | CroppedImageTop = 0
  | | | | - Tag 0x0004 (4 bytes, int32u[1]):
  | | | |     156c: 00 00 00 00                                     [....]
  | | | 22) ProcessingInfo (SubDirectory) -->
  | | |     - Tag 0x00a0 (28 bytes, int16u[14] read as undef[28]):
  | | |         1570: 1c 00 00 00 03 00 00 00 00 00 00 00 00 00 00 00 [................]
  | | |         1580: ff ff 88 13 81 00 00 00 00 00 00 00             [............]
  | | | + [BinaryData directory, 28 bytes, Little-endian]
  | | | | ToneCurve = 0
  | | | | - Tag 0x0001 (2 bytes, int16s[1]):
  | | | |     1572: 00 00                                           [..]
  | | | | Sharpness = 3
  | | | | - Tag 0x0002 (2 bytes, int16s[1]):
  | | | |     1574: 03 00                                           [..]
  | | | | SharpnessFrequency = 0
  | | | | - Tag 0x0003 (2 bytes, int16s[1]):
  | | | |     1576: 00 00                                           [..]
  | | | | SensorRedLevel = 0
  | | | | - Tag 0x0004 (2 bytes, int16s[1]):
  | | | |     1578: 00 00                                           [..]
  | | | | SensorBlueLevel = 0
  | | | | - Tag 0x0005 (2 bytes, int16s[1]):
  | | | |     157a: 00 00                                           [..]
  | | | | WhiteBalanceRed = 0
  | | | | - Tag 0x0006 (2 bytes, int16s[1]):
  | | | |     157c: 00 00                                           [..]
  | | | | WhiteBalanceBlue = 0
  | | | | - Tag 0x0007 (2 bytes, int16s[1]):
  | | | |     157e: 00 00                                           [..]
  | | | | WhiteBalance = -1
  | | | | - Tag 0x0008 (2 bytes, int16s[1]):
  | | | |     1580: ff ff                                           [..]
  | | | | ColorTemperature = 5000
  | | | | - Tag 0x0009 (2 bytes, int16s[1]):
  | | | |     1582: 88 13                                           [..]
  | | | | PictureStyle = 129
  | | | | - Tag 0x000a (2 bytes, int16s[1]):
  | | | |     1584: 81 00                                           [..]
  | | | | DigitalGain = 0
  | | | | - Tag 0x000b (2 bytes, int16s[1]):
  | | | |     1586: 00 00                                           [..]
  | | | | WBShiftAB = 0
  | | | | - Tag 0x000c (2 bytes, int16s[1]):
  | | | |     1588: 00 00                                           [..]
  | | | | WBShiftGM = 0
  | | | | - Tag 0x000d (2 bytes, int16s[1]):
  | | | |     158a: 00 00                                           [..]
  | | | 23) MeasuredColor (SubDirectory) -->
  | | |     - Tag 0x00aa (12 bytes, int16u[6] read as undef[12]):
  | | |         158c: 0c 00 91 01 00 04 00 04 18 03 00 00             [............]
  | | | + [BinaryData directory, 12 bytes, Little-endian]
  | | | | MeasuredRGGB = 401 1024 1024 792
  | | | | - Tag 0x0001 (8 bytes, int16u[4]):
  | | | |     158e: 91 01 00 04 00 04 18 03                         [........]
  | | | 24) ColorSpace = 1
  | | |     - Tag 0x00b4 (2 bytes, int16u[1]):
  | | |         0502: 01 00                                           [..]
  | | | 25) VRDOffset = 0
  | | |     - Tag 0x00d0 (4 bytes, int32u[1]):
  | | |         050e: 00 00 00 00                                     [....]
  | | | 26) SensorInfo (SubDirectory) -->
  | | |     - Tag 0x00e0 (34 bytes, int16u[17] read as undef[34]):
  | | |         1598: 22 00 e0 14 bc 0d 01 00 01 00 98 00 38 00 d7 14 ["...........8...]
  | | |         15a8: b7 0d 00 00 00 00 00 00 00 00 00 00 00 00 00 00 [................]
  | | |         15b8: 00 00                                           [..]
  | | | + [BinaryData directory, 34 bytes, Little-endian]
  | | | | SensorWidth = 5344
  | | | | - Tag 0x0001 (2 bytes, int16s[1]):
  | | | |     159a: e0 14                                           [..]
  | | | | SensorHeight = 3516
  | | | | - Tag 0x0002 (2 bytes, int16s[1]):
  | | | |     159c: bc 0d                                           [..]
  | | | | SensorLeftBorder = 152
  | | | | - Tag 0x0005 (2 bytes, int16s[1]):
  | | | |     15a2: 98 00                                           [..]
  | | | | SensorTopBorder = 56
  | | | | - Tag 0x0006 (2 bytes, int16s[1]):
  | | | |     15a4: 38 00                                           [8.]
  | | | | SensorRightBorder = 5335
  | | | | - Tag 0x0007 (2 bytes, int16s[1]):
  | | | |     15a6: d7 14                                           [..]
  | | | | SensorBottomBorder = 3511
  | | | | - Tag 0x0008 (2 bytes, int16s[1]):
  | | | |     15a8: b7 0d                                           [..]
  | | | | BlackMaskLeftBorder = 0
  | | | | - Tag 0x0009 (2 bytes, int16s[1]):
  | | | |     15aa: 00 00                                           [..]
  | | | | BlackMaskTopBorder = 0
  | | | | - Tag 0x000a (2 bytes, int16s[1]):
  | | | |     15ac: 00 00                                           [..]
  | | | | BlackMaskRightBorder = 0
  | | | | - Tag 0x000b (2 bytes, int16s[1]):
  | | | |     15ae: 00 00                                           [..]
  | | | | BlackMaskBottomBorder = 0
  | | | | - Tag 0x000c (2 bytes, int16s[1]):
  | | | |     15b0: 00 00                                           [..]
  | | | 27) ColorData4 (SubDirectory) -->
  | | |     - Tag 0x4001 (2692 bytes, int16u[1346] read as undef[2692]):
  | | |         15ba: 09 00 1b 03 00 04 00 04 7e 01 32 02 00 04 00 04 [........~.2.....]
  | | |         15ca: f8 01 83 01 00 04 00 04 cc 02 d9 04 3b 06 3a 06 [............;.:.]
  | | |         15da: 26 02 00 06 01 0b 01 0b 0d 05 68 02 76 06 76 06 [&.........h.v.v.]
  | | |         15ea: 44 04 fe ff 01 00 f3 00 f9 00 ee 00 00 00 9d 04 [D...............]
  | | |         15fa: 73 09 70 09 74 05 0d 02 a3 00 a1 00 19 00 4c 00 [s.p.t.........L.]
  | | |         160a: ce 01 cf 01 0e 03 94 04 cd 07 d1 07 92 01 52 04 [..............R.]
  | | |         161a: 11 09 0f 09 f8 04 0f 02 a6 00 a4 00 16 00 45 00 [..............E.]
  | | |         162a: bd 01 bc 01 e9 02 83 04 da 07 dc 07 69 01 4f 09 [............i.O.]
  | | |         163a: 00 04 00 04 ae 05 40 19 4f 09 00 04 00 04 ae 05 [......@.O.......]
  | | |         164a: 40 19 4d 09 ec 03 13 04 ad 05 40 19 f4 01 92 04 [@.M.......@.....]
  | | |         165a: 92 04 39 03 64 19 6e 08 00 04 00 04 79 06 50 14 [..9.d.n.....y.P.]
  | | |         166a: c7 09 00 04 00 04 7c 05 58 1b 15 09 00 04 00 04 [......|.X.......]
  | | |         167a: f0 05 70 17 f4 05 00 04 00 04 d9 09 80 0c 96 07 [..p.............]
  | | |         168a: 00 04 00 04 2f 09 df 0e 42 08 00 04 00 04 af 06 [..../...B.......]
  | | |         169a: 81 13 5f 09 00 04 00 04 e5 05 57 18 6e 08 00 04 [.._.......W.n...]
  | | |         16aa: 00 04 79 06 50 14 6e 08 00 04 00 04 79 06 50 14 [..y.P.n.....y.P.]
  | | |         16ba: 6e 08 00 04 00 04 79 06 50 14 6e 08 00 04 00 04 [n.....y.P.n.....]
  | | |         16ca: 79 06 50 14 6e 08 00 04 00 04 79 06 50 14 e9 03 [y.P.n.....y.P...]
  | | |         16da: 00 04 00 04 27 04 cf 0f e9 03 00 04 00 04 27 04 [....'.........'.]
  | | |         16ea: cf 0f e9 03 00 04 00 04 27 04 cf 0f e9 03 00 04 [........'.......]
  | | |         16fa: 00 04 27 04 cf 0f e9 03 00 04 00 04 27 04 cf 0f [..'.........'...]
  | | |         170a: c0 fe 6f 01 6f 03 94 2a d8 fe 7a 01 51 03 10 27 [..o.o..*..z.Q..']
  | | |         171a: 04 ff 8c 01 1b 03 6c 20 2f ff a3 01 eb 02 58 1b [......l /.....X.]
  | | |         172a: 67 ff c3 01 b2 02 70 17 82 ff d3 01 96 02 e0 15 [g.....p.........]
  | | |         173a: a1 ff e6 01 79 02 50 14 cf ff 00 02 49 02 5c 12 [....y.P.....I.\.]
  | | |         174a: 0a 00 27 02 18 02 68 10 41 00 51 02 ed 01 d8 0e [..'...h.A.Q.....]
  | | |         175a: 73 00 7a 02 c8 01 ac 0d b1 00 b0 02 a0 01 80 0c [s.z.............]
  | | |         176a: e2 00 db 02 7d 01 b8 0b 0d 01 0e 03 6a 01 f0 0a [....}.......j...]
  | | |         177a: 7a 01 97 03 38 01 60 09 f4 01 11 08 21 08 ff 07 [z...8.`.....!...]
  | | |         178a: ff 07 ff 07 ff 07 1a 00 19 00 18 00 1e 00 22 00 [..............".]
  | | |         179a: 27 00 29 00 2b 00 2e 00 2d 00 30 00 30 00 38 00 ['.).+...-.0.0.8.]
  | | |         17aa: 31 00 31 00 1d 00 16 00 17 00 1a 00 1f 00 24 00 [1.1...........$.]
  | | |         17ba: 24 00 26 00 24 00 29 00 2a 00 2b 00 30 00 35 00 [$.&.$.).*.+.0.5.]
  | | |         17ca: 3a 00 3d 00 2b 00 19 00 19 00 19 00 1c 00 22 00 [:.=.+.........".]
  | | |         17da: 21 00 25 00 20 00 25 00 25 00 2b 00 29 00 38 00 [!.%. .%.%.+.).8.]
  | | |         17ea: 31 00 40 00 2c 00 1b 00 18 00 18 00 1b 00 1f 00 [1.@.,...........]
  | | |         17fa: 22 00 22 00 27 00 26 00 29 00 2c 00 36 00 2b 00 [".".'.&.).,.6.+.]
  | | |         180a: 2f 00 3b 00 44 00 39 00 3a 00 38 00 46 00 51 00 [/.;.D.9.:.8.F.Q.]
  | | |         181a: 5b 00 61 00 66 00 6a 00 65 00 68 00 67 00 78 00 [[.a.f.j.e.h.g.x.]
  | | |         182a: 62 00 5e 00 29 00 34 00 38 00 3e 00 4b 00 56 00 [b.^.).4.8.>.K.V.]
  | | |         183a: 54 00 58 00 53 00 5b 00 5a 00 5c 00 68 00 72 00 [T.X.S.[.Z.\.h.r.]
  | | |         184a: 80 00 7f 00 48 00 3d 00 3c 00 3c 00 43 00 4d 00 [....H.=.<.<.C.M.]
  | | |         185a: 4a 00 52 00 45 00 4e 00 51 00 5e 00 5c 00 7a 00 [J.R.E.N.Q.^.\.z.]
  | | |         186a: 63 00 8c 00 51 00 42 00 3c 00 3b 00 40 00 45 00 [c...Q.B.<.;.@.E.]
  | | |         187a: 4c 00 4e 00 57 00 5a 00 60 00 64 00 7c 00 65 00 [L.N.W.Z.`.d.|.e.]
  | | |         188a: 6b 00 84 00 93 00 3a 00 38 00 34 00 3d 00 44 00 [k.....:.8.4.=.D.]
  | | |         189a: 4b 00 4e 00 51 00 52 00 4e 00 4f 00 4b 00 55 00 [K.N.Q.R.N.O.K.U.]
  | | |         18aa: 46 00 42 00 1f 00 34 00 38 00 3d 00 45 00 4b 00 [F.B...4.8.=.E.K.]
  | | |         18ba: 49 00 4b 00 46 00 4d 00 4a 00 49 00 4e 00 53 00 [I.K.F.M.J.I.N.S.]
  | | |         18ca: 5a 00 56 00 32 00 3f 00 3d 00 3b 00 40 00 48 00 [Z.V.2.?.=.;.@.H.]
  | | |         18da: 45 00 4b 00 40 00 46 00 44 00 4d 00 47 00 5c 00 [E.K.@.F.D.M.G.\.]
  | | |         18ea: 4e 00 5b 00 36 00 47 00 3f 00 3c 00 40 00 44 00 [N.[.6.G.?.<.@.D.]
  | | |         18fa: 4a 00 4a 00 52 00 50 00 52 00 53 00 62 00 4d 00 [J.J.R.P.R.S.b.M.]
  | | |         190a: 51 00 57 00 59 00 32 00 32 00 2e 00 34 00 39 00 [Q.W.Y.2.2...4.9.]
  | | |         191a: 3f 00 42 00 43 00 44 00 3e 00 3f 00 3c 00 44 00 [?.B.C.D.>.?.<.D.]
  | | |         192a: 36 00 32 00 12 00 2b 00 2d 00 30 00 35 00 39 00 [6.2...+.-.0.5.9.]
  | | |         193a: 37 00 38 00 34 00 37 00 34 00 34 00 39 00 3d 00 [7.8.4.7.4.4.9.=.]
  | | |         194a: 44 00 40 00 21 00 30 00 2f 00 2d 00 2f 00 30 00 [D.@.!.0./.-./.0.]
  | | |         195a: 2d 00 31 00 28 00 2b 00 2c 00 32 00 30 00 3e 00 [-.1.(.+.,.2.0.>.]
  | | |         196a: 30 00 43 00 23 00 31 00 2c 00 2b 00 2c 00 28 00 [0.C.#.1.,.+.,.(.]
  | | |         197a: 2b 00 2b 00 2f 00 30 00 31 00 32 00 3d 00 31 00 [+.+./.0.1.2.=.1.]
  | | |         198a: 33 00 3c 00 41 00 00 00 00 00 00 00 00 00 00 00 [3.<.A...........]
  | | |         199a: 00 00 00 00 00 00 00 00 00 00 00 00 00 00 00 00 [................]
  | | |         19aa: 00 00 00 00 00 00 00 00 00 00 00 00 00 00 00 00 [................]
  | | |         19ba: 00 00 00 00 00 00 00 00 00 00 00 00 00 00 00 00 [................]
  | | |         19ca: 00 00 00 00 00 00 00 00 00 00 00 00 00 00 00 00 [................]
  | | |         19da: 00 00 00 00 00 00 00 00 00 00 00 00 00 00 00 00 [................]
  | | |         19ea: 00 00 00 00 00 00 00 00 00 00 00 00 00 00 00 00 [................]
  | | |         19fa: 00 00 00 00 00 00 00 00 00 00 00 00 00 00 00 00 [................]
  | | |         1a0a: 00 00 00 00 00 00 26 00 32 00 3e 00 cc 02 e6 00 [......&.2.>.....]
  | | |         1a1a: e2 00 ea 00 98 00 b9 01 e2 00 3b 01 d8 00 47 00 [..........;...G.]
  | | |         1a2a: 46 00 bc 00 06 00 be 00 8e 01 ea 05 47 19 de 02 [F...........G...]
  | | |         1a3a: 1f 02 65 02 bf 01 6b 03 fb 01 7a 02 89 01 e5 00 [..e...k...z.....]
  | | |         1a4a: c6 00 3b 03 32 00 87 00 ac 01 19 07 ed 0a 57 00 [..;.2.........W.]
  | | |         1a5a: 50 00 47 00 45 00 99 00 2b 00 3c 00 2b 00 1d 00 [P.G.E...+.<.+...]
  | | |         1a6a: 1b 00 d3 00 17 00 22 0b 93 16 1e 2a 8f 24 8b 01 [......"....*.$..]
  | | |         1a7a: 34 01 45 01 c2 00 82 01 a3 00 da 00 8d 00 66 00 [4.E...........f.]
  | | |         1a8a: 58 00 40 02 ac 00 00 00 00 00 00 00 00 80 00 00 [X.@.............]
  | | |         1a9a: 00 04 00 04 00 04 b5 0a 03 0f 4b 1a 96 10 55 00 [..........K...U.]
  | | |         1aaa: 30 00 b4 0f 70 0f ac ff d1 ff 4f 10 00 00 ff 00 [0...p.....O.....]
  | | |         1aba: 03 00 9f e7 09 00 bc d9 0a 00 c3 4d 07 00 a3 62 [...........M...b]
  | | |         1aca: 00 04 00 04 00 00 00 04 00 00 00 00 00 00 00 00 [................]
  | | |         1ada: 00 00 ff 1f 00 01 ff 1f 00 01 00 00 00 00 00 02 [................]
  | | |         1aea: b0 02 bf 01 e9 01 9f 02 94 01 39 03 00 00 00 00 [..........9.....]
  | | |         1afa: 00 00 00 00 00 00 0f 00 f0 00 00 01 00 01 00 01 [................]
  | | |         1b0a: 00 01 00 01 00 01 00 00 0f 00 f0 00 00 01 00 01 [................]
  | | |         1b1a: 00 01 00 01 00 01 00 01 00 00 00 00 50 00 00 00 [............P...]
  | | |         1b2a: 00 00 10 00 20 00 40 00 60 00 80 00 c0 00 89 ff [.... .@.`.......]
  | | |         1b3a: a2 ff 9f ff 9f ff 9f ff 9f ff 9f ff 88 04 84 04 [................]
  | | |         1b4a: 85 04 85 04 85 04 85 04 85 04 88 04 00 00 fe 07 [................]
  | | |         1b5a: fe 07 00 08 00 08 f6 38 f6 3a 10 27 00 10 00 00 [.......8.:.'....]
  | | |         1b6a: 00 00 00 00 00 00 00 00 00 00 00 00 00 00 00 00 [................]
  | | |         1b7a: 00 00 00 00 00 00 00 00 00 00 00 00 00 00 00 00 [................]
  | | |         1b8a: 00 00 00 00 00 00 00 00 00 00 00 00 00 00 00 00 [................]
  | | |         1b9a: 00 00 00 00 00 00 00 00 00 00 00 00 00 00 00 00 [................]
  | | |         1baa: 00 00 00 00 00 00 00 00 00 00 00 00 00 00 00 00 [................]
  | | |         1bba: 00 00 00 00 00 00 00 00 00 00 00 00 00 00 00 00 [................]
  | | |         1bca: 00 00 00 00 00 00 00 00 00 00 00 00 00 00 00 00 [................]
  | | |         1bda: 00 00 00 00 00 00 00 00 00 00 00 00 00 00 00 00 [................]
  | | |         1bea: 00 00 00 00 00 00 00 00 00 00 00 00 00 00 00 00 [................]
  | | |         1bfa: 00 00 00 00 00 00 00 00 00 00 00 00 00 00 00 00 [................]
  | | |         1c0a: 00 00 00 00 00 00 00 00 00 00 00 00 00 00 00 00 [................]
  | | |         1c1a: 00 00 00 00 00 00 00 00 00 00 00 00 00 00 00 00 [................]
  | | |         1c2a: 00 00 00 00 00 00 00 00 00 00 00 00 00 00 00 00 [................]
  | | |         1c3a: 00 00 00 00 00 00 00 00 00 00 00 00 00 00 00 00 [................]
  | | |         1c4a: 00 00 00 00 00 00 00 00 00 00 00 00 00 00 00 00 [................]
  | | |         1c5a: 00 00 00 00 00 00 00 00 00 00 00 00 00 00 00 00 [................]
  | | |         1c6a: 00 00 00 00 00 00 00 00 00 00 00 00 00 00 00 00 [................]
  | | |         1c7a: 00 00 00 00 00 00 00 00 00 00 00 00 00 00 00 00 [................]
  | | |         1c8a: 00 00 00 00 00 00 00 00 00 00 00 00 00 00 00 00 [................]
  | | |         1c9a: 00 00 00 00 00 00 00 00 00 00 00 00 00 00 00 00 [................]
  | | |         1caa: 00 00 00 00 00 00 00 00 00 00 00 00 00 00 00 00 [................]
  | | |         1cba: 00 00 00 00 00 00 00 00 00 00 00 00 00 00 00 00 [................]
  | | |         1cca: 00 00 00 00 00 00 00 00 00 00 00 00 00 00 00 00 [................]
  | | |         1cda: 00 00 00 00 00 00 00 00 00 00 00 00 00 00 00 00 [................]
  | | |         1cea: 00 00 00 00 00 00 00 00 00 00 00 00 00 00 00 00 [................]
  | | |         1cfa: 00 00 00 00 00 00 00 00 00 00 00 00 00 00 00 00 [................]
  | | |         1d0a: 00 00 00 00 00 00 00 00 00 00 00 00 00 00 00 00 [................]
  | | |         1d1a: 00 00 00 00 00 00 00 00 00 00 00 00 00 00 00 00 [................]
  | | |         1d2a: 00 00 00 00 00 00 00 00 00 00 00 00 00 00 00 00 [................]
  | | |         1d3a: 00 00 00 00 00 00 00 00 00 00 00 00 00 00 00 00 [................]
  | | |         1d4a: 00 00 00 00 00 00 00 00 00 00 00 00 00 00 00 00 [................]
  | | |         1d5a: 00 00 00 00 00 00 00 00 00 00 00 00 00 00 00 00 [................]
  | | |         1d6a: 00 00 00 00 00 00 00 00 00 00 00 00 00 00 00 00 [................]
  | | |         1d7a: 00 00 00 00 00 00 00 00 00 00 00 00 00 00 00 00 [................]
  | | |         1d8a: 00 00 00 00 00 00 00 00 00 00 00 00 00 00 00 00 [................]
  | | |         1d9a: 00 00 00 00 00 00 00 00 00 00 00 00 00 00 00 00 [................]
  | | |         [snip 660 bytes]
  | | | + [BinaryData directory, 2692 bytes, Little-endian]
  | | | | ColorDataVersion = 9
  | | | | - Tag 0x0000 (2 bytes, int16s[1]):
  | | | |     15ba: 09 00                                           [..]
  | | | | ColorCoefs (SubDirectory) -->
  | | | | - Tag 0x003f (210 bytes, undef[210]):
  | | | |     1638: 4f 09 00 04 00 04 ae 05 40 19 4f 09 00 04 00 04 [O.......@.O.....]
  | | | |     1648: ae 05 40 19 4d 09 ec 03 13 04 ad 05 40 19 f4 01 [..@.M.......@...]
  | | | |     1658: 92 04 92 04 39 03 64 19 6e 08 00 04 00 04 79 06 [....9.d.n.....y.]
  | | | |     1668: 50 14 c7 09 00 04 00 04 7c 05 58 1b 15 09 00 04 [P.......|.X.....]
  | | | |     1678: 00 04 f0 05 70 17 f4 05 00 04 00 04 d9 09 80 0c [....p...........]
  | | | |     1688: 96 07 00 04 00 04 2f 09 df 0e 42 08 00 04 00 04 [....../...B.....]
  | | | |     1698: af 06 81 13 5f 09 00 04 00 04 e5 05 57 18 6e 08 [...._.......W.n.]
  | | | |     16a8: 00 04 00 04 79 06 50 14 6e 08 00 04 00 04 79 06 [....y.P.n.....y.]
  | | | |     16b8: 50 14 6e 08 00 04 00 04 79 06 50 14 6e 08 00 04 [P.n.....y.P.n...]
  | | | |     16c8: 00 04 79 06 50 14 6e 08 00 04 00 04 79 06 50 14 [..y.P.n.....y.P.]
  | | | |     16d8: e9 03 00 04 00 04 27 04 cf 0f e9 03 00 04 00 04 [......'.........]
  | | | |     16e8: 27 04 cf 0f e9 03 00 04 00 04 27 04 cf 0f e9 03 ['.........'.....]
  | | | |     16f8: 00 04 00 04 27 04 cf 0f e9 03 00 04 00 04 27 04 [....'.........'.]
  | | | |     1708: cf 0f                                           [..]
  | | | | + [BinaryData directory, 210 bytes, Little-endian]
  | | | | | WB_RGGBLevelsAsShot = 2383 1024 1024 1454
  | | | | | - Tag 0x0000 (8 bytes, int16s[4]):
  | | | | |     1638: 4f 09 00 04 00 04 ae 05                         [O.......]
  | | | | | ColorTempAsShot = 6464
  | | | | | - Tag 0x0004 (2 bytes, int16s[1]):
  | | | | |     1640: 40 19                                           [@.]
  | | | | | WB_RGGBLevelsAuto = 2383 1024 1024 1454
  | | | | | - Tag 0x0005 (8 bytes, int16s[4]):
  | | | | |     1642: 4f 09 00 04 00 04 ae 05                         [O.......]
  | | | | | ColorTempAuto = 6464
  | | | | | - Tag 0x0009 (2 bytes, int16s[1]):
  | | | | |     164a: 40 19                                           [@.]
  | | | | | WB_RGGBLevelsMeasured = 2381 1004 1043 1453
  | | | | | - Tag 0x000a (8 bytes, int16s[4]):
  | | | | |     164c: 4d 09 ec 03 13 04 ad 05                         [M.......]
  | | | | | ColorTempMeasured = 6464
  | | | | | - Tag 0x000e (2 bytes, int16s[1]):
  | | | | |     1654: 40 19                                           [@.]
  | | | | | WB_RGGBLevelsUnknown = 500 1170 1170 825
  | | | | | - Tag 0x000f (8 bytes, int16s[4]):
  | | | | |     1656: f4 01 92 04 92 04 39 03                         [......9.]
  | | | | | ColorTempUnknown = 6500
  | | | | | - Tag 0x0013 (2 bytes, int16s[1]):
  | | | | |     165e: 64 19                                           [d.]
  | | | | | WB_RGGBLevelsDaylight = 2158 1024 1024 1657
  | | | | | - Tag 0x0014 (8 bytes, int16s[4]):
  | | | | |     1660: 6e 08 00 04 00 04 79 06                         [n.....y.]
  | | | | | ColorTempDaylight = 5200
  | | | | | - Tag 0x0018 (2 bytes, int16s[1]):
  | | | | |     1668: 50 14                                           [P.]
  | | | | | WB_RGGBLevelsShade = 2503 1024 1024 1404
  | | | | | - Tag 0x0019 (8 bytes, int16s[4]):
  | | | | |     166a: c7 09 00 04 00 04 7c 05                         [......|.]
  | | | | | ColorTempShade = 7000
  | | | | | - Tag 0x001d (2 bytes, int16s[1]):
  | | | | |     1672: 58 1b                                           [X.]
  | | | | | WB_RGGBLevelsCloudy = 2325 1024 1024 1520
  | | | | | - Tag 0x001e (8 bytes, int16s[4]):
  | | | | |     1674: 15 09 00 04 00 04 f0 05                         [........]
  | | | | | ColorTempCloudy = 6000
  | | | | | - Tag 0x0022 (2 bytes, int16s[1]):
  | | | | |     167c: 70 17                                           [p.]
  | | | | | WB_RGGBLevelsTungsten = 1524 1024 1024 2521
  | | | | | - Tag 0x0023 (8 bytes, int16s[4]):
  | | | | |     167e: f4 05 00 04 00 04 d9 09                         [........]
  | | | | | ColorTempTungsten = 3200
  | | | | | - Tag 0x0027 (2 bytes, int16s[1]):
  | | | | |     1686: 80 0c                                           [..]
  | | | | | WB_RGGBLevelsFluorescent = 1942 1024 1024 2351
  | | | | | - Tag 0x0028 (8 bytes, int16s[4]):
  | | | | |     1688: 96 07 00 04 00 04 2f 09                         [....../.]
  | | | | | ColorTempFluorescent = 3807
  | | | | | - Tag 0x002c (2 bytes, int16s[1]):
  | | | | |     1690: df 0e                                           [..]
  | | | | | WB_RGGBLevelsKelvin = 2114 1024 1024 1711
  | | | | | - Tag 0x002d (8 bytes, int16s[4]):
  | | | | |     1692: 42 08 00 04 00 04 af 06                         [B.......]
  | | | | | ColorTempKelvin = 4993
  | | | | | - Tag 0x0031 (2 bytes, int16s[1]):
  | | | | |     169a: 81 13                                           [..]
  | | | | | WB_RGGBLevelsFlash = 2399 1024 1024 1509
  | | | | | - Tag 0x0032 (8 bytes, int16s[4]):
  | | | | |     169c: 5f 09 00 04 00 04 e5 05                         [_.......]
  | | | | | ColorTempFlash = 6231
  | | | | | - Tag 0x0036 (2 bytes, int16s[1]):
  | | | | |     16a4: 57 18                                           [W.]
  | | | | | WB_RGGBLevelsUnknown2 = 2158 1024 1024 1657
  | | | | | - Tag 0x0037 (8 bytes, int16s[4]):
  | | | | |     16a6: 6e 08 00 04 00 04 79 06                         [n.....y.]
  | | | | | ColorTempUnknown2 = 5200
  | | | | | - Tag 0x003b (2 bytes, int16s[1]):
  | | | | |     16ae: 50 14                                           [P.]
  | | | | | WB_RGGBLevelsUnknown3 = 2158 1024 1024 1657
  | | | | | - Tag 0x003c (8 bytes, int16s[4]):
  | | | | |     16b0: 6e 08 00 04 00 04 79 06                         [n.....y.]
  | | | | | ColorTempUnknown3 = 5200
  | | | | | - Tag 0x0040 (2 bytes, int16s[1]):
  | | | | |     16b8: 50 14                                           [P.]
  | | | | | WB_RGGBLevelsUnknown4 = 2158 1024 1024 1657
  | | | | | - Tag 0x0041 (8 bytes, int16s[4]):
  | | | | |     16ba: 6e 08 00 04 00 04 79 06                         [n.....y.]
  | | | | | ColorTempUnknown4 = 5200
  | | | | | - Tag 0x0045 (2 bytes, int16s[1]):
  | | | | |     16c2: 50 14                                           [P.]
  | | | | | WB_RGGBLevelsUnknown5 = 2158 1024 1024 1657
  | | | | | - Tag 0x0046 (8 bytes, int16s[4]):
  | | | | |     16c4: 6e 08 00 04 00 04 79 06                         [n.....y.]
  | | | | | ColorTempUnknown5 = 5200
  | | | | | - Tag 0x004a (2 bytes, int16s[1]):
  | | | | |     16cc: 50 14                                           [P.]
  | | | | | WB_RGGBLevelsUnknown6 = 2158 1024 1024 1657
  | | | | | - Tag 0x004b (8 bytes, int16s[4]):
  | | | | |     16ce: 6e 08 00 04 00 04 79 06                         [n.....y.]
  | | | | | ColorTempUnknown6 = 5200
  | | | | | - Tag 0x004f (2 bytes, int16s[1]):
  | | | | |     16d6: 50 14                                           [P.]
  | | | | | WB_RGGBLevelsUnknown7 = 1001 1024 1024 1063
  | | | | | - Tag 0x0050 (8 bytes, int16s[4]):
  | | | | |     16d8: e9 03 00 04 00 04 27 04                         [......'.]
  | | | | | ColorTempUnknown7 = 4047
  | | | | | - Tag 0x0054 (2 bytes, int16s[1]):
  | | | | |     16e0: cf 0f                                           [..]
  | | | | | WB_RGGBLevelsUnknown8 = 1001 1024 1024 1063
  | | | | | - Tag 0x0055 (8 bytes, int16s[4]):
  | | | | |     16e2: e9 03 00 04 00 04 27 04                         [......'.]
  | | | | | ColorTempUnknown8 = 4047
  | | | | | - Tag 0x0059 (2 bytes, int16s[1]):
  | | | | |     16ea: cf 0f                                           [..]
  | | | | | WB_RGGBLevelsUnknown9 = 1001 1024 1024 1063
  | | | | | - Tag 0x005a (8 bytes, int16s[4]):
  | | | | |     16ec: e9 03 00 04 00 04 27 04                         [......'.]
  | | | | | ColorTempUnknown9 = 4047
  | | | | | - Tag 0x005e (2 bytes, int16s[1]):
  | | | | |     16f4: cf 0f                                           [..]
  | | | | | WB_RGGBLevelsUnknown10 = 1001 1024 1024 1063
  | | | | | - Tag 0x005f (8 bytes, int16s[4]):
  | | | | |     16f6: e9 03 00 04 00 04 27 04                         [......'.]
  | | | | | ColorTempUnknown10 = 4047
  | | | | | - Tag 0x0063 (2 bytes, int16s[1]):
  | | | | |     16fe: cf 0f                                           [..]
  | | | | | WB_RGGBLevelsUnknown11 = 1001 1024 1024 1063
  | | | | | - Tag 0x0064 (8 bytes, int16s[4]):
  | | | | |     1700: e9 03 00 04 00 04 27 04                         [......'.]
  | | | | | ColorTempUnknown11 = 4047
  | | | | | - Tag 0x0068 (2 bytes, int16s[1]):
  | | | | |     1708: cf 0f                                           [..]
  | | | | ColorCalib (SubDirectory) -->
  | | | | - Tag 0x00a8 (120 bytes, undef[120]):
  | | | |     170a: c0 fe 6f 01 6f 03 94 2a d8 fe 7a 01 51 03 10 27 [..o.o..*..z.Q..']
  | | | |     171a: 04 ff 8c 01 1b 03 6c 20 2f ff a3 01 eb 02 58 1b [......l /.....X.]
  | | | |     172a: 67 ff c3 01 b2 02 70 17 82 ff d3 01 96 02 e0 15 [g.....p.........]
  | | | |     173a: a1 ff e6 01 79 02 50 14 cf ff 00 02 49 02 5c 12 [....y.P.....I.\.]
  | | | |     174a: 0a 00 27 02 18 02 68 10 41 00 51 02 ed 01 d8 0e [..'...h.A.Q.....]
  | | | |     175a: 73 00 7a 02 c8 01 ac 0d b1 00 b0 02 a0 01 80 0c [s.z.............]
  | | | |     176a: e2 00 db 02 7d 01 b8 0b 0d 01 0e 03 6a 01 f0 0a [....}.......j...]
  | | | |     177a: 7a 01 97 03 38 01 60 09                         [z...8.`.]
  | | | | + [BinaryData directory, 120 bytes, Little-endian]
  | | | | | CameraColorCalibration01 = -320 367 879 10900
  | | | | | - Tag 0x0000 (8 bytes, int16s[4]):
  | | | | |     170a: c0 fe 6f 01 6f 03 94 2a                         [..o.o..*]
  | | | | | CameraColorCalibration02 = -296 378 849 10000
  | | | | | - Tag 0x0004 (8 bytes, int16s[4]):
  | | | | |     1712: d8 fe 7a 01 51 03 10 27                         [..z.Q..']
  | | | | | CameraColorCalibration03 = -252 396 795 8300
  | | | | | - Tag 0x0008 (8 bytes, int16s[4]):
  | | | | |     171a: 04 ff 8c 01 1b 03 6c 20                         [......l ]
  | | | | | CameraColorCalibration04 = -209 419 747 7000
  | | | | | - Tag 0x000c (8 bytes, int16s[4]):
  | | | | |     1722: 2f ff a3 01 eb 02 58 1b                         [/.....X.]
  | | | | | CameraColorCalibration05 = -153 451 690 6000
  | | | | | - Tag 0x0010 (8 bytes, int16s[4]):
  | | | | |     172a: 67 ff c3 01 b2 02 70 17                         [g.....p.]
  | | | | | CameraColorCalibration06 = -126 467 662 5600
  | | | | | - Tag 0x0014 (8 bytes, int16s[4]):
  | | | | |     1732: 82 ff d3 01 96 02 e0 15                         [........]
  | | | | | CameraColorCalibration07 = -95 486 633 5200
  | | | | | - Tag 0x0018 (8 bytes, int16s[4]):
  | | | | |     173a: a1 ff e6 01 79 02 50 14                         [....y.P.]
  | | | | | CameraColorCalibration08 = -49 512 585 4700
  | | | | | - Tag 0x001c (8 bytes, int16s[4]):
  | | | | |     1742: cf ff 00 02 49 02 5c 12                         [....I.\.]
  | | | | | CameraColorCalibration09 = 10 551 536 4200
  | | | | | - Tag 0x0020 (8 bytes, int16s[4]):
  | | | | |     174a: 0a 00 27 02 18 02 68 10                         [..'...h.]
  | | | | | CameraColorCalibration10 = 65 593 493 3800
  | | | | | - Tag 0x0024 (8 bytes, int16s[4]):
  | | | | |     1752: 41 00 51 02 ed 01 d8 0e                         [A.Q.....]
  | | | | | CameraColorCalibration11 = 115 634 456 3500
  | | | | | - Tag 0x0028 (8 bytes, int16s[4]):
  | | | | |     175a: 73 00 7a 02 c8 01 ac 0d                         [s.z.....]
  | | | | | CameraColorCalibration12 = 177 688 416 3200
  | | | | | - Tag 0x002c (8 bytes, int16s[4]):
  | | | | |     1762: b1 00 b0 02 a0 01 80 0c                         [........]
  | | | | | CameraColorCalibration13 = 226 731 381 3000
  | | | | | - Tag 0x0030 (8 bytes, int16s[4]):
  | | | | |     176a: e2 00 db 02 7d 01 b8 0b                         [....}...]
  | | | | | CameraColorCalibration14 = 269 782 362 2800
  | | | | | - Tag 0x0034 (8 bytes, int16s[4]):
  | | | | |     1772: 0d 01 0e 03 6a 01 f0 0a                         [....j...]
  | | | | | CameraColorCalibration15 = 378 919 312 2400
  | | | | | - Tag 0x0038 (8 bytes, int16s[4]):
  | | | | |     177a: 7a 01 97 03 38 01 60 09                         [z...8.`.]
  | | | | AverageBlackLevel = 2047 2047 2047 2047
  | | | | - Tag 0x00e7 (8 bytes, int16u[4]):
  | | | |     1788: ff 07 ff 07 ff 07 ff 07                         [........]
  | | | | FlashOutput = 0
  | | | | - Tag 0x026b (2 bytes, int16s[1]):
  | | | |     1a90: 00 00                                           [..]
  | | | | FlashBatteryLevel = 0
  | | | | - Tag 0x026c (2 bytes, int16s[1]):
  | | | |     1a92: 00 00                                           [..]
  | | | | RawMeasuredRGGB = 3885957123 3652976649 1304625162 1654849543
  | | | | - Tag 0x0280 (16 bytes, int32u[4]):
  | | | |     1aba: 03 00 9f e7 09 00 bc d9 0a 00 c3 4d 07 00 a3 62 [...........M...b]
  | | | | PerChannelBlackLevel = 2046 2046 2048 2048
  | | | | - Tag 0x02cf (8 bytes, int16u[4]):
  | | | |     1b58: fe 07 fe 07 00 08 00 08                         [........]
  | | | | NormalWhiteLevel = 14582
  | | | | - Tag 0x02d3 (2 bytes, int16u[1]):
  | | | |     1b60: f6 38                                           [.8]
  | | | | SpecularWhiteLevel = 15094
  | | | | - Tag 0x02d4 (2 bytes, int16u[1]):
  | | | |     1b62: f6 3a                                           [.:]
  | | | | LinearityUpperMargin = 10000
  | | | | - Tag 0x02d5 (2 bytes, int16u[1]):
  | | | |     1b64: 10 27                                           [.']
  | | | 28) CRWParam = .Q. ...............p....r..f..........@@@.}.x......M..xN.g.1...iv"....2....1.......0..&...t0..,.E._0..0.vI.p.8...h(.....1....0.....n0.....E0...........3.::.1...   ..Pgd4!""".H....Ff....B..P.p......w..(..D.....w..(..B.....wh...*.....p@..(.....Z......Z...... ........:.........u......... ..................P. ...   ........ ........`s/&&......d......`s/&&......d.....@.@...p.qXrd.........h...*.....p@..(.....Z... ...........d8.X.H.)`1...d8.X.H.)`1.@.@..d8.X.H.)`1..d8.X.H.)`1....................P.33...............??8w;.3......h`h....H.HMPUX]`ehmpux..`em.HhHILNQUY\^^^H\^dltv|.H\^dlqv|.H\^dlqv|.H\^dlqv|.H\^dlqv|.hpdyH\^dlqv|.X`pHKX`ehmu...PX`hkmpu...hpx..............................................................................................................................................................................................................................................................................................................................................................................................................................................................................................................................................................................................................................................................................................................................................................................................................................................................................................................................................................................................................................................................................................................................................................................................................................................................................................................................................................................................................................................[snip]
  | | |     - Tag 0x4002 (20916 bytes, int16u[10458] read as undef[20916]):
  | | |         203e: b4 51 06 20 00 00 00 00 00 00 19 06 ff ff 00 ff [.Q. ............]
  | | |         204e: 00 a4 11 05 ff ff 90 01 10 01 01 70 ed 03 9c 0f [...........p....]
  | | |         205e: 72 01 8e 00 66 00 9a 01 c5 0e e1 0b 00 00 94 94 [r...f...........]
  | | |         206e: 93 98 40 00 40 00 40 00 00 00 a9 7d 98 78 0f a0 [..@.@.@....}.x..]
  | | |         207e: 00 00 00 00 80 0f b3 01 4d 00 80 03 78 00 4e 02 [........M...x.N.]
  | | |         208e: 67 01 00 00 31 01 b9 01 69 00 76 22 ad 01 a5 00 [g...1...i.v"....]
  | | |         209e: a4 32 ca 01 db 00 85 31 df 01 08 01 fb 04 a5 30 [.2.....1.......0]
  | | |         20ae: ef 01 26 01 aa 05 74 30 f8 01 2c 01 45 06 5f 30 [..&...t0..,.E._0]
  | | |         20be: f6 01 30 01 00 00 76 00 49 02 70 07 00 00 38 01 [..0...v.I.p...8.]
  | | |         20ce: b4 07 68 00 28 11 cd 07 a5 00 d6 31 cc 07 d3 00 [..h.(......1....]
  | | |         20de: af 30 f0 07 ef 00 1a 04 6e 30 f6 07 f7 00 eb 04 [.0......n0......]
  | | |         20ee: 45 30 fd 07 fc 00 10 04 10 04 10 07 00 00 11 00 [E0..............]
  | | |         20fe: 13 00 33 05 3a 00 3a 00 80 00 31 03 08 00 12 00 [..3.:.:...1.....]
  | | |         210e: 00 00 20 00 20 00 20 00 00 00 01 00 00 00 02 00 [.. . . .........]
  | | |         211e: 50 00 67 64 34 21 00 22 00 22 00 22 00 00 01 00 [P.gd4!."."."....]
  | | |         212e: 48 00 a1 00 18 00 00 00 00 00 00 00 00 00 00 00 [H...............]
  | | |         213e: 00 00 00 00 04 1c 46 66 ec 88 1e 00 00 00 ff 42 [......Ff.......B]
  | | |         214e: 00 00 00 0b 00 08 50 07 70 04 0c 00 0a 00 1e 00 [......P.p.......]
  | | |         215e: 09 00 1b 00 77 00 0c 00 0a 00 28 00 05 00 14 00 [....w.....(.....]
  | | |         216e: 44 00 0c 00 0a 00 1e 00 09 00 1b 00 77 00 0c 00 [D...........w...]
  | | |         217e: 10 00 28 00 04 00 10 00 42 00 0c 00 0a 00 1e 00 [..(.....B.......]
  | | |         218e: 09 00 1b 00 77 00 68 00 b8 01 a1 00 2a 00 0f 01 [....w.h.....*...]
  | | |         219e: 1f 07 01 00 70 00 40 01 83 00 28 00 0d 0e 1b 07 [....p.@...(.....]
  | | |         21ae: 01 00 5a 00 00 00 00 00 00 00 00 00 00 00 00 00 [..Z.............]
  | | |         21be: 00 00 00 00 00 00 00 00 00 00 00 00 00 00 00 00 [................]
  | | |         21ce: 00 00 00 00 00 00 00 00 00 00 00 00 00 00 00 00 [................]
  | | |         21de: 00 00 00 00 00 00 00 00 00 00 00 00 00 00 00 00 [................]
  | | |         21ee: 00 00 00 00 00 00 00 00 00 00 00 00 00 00 00 00 [................]
  | | |         21fe: 00 00 00 00 00 00 00 00 00 00 00 00 00 00 00 00 [................]
  | | |         220e: 00 00 00 00 01 00 00 00 00 00 90 01 a0 00 0a 19 [................]
  | | |         221e: 5a 04 00 00 00 00 00 00 00 00 00 00 00 00 00 00 [Z...............]
  | | |         222e: 00 00 00 00 00 00 00 00 00 00 00 01 00 00 01 00 [................]
  | | |         223e: 00 00 00 00 00 00 00 00 00 00 01 01 00 01 20 00 [.............. .]
  | | |         224e: 01 11 00 01 00 01 00 00 01 00 00 00 aa 0e aa 3a [...............:]
  | | |         225e: 16 16 07 00 a8 02 90 01 04 02 75 06 01 00 10 01 [..........u.....]
  | | |         226e: ff 01 ff 01 0a 20 00 00 00 00 00 00 00 00 00 00 [..... ..........]
  | | |         227e: 00 00 00 00 00 01 00 00 04 01 04 04 c4 05 c4 07 [................]
  | | |         228e: c4 09 0c 0e 08 04 04 04 04 50 03 00 20 00 00 00 [.........P.. ...]
  | | |         229e: 00 00 00 00 00 00 00 00 00 00 00 00 00 00 00 00 [................]
  | | |         22ae: 00 00 00 00 00 00 00 00 00 00 00 00 00 00 00 00 [................]
  | | |         22be: 00 00 00 00 00 00 00 00 03 00 00 00 00 10 15 00 [................]
  | | |         22ce: 20 00 20 00 20 00 00 08 00 08 00 00 00 08 00 08 [ . . ...........]
  | | |         22de: 00 08 00 08 08 18 20 08 10 06 08 04 04 02 80 00 [...... .........]
  | | |         22ee: 60 73 2f 26 26 14 00 01 c3 01 a8 02 64 03 b1 03 [`s/&&.......d...]
  | | |         22fe: d8 03 80 00 60 73 2f 26 26 14 00 01 c3 01 a8 02 [....`s/&&.......]
  | | |         230e: 64 03 b1 03 d8 03 40 0c 40 0c 03 00 1e 70 90 71 [d.....@.@....p.q]
  | | |         231e: 58 72 64 80 02 00 04 12 0a 00 10 00 13 00 1f 00 [Xrd.............]
  | | |         232e: ff 00 68 00 b8 01 a1 00 2a 00 0f 01 1f 07 01 00 [..h.....*.......]
  | | |         233e: 70 00 40 01 83 00 28 00 0d 0e 1b 07 01 00 5a 00 [p.@...(.......Z.]
  | | |         234e: 00 08 08 18 20 08 10 06 08 04 04 02 10 01 11 01 [.... ...........]
  | | |         235e: 64 38 9c 58 c8 48 10 29 60 31 00 00 00 00 ff ff [d8.X.H.)`1......]
  | | |         236e: 00 00 00 00 03 00 64 38 9c 58 c8 48 10 29 60 31 [......d8.X.H.)`1]
  | | |         237e: c8 00 40 00 c8 00 40 00 03 03 64 38 9c 58 c8 48 [..@...@...d8.X.H]
  | | |         238e: 10 29 60 31 00 00 03 03 64 38 9c 58 c8 48 10 29 [.)`1....d8.X.H.)]
  | | |         239e: 60 31 00 00 03 00 ff 0f 04 01 04 04 c4 05 c4 07 [`1..............]
  | | |         23ae: c4 09 0c 0e 08 04 04 04 04 50 00 00 00 01 33 33 [.........P....33]
  | | |         23be: 01 00 06 06 01 04 02 01 7f 01 00 02 00 02 00 02 [................]
  | | |         23ce: 11 01 80 00 00 3f 3f 38 77 3b b2 33 e5 13 f8 07 [.....??8w;.3....]
  | | |         23de: ff 00 00 00 00 00 00 00 00 00 00 00 00 00 00 00 [................]
  | | |         23ee: 00 00 00 00 00 00 00 00 00 00 00 00 00 00 00 00 [................]
  | | |         23fe: 00 00 00 00 00 00 00 00 00 00 00 00 00 00 00 00 [................]
  | | |         240e: 00 00 00 00 00 00 00 00 00 00 00 00 00 00 00 00 [................]
  | | |         241e: 00 00 00 00 00 00 00 00 00 00 00 00 00 00 00 00 [................]
  | | |         242e: 00 00 0d 00 68 00 60 00 68 00 80 0c c0 12 48 00 [....h.`.h.....H.]
  | | |         243e: 00 00 96 00 48 00 4d 00 50 00 55 00 58 00 5d 00 [....H.M.P.U.X.].]
  | | |         244e: 60 00 65 00 68 00 6d 00 70 00 75 00 78 00 88 00 [`.e.h.m.p.u.x...]
  | | |         245e: 88 00 60 00 65 00 6d 00 80 00 48 00 68 00 48 00 [..`.e.m...H.h.H.]
  | | |         246e: 49 00 4c 00 4e 00 51 00 55 00 59 00 5c 00 5e 00 [I.L.N.Q.U.Y.\.^.]
  | | |         247e: 5e 00 5e 00 48 00 5c 00 5e 00 64 00 6c 00 74 00 [^.^.H.\.^.d.l.t.]
  | | |         248e: 76 00 7c 00 81 00 48 00 5c 00 5e 00 64 00 6c 00 [v.|...H.\.^.d.l.]
  | | |         249e: 71 00 76 00 7c 00 81 00 48 00 5c 00 5e 00 64 00 [q.v.|...H.\.^.d.]
  | | |         24ae: 6c 00 71 00 76 00 7c 00 81 00 48 00 5c 00 5e 00 [l.q.v.|...H.\.^.]
  | | |         24be: 64 00 6c 00 71 00 76 00 7c 00 81 00 48 00 5c 00 [d.l.q.v.|...H.\.]
  | | |         24ce: 5e 00 64 00 6c 00 71 00 76 00 7c 00 81 00 68 00 [^.d.l.q.v.|...h.]
  | | |         24de: 70 00 64 00 79 00 48 00 5c 00 5e 00 64 00 6c 00 [p.d.y.H.\.^.d.l.]
  | | |         24ee: 71 00 76 00 7c 00 81 00 58 00 60 00 70 00 48 00 [q.v.|...X.`.p.H.]
  | | |         24fe: 4b 00 58 00 60 00 65 00 68 00 6d 00 75 00 80 00 [K.X.`.e.h.m.u...]
  | | |         250e: 80 00 80 00 50 00 58 00 60 00 68 00 6b 00 6d 00 [....P.X.`.h.k.m.]
  | | |         251e: 70 00 75 00 80 00 80 00 80 00 68 00 70 00 78 00 [p.u.......h.p.x.]
  | | |         252e: 80 00 00 00 00 00 00 00 01 00 01 00 00 00 00 00 [................]
  | | |         253e: 01 00 02 00 03 00 04 00 00 00 00 00 00 00 00 00 [................]
  | | |         254e: 00 00 02 00 02 00 01 00 01 00 02 00 02 00 01 00 [................]
  | | |         255e: 01 00 02 00 02 00 01 00 01 00 02 00 02 00 01 00 [................]
  | | |         256e: 01 00 02 00 02 00 01 00 01 00 01 00 01 00 01 00 [................]
  | | |         257e: 01 00 01 00 01 00 01 00 01 00 00 00 01 00 02 00 [................]
  | | |         258e: 03 00 04 00 05 00 06 00 07 00 00 00 01 00 02 00 [................]
  | | |         259e: 03 00 04 00 05 00 06 00 07 00 00 00 01 00 02 00 [................]
  | | |         25ae: 03 00 04 00 05 00 06 00 07 00 00 00 01 00 02 00 [................]
  | | |         25be: 03 00 04 00 05 00 06 00 07 00 00 00 01 00 02 00 [................]
  | | |         25ce: 03 00 04 00 05 00 06 00 07 00 00 00 01 00 02 00 [................]
  | | |         25de: 03 00 04 00 05 00 06 00 07 00 00 00 01 00 02 00 [................]
  | | |         25ee: 03 00 04 00 05 00 06 00 07 00 00 00 01 00 02 00 [................]
  | | |         25fe: 03 00 04 00 05 00 06 00 07 00 00 00 01 00 02 00 [................]
  | | |         260e: 03 00 04 00 05 00 06 00 07 00 08 00 09 00 0a 00 [................]
  | | |         261e: 0b 00 0c 00 0d 00 0e 00 0f 00 08 00 09 00 0a 00 [................]
  | | |         262e: 0b 00 0c 00 0d 00 0e 00 0f 00 08 00 09 00 0a 00 [................]
  | | |         263e: 0b 00 0c 00 0d 00 0e 00 0f 00 08 00 09 00 0a 00 [................]
  | | |         264e: 0b 00 0c 00 0d 00 0e 00 0f 00 08 00 09 00 0a 00 [................]
  | | |         265e: 0b 00 0c 00 0d 00 0e 00 0f 00 08 00 09 00 0a 00 [................]
  | | |         266e: 0b 00 0c 00 0d 00 0e 00 0f 00 00 00 01 00 02 00 [................]
  | | |         267e: 00 00 01 00 02 00 00 00 01 00 02 00 00 00 01 00 [................]
  | | |         268e: 02 00 00 00 01 00 02 00 00 00 0a 00 01 00 01 00 [................]
  | | |         269e: 00 00 0a 00 01 00 01 00 00 00 0b 00 02 00 02 00 [................]
  | | |         26ae: 13 00 0c 00 03 00 03 00 14 00 0d 00 04 00 04 00 [................]
  | | |         26be: 15 00 0e 00 05 00 05 00 16 00 0f 00 06 00 06 00 [................]
  | | |         26ce: 17 00 10 00 07 00 07 00 18 00 11 00 08 00 08 00 [................]
  | | |         26de: 19 00 12 00 09 00 09 00 19 00 12 00 09 00 09 00 [................]
  | | |         26ee: 19 00 12 00 09 00 09 00 00 00 0a 00 01 00 01 00 [................]
  | | |         26fe: 00 00 0a 00 01 00 01 00 00 00 0b 00 02 00 02 00 [................]
  | | |         270e: 13 00 0c 00 03 00 03 00 14 00 0d 00 04 00 04 00 [................]
  | | |         271e: 15 00 0e 00 05 00 05 00 16 00 0f 00 06 00 06 00 [................]
  | | |         272e: 17 00 10 00 07 00 07 00 18 00 11 00 08 00 08 00 [................]
  | | |         273e: 19 00 12 00 09 00 09 00 19 00 12 00 09 00 09 00 [................]
  | | |         274e: 19 00 12 00 09 00 09 00 00 00 0a 00 01 00 01 00 [................]
  | | |         275e: 00 00 0a 00 01 00 01 00 00 00 0b 00 02 00 02 00 [................]
  | | |         276e: 13 00 0c 00 03 00 03 00 14 00 0d 00 04 00 04 00 [................]
  | | |         277e: 15 00 0e 00 05 00 05 00 16 00 0f 00 06 00 06 00 [................]
  | | |         278e: 17 00 10 00 07 00 07 00 18 00 11 00 08 00 08 00 [................]
  | | |         279e: 19 00 12 00 09 00 09 00 19 00 12 00 09 00 09 00 [................]
  | | |         27ae: 19 00 12 00 09 00 09 00 00 00 0a 00 01 00 01 00 [................]
  | | |         27be: 00 00 0a 00 01 00 01 00 00 00 0b 00 02 00 02 00 [................]
  | | |         27ce: 13 00 0c 00 03 00 03 00 14 00 0d 00 04 00 04 00 [................]
  | | |         27de: 15 00 0e 00 05 00 05 00 16 00 0f 00 06 00 06 00 [................]
  | | |         27ee: 17 00 10 00 07 00 07 00 18 00 11 00 08 00 08 00 [................]
  | | |         27fe: 19 00 12 00 09 00 09 00 19 00 12 00 09 00 09 00 [................]
  | | |         280e: 19 00 12 00 09 00 09 00 00 00 0a 00 01 00 01 00 [................]
  | | |         281e: 00 00 0a 00 01 00 01 00 00 00 0b 00 02 00 02 00 [................]
  | | |         [snip 18884 bytes]
  | | | 29) Flavor = X@. .?_.....#Ee......?_......Uv......?_.....4^~.................................................. .......y.d.....<Icz.u>.#.^....(..#-u....&.  QQ99..X..zK...&.. H.F.4.Nh|ig.f.....h!.y....d...T........io-N.@...0.,......hk.....!TJ.L...l.....1.d................c.iY.4i.}.K4..0u..V&2..4t...*.*..x.X4.F......{......C.!.3..........z..+r4..@..S........n3X....L..B;....Cg>.M....1........_..' ......1......].Y^...F...v.&[.kZ..%*S......L...\..,.p..W'....4.....rb.lB.....p.N.].O.k.}[....G.....pA'....L.XX...6.....1..M..E...%u-J.?-.g.f.^6..+C..!.W.....{._)).p..b..P.../....t.w.,$...A=-.m&H..w....y.d.....<Icz.u>.#.^....(..#-u....&.  QQ99..X..zK...&.. H.F.4.Nh|ig.f.....h!.y....d...T........io-N.@...0.,......hk.....!TJ.L...l.....1.d................c.iY.4i.}.K4..0u..V&2..4t...*.*..x.X4.F......{......C.!.3..........z..+r4..@..S........n...Hl.L..L;....C.......g..].q...u.5...-U.....o.utz..i.....F...v"../.e..%*S...Cf.....[...b.3i}'....4.......v..< ....;p.]..}..t[.j..G;...:.....00..XX...6.........SS....%'*J..*.gy.t.eh...,;..n..u!l.LL))....h1.P>../2+S}<u..........7.....w..S...+.g47..........;.(<.......a.dZ.,..d..........cy...<dmj..#.B...#.t..............&.  QQ99..X..zK...&.. H.F.4.Nh|ig.f.....h!.y{f..qx..;.1r..........@...0....&...hk.....!TJ.L...l.....1.d................c.iY.....}SK4..0uQ.V&...4M.K....[<...R.F......{......C.!.3..........z..+r4..@..S.....m..n:g..&`..W8.....Cx......hh..7e...u.5...-U.....o.utz..i.....F...v"../.e..%*S.q|...(..6....&.3bi'....4..C^.'b...< ....;p.]..}..t[.j..G;...:.....00..XX...6....1m..:.S....%RhJ..i.g...^k..+"..!....u!l.LL))....h1.P>../2+S}<u..........7.....w.....y.d.....<Icz.u>.#.^....(..#-u....&.  QQ99..X..zK...&.. H.F.4.Nh|ig.f.....h!.y....d...T........io-N.@...0.,......hk.....!TJ.L...l.....1.d................c.iY.4i.}.K4..0u..V&2..4t...*.*..x.X4.F......{......C.!.3..........z..+r4..@..S........n...Hl.L..L;....C.......g..].q...u.5...-U.....o.utz..i.....F...v"../.e..%*S...Cf.....[...b.3i}'....4.......v..< ....;p.]..}..t[.j..G;...:.....00..XX...6.........SS....%'*J..*.gy.t.eh...,;..n..u!l.LL))....h1.P>../2+[snip]
  | | |     - Tag 0x4005 (16472 bytes, undef[16472]):
  | | |         71f2: 58 40 00 00 04 00 00 20 00 00 00 00 00 00 00 00 [X@..... ........]
  | | |         7202: 00 00 00 00 00 00 00 00 00 00 00 00 00 00 00 00 [................]
  | | |         7212: 00 00 00 00 00 00 00 00 00 00 00 00 00 00 00 00 [................]
  | | |         7222: 00 00 00 00 00 00 00 00 00 00 00 00 00 00 00 00 [................]
  | | |         7232: 00 00 00 00 00 00 00 00 00 00 00 00 00 00 00 00 [................]
  | | |         7242: 00 00 00 00 00 00 00 00 00 00 00 00 00 00 00 00 [................]
  | | |         7252: 00 00 00 00 00 00 00 00 00 00 00 00 00 00 00 00 [................]
  | | |         7262: 00 00 00 00 00 00 00 00 00 00 00 00 00 00 00 00 [................]
  | | |         7272: 00 00 00 00 00 00 00 00 00 00 00 00 00 00 00 00 [................]
  | | |         7282: 00 00 00 00 00 00 00 00 00 00 00 00 00 00 00 00 [................]
  | | |         7292: 00 00 00 00 00 00 00 00 00 00 00 00 00 00 00 00 [................]
  | | |         72a2: 00 00 00 00 00 00 00 00 00 00 00 00 00 00 00 00 [................]
  | | |         72b2: 00 00 00 00 00 00 00 00 00 00 00 00 00 00 00 00 [................]
  | | |         72c2: 00 00 00 00 00 00 00 00 00 00 00 00 00 00 00 00 [................]
  | | |         72d2: 00 00 00 00 00 00 00 00 00 00 00 00 00 00 00 00 [................]
  | | |         72e2: 00 00 00 00 00 00 00 00 00 00 00 00 00 00 00 00 [................]
  | | |         72f2: 00 00 00 00 00 00 00 00 00 00 00 00 00 00 00 00 [................]
  | | |         7302: 00 00 00 00 00 00 00 00 00 00 00 00 00 00 00 00 [................]
  | | |         7312: 00 00 00 00 00 00 00 00 00 00 00 00 00 00 00 00 [................]
  | | |         7322: 00 00 00 00 00 00 00 00 00 00 00 00 00 00 00 00 [................]
  | | |         7332: 00 00 00 00 00 00 00 00 00 00 00 00 00 00 00 00 [................]
  | | |         7342: 00 00 00 00 00 00 00 00 00 00 00 00 00 00 00 00 [................]
  | | |         7352: 00 00 00 00 00 00 00 00 00 00 00 00 00 00 00 00 [................]
  | | |         7362: 00 00 00 00 00 00 00 00 00 00 00 00 00 00 00 00 [................]
  | | |         7372: 00 00 00 00 00 00 00 00 00 00 00 00 00 00 00 00 [................]
  | | |         7382: 00 00 00 00 00 00 00 00 00 00 00 00 00 00 00 00 [................]
  | | |         7392: 00 00 00 00 00 00 00 00 00 00 00 00 00 00 00 00 [................]
  | | |         73a2: 00 00 00 00 00 00 00 00 00 00 00 00 00 00 00 00 [................]
  | | |         73b2: 00 00 00 00 00 00 00 00 00 00 00 00 00 00 00 00 [................]
  | | |         73c2: 00 00 00 00 00 00 00 00 00 00 00 00 00 00 00 00 [................]
  | | |         73d2: 00 00 00 00 00 00 00 00 00 00 00 00 00 00 00 00 [................]
  | | |         73e2: 00 00 00 00 00 00 00 00 00 00 00 00 00 00 00 00 [................]
  | | |         73f2: 00 00 00 00 00 00 00 00 00 00 00 00 00 00 00 00 [................]
  | | |         7402: 00 00 00 00 00 00 00 00 00 00 00 00 00 00 00 00 [................]
  | | |         7412: 00 00 00 00 00 00 00 00 00 00 00 00 00 00 00 00 [................]
  | | |         7422: 00 00 00 00 00 00 00 00 00 00 00 00 00 00 00 00 [................]
  | | |         7432: 00 00 00 00 00 00 00 00 00 00 00 00 00 00 00 00 [................]
  | | |         7442: 00 00 00 00 00 00 00 00 00 00 00 00 00 00 00 00 [................]
  | | |         7452: 00 00 00 00 00 00 00 00 00 00 00 00 00 00 00 00 [................]
  | | |         7462: 00 00 00 00 00 00 00 00 00 00 00 00 00 00 00 00 [................]
  | | |         7472: 00 00 00 00 00 00 00 00 00 00 00 00 00 00 00 00 [................]
  | | |         7482: 00 00 00 00 00 00 00 00 00 00 00 00 00 00 00 00 [................]
  | | |         7492: 00 00 00 00 00 00 00 00 00 00 00 00 00 00 00 00 [................]
  | | |         74a2: 00 00 00 00 00 00 00 00 00 00 00 00 00 00 00 00 [................]
  | | |         74b2: 00 00 00 00 00 00 00 00 00 00 00 00 00 00 00 00 [................]
  | | |         74c2: 00 00 00 00 00 00 00 00 00 00 00 00 00 00 00 00 [................]
  | | |         74d2: 00 00 00 00 00 00 00 00 00 00 00 00 00 00 00 00 [................]
  | | |         74e2: 00 00 00 00 00 00 00 00 00 00 00 00 00 00 00 00 [................]
  | | |         74f2: 00 00 00 00 00 00 00 00 00 00 00 00 00 00 00 00 [................]
  | | |         7502: 00 00 00 00 00 00 00 00 00 00 00 00 00 00 00 00 [................]
  | | |         7512: 00 00 00 00 00 00 00 00 00 00 00 00 00 00 00 00 [................]
  | | |         7522: 00 00 00 00 00 00 00 00 00 00 00 00 00 00 00 00 [................]
  | | |         7532: 00 00 00 00 00 00 00 00 00 00 00 00 00 00 00 00 [................]
  | | |         7542: 00 00 00 00 00 00 00 00 00 00 00 00 00 00 00 00 [................]
  | | |         7552: 00 00 00 00 00 00 00 00 00 00 00 00 00 00 00 00 [................]
  | | |         7562: 00 00 00 00 00 00 00 00 00 00 00 00 00 00 00 00 [................]
  | | |         7572: 00 00 00 00 00 00 00 00 00 00 00 00 00 00 00 00 [................]
  | | |         7582: 00 00 00 00 00 00 00 00 00 00 00 00 00 00 00 00 [................]
  | | |         7592: 00 00 00 00 00 00 00 00 00 00 00 00 00 00 00 00 [................]
  | | |         75a2: 00 00 00 00 00 00 00 00 00 00 00 00 00 00 00 00 [................]
  | | |         75b2: 00 00 00 00 00 00 00 00 00 00 00 00 00 00 00 00 [................]
  | | |         75c2: 00 00 00 00 00 00 00 00 00 00 00 00 00 00 00 00 [................]
  | | |         75d2: 00 00 00 00 00 00 00 00 00 00 00 00 00 00 00 00 [................]
  | | |         75e2: 00 00 00 00 00 00 00 00 00 00 00 00 00 00 00 00 [................]
  | | |         75f2: 00 00 00 00 00 00 00 00 00 00 00 00 00 00 00 00 [................]
  | | |         7602: 00 00 00 00 00 00 00 00 00 00 00 00 00 00 00 00 [................]
  | | |         7612: 00 00 00 00 00 00 00 00 00 00 00 00 00 00 00 00 [................]
  | | |         7622: 00 00 00 00 00 00 00 00 00 00 00 00 00 00 00 00 [................]
  | | |         7632: 00 00 00 00 00 00 00 00 00 00 00 00 00 00 00 00 [................]
  | | |         7642: 00 00 00 00 00 00 00 00 00 00 00 00 00 00 00 00 [................]
  | | |         7652: 00 00 00 00 00 00 00 00 00 00 00 00 00 00 00 00 [................]
  | | |         7662: 00 00 00 00 00 00 00 00 00 00 00 00 00 00 00 00 [................]
  | | |         7672: 00 00 00 00 00 00 00 00 00 00 00 00 00 00 00 00 [................]
  | | |         7682: 00 00 00 00 00 00 00 00 00 00 00 00 00 00 00 00 [................]
  | | |         7692: 00 00 00 00 00 00 00 00 00 00 00 00 00 00 00 00 [................]
  | | |         76a2: 00 00 00 00 00 00 00 00 00 00 00 00 00 00 00 00 [................]
  | | |         76b2: 00 00 00 00 00 00 00 00 00 00 00 00 00 00 00 00 [................]
  | | |         76c2: 00 00 00 00 00 00 00 00 00 00 00 00 00 00 00 00 [................]
  | | |         76d2: 00 00 00 00 00 00 00 00 00 00 00 00 00 00 00 00 [................]
  | | |         76e2: 00 00 00 00 00 00 00 00 00 00 00 00 00 00 00 00 [................]
  | | |         76f2: 00 00 00 00 00 00 00 00 00 00 00 00 00 00 00 00 [................]
  | | |         7702: 00 00 00 00 00 00 00 00 00 00 00 00 00 00 00 00 [................]
  | | |         7712: 00 00 00 00 00 00 00 00 00 00 00 00 00 00 00 00 [................]
  | | |         7722: 00 00 00 00 00 00 00 00 00 00 00 00 00 00 00 00 [................]
  | | |         7732: 00 00 00 00 00 00 00 00 00 00 00 00 00 00 00 00 [................]
  | | |         7742: 00 00 00 00 00 00 00 00 00 00 00 00 00 00 00 00 [................]
  | | |         7752: 00 00 00 00 00 00 00 00 00 00 00 00 00 00 00 00 [................]
  | | |         7762: 00 00 00 00 00 00 00 00 00 00 00 00 00 00 00 00 [................]
  | | |         7772: 00 00 00 00 00 00 00 00 00 00 00 00 00 00 00 00 [................]
  | | |         7782: 00 00 00 00 00 00 00 00 00 00 00 00 00 00 00 00 [................]
  | | |         7792: 00 00 00 00 00 00 00 00 00 00 00 00 00 00 00 00 [................]
  | | |         77a2: 00 00 00 00 00 00 00 00 00 00 00 00 00 00 00 00 [................]
  | | |         77b2: 00 00 00 00 00 00 00 00 00 00 00 00 00 00 00 00 [................]
  | | |         77c2: 00 00 00 00 00 00 00 00 00 00 00 00 00 00 00 00 [................]
  | | |         77d2: 00 00 00 00 00 00 00 00 00 00 00 00 00 00 00 00 [................]
  | | |         77e2: 00 00 00 00 00 00 00 00 00 00 00 00 00 00 00 00 [................]
  | | |         77f2: 00 00 00 00 00 00 00 00 00 00 00 00 00 00 00 00 [................]
  | | |         7802: 00 00 00 00 00 00 00 00 00 00 00 00 00 00 00 00 [................]
  | | |         7812: 00 00 00 00 00 00 00 00 00 00 00 00 00 00 00 00 [................]
  | | |         7822: 00 00 00 00 00 00 00 00 00 00 00 00 00 00 00 00 [................]
  | | |         7832: 00 00 00 00 00 00 00 00 00 00 00 00 00 00 00 00 [................]
  | | |         7842: 00 00 00 00 00 00 00 00 00 00 00 00 00 00 00 00 [................]
  | | |         7852: 00 00 00 00 00 00 00 00 00 00 00 00 00 00 00 00 [................]
  | | |         7862: 00 00 00 00 00 00 00 00 00 00 00 00 00 00 00 00 [................]
  | | |         7872: 00 00 00 00 00 00 00 00 00 00 00 00 00 00 00 00 [................]
  | | |         7882: 00 00 00 00 00 00 00 00 00 00 00 00 00 00 00 00 [................]
  | | |         7892: 00 00 00 00 00 00 00 00 00 00 00 00 00 00 00 00 [................]
  | | |         78a2: 00 00 00 00 00 00 00 00 00 00 00 00 00 00 00 00 [................]
  | | |         78b2: 00 00 00 00 00 00 00 00 00 00 00 00 00 00 00 00 [................]
  | | |         78c2: 00 00 00 00 00 00 00 00 00 00 00 00 00 00 00 00 [................]
  | | |         78d2: 00 00 00 00 00 00 00 00 00 00 00 00 00 00 00 00 [................]
  | | |         78e2: 00 00 00 00 00 00 00 00 00 00 00 00 00 00 00 00 [................]
  | | |         78f2: 00 00 00 00 00 00 00 00 00 00 00 00 00 00 00 00 [................]
  | | |         7902: 00 00 00 00 00 00 00 00 00 00 00 00 00 00 00 00 [................]
  | | |         7912: 00 00 00 00 00 00 00 00 00 00 00 00 00 00 00 00 [................]
  | | |         7922: 00 00 00 00 00 00 00 00 00 00 00 00 00 00 00 00 [................]
  | | |         7932: 00 00 00 00 00 00 00 00 00 00 00 00 00 00 00 00 [................]
  | | |         7942: 00 00 00 00 00 00 00 00 00 00 00 00 00 00 00 00 [................]
  | | |         7952: 00 00 00 00 00 00 00 00 00 00 00 00 00 00 00 00 [................]
  | | |         7962: 00 00 00 00 00 00 00 00 00 00 00 00 00 00 00 00 [................]
  | | |         7972: 00 00 00 00 00 00 00 00 00 00 00 00 00 00 00 00 [................]
  | | |         7982: 00 00 00 00 00 00 00 00 00 00 00 00 00 00 00 00 [................]
  | | |         7992: 00 00 00 00 00 00 00 00 00 00 00 00 00 00 00 00 [................]
  | | |         79a2: 00 00 00 00 00 00 00 00 00 00 00 00 00 00 00 00 [................]
  | | |         79b2: 00 00 00 00 00 00 00 00 00 00 00 00 00 00 00 00 [................]
  | | |         79c2: 00 00 00 00 00 00 00 00 00 00 00 00 00 00 00 00 [................]
  | | |         79d2: 00 00 00 00 00 00 00 00 00 00 00 00 00 00 00 00 [................]
  | | |         [snip 14440 bytes]
  | | | 30) PictureStyleUserDef = 129 129 129
  | | |     - Tag 0x4008 (6 bytes, int16u[3]):
  | | |         b24a: 81 00 81 00 81 00                               [......]
  | | | 31) PictureStylePC = 0 0 0
  | | |     - Tag 0x4009 (6 bytes, int16u[3]):
  | | |         b250: 00 00 00 00 00 00                               [......]
  | | | 32) CustomPictureStyleFileName = 
  | | |     - Tag 0x4010 (32 bytes, string[32]):
  | | |         b256: 00 00 00 00 00 00 00 00 00 00 00 00 00 00 00 00 [................]
  | | |         b266: 00 00 00 00 00 00 00 00 00 00 00 00 00 00 00 00 [................]
  | | | 33) Canon_0x4011 = 
  | | |     - Tag 0x4011 (252 bytes, undef[252]):
  | | |         b276: 00 00 00 00 00 00 00 00 00 00 00 00 00 00 00 00 [................]
  | | |         b286: 00 00 00 00 00 00 00 00 00 00 00 00 00 00 00 00 [................]
  | | |         b296: 00 00 00 00 00 00 00 00 00 00 00 00 00 00 00 00 [................]
  | | |         b2a6: 00 00 00 00 00 00 00 00 00 00 00 00 00 00 00 00 [................]
  | | |         b2b6: 00 00 00 00 00 00 00 00 00 00 00 00 00 00 00 00 [................]
  | | |         b2c6: 00 00 00 00 00 00 00 00 00 00 00 00 00 00 00 00 [................]
  | | |         b2d6: 00 00 00 00 00 00 00 00 00 00 00 00 00 00 00 00 [................]
  | | |         b2e6: 00 00 00 00 00 00 00 00 00 00 00 00 00 00 00 00 [................]
  | | |         b2f6: 00 00 00 00 00 00 00 00 00 00 00 00 00 00 00 00 [................]
  | | |         b306: 00 00 00 00 00 00 00 00 00 00 00 00 00 00 00 00 [................]
  | | |         b316: 00 00 00 00 00 00 00 00 00 00 00 00 00 00 00 00 [................]
  | | |         b326: 00 00 00 00 00 00 00 00 00 00 00 00 00 00 00 00 [................]
  | | |         b336: 00 00 00 00 00 00 00 00 00 00 00 00 00 00 00 00 [................]
  | | |         b346: 00 00 00 00 00 00 00 00 00 00 00 00 00 00 00 00 [................]
  | | |         b356: 00 00 00 00 00 00 00 00 00 00 00 00 00 00 00 00 [................]
  | | |         b366: 00 00 00 00 00 00 00 00 00 00 00 00             [............]
  | | | 34) Canon_0x4012 = 
  | | |     - Tag 0x4012 (32 bytes, string[32]):
  | | |         b372: 00 00 00 00 00 00 00 00 00 00 00 00 00 00 00 00 [................]
  | | |         b382: 00 00 00 00 00 00 00 00 00 00 00 00 00 00 00 00 [................]
  | | | 35) VignettingCorr (SubDirectory) -->
  | | |     - Tag 0x4015 (116 bytes, undef[116]):
  | | |         b392: 00 10 74 00 01 00 00 00 00 00 00 00 3f 00 00 00 [..t.........?...]
  | | |         b3a2: 00 00 00 00 cc 10 40 14 80 0d fe 1f ff 1e 7d 1d [......@.......}.]
  | | |         b3b2: 18 1c 48 1b bb 18 00 00 b2 03 ea 05 65 07 22 08 [..H.........e.".]
  | | |         b3c2: 1a 0a 00 40 06 40 f3 3f be 3f 81 3f 67 3f 00 40 [...@.@.?.?.?g?.@]
  | | |         b3d2: ae 40 59 41 38 42 ec 42 2c 43 00 00 b2 03 ea 05 [.@YA8B.B,C......]
  | | |         b3e2: 22 08 9d 09 1a 0a f3 3f ac 3f 72 3f 4d 3f 4d 3f ["......?.?r?M?M?]
  | | |         b3f2: 53 3f 00 00 b2 03 ea 05 22 08 9d 09 1a 0a 00 00 [S?......".......]
  | | |         b402: 00 00 00 00                                     [....]
  | | | + [BinaryData directory, 116 bytes, Little-endian]
  | | | | PeripheralLighting = 1
  | | | | - Tag 0x0002 (2 bytes, int16s[1]):
  | | | |     b396: 01 00                                           [..]
  | | | | DistortionCorrection = 0
  | | | | - Tag 0x0003 (2 bytes, int16s[1]):
  | | | |     b398: 00 00                                           [..]
  | | | | ChromaticAberrationCorr = 0
  | | | | - Tag 0x0004 (2 bytes, int16s[1]):
  | | | |     b39a: 00 00                                           [..]
  | | | | ChromaticAberrationCorr = 0
  | | | | - Tag 0x0005 (2 bytes, int16s[1]):
  | | | |     b39c: 00 00                                           [..]
  | | | | PeripheralLightingValue = 63
  | | | | - Tag 0x0006 (2 bytes, int16s[1]):
  | | | |     b39e: 3f 00                                           [?.]
  | | | | DistortionCorrectionValue = 0
  | | | | - Tag 0x0009 (2 bytes, int16s[1]):
  | | | |     b3a4: 00 00                                           [..]
  | | | | OriginalImageWidth = 5184
  | | | | - Tag 0x000b (2 bytes, int16s[1]):
  | | | |     b3a8: 40 14                                           [@.]
  | | | | OriginalImageHeight = 3456
  | | | | - Tag 0x000c (2 bytes, int16s[1]):
  | | | |     b3aa: 80 0d                                           [..]
  | | | 36) VignettingCorr2 (SubDirectory) -->
  | | |     - Tag 0x4016 (24 bytes, int32u[6] read as undef[24]):
  | | |         b406: 18 00 00 00 00 00 00 00 01 00 00 00 00 00 00 00 [................]
  | | |         b416: 00 00 00 00 01 00 00 00                         [........]
  | | | + [BinaryData directory, 24 bytes, Little-endian]
  | | | | PeripheralLightingSetting = 1
  | | | | - Tag 0x0005 (4 bytes, int32s[1]):
  | | | |     b41a: 01 00 00 00                                     [....]
  | | | 37) Canon_0x4017 = 197383 1811939375
  | | |     - Tag 0x4017 (8 bytes, int32u[2]):
  | | |         b41e: 07 03 03 00 2f 00 00 6c                         [..../..l]
  | | | 38) LightingOpt (SubDirectory) -->
  | | |     - Tag 0x4018 (12 bytes, int32u[3] read as undef[12]):
  | | |         b426: 0c 00 00 00 00 00 00 00 03 00 00 00             [............]
  | | | + [BinaryData directory, 12 bytes, Little-endian]
  | | | | PeripheralIlluminationCorr = 0
  | | | | - Tag 0x0001 (4 bytes, int32s[1]):
  | | | |     b42a: 00 00 00 00                                     [....]
  | | | | AutoLightingOptimizer = 3
  | | | | - Tag 0x0002 (4 bytes, int32s[1]):
  | | | |     b42e: 03 00 00 00                                     [....]
  | | | 39) LensInfo (SubDirectory) -->
  | | |     - Tag 0x4019 (30 bytes, undef[30]):
  | | |         b432: 00 00 11 84 84 00 00 00 00 00 00 00 00 00 00 00 [................]
  | | |         b442: 00 00 00 00 00 00 00 00 00 00 00 00 00 00       [..............]
  | | | + [BinaryData directory, 30 bytes, Little-endian]
  | | | | LensSerialNumber = ...
  | | | | - Tag 0x0000 (5 bytes, undef[5]):
  | | | |     b432: 00 00 11 84 84                                  [.....]
  | | | 40) Canon_0x4020 = 0 0 0 0 0
  | | |     - Tag 0x4020 (20 bytes, int32u[5]):
  | | |         b450: 00 00 00 00 00 00 00 00 00 00 00 00 00 00 00 00 [................]
  | | |         b460: 00 00 00 00                                     [....]
  | | 17) UserComment = 
  | |     - Tag 0x9286 (264 bytes, undef[264]):
  | |         b46c: 00 00 00 00 00 00 00 00 00 00 00 00 00 00 00 00 [................]
  | |         b47c: 00 00 00 00 00 00 00 00 00 00 00 00 00 00 00 00 [................]
  | |         b48c: 00 00 00 00 00 00 00 00 00 00 00 00 00 00 00 00 [................]
  | |         b49c: 00 00 00 00 00 00 00 00 00 00 00 00 00 00 00 00 [................]
  | |         b4ac: 00 00 00 00 00 00 00 00 00 00 00 00 00 00 00 00 [................]
  | |         b4bc: 00 00 00 00 00 00 00 00 00 00 00 00 00 00 00 00 [................]
  | |         b4cc: 00 00 00 00 00 00 00 00 00 00 00 00 00 00 00 00 [................]
  | |         b4dc: 00 00 00 00 00 00 00 00 00 00 00 00 00 00 00 00 [................]
  | |         b4ec: 00 00 00 00 00 00 00 00 00 00 00 00 00 00 00 00 [................]
  | |         b4fc: 00 00 00 00 00 00 00 00 00 00 00 00 00 00 00 00 [................]
  | |         b50c: 00 00 00 00 00 00 00 00 00 00 00 00 00 00 00 00 [................]
  | |         b51c: 00 00 00 00 00 00 00 00 00 00 00 00 00 00 00 00 [................]
  | |         b52c: 00 00 00 00 00 00 00 00 00 00 00 00 00 00 00 00 [................]
  | |         b53c: 00 00 00 00 00 00 00 00 00 00 00 00 00 00 00 00 [................]
  | |         b54c: 00 00 00 00 00 00 00 00 00 00 00 00 00 00 00 00 [................]
  | |         b55c: 00 00 00 00 00 00 00 00 00 00 00 00 00 00 00 00 [................]
  | |         b56c: 00 00 00 00 00 00 00 00                         [........]
  | | 18) SubSecTime = 82
  | |     - Tag 0x9290 (3 bytes, string[3]):
  | |         0294: 38 32 00                                        [82.]
  | | 19) SubSecTimeOriginal = 82
  | |     - Tag 0x9291 (3 bytes, string[3]):
  | |         02a0: 38 32 00                                        [82.]
  | | 20) SubSecTimeDigitized = 82
  | |     - Tag 0x9292 (3 bytes, string[3]):
  | |         02ac: 38 32 00                                        [82.]
  | | 21) FlashpixVersion = 0100
  | |     - Tag 0xa000 (4 bytes, undef[4]):
  | |         02b8: 30 31 30 30                                     [0100]
  | | 22) ColorSpace = 1
  | |     - Tag 0xa001 (2 bytes, int16u[1]):
  | |         02c4: 01 00                                           [..]
  | | 23) ExifImageWidth = 5184
  | |     - Tag 0xa002 (2 bytes, int16u[1]):
  | |         02d0: 40 14                                           [@.]
  | | 24) ExifImageHeight = 3456
  | |     - Tag 0xa003 (2 bytes, int16u[1]):
  | |         02dc: 80 0d                                           [..]
  | | 25) InteropOffset (SubDirectory) -->
  | |     - Tag 0xa005 (4 bytes, int32u[1]):
  | |         02e8: 74 b5 00 00                                     [t...]
  | | + [InteropIFD directory with 2 entries, Little-endian]
  | | | 0)  InteropIndex = R98
  | | |     - Tag 0x0001 (4 bytes, string[4]):
  | | |         b57e: 52 39 38 00                                     [R98.]
  | | | 1)  InteropVersion = 0100
  | | |     - Tag 0x0002 (4 bytes, undef[4]):
  | | |         b58a: 30 31 30 30                                     [0100]
  | | 26) FocalPlaneXResolution = 5728.176796 (5184000/905)
  | |     - Tag 0xa20e (8 bytes, rational64u[1]):
  | |         b592: 00 1a 4f 00 89 03 00 00                         [..O.....]
  | | 27) FocalPlaneYResolution = 5808.403361 (3456000/595)
  | |     - Tag 0xa20f (8 bytes, rational64u[1]):
  | |         b59a: 00 bc 34 00 53 02 00 00                         [..4.S...]
  | | 28) FocalPlaneResolutionUnit = 2
  | |     - Tag 0xa210 (2 bytes, int16u[1]):
  | |         030c: 02 00                                           [..]
  | | 29) CustomRendered = 0
  | |     - Tag 0xa401 (2 bytes, int16u[1]):
  | |         0318: 00 00                                           [..]
  | | 30) ExposureMode = 0
  | |     - Tag 0xa402 (2 bytes, int16u[1]):
  | |         0324: 00 00                                           [..]
  | | 31) WhiteBalance = 0
  | |     - Tag 0xa403 (2 bytes, int16u[1]):
  | |         0330: 00 00                                           [..]
  | | 32) SceneCaptureType = 0
  | |     - Tag 0xa406 (2 bytes, int16u[1]):
  | |         033c: 00 00                                           [..]
  | | 33) OwnerName = Stefan Oltmann
  | |     - Tag 0xa430 (32 bytes, string[32]):
  | |         b5a2: 53 74 65 66 61 6e 20 4f 6c 74 6d 61 6e 6e 00 00 [Stefan Oltmann..]
  | |         b5b2: 00 00 00 00 00 00 00 00 00 00 00 00 00 00 00 00 [................]
  | | 34) SerialNumber = 1581036387
  | |     - Tag 0xa431 (10 bytes, string[10]):
  | |         b5c2: 31 35 38 31 30 33 36 33 38 37                   [1581036387]
  | | 35) LensInfo = 15 85 undef undef (15/1 85/1 0/0 0/0)
  | |     - Tag 0xa432 (32 bytes, rational64u[4]):
  | |         b5cc: 0f 00 00 00 01 00 00 00 55 00 00 00 01 00 00 00 [........U.......]
  | |         b5dc: 00 00 00 00 00 00 00 00 00 00 00 00 00 00 00 00 [................]
  | | 36) LensModel = EF-S15-85mm f/3.5-5.6 IS USM
  | |     - Tag 0xa434 (70 bytes, string[70]):
  | |         b5ec: 45 46 2d 53 31 35 2d 38 35 6d 6d 20 66 2f 33 2e [EF-S15-85mm f/3.]
  | |         b5fc: 35 2d 35 2e 36 20 49 53 20 55 53 4d 00 00 00 00 [5-5.6 IS USM....]
  | |         b60c: 00 00 00 00 00 00 00 00 00 00 00 00 00 00 00 00 [................]
  | |         b61c: 00 00 00 00 00 00 00 00 00 00 00 00 00 00 00 00 [................]
  | |         b62c: 00 00 00 00 00 00                               [......]
  | | 37) LensSerialNumber = 0000118484
  | |     - Tag 0xa435 (12 bytes, string[12]):
  | |         b632: 30 30 30 30 31 31 38 34 38 34 00 00             [0000118484..]
  + [IFD1 directory with 2 entries, Little-endian]
  | 0)  ThumbnailOffset = 55156
  |     - Tag 0x0201 (4 bytes, int32u[1]):
  |         b648: 74 d7 00 00                                     [t...]
  | 1)  ThumbnailLength = 11248
  |     - Tag 0x0202 (4 bytes, int32u[1]):
  |         b654: f0 2b 00 00                                     [.+..]
  + [IFD2 directory with 13 entries, Little-endian]
  | 0)  ImageWidth = 668
  |     - Tag 0x0100 (2 bytes, int16u[1]):
  |         b666: 9c 02                                           [..]
  | 1)  ImageHeight = 432
  |     - Tag 0x0101 (2 bytes, int16u[1]):
  |         b672: b0 01                                           [..]
  | 2)  BitsPerSample = 16 16 16
  |     - Tag 0x0102 (6 bytes, int16u[3]):
  |         b6fe: 10 00 10 00 10 00                               [......]
  | 3)  Compression = 1
  |     - Tag 0x0103 (2 bytes, int16u[1]):
  |         b68a: 01 00                                           [..]
  | 4)  PhotometricInterpretation = 2
  |     - Tag 0x0106 (2 bytes, int16u[1]):
  |         b696: 02 00                                           [..]
  | 5)  StripOffsets = 3301444
  |     - Tag 0x0111 (4 bytes, int32u[1]):
  |         b6a2: 44 60 32 00                                     [D`2.]
  | 6)  SamplesPerPixel = 3
  |     - Tag 0x0115 (2 bytes, int16u[1]):
  |         b6ae: 03 00                                           [..]
  | 7)  RowsPerStrip = 432
  |     - Tag 0x0116 (2 bytes, int16u[1]):
  |         b6ba: b0 01                                           [..]
  | 8)  StripByteCounts = 1731456
  |     - Tag 0x0117 (4 bytes, int32u[1]):
  |         b6c6: 80 6b 1a 00                                     [.k..]
  | 9)  PlanarConfiguration = 1
  |     - Tag 0x011c (2 bytes, int16u[1]):
  |         b6d2: 01 00                                           [..]
  | 10) Exif_0xc5d9 = 2
  |     - Tag 0xc5d9 (4 bytes, int32u[1]):
  |         b6de: 02 00 00 00                                     [....]
  | 11) SRawType = 3
  |     - Tag 0xc6c5 (4 bytes, int32u[1]):
  |         b6ea: 03 00 00 00                                     [....]
  | 12) Exif_0xc6dc = 649 432 19 0
  |     - Tag 0xc6dc (16 bytes, int32u[4]):
  |         b704: 89 02 00 00 b0 01 00 00 13 00 00 00 00 00 00 00 [................]
  + [IFD3 directory with 7 entries, Little-endian]
  | 0)  Compression = 6
  |     - Tag 0x0103 (2 bytes, int16u[1]):
  |         b71e: 06 00                                           [..]
  | 1)  StripOffsets = 5038148
  |     - Tag 0x0111 (4 bytes, int32u[1]):
  |         b72a: 44 e0 4c 00                                     [D.L.]
  | 2)  StripByteCounts = 20971770
  |     - Tag 0x0117 (4 bytes, int32u[1]):
  |         b736: fa 00 40 01                                     [..@.]
  | 3)  Exif_0xc5d8 = 1
  |     - Tag 0xc5d8 (4 bytes, int32u[1]):
  |         b742: 01 00 00 00                                     [....]
  | 4)  CR2CFAPattern = 3
  |     - Tag 0xc5e0 (4 bytes, int32u[1]):
  |         b74e: 03 00 00 00                                     [....]
  | 5)  RawImageSegmentation = 2 1728 1888
  |     - Tag 0xc640 (6 bytes, int16u[3]):
  |         b76e: 02 00 c0 06 60 07                               [....`.]
  | 6)  SRawType = 1
  |     - Tag 0xc6c5 (4 bytes, int32u[1]):
  |         b766: 01 00 00 00                                     [....]
