  ExifToolVersion = 13.59
  FileName = media_71.dng
  Directory = C:/Users/micro/IdeaProjects/kim/src/commonTest/resources/de/stefan_oltmann/kim/testdata/full
  FileSize = 12732006
  FileModifyDate = 1776264332.94193
  FileAccessDate = 1786601586.50731
  FileCreateDate = 1776264332.91794
  FilePermissions = 33206
  FileType = DNG
  FileTypeExtension = DNG
  MIMEType = image/x-adobe-dng
  ExifByteOrder = II
  + [IFD0 directory with 56 entries, Little-endian]
  | 0)  SubfileType = 1
  |     - Tag 0x00fe (4 bytes, int32u[1]):
  |         0012: 01 00 00 00                                     [....]
  | 1)  ImageWidth = 256
  |     - Tag 0x0100 (4 bytes, int32u[1]):
  |         001e: 00 01 00 00                                     [....]
  | 2)  ImageHeight = 192
  |     - Tag 0x0101 (4 bytes, int32u[1]):
  |         002a: c0 00 00 00                                     [....]
  | 3)  BitsPerSample = 8 8 8
  |     - Tag 0x0102 (6 bytes, int16u[3]):
  |         02ae: 08 00 08 00 08 00                               [......]
  | 4)  Compression = 1
  |     - Tag 0x0103 (2 bytes, int16u[1]):
  |         0042: 01 00                                           [..]
  | 5)  PhotometricInterpretation = 2
  |     - Tag 0x0106 (2 bytes, int16u[1]):
  |         004e: 02 00                                           [..]
  | 6)  ImageDescription = OLYMPUS DIGITAL CAMERA
  |     - Tag 0x010e (23 bytes, string[23]):
  |         02b4: 4f 4c 59 4d 50 55 53 20 44 49 47 49 54 41 4c 20 [OLYMPUS DIGITAL ]
  |         02c4: 43 41 4d 45 52 41 00                            [CAMERA.]
  | 7)  Make = OLYMPUS IMAGING CORP.
  |     - Tag 0x010f (22 bytes, string[22]):
  |         02cc: 4f 4c 59 4d 50 55 53 20 49 4d 41 47 49 4e 47 20 [OLYMPUS IMAGING ]
  |         02dc: 43 4f 52 50 2e 00                               [CORP..]
  | 8)  Model = XZ-1
  |     - Tag 0x0110 (5 bytes, string[5]):
  |         02e2: 58 5a 2d 31 00                                  [XZ-1.]
  | 9)  StripOffsets = 1542628
  |     - Tag 0x0111 (4 bytes, int32u[1]):
  |         007e: e4 89 17 00                                     [....]
  | 10) Orientation = 1
  |     - Tag 0x0112 (2 bytes, int16u[1]):
  |         008a: 01 00                                           [..]
  | 11) SamplesPerPixel = 3
  |     - Tag 0x0115 (2 bytes, int16u[1]):
  |         0096: 03 00                                           [..]
  | 12) RowsPerStrip = 192
  |     - Tag 0x0116 (4 bytes, int32u[1]):
  |         00a2: c0 00 00 00                                     [....]
  | 13) StripByteCounts = 147456
  |     - Tag 0x0117 (4 bytes, int32u[1]):
  |         00ae: 00 40 02 00                                     [.@..]
  | 14) PlanarConfiguration = 1
  |     - Tag 0x011c (2 bytes, int16u[1]):
  |         00ba: 01 00                                           [..]
  | 15) Software = Adobe DNG Converter 15.4 (Macintosh)
  |     - Tag 0x0131 (37 bytes, string[37]):
  |         02e8: 41 64 6f 62 65 20 44 4e 47 20 43 6f 6e 76 65 72 [Adobe DNG Conver]
  |         02f8: 74 65 72 20 31 35 2e 34 20 28 4d 61 63 69 6e 74 [ter 15.4 (Macint]
  |         0308: 6f 73 68 29 00                                  [osh).]
  | 16) ModifyDate = 2023:07:26 06:11:34
  |     - Tag 0x0132 (20 bytes, string[20]):
  |         030e: 32 30 32 33 3a 30 37 3a 32 36 20 30 36 3a 31 31 [2023:07:26 06:11]
  |         031e: 3a 33 34 00                                     [:34.]
  | 17) SubIFD (SubDirectory) -->
  |     - Tag 0x014a (20 bytes, int32u[5]):
  |         0322: ac 7a 17 00 02 82 17 00 8a 83 17 00 d0 85 17 00 [.z..............]
  |         0332: da 87 17 00                                     [....]
  | + [SubIFD directory with 28 entries, Little-endian]
  | | 0)  SubfileType = 0
  | |     - Tag 0x00fe (4 bytes, int32u[1]):
  | |       177ab6: 00 00 00 00                                     [....]
  | | 1)  ImageWidth = 3680
  | |     - Tag 0x0100 (4 bytes, int32u[1]):
  | |       177ac2: 60 0e 00 00                                     [`...]
  | | 2)  ImageHeight = 2760
  | |     - Tag 0x0101 (4 bytes, int32u[1]):
  | |       177ace: c8 0a 00 00                                     [....]
  | | 3)  BitsPerSample = 16
  | |     - Tag 0x0102 (2 bytes, int16u[1]):
  | |       177ada: 10 00                                           [..]
  | | 4)  Compression = 7
  | |     - Tag 0x0103 (2 bytes, int16u[1]):
  | |       177ae6: 07 00                                           [..]
  | | 5)  PhotometricInterpretation = 32803
  | |     - Tag 0x0106 (2 bytes, int16u[1]):
  | |       177af2: 23 80                                           [#.]
  | | 6)  SamplesPerPixel = 1
  | |     - Tag 0x0115 (2 bytes, int16u[1]):
  | |       177afe: 01 00                                           [..]
  | | 7)  PlanarConfiguration = 1
  | |     - Tag 0x011c (2 bytes, int16u[1]):
  | |       177b0a: 01 00                                           [..]
  | | 8)  TileWidth = 256
  | |     - Tag 0x0142 (4 bytes, int32u[1]):
  | |       177b16: 00 01 00 00                                     [....]
  | | 9)  TileLength = 256
  | |     - Tag 0x0143 (4 bytes, int32u[1]):
  | |       177b22: 00 01 00 00                                     [....]
  | | 10) TileOffsets = 2386122 2461050 2539380 2615904 2693004 2767602 2841688 2915356 2989182 3062626 3136008 3209070 3281680 3354338 3425876 3462920 3536998 3612516 3684922 3757526 3830658 3904434 3978740 4052794 4127694 4202254 4276164 4349012 4421950 4494288 4531514 4603926 4676192 4748074 4819024 4892720 4966400 5041258 5117348 5192118 5267744 5342076 5414396 5488714 5559222 5597370 5667546 5736040 5802458 5866282 5939000 6016424 6096448 6174996 6251158 6325122 6390972 6457018 6531844 6600414 6637080 6702790 6760158 6821058 6890876 6962218 7036508 7110650 7185000 7258220 7332302 7403784 7472732 7541586 7610682 7643828 7696446 7749928 7814674 7866156 7935660 8000336 8068802 8139200 8193166 8250818 8317252 8366732 8425702 8481120 8510812 8562938 8616386 8673122 8720760 8773110 8826164 8878090 8942200 8995534 9041858 9103260 9152512 9201394 9252858 9281362 9335722 9393144 9451574 9509682 9565440 9622348 9682318 9743564 9798606 9847446 9907452 9956234 10020118 10076390 10104762 10168312 10232064 10296208 10363042 10428752 10495916 10562382 10626136 10693808 10762040 10831040 10900034 10969158 11034056 11067612 11125910 11187412 11249944 11315848 11385488 11454600 11521882 11590532 11658784 11725768 11793144 11862798 11929136 11995424 12029172 12073254 12117590 12162902 12210222 12259184 12307496 12355860 12403200 12450972 12500088 12550790 12601788 12652952 12705110
  | |     - Tag 0x0144 (660 bytes, int32u[165]):
  | |       177c02: ca 68 24 00 7a 8d 25 00 74 bf 26 00 60 ea 27 00 [.h$.z.%.t.&.`.'.]
  | |       177c12: 8c 17 29 00 f2 3a 2a 00 58 5c 2b 00 1c 7c 2c 00 [..)..:*.X\+..|,.]
  | |       177c22: 7e 9c 2d 00 62 bb 2e 00 08 da 2f 00 6e f7 30 00 [~.-.b...../.n.0.]
  | |       177c32: 10 13 32 00 e2 2e 33 00 54 46 34 00 08 d7 34 00 [..2...3.TF4...4.]
  | |       177c42: 66 f8 35 00 64 1f 37 00 3a 3a 38 00 d6 55 39 00 [f.5.d.7.::8..U9.]
  | |       177c52: 82 73 3a 00 b2 93 3b 00 f4 b5 3c 00 3a d7 3d 00 [.s:...;...<.:.=.]
  | |       177c62: ce fb 3e 00 0e 1f 40 00 c4 3f 41 00 54 5c 42 00 [..>...@..?A.T\B.]
  | |       177c72: 3e 79 43 00 d0 93 44 00 3a 25 45 00 16 40 46 00 [>yC...D.:%E..@F.]
  | |       177c82: 60 5a 47 00 2a 73 48 00 50 88 49 00 30 a8 4a 00 [`ZG.*sH.P.I.0.J.]
  | |       177c92: 00 c8 4b 00 6a ec 4c 00 a4 15 4e 00 b6 39 4f 00 [..K.j.L...N..9O.]
  | |       177ca2: 20 61 50 00 7c 83 51 00 fc 9d 52 00 4a c0 53 00 [ aP.|.Q...R.J.S.]
  | |       177cb2: b6 d3 54 00 ba 68 55 00 da 7a 56 00 68 86 57 00 [..T..hU..zV.h.W.]
  | |       177cc2: da 89 58 00 2a 83 59 00 38 9f 5a 00 a8 cd 5b 00 [..X.*.Y.8.Z...[.]
  | |       177cd2: 40 06 5d 00 14 39 5e 00 96 62 5f 00 82 83 60 00 [@.]..9^..b_...`.]
  | |       177ce2: bc 84 61 00 ba 86 62 00 04 ab 63 00 de b6 64 00 [..a...b...c...d.]
  | |       177cf2: 18 46 65 00 c6 46 66 00 de 26 67 00 c2 14 68 00 [.Fe..Ff..&g...h.]
  | |       177d02: 7c 25 69 00 2a 3c 6a 00 5c 5e 6b 00 fa 7f 6c 00 [|%i.*<j.\^k...l.]
  | |       177d12: 68 a2 6d 00 6c c0 6e 00 ce e1 6f 00 08 f9 70 00 [h.m.l.n...o...p.]
  | |       177d22: 5c 06 72 00 52 13 73 00 3a 21 74 00 b4 a2 74 00 [\.r.R.s.:!t...t.]
  | |       177d32: 3e 70 75 00 28 41 76 00 12 3e 77 00 2c 07 78 00 [>pu.(Av..>w.,.x.]
  | |       177d42: ac 16 79 00 50 13 7a 00 c2 1e 7b 00 c0 31 7c 00 [..y.P.z...{..1|.]
  | |       177d52: 8e 04 7d 00 c2 e5 7d 00 44 e9 7e 00 8c aa 7f 00 [..}...}.D.~.....]
  | |       177d62: e6 90 80 00 60 69 81 00 5c dd 81 00 fa a8 82 00 [....`i..\.......]
  | |       177d72: c2 79 83 00 62 57 84 00 78 11 85 00 f6 dd 85 00 [.y..bW..x.......]
  | |       177d82: 34 ad 86 00 0a 78 87 00 78 72 88 00 ce 42 89 00 [4....x..xr...B..]
  | |       177d92: c2 f7 89 00 9c e7 8a 00 00 a8 8b 00 f2 66 8c 00 [.............f..]
  | |       177da2: fa 2f 8d 00 52 9f 8d 00 aa 73 8e 00 f8 53 8f 00 [./..R....s...S..]
  | |       177db2: 36 38 90 00 32 1b 91 00 00 f5 91 00 4c d3 92 00 [68..2.......L...]
  | |       177dc2: 8e bd 93 00 cc ac 94 00 ce 83 95 00 96 42 96 00 [.............B..]
  | |       177dd2: fc 2c 97 00 8a eb 97 00 16 e5 98 00 e6 c0 99 00 [.,..............]
  | |       177de2: ba 2f 9a 00 f8 27 9b 00 00 21 9c 00 90 1b 9d 00 [./...'...!......]
  | |       177df2: a2 20 9e 00 50 21 9f 00 ac 27 a0 00 4e 2b a1 00 [. ..P!...'..N+..]
  | |       177e02: 58 24 a2 00 b0 2c a3 00 38 37 a4 00 c0 44 a5 00 [X$...,..87...D..]
  | |       177e12: 42 52 a6 00 46 60 a7 00 c8 5d a8 00 dc e0 a8 00 [BR..F`...]......]
  | |       177e22: 96 c4 a9 00 d4 b4 aa 00 18 a9 ab 00 88 aa ac 00 [................]
  | |       177e32: 90 ba ad 00 88 c8 ae 00 5a cf af 00 84 db b0 00 [........Z.......]
  | |       177e42: 20 e6 b1 00 c8 eb b2 00 f8 f2 b3 00 0e 03 b5 00 [ ...............]
  | |       177e52: 30 06 b6 00 20 09 b7 00 f4 8c b7 00 26 39 b8 00 [0... .......&9..]
  | |       177e62: 56 e6 b8 00 56 97 b9 00 2e 50 ba 00 70 0f bb 00 [V...V....P..p...]
  | |       177e72: 28 cc bb 00 14 89 bc 00 00 42 bd 00 9c fc bd 00 [(........B......]
  | |       177e82: 78 bc be 00 86 82 bf 00 bc 49 c0 00 98 11 c1 00 [x........I......]
  | |       177e92: 56 dd c1 00                                     [V...]
  | | 11) TileByteCounts = 74927 78329 76524 77099 74597 74086 73667 73825 73443 73381 73062 72610 72658 71537 37043 74078 75517 72405 72604 73132 73775 74306 74053 74899 74559 73909 72848 72938 72337 37226 72411 72266 71882 70950 73695 73680 74857 76090 74770 75626 74332 72320 74318 70507 38148 70175 68493 66417 63823 72717 77424 80024 78548 76161 73963 65850 66045 74825 68570 36665 65709 57367 60900 69818 71342 74290 74142 74349 73220 74082 71481 68948 68854 69095 33145 52617 53481 64745 51482 69504 64676 68465 70397 53965 57652 66434 49479 58970 55417 29692 52125 53447 56735 47638 52349 53053 51925 64109 53334 46324 61402 49252 48881 51464 28503 54360 57422 58430 58107 55757 56907 59970 61245 55042 48839 60006 48781 63884 56271 28372 63549 63751 64144 66833 65710 67163 66465 63753 67672 68231 68999 68993 69123 64897 33555 58298 61501 62531 65904 69639 69111 67282 68649 68252 66983 67376 69653 66337 66288 33747 44082 44336 45311 47319 48962 48312 48364 47340 47771 49115 50702 50997 51163 52157 26895
  | |     - Tag 0x0145 (660 bytes, int32u[165]):
  | |       177e96: af 24 01 00 f9 31 01 00 ec 2a 01 00 2b 2d 01 00 [.$...1...*..+-..]
  | |       177ea6: 65 23 01 00 66 21 01 00 c3 1f 01 00 61 20 01 00 [e#..f!......a ..]
  | |       177eb6: e3 1e 01 00 a5 1e 01 00 66 1d 01 00 a2 1b 01 00 [........f.......]
  | |       177ec6: d2 1b 01 00 71 17 01 00 b3 90 00 00 5e 21 01 00 [....q.......^!..]
  | |       177ed6: fd 26 01 00 d5 1a 01 00 9c 1b 01 00 ac 1d 01 00 [.&..............]
  | |       177ee6: 2f 20 01 00 42 22 01 00 45 21 01 00 93 24 01 00 [/ ..B"..E!...$..]
  | |       177ef6: 3f 23 01 00 b5 20 01 00 90 1c 01 00 ea 1c 01 00 [?#... ..........]
  | |       177f06: 91 1a 01 00 6a 91 00 00 db 1a 01 00 4a 1a 01 00 [....j.......J...]
  | |       177f16: ca 18 01 00 26 15 01 00 df 1f 01 00 d0 1f 01 00 [....&...........]
  | |       177f26: 69 24 01 00 3a 29 01 00 12 24 01 00 6a 27 01 00 [i$..:)...$..j'..]
  | |       177f36: 5c 22 01 00 80 1a 01 00 4e 22 01 00 6b 13 01 00 [\"......N"..k...]
  | |       177f46: 04 95 00 00 1f 12 01 00 8d 0b 01 00 71 03 01 00 [............q...]
  | |       177f56: 4f f9 00 00 0d 1c 01 00 70 2e 01 00 98 38 01 00 [O.......p....8..]
  | |       177f66: d4 32 01 00 81 29 01 00 eb 20 01 00 3a 01 01 00 [.2...)... ..:...]
  | |       177f76: fd 01 01 00 49 24 01 00 da 0b 01 00 39 8f 00 00 [....I$......9...]
  | |       177f86: ad 00 01 00 17 e0 00 00 e4 ed 00 00 ba 10 01 00 [................]
  | |       177f96: ae 16 01 00 32 22 01 00 9e 21 01 00 6d 22 01 00 [....2"...!..m"..]
  | |       177fa6: 04 1e 01 00 62 21 01 00 39 17 01 00 54 0d 01 00 [....b!..9...T...]
  | |       177fb6: f6 0c 01 00 e7 0d 01 00 79 81 00 00 89 cd 00 00 [........y.......]
  | |       177fc6: e9 d0 00 00 e9 fc 00 00 1a c9 00 00 80 0f 01 00 [................]
  | |       177fd6: a4 fc 00 00 71 0b 01 00 fd 12 01 00 cd d2 00 00 [....q...........]
  | |       177fe6: 34 e1 00 00 82 03 01 00 47 c1 00 00 5a e6 00 00 [4.......G...Z...]
  | |       177ff6: 79 d8 00 00 fc 73 00 00 9d cb 00 00 c7 d0 00 00 [y....s..........]
  | |       178006: 9f dd 00 00 16 ba 00 00 7d cc 00 00 3d cf 00 00 [........}...=...]
  | |       178016: d5 ca 00 00 6d fa 00 00 56 d0 00 00 f4 b4 00 00 [....m...V.......]
  | |       178026: da ef 00 00 64 c0 00 00 f1 be 00 00 08 c9 00 00 [....d...........]
  | |       178036: 57 6f 00 00 58 d4 00 00 4e e0 00 00 3e e4 00 00 [Wo..X...N...>...]
  | |       178046: fb e2 00 00 cd d9 00 00 4b de 00 00 42 ea 00 00 [........K...B...]
  | |       178056: 3d ef 00 00 02 d7 00 00 c7 be 00 00 66 ea 00 00 [=...........f...]
  | |       178066: 8d be 00 00 8c f9 00 00 cf db 00 00 d4 6e 00 00 [.............n..]
  | |       178076: 3d f8 00 00 07 f9 00 00 90 fa 00 00 11 05 01 00 [=...............]
  | |       178086: ae 00 01 00 5b 06 01 00 a1 03 01 00 09 f9 00 00 [....[...........]
  | |       178096: 58 08 01 00 87 0a 01 00 87 0d 01 00 81 0d 01 00 [X...............]
  | |       1780a6: 03 0e 01 00 81 fd 00 00 13 83 00 00 ba e3 00 00 [................]
  | |       1780b6: 3d f0 00 00 43 f4 00 00 70 01 01 00 07 10 01 00 [=...C...p.......]
  | |       1780c6: f7 0d 01 00 d2 06 01 00 29 0c 01 00 9c 0a 01 00 [........).......]
  | |       1780d6: a7 05 01 00 30 07 01 00 15 10 01 00 21 03 01 00 [....0.......!...]
  | |       1780e6: f0 02 01 00 d3 83 00 00 32 ac 00 00 30 ad 00 00 [........2...0...]
  | |       1780f6: ff b0 00 00 d7 b8 00 00 42 bf 00 00 b8 bc 00 00 [........B.......]
  | |       178106: ec bc 00 00 ec b8 00 00 9b ba 00 00 db bf 00 00 [................]
  | |       178116: 0e c6 00 00 35 c7 00 00 db c7 00 00 bd cb 00 00 [....5...........]
  | |       178126: 0f 69 00 00                                     [.i..]
  | | 12) CFARepeatPatternDim = 2 2
  | |     - Tag 0x828d (4 bytes, int16u[2]):
  | |       177b46: 02 00 02 00                                     [....]
  | | 13) CFAPattern2 = 0 1 1 2
  | |     - Tag 0x828e (4 bytes, int8u[4]):
  | |       177b52: 00 01 01 02                                     [....]
  | | 14) CFAPlaneColor = 0 1 2
  | |     - Tag 0xc616 (3 bytes, int8u[3]):
  | |       177b5e: 00 01 02                                        [...]
  | | 15) CFALayout = 1
  | |     - Tag 0xc617 (2 bytes, int16u[1]):
  | |       177b6a: 01 00                                           [..]
  | | 16) BlackLevelRepeatDim = 2 2
  | |     - Tag 0xc619 (4 bytes, int16u[2]):
  | |       177b76: 02 00 02 00                                     [....]
  | | 17) BlackLevel = 67 67 67 67 (17152/256 17152/256 17152/256 17152/256)
  | |     - Tag 0xc61a (32 bytes, rational64u[4]):
  | |       17812a: 00 43 00 00 00 01 00 00 00 43 00 00 00 01 00 00 [.C.......C......]
  | |       17813a: 00 43 00 00 00 01 00 00 00 43 00 00 00 01 00 00 [.C.......C......]
  | | 18) WhiteLevel = 3900
  | |     - Tag 0xc61d (2 bytes, int16u[1]):
  | |       177b8e: 3c 0f                                           [<.]
  | | 19) DefaultScale = 1 1 (1/1 1/1)
  | |     - Tag 0xc61e (16 bytes, rational64u[2]):
  | |       17814a: 01 00 00 00 01 00 00 00 01 00 00 00 01 00 00 00 [................]
  | | 20) DefaultCropOrigin = 8 8 (8/1 8/1)
  | |     - Tag 0xc61f (16 bytes, rational64u[2]):
  | |       17815a: 08 00 00 00 01 00 00 00 08 00 00 00 01 00 00 00 [................]
  | | 21) DefaultCropSize = 3648 2736 (3648/1 2736/1)
  | |     - Tag 0xc620 (16 bytes, rational64u[2]):
  | |       17816a: 40 0e 00 00 01 00 00 00 b0 0a 00 00 01 00 00 00 [@...............]
  | | 22) BayerGreenSplit = 250
  | |     - Tag 0xc62d (4 bytes, int32u[1]):
  | |       177bbe: fa 00 00 00                                     [....]
  | | 23) AntiAliasStrength = 1 (100/100)
  | |     - Tag 0xc632 (8 bytes, rational64u[1]):
  | |       17817a: 64 00 00 00 64 00 00 00                         [d...d...]
  | | 24) BestQualityScale = 1 (1/1)
  | |     - Tag 0xc65c (8 bytes, rational64u[1]):
  | |       178182: 01 00 00 00 01 00 00 00                         [........]
  | | 25) ActiveArea = 0 0 2759 3680
  | |     - Tag 0xc68d (16 bytes, int32u[4]):
  | |       17818a: 00 00 00 00 00 00 00 00 c7 0a 00 00 60 0e 00 00 [............`...]
  | | 26) OpcodeList3 = ....D.?..?..a....?..75ZH0
  | |     - Tag 0xc74e (88 bytes, undef[88]):
  | |       17819a: 00 00 00 01 00 00 00 01 01 03 00 00 00 00 00 00 [................]
  | |       1781aa: 00 00 00 44 00 00 00 01 3f ef b8 00 00 00 00 00 [...D....?.......]
  | |       1781ba: 00 00 00 00 00 00 00 00 00 00 00 00 00 00 00 00 [................]
  | |       1781ca: 00 00 00 00 00 00 00 00 00 00 00 00 00 00 00 00 [................]
  | |       1781da: 00 00 00 00 00 00 00 00 3f df dc 61 f2 a4 ba fe [........?..a....]
  | |       1781ea: 3f df eb 37 35 5a 48 30                         [?..75ZH0]
  | | 27) NoiseProfile = 0.000129086747539483 5.27577742501695e-07
  | |     - Tag 0xc761 (16 bytes, double[2]):
  | |       1781f2: 14 a9 d2 b7 6e eb 20 3f 66 44 91 b9 db b3 a1 3e [....n. ?fD.....>]
  | + [SubIFD1 directory with 20 entries, Little-endian]
  | | 0)  SubfileType = 1
  | |     - Tag 0x00fe (4 bytes, int32u[1]):
  | |       17820c: 01 00 00 00                                     [....]
  | | 1)  ImageWidth = 1024
  | |     - Tag 0x0100 (4 bytes, int32u[1]):
  | |       178218: 00 04 00 00                                     [....]
  | | 2)  ImageHeight = 768
  | |     - Tag 0x0101 (4 bytes, int32u[1]):
  | |       178224: 00 03 00 00                                     [....]
  | | 3)  BitsPerSample = 8 8 8
  | |     - Tag 0x0102 (6 bytes, int16u[3]):
  | |       1782f8: 08 00 08 00 08 00                               [......]
  | | 4)  Compression = 7
  | |     - Tag 0x0103 (2 bytes, int16u[1]):
  | |       17823c: 07 00                                           [..]
  | | 5)  PhotometricInterpretation = 6
  | |     - Tag 0x0106 (2 bytes, int16u[1]):
  | |       178248: 06 00                                           [..]
  | | 6)  PreviewImageStart = 1690084
  | |     - Tag 0x0111 (4 bytes, int32u[1]):
  | |       178254: e4 c9 19 00                                     [....]
  | | 7)  SamplesPerPixel = 3
  | |     - Tag 0x0115 (2 bytes, int16u[1]):
  | |       178260: 03 00                                           [..]
  | | 8)  RowsPerStrip = 768
  | |     - Tag 0x0116 (4 bytes, int32u[1]):
  | |       17826c: 00 03 00 00                                     [....]
  | | 9)  PreviewImageLength = 106926
  | |     - Tag 0x0117 (4 bytes, int32u[1]):
  | |       178278: ae a1 01 00                                     [....]
  | | 10) PlanarConfiguration = 1
  | |     - Tag 0x011c (2 bytes, int16u[1]):
  | |       178284: 01 00                                           [..]
  | | 11) YCbCrCoefficients = 0.299 0.587 0.114 (299/1000 587/1000 114/1000)
  | |     - Tag 0x0211 (24 bytes, rational64u[3]):
  | |       1782fe: 2b 01 00 00 e8 03 00 00 4b 02 00 00 e8 03 00 00 [+.......K.......]
  | |       17830e: 72 00 00 00 e8 03 00 00                         [r.......]
  | | 12) YCbCrSubSampling = 2 2
  | |     - Tag 0x0212 (4 bytes, int16u[2]):
  | |       17829c: 02 00 02 00                                     [....]
  | | 13) YCbCrPositioning = 0
  | |     - Tag 0x0213 (2 bytes, int16u[1]):
  | |       1782a8: 00 00                                           [..]
  | | 14) ReferenceBlackWhite = 0 255 128 255 128 255 (0/1 255/1 128/1 255/1 128/1 255/1)
  | |     - Tag 0x0214 (48 bytes, rational64u[6]):
  | |       178316: 00 00 00 00 01 00 00 00 ff 00 00 00 01 00 00 00 [................]
  | |       178326: 80 00 00 00 01 00 00 00 ff 00 00 00 01 00 00 00 [................]
  | |       178336: 80 00 00 00 01 00 00 00 ff 00 00 00 01 00 00 00 [................]
  | | 15) PreviewApplicationName = Adobe DNG Converter
  | |     - Tag 0xc716 (20 bytes, string[20]):
  | |       178346: 41 64 6f 62 65 20 44 4e 47 20 43 6f 6e 76 65 72 [Adobe DNG Conver]
  | |       178356: 74 65 72 00                                     [ter.]
  | | 16) PreviewApplicationVersion = 15.4
  | |     - Tag 0xc717 (5 bytes, string[5]):
  | |       17835a: 31 35 2e 34 00                                  [15.4.]
  | | 17) PreviewSettingsDigest = +..s,.&2...C...E
  | |     - Tag 0xc719 (16 bytes, int8u[16] read as undef[16]):
  | |       178360: 2b a6 d9 73 2c c7 26 32 f4 ef ec 43 db a0 98 45 [+..s,.&2...C...E]
  | | 18) PreviewColorSpace = 2
  | |     - Tag 0xc71a (4 bytes, int32u[1]):
  | |       1782e4: 02 00 00 00                                     [....]
  | | 19) PreviewDateTime = 2023-07-26T06:11:34+02:00
  | |     - Tag 0xc71b (26 bytes, string[26]):
  | |       178370: 32 30 32 33 2d 30 37 2d 32 36 54 30 36 3a 31 31 [2023-07-26T06:11]
  | |       178380: 3a 33 34 2b 30 32 3a 30 30 00                   [:34+02:00.]
  | + [SubIFD2 directory with 16 entries, Little-endian]
  | | 0)  SubfileType = 1
  | |     - Tag 0x00fe (4 bytes, int32u[1]):
  | |       178394: 01 00 00 00                                     [....]
  | | 1)  ImageWidth = 1824
  | |     - Tag 0x0100 (4 bytes, int32u[1]):
  | |       1783a0: 20 07 00 00                                     [ ...]
  | | 2)  ImageHeight = 1368
  | |     - Tag 0x0101 (4 bytes, int32u[1]):
  | |       1783ac: 58 05 00 00                                     [X...]
  | | 3)  BitsPerSample = 8 8 8
  | |     - Tag 0x0102 (6 bytes, int16u[3]):
  | |       178450: 08 00 08 00 08 00                               [......]
  | | 4)  Compression = 34892
  | |     - Tag 0x0103 (2 bytes, int16u[1]):
  | |       1783c4: 4c 88                                           [L.]
  | | 5)  PhotometricInterpretation = 34892
  | |     - Tag 0x0106 (2 bytes, int16u[1]):
  | |       1783d0: 4c 88                                           [L.]
  | | 6)  SamplesPerPixel = 3
  | |     - Tag 0x0115 (2 bytes, int16u[1]):
  | |       1783dc: 03 00                                           [..]
  | | 7)  PlanarConfiguration = 1
  | |     - Tag 0x011c (2 bytes, int16u[1]):
  | |       1783e8: 01 00                                           [..]
  | | 8)  TileWidth = 464
  | |     - Tag 0x0142 (4 bytes, int32u[1]):
  | |       1783f4: d0 01 00 00                                     [....]
  | | 9)  TileLength = 464
  | |     - Tag 0x0143 (4 bytes, int32u[1]):
  | |       178400: d0 01 00 00                                     [....]
  | | 10) TileOffsets = 1797010 1835076 1874808 1915222 1954244 1991106 2041852 2084912 2112100 2161668 2218506 2273914
  | |     - Tag 0x0144 (48 bytes, int32u[12]):
  | |       178456: 92 6b 1b 00 44 00 1c 00 78 9b 1c 00 56 39 1d 00 [.k..D...x...V9..]
  | |       178466: c4 d1 1d 00 c2 61 1e 00 fc 27 1f 00 30 d0 1f 00 [.....a...'..0...]
  | |       178476: 64 3a 20 00 04 fc 20 00 0a da 21 00 7a b2 22 00 [d: ... ...!.z.".]
  | | 11) TileByteCounts = 38066 39731 40413 39021 36861 50745 43059 27187 49568 56838 55408 53367
  | |     - Tag 0x0145 (48 bytes, int32u[12]):
  | |       178486: b2 94 00 00 33 9b 00 00 dd 9d 00 00 6d 98 00 00 [....3.......m...]
  | |       178496: fd 8f 00 00 39 c6 00 00 33 a8 00 00 33 6a 00 00 [....9...3...3j..]
  | |       1784a6: a0 c1 00 00 06 de 00 00 70 d8 00 00 77 d0 00 00 [........p...w...]
  | | 12) PreviewApplicationName = Adobe DNG Converter
  | |     - Tag 0xc716 (20 bytes, string[20]):
  | |       1784b6: 41 64 6f 62 65 20 44 4e 47 20 43 6f 6e 76 65 72 [Adobe DNG Conver]
  | |       1784c6: 74 65 72 00                                     [ter.]
  | | 13) PreviewApplicationVersion = 15.4
  | |     - Tag 0xc717 (5 bytes, string[5]):
  | |       1784ca: 31 35 2e 34 00                                  [15.4.]
  | | 14) OpcodeList2 = ....D.X. ....?3U.....?...\.eD?...1.Py...D.X. .....?p.....@?....D.n?...@.)....D.X. .....?Z3X....?...S..,?...S..
  | |     - Tag 0xc741 (256 bytes, undef[256]):
  | |       1784d0: 00 00 00 03 00 00 00 08 01 03 00 00 00 00 00 00 [................]
  | |       1784e0: 00 00 00 44 00 00 00 00 00 00 00 00 00 00 05 58 [...D...........X]
  | |       1784f0: 00 00 07 20 00 00 00 00 00 00 00 01 00 00 00 01 [... ............]
  | |       178500: 00 00 00 01 00 00 00 03 3f 33 55 1b ac d5 e1 81 [........?3U.....]
  | |       178510: 3f 7f fd 95 5c 8a 65 44 00 00 00 00 00 00 00 00 [?...\.eD........]
  | |       178520: 3f ef bd 9a 31 d1 50 79 00 00 00 08 01 03 00 00 [?...1.Py........]
  | |       178530: 00 00 00 00 00 00 00 44 00 00 00 00 00 00 00 00 [.......D........]
  | |       178540: 00 00 05 58 00 00 07 20 00 00 00 01 00 00 00 01 [...X... ........]
  | |       178550: 00 00 00 01 00 00 00 01 00 00 00 03 3f 70 99 11 [............?p..]
  | |       178560: dd a6 c9 40 3f 7f de cd dc 44 b2 6e 00 00 00 00 [...@?....D.n....]
  | |       178570: 00 00 00 00 3f ef 9f 10 40 8c 29 09 00 00 00 08 [....?...@.).....]
  | |       178580: 01 03 00 00 00 00 00 00 00 00 00 44 00 00 00 00 [...........D....]
  | |       178590: 00 00 00 00 00 00 05 58 00 00 07 20 00 00 00 02 [.......X... ....]
  | |       1785a0: 00 00 00 01 00 00 00 01 00 00 00 01 00 00 00 03 [................]
  | |       1785b0: 3f 5a 33 58 08 8d a7 93 3f 7f f2 e6 53 fb b9 2c [?Z3X....?...S..,]
  | |       1785c0: 00 00 00 00 00 00 00 00 3f ef b3 00 87 53 c1 ba [........?....S..]
  | | 15) CacheVersion = 0 1 0 0
  | |     - Tag 0xc7aa (4 bytes, int32u[1] read as int8u[4]):
  | |       178448: 00 01 00 00                                     [....]
  | + [SubIFD3 directory with 17 entries, Little-endian]
  | | 0)  SubfileType = 1
  | |     - Tag 0x00fe (4 bytes, int32u[1]):
  | |       1785da: 01 00 00 00                                     [....]
  | | 1)  ImageWidth = 512
  | |     - Tag 0x0100 (4 bytes, int32u[1]):
  | |       1785e6: 00 02 00 00                                     [....]
  | | 2)  ImageHeight = 384
  | |     - Tag 0x0101 (4 bytes, int32u[1]):
  | |       1785f2: 80 01 00 00                                     [....]
  | | 3)  BitsPerSample = 8 8 8
  | |     - Tag 0x0102 (6 bytes, int16u[3]):
  | |       1786a2: 08 00 08 00 08 00                               [......]
  | | 4)  Compression = 34892
  | |     - Tag 0x0103 (2 bytes, int16u[1]):
  | |       17860a: 4c 88                                           [L.]
  | | 5)  PhotometricInterpretation = 34892
  | |     - Tag 0x0106 (2 bytes, int16u[1]):
  | |       178616: 4c 88                                           [L.]
  | | 6)  SamplesPerPixel = 3
  | |     - Tag 0x0115 (2 bytes, int16u[1]):
  | |       178622: 03 00                                           [..]
  | | 7)  PlanarConfiguration = 1
  | |     - Tag 0x011c (2 bytes, int16u[1]):
  | |       17862e: 01 00                                           [..]
  | | 8)  TileWidth = 512
  | |     - Tag 0x0142 (4 bytes, int32u[1]):
  | |       17863a: 00 02 00 00                                     [....]
  | | 9)  TileLength = 384
  | |     - Tag 0x0143 (4 bytes, int32u[1]):
  | |       178646: 80 01 00 00                                     [....]
  | | 10) TileOffsets = 2327282
  | |     - Tag 0x0144 (4 bytes, int32u[1]):
  | |       178652: f2 82 23 00                                     [..#.]
  | | 11) TileByteCounts = 46164
  | |     - Tag 0x0145 (4 bytes, int32u[1]):
  | |       17865e: 54 b4 00 00                                     [T...]
  | | 12) BlackLevel = 35 21 21 (35/1 21/1 21/1)
  | |     - Tag 0xc61a (24 bytes, rational64u[3]):
  | |       1786a8: 23 00 00 00 01 00 00 00 15 00 00 00 01 00 00 00 [#...............]
  | |       1786b8: 15 00 00 00 01 00 00 00                         [........]
  | | 13) PreviewApplicationName = Adobe DNG Converter
  | |     - Tag 0xc716 (20 bytes, string[20]):
  | |       1786c0: 41 64 6f 62 65 20 44 4e 47 20 43 6f 6e 76 65 72 [Adobe DNG Conver]
  | |       1786d0: 74 65 72 00                                     [ter.]
  | | 14) PreviewApplicationVersion = 15.4
  | |     - Tag 0xc717 (5 bytes, string[5]):
  | |       1786d4: 31 35 2e 34 00                                  [15.4.]
  | | 15) OpcodeList2 = ....D.......?.?.....D........?.?.....D........?.?..
  | |     - Tag 0xc741 (256 bytes, undef[256]):
  | |       1786da: 00 00 00 03 00 00 00 08 01 03 00 00 00 00 00 00 [................]
  | |       1786ea: 00 00 00 44 00 00 00 00 00 00 00 00 00 00 01 80 [...D............]
  | |       1786fa: 00 00 02 00 00 00 00 00 00 00 00 01 00 00 00 01 [................]
  | |       17870a: 00 00 00 01 00 00 00 03 00 00 00 00 00 00 00 00 [................]
  | |       17871a: 3f 80 00 00 00 00 00 00 00 00 00 00 00 00 00 00 [?...............]
  | |       17872a: 3f ef c0 00 00 00 00 00 00 00 00 08 01 03 00 00 [?...............]
  | |       17873a: 00 00 00 00 00 00 00 44 00 00 00 00 00 00 00 00 [.......D........]
  | |       17874a: 00 00 01 80 00 00 02 00 00 00 00 01 00 00 00 01 [................]
  | |       17875a: 00 00 00 01 00 00 00 01 00 00 00 03 00 00 00 00 [................]
  | |       17876a: 00 00 00 00 3f 80 00 00 00 00 00 00 00 00 00 00 [....?...........]
  | |       17877a: 00 00 00 00 3f ef c0 00 00 00 00 00 00 00 00 08 [....?...........]
  | |       17878a: 01 03 00 00 00 00 00 00 00 00 00 44 00 00 00 00 [...........D....]
  | |       17879a: 00 00 00 00 00 00 01 80 00 00 02 00 00 00 00 02 [................]
  | |       1787aa: 00 00 00 01 00 00 00 01 00 00 00 01 00 00 00 03 [................]
  | |       1787ba: 00 00 00 00 00 00 00 00 3f 80 00 00 00 00 00 00 [........?.......]
  | |       1787ca: 00 00 00 00 00 00 00 00 3f ef c0 00 00 00 00 00 [........?.......]
  | | 16) CacheVersion = 0 1 0 0
  | |     - Tag 0xc7aa (4 bytes, int32u[1] read as int8u[4]):
  | |       17869a: 00 01 00 00                                     [....]
  | + [SubIFD4 directory with 17 entries, Little-endian]
  | | 0)  SubfileType = 1
  | |     - Tag 0x00fe (4 bytes, int32u[1]):
  | |       1787e4: 01 00 00 00                                     [....]
  | | 1)  ImageWidth = 256
  | |     - Tag 0x0100 (4 bytes, int32u[1]):
  | |       1787f0: 00 01 00 00                                     [....]
  | | 2)  ImageHeight = 192
  | |     - Tag 0x0101 (4 bytes, int32u[1]):
  | |       1787fc: c0 00 00 00                                     [....]
  | | 3)  BitsPerSample = 8 8 8
  | |     - Tag 0x0102 (6 bytes, int16u[3]):
  | |       1788ac: 08 00 08 00 08 00                               [......]
  | | 4)  Compression = 34892
  | |     - Tag 0x0103 (2 bytes, int16u[1]):
  | |       178814: 4c 88                                           [L.]
  | | 5)  PhotometricInterpretation = 34892
  | |     - Tag 0x0106 (2 bytes, int16u[1]):
  | |       178820: 4c 88                                           [L.]
  | | 6)  SamplesPerPixel = 3
  | |     - Tag 0x0115 (2 bytes, int16u[1]):
  | |       17882c: 03 00                                           [..]
  | | 7)  PlanarConfiguration = 1
  | |     - Tag 0x011c (2 bytes, int16u[1]):
  | |       178838: 01 00                                           [..]
  | | 8)  TileWidth = 256
  | |     - Tag 0x0142 (4 bytes, int32u[1]):
  | |       178844: 00 01 00 00                                     [....]
  | | 9)  TileLength = 192
  | |     - Tag 0x0143 (4 bytes, int32u[1]):
  | |       178850: c0 00 00 00                                     [....]
  | | 10) TileOffsets = 2373446
  | |     - Tag 0x0144 (4 bytes, int32u[1]):
  | |       17885c: 46 37 24 00                                     [F7$.]
  | | 11) TileByteCounts = 12675
  | |     - Tag 0x0145 (4 bytes, int32u[1]):
  | |       178868: 83 31 00 00                                     [.1..]
  | | 12) BlackLevel = 51 51 51 (51/1 51/1 51/1)
  | |     - Tag 0xc61a (24 bytes, rational64u[3]):
  | |       1788b2: 33 00 00 00 01 00 00 00 33 00 00 00 01 00 00 00 [3.......3.......]
  | |       1788c2: 33 00 00 00 01 00 00 00                         [3.......]
  | | 13) PreviewApplicationName = Adobe DNG Converter
  | |     - Tag 0xc716 (20 bytes, string[20]):
  | |       1788ca: 41 64 6f 62 65 20 44 4e 47 20 43 6f 6e 76 65 72 [Adobe DNG Conver]
  | |       1788da: 74 65 72 00                                     [ter.]
  | | 14) PreviewApplicationVersion = 15.4
  | |     - Tag 0xc717 (5 bytes, string[5]):
  | |       1788de: 31 35 2e 34 00                                  [15.4.]
  | | 15) OpcodeList2 = ....D......?.?.....D.......?.?.....D.......?.?..
  | |     - Tag 0xc741 (256 bytes, undef[256]):
  | |       1788e4: 00 00 00 03 00 00 00 08 01 03 00 00 00 00 00 00 [................]
  | |       1788f4: 00 00 00 44 00 00 00 00 00 00 00 00 00 00 00 c0 [...D............]
  | |       178904: 00 00 01 00 00 00 00 00 00 00 00 01 00 00 00 01 [................]
  | |       178914: 00 00 00 01 00 00 00 03 00 00 00 00 00 00 00 00 [................]
  | |       178924: 3f 80 00 00 00 00 00 00 00 00 00 00 00 00 00 00 [?...............]
  | |       178934: 3f ef c0 00 00 00 00 00 00 00 00 08 01 03 00 00 [?...............]
  | |       178944: 00 00 00 00 00 00 00 44 00 00 00 00 00 00 00 00 [.......D........]
  | |       178954: 00 00 00 c0 00 00 01 00 00 00 00 01 00 00 00 01 [................]
  | |       178964: 00 00 00 01 00 00 00 01 00 00 00 03 00 00 00 00 [................]
  | |       178974: 00 00 00 00 3f 80 00 00 00 00 00 00 00 00 00 00 [....?...........]
  | |       178984: 00 00 00 00 3f ef c0 00 00 00 00 00 00 00 00 08 [....?...........]
  | |       178994: 01 03 00 00 00 00 00 00 00 00 00 44 00 00 00 00 [...........D....]
  | |       1789a4: 00 00 00 00 00 00 00 c0 00 00 01 00 00 00 00 02 [................]
  | |       1789b4: 00 00 00 01 00 00 00 01 00 00 00 01 00 00 00 03 [................]
  | |       1789c4: 00 00 00 00 00 00 00 00 3f 80 00 00 00 00 00 00 [........?.......]
  | |       1789d4: 00 00 00 00 00 00 00 00 3f ef c0 00 00 00 00 00 [........?.......]
  | | 16) CacheVersion = 0 1 0 0
  | |     - Tag 0xc7aa (4 bytes, int32u[1] read as int8u[4]):
  | |       1788a4: 00 01 00 00                                     [....]
  | 18) ApplicationNotes (SubDirectory) -->
  |     - Tag 0x02bc (6368 bytes, int8u[6368] read as undef[6368]):
  |         0336: 3c 3f 78 70 61 63 6b 65 74 20 62 65 67 69 6e 3d [<?xpacket begin=]
  |         0346: 22 ef bb bf 22 20 69 64 3d 22 57 35 4d 30 4d 70 ["..." id="W5M0Mp]
  |         0356: 43 65 68 69 48 7a 72 65 53 7a 4e 54 63 7a 6b 63 [CehiHzreSzNTczkc]
  |         0366: 39 64 22 3f 3e 0a 3c 78 3a 78 6d 70 6d 65 74 61 [9d"?>.<x:xmpmeta]
  |         0376: 20 78 6d 6c 6e 73 3a 78 3d 22 61 64 6f 62 65 3a [ xmlns:x="adobe:]
  |         0386: 6e 73 3a 6d 65 74 61 2f 22 20 78 3a 78 6d 70 74 [ns:meta/" x:xmpt]
  |         0396: 6b 3d 22 41 64 6f 62 65 20 58 4d 50 20 43 6f 72 [k="Adobe XMP Cor]
  |         03a6: 65 20 37 2e 30 2d 63 30 30 30 20 31 2e 30 30 30 [e 7.0-c000 1.000]
  |         03b6: 30 30 30 2c 20 30 30 30 30 2f 30 30 2f 30 30 2d [000, 0000/00/00-]
  |         03c6: 30 30 3a 30 30 3a 30 30 20 20 20 20 20 20 20 20 [00:00:00        ]
  |         03d6: 22 3e 0a 20 3c 72 64 66 3a 52 44 46 20 78 6d 6c [">. <rdf:RDF xml]
  |         03e6: 6e 73 3a 72 64 66 3d 22 68 74 74 70 3a 2f 2f 77 [ns:rdf="http://w]
  |         03f6: 77 77 2e 77 33 2e 6f 72 67 2f 31 39 39 39 2f 30 [ww.w3.org/1999/0]
  |         0406: 32 2f 32 32 2d 72 64 66 2d 73 79 6e 74 61 78 2d [2/22-rdf-syntax-]
  |         0416: 6e 73 23 22 3e 0a 20 20 3c 72 64 66 3a 44 65 73 [ns#">.  <rdf:Des]
  |         0426: 63 72 69 70 74 69 6f 6e 20 72 64 66 3a 61 62 6f [cription rdf:abo]
  |         0436: 75 74 3d 22 22 0a 20 20 20 20 78 6d 6c 6e 73 3a [ut="".    xmlns:]
  |         0446: 64 63 3d 22 68 74 74 70 3a 2f 2f 70 75 72 6c 2e [dc="http://purl.]
  |         0456: 6f 72 67 2f 64 63 2f 65 6c 65 6d 65 6e 74 73 2f [org/dc/elements/]
  |         0466: 31 2e 31 2f 22 0a 20 20 20 20 78 6d 6c 6e 73 3a [1.1/".    xmlns:]
  |         0476: 78 6d 70 3d 22 68 74 74 70 3a 2f 2f 6e 73 2e 61 [xmp="http://ns.a]
  |         0486: 64 6f 62 65 2e 63 6f 6d 2f 78 61 70 2f 31 2e 30 [dobe.com/xap/1.0]
  |         0496: 2f 22 0a 20 20 20 20 78 6d 6c 6e 73 3a 61 75 78 [/".    xmlns:aux]
  |         04a6: 3d 22 68 74 74 70 3a 2f 2f 6e 73 2e 61 64 6f 62 [="http://ns.adob]
  |         04b6: 65 2e 63 6f 6d 2f 65 78 69 66 2f 31 2e 30 2f 61 [e.com/exif/1.0/a]
  |         04c6: 75 78 2f 22 0a 20 20 20 20 78 6d 6c 6e 73 3a 70 [ux/".    xmlns:p]
  |         04d6: 68 6f 74 6f 73 68 6f 70 3d 22 68 74 74 70 3a 2f [hotoshop="http:/]
  |         04e6: 2f 6e 73 2e 61 64 6f 62 65 2e 63 6f 6d 2f 70 68 [/ns.adobe.com/ph]
  |         04f6: 6f 74 6f 73 68 6f 70 2f 31 2e 30 2f 22 0a 20 20 [otoshop/1.0/".  ]
  |         0506: 20 20 78 6d 6c 6e 73 3a 78 6d 70 4d 4d 3d 22 68 [  xmlns:xmpMM="h]
  |         0516: 74 74 70 3a 2f 2f 6e 73 2e 61 64 6f 62 65 2e 63 [ttp://ns.adobe.c]
  |         0526: 6f 6d 2f 78 61 70 2f 31 2e 30 2f 6d 6d 2f 22 0a [om/xap/1.0/mm/".]
  |         0536: 20 20 20 20 78 6d 6c 6e 73 3a 73 74 45 76 74 3d [    xmlns:stEvt=]
  |         0546: 22 68 74 74 70 3a 2f 2f 6e 73 2e 61 64 6f 62 65 ["http://ns.adobe]
  |         0556: 2e 63 6f 6d 2f 78 61 70 2f 31 2e 30 2f 73 54 79 [.com/xap/1.0/sTy]
  |         0566: 70 65 2f 52 65 73 6f 75 72 63 65 45 76 65 6e 74 [pe/ResourceEvent]
  |         0576: 23 22 0a 20 20 20 20 78 6d 6c 6e 73 3a 73 74 52 [#".    xmlns:stR]
  |         0586: 65 66 3d 22 68 74 74 70 3a 2f 2f 6e 73 2e 61 64 [ef="http://ns.ad]
  |         0596: 6f 62 65 2e 63 6f 6d 2f 78 61 70 2f 31 2e 30 2f [obe.com/xap/1.0/]
  |         05a6: 73 54 79 70 65 2f 52 65 73 6f 75 72 63 65 52 65 [sType/ResourceRe]
  |         05b6: 66 23 22 0a 20 20 20 20 78 6d 6c 6e 73 3a 63 72 [f#".    xmlns:cr]
  |         05c6: 64 3d 22 68 74 74 70 3a 2f 2f 6e 73 2e 61 64 6f [d="http://ns.ado]
  |         05d6: 62 65 2e 63 6f 6d 2f 63 61 6d 65 72 61 2d 72 61 [be.com/camera-ra]
  |         05e6: 77 2d 64 65 66 61 75 6c 74 73 2f 31 2e 30 2f 22 [w-defaults/1.0/"]
  |         05f6: 0a 20 20 20 20 78 6d 6c 6e 73 3a 63 72 73 3d 22 [.    xmlns:crs="]
  |         0606: 68 74 74 70 3a 2f 2f 6e 73 2e 61 64 6f 62 65 2e [http://ns.adobe.]
  |         0616: 63 6f 6d 2f 63 61 6d 65 72 61 2d 72 61 77 2d 73 [com/camera-raw-s]
  |         0626: 65 74 74 69 6e 67 73 2f 31 2e 30 2f 22 0a 20 20 [ettings/1.0/".  ]
  |         0636: 20 64 63 3a 66 6f 72 6d 61 74 3d 22 69 6d 61 67 [ dc:format="imag]
  |         0646: 65 2f 64 6e 67 22 0a 20 20 20 78 6d 70 3a 43 72 [e/dng".   xmp:Cr]
  |         0656: 65 61 74 6f 72 54 6f 6f 6c 3d 22 41 64 6f 62 65 [eatorTool="Adobe]
  |         0666: 20 44 4e 47 20 43 6f 6e 76 65 72 74 65 72 20 31 [ DNG Converter 1]
  |         0676: 35 2e 34 20 28 4d 61 63 69 6e 74 6f 73 68 29 22 [5.4 (Macintosh)"]
  |         0686: 0a 20 20 20 78 6d 70 3a 4d 6f 64 69 66 79 44 61 [.   xmp:ModifyDa]
  |         0696: 74 65 3d 22 32 30 32 33 2d 30 37 2d 32 36 54 30 [te="2023-07-26T0]
  |         06a6: 36 3a 31 31 3a 33 34 2b 30 32 3a 30 30 22 0a 20 [6:11:34+02:00". ]
  |         06b6: 20 20 78 6d 70 3a 43 72 65 61 74 65 44 61 74 65 [  xmp:CreateDate]
  |         06c6: 3d 22 32 30 31 34 2d 31 32 2d 32 38 54 31 35 3a [="2014-12-28T15:]
  |         06d6: 35 30 3a 35 37 22 0a 20 20 20 78 6d 70 3a 4d 65 [50:57".   xmp:Me]
  |         06e6: 74 61 64 61 74 61 44 61 74 65 3d 22 32 30 32 33 [tadataDate="2023]
  |         06f6: 2d 30 37 2d 32 36 54 30 36 3a 31 31 3a 33 34 2b [-07-26T06:11:34+]
  |         0706: 30 32 3a 30 30 22 0a 20 20 20 61 75 78 3a 53 65 [02:00".   aux:Se]
  |         0716: 72 69 61 6c 4e 75 6d 62 65 72 3d 22 41 41 4d 35 [rialNumber="AAM5]
  |         0726: 31 36 38 32 32 22 0a 20 20 20 61 75 78 3a 41 70 [16822".   aux:Ap]
  |         0736: 70 72 6f 78 69 6d 61 74 65 46 6f 63 75 73 44 69 [proximateFocusDi]
  |         0746: 73 74 61 6e 63 65 3d 22 31 30 30 2f 31 22 0a 20 [stance="100/1". ]
  |         0756: 20 20 61 75 78 3a 46 6c 61 73 68 43 6f 6d 70 65 [  aux:FlashCompe]
  |         0766: 6e 73 61 74 69 6f 6e 3d 22 2d 35 31 32 2f 32 35 [nsation="-512/25]
  |         0776: 36 22 0a 20 20 20 70 68 6f 74 6f 73 68 6f 70 3a [6".   photoshop:]
  |         0786: 44 61 74 65 43 72 65 61 74 65 64 3d 22 32 30 31 [DateCreated="201]
  |         0796: 34 2d 31 32 2d 32 38 54 31 35 3a 35 30 3a 35 37 [4-12-28T15:50:57]
  |         07a6: 22 0a 20 20 20 78 6d 70 4d 4d 3a 44 6f 63 75 6d [".   xmpMM:Docum]
  |         07b6: 65 6e 74 49 44 3d 22 78 6d 70 2e 64 69 64 3a 61 [entID="xmp.did:a]
  |         07c6: 65 34 32 61 35 34 32 2d 34 36 38 30 2d 34 37 63 [e42a542-4680-47c]
  |         07d6: 34 2d 39 32 62 31 2d 38 36 33 38 62 63 37 66 30 [4-92b1-8638bc7f0]
  |         07e6: 30 37 32 22 0a 20 20 20 78 6d 70 4d 4d 3a 4f 72 [072".   xmpMM:Or]
  |         07f6: 69 67 69 6e 61 6c 44 6f 63 75 6d 65 6e 74 49 44 [iginalDocumentID]
  |         0806: 3d 22 44 45 39 39 32 34 45 43 43 34 36 45 44 37 [="DE9924ECC46ED7]
  |         0816: 30 31 45 33 42 44 33 41 45 33 44 39 34 34 34 44 [01E3BD3AE3D9444D]
  |         0826: 46 42 22 0a 20 20 20 78 6d 70 4d 4d 3a 49 6e 73 [FB".   xmpMM:Ins]
  |         0836: 74 61 6e 63 65 49 44 3d 22 78 6d 70 2e 69 69 64 [tanceID="xmp.iid]
  |         0846: 3a 61 65 34 32 61 35 34 32 2d 34 36 38 30 2d 34 [:ae42a542-4680-4]
  |         0856: 37 63 34 2d 39 32 62 31 2d 38 36 33 38 62 63 37 [7c4-92b1-8638bc7]
  |         0866: 66 30 30 37 32 22 0a 20 20 20 63 72 64 3a 43 61 [f0072".   crd:Ca]
  |         0876: 6d 65 72 61 50 72 6f 66 69 6c 65 3d 22 43 61 6d [meraProfile="Cam]
  |         0886: 65 72 61 20 4e 61 74 75 72 61 6c 22 0a 20 20 20 [era Natural".   ]
  |         0896: 63 72 64 3a 4c 6f 6f 6b 4e 61 6d 65 3d 22 22 0a [crd:LookName="".]
  |         08a6: 20 20 20 63 72 73 3a 48 61 73 53 65 74 74 69 6e [   crs:HasSettin]
  |         08b6: 67 73 3d 22 46 61 6c 73 65 22 0a 20 20 20 63 72 [gs="False".   cr]
  |         08c6: 73 3a 48 61 73 43 72 6f 70 3d 22 46 61 6c 73 65 [s:HasCrop="False]
  |         08d6: 22 0a 20 20 20 63 72 73 3a 41 6c 72 65 61 64 79 [".   crs:Already]
  |         08e6: 41 70 70 6c 69 65 64 3d 22 46 61 6c 73 65 22 3e [Applied="False">]
  |         08f6: 0a 20 20 20 3c 64 63 3a 64 65 73 63 72 69 70 74 [.   <dc:descript]
  |         0906: 69 6f 6e 3e 0a 20 20 20 20 3c 72 64 66 3a 41 6c [ion>.    <rdf:Al]
  |         0916: 74 3e 0a 20 20 20 20 20 3c 72 64 66 3a 6c 69 20 [t>.     <rdf:li ]
  |         0926: 78 6d 6c 3a 6c 61 6e 67 3d 22 78 2d 64 65 66 61 [xml:lang="x-defa]
  |         0936: 75 6c 74 22 3e 4f 4c 59 4d 50 55 53 20 44 49 47 [ult">OLYMPUS DIG]
  |         0946: 49 54 41 4c 20 43 41 4d 45 52 41 3c 2f 72 64 66 [ITAL CAMERA</rdf]
  |         0956: 3a 6c 69 3e 0a 20 20 20 20 3c 2f 72 64 66 3a 41 [:li>.    </rdf:A]
  |         0966: 6c 74 3e 0a 20 20 20 3c 2f 64 63 3a 64 65 73 63 [lt>.   </dc:desc]
  |         0976: 72 69 70 74 69 6f 6e 3e 0a 20 20 20 3c 78 6d 70 [ription>.   <xmp]
  |         0986: 4d 4d 3a 48 69 73 74 6f 72 79 3e 0a 20 20 20 20 [MM:History>.    ]
  |         0996: 3c 72 64 66 3a 53 65 71 3e 0a 20 20 20 20 20 3c [<rdf:Seq>.     <]
  |         09a6: 72 64 66 3a 6c 69 0a 20 20 20 20 20 20 73 74 45 [rdf:li.      stE]
  |         09b6: 76 74 3a 61 63 74 69 6f 6e 3d 22 64 65 72 69 76 [vt:action="deriv]
  |         09c6: 65 64 22 0a 20 20 20 20 20 20 73 74 45 76 74 3a [ed".      stEvt:]
  |         09d6: 70 61 72 61 6d 65 74 65 72 73 3d 22 63 6f 6e 76 [parameters="conv]
  |         09e6: 65 72 74 65 64 20 66 72 6f 6d 20 69 6d 61 67 65 [erted from image]
  |         09f6: 2f 78 2d 6f 6c 79 6d 70 75 73 2d 72 61 77 20 74 [/x-olympus-raw t]
  |         0a06: 6f 20 69 6d 61 67 65 2f 64 6e 67 2c 20 73 61 76 [o image/dng, sav]
  |         0a16: 65 64 20 74 6f 20 6e 65 77 20 6c 6f 63 61 74 69 [ed to new locati]
  |         0a26: 6f 6e 22 2f 3e 0a 20 20 20 20 20 3c 72 64 66 3a [on"/>.     <rdf:]
  |         0a36: 6c 69 0a 20 20 20 20 20 20 73 74 45 76 74 3a 61 [li.      stEvt:a]
  |         0a46: 63 74 69 6f 6e 3d 22 73 61 76 65 64 22 0a 20 20 [ction="saved".  ]
  |         0a56: 20 20 20 20 73 74 45 76 74 3a 69 6e 73 74 61 6e [    stEvt:instan]
  |         0a66: 63 65 49 44 3d 22 78 6d 70 2e 69 69 64 3a 61 65 [ceID="xmp.iid:ae]
  |         0a76: 34 32 61 35 34 32 2d 34 36 38 30 2d 34 37 63 34 [42a542-4680-47c4]
  |         0a86: 2d 39 32 62 31 2d 38 36 33 38 62 63 37 66 30 30 [-92b1-8638bc7f00]
  |         0a96: 37 32 22 0a 20 20 20 20 20 20 73 74 45 76 74 3a [72".      stEvt:]
  |         0aa6: 77 68 65 6e 3d 22 32 30 32 33 2d 30 37 2d 32 36 [when="2023-07-26]
  |         0ab6: 54 30 36 3a 31 31 3a 33 34 2b 30 32 3a 30 30 22 [T06:11:34+02:00"]
  |         0ac6: 0a 20 20 20 20 20 20 73 74 45 76 74 3a 73 6f 66 [.      stEvt:sof]
  |         0ad6: 74 77 61 72 65 41 67 65 6e 74 3d 22 41 64 6f 62 [twareAgent="Adob]
  |         0ae6: 65 20 44 4e 47 20 43 6f 6e 76 65 72 74 65 72 20 [e DNG Converter ]
  |         0af6: 31 35 2e 34 20 28 4d 61 63 69 6e 74 6f 73 68 29 [15.4 (Macintosh)]
  |         0b06: 22 0a 20 20 20 20 20 20 73 74 45 76 74 3a 63 68 [".      stEvt:ch]
  |         0b16: 61 6e 67 65 64 3d 22 2f 22 2f 3e 0a 20 20 20 20 [anged="/"/>.    ]
  |         [snip 4336 bytes]
  | + [XMP directory, 6368 bytes]
  | | XMPToolkit = Adobe XMP Core 7.0-c000 1.000000, 0000/00/00-00:00:00        
  | | Format = image/dng
  | | - Tag 'x:xmpmeta/rdf:RDF/rdf:Description/dc:format'
  | | CreatorTool = Adobe DNG Converter 15.4 (Macintosh)
  | | - Tag 'x:xmpmeta/rdf:RDF/rdf:Description/xmp:CreatorTool'
  | | ModifyDate = 2023-07-26T06:11:34+02:00
  | | - Tag 'x:xmpmeta/rdf:RDF/rdf:Description/xmp:ModifyDate'
  | | CreateDate = 2014-12-28T15:50:57
  | | - Tag 'x:xmpmeta/rdf:RDF/rdf:Description/xmp:CreateDate'
  | | MetadataDate = 2023-07-26T06:11:34+02:00
  | | - Tag 'x:xmpmeta/rdf:RDF/rdf:Description/xmp:MetadataDate'
  | | SerialNumber = AAM516822
  | | - Tag 'x:xmpmeta/rdf:RDF/rdf:Description/aux:SerialNumber'
  | | ApproximateFocusDistance = 100/1
  | | - Tag 'x:xmpmeta/rdf:RDF/rdf:Description/aux:ApproximateFocusDistance'
  | | FlashCompensation = -512/256
  | | - Tag 'x:xmpmeta/rdf:RDF/rdf:Description/aux:FlashCompensation'
  | | DateCreated = 2014-12-28T15:50:57
  | | - Tag 'x:xmpmeta/rdf:RDF/rdf:Description/photoshop:DateCreated'
  | | DocumentID = xmp.did:ae42a542-4680-47c4-92b1-8638bc7f0072
  | | - Tag 'x:xmpmeta/rdf:RDF/rdf:Description/xmpMM:DocumentID'
  | | OriginalDocumentID = DE9924ECC46ED701E3BD3AE3D9444DFB
  | | - Tag 'x:xmpmeta/rdf:RDF/rdf:Description/xmpMM:OriginalDocumentID'
  | | InstanceID = xmp.iid:ae42a542-4680-47c4-92b1-8638bc7f0072
  | | - Tag 'x:xmpmeta/rdf:RDF/rdf:Description/xmpMM:InstanceID'
  | | CameraProfile = Camera Natural
  | | - Tag 'x:xmpmeta/rdf:RDF/rdf:Description/crd:CameraProfile'
  | | LookName = 
  | | - Tag 'x:xmpmeta/rdf:RDF/rdf:Description/crd:LookName'
  | | HasSettings = False
  | | - Tag 'x:xmpmeta/rdf:RDF/rdf:Description/crs:HasSettings'
  | | HasCrop = False
  | | - Tag 'x:xmpmeta/rdf:RDF/rdf:Description/crs:HasCrop'
  | | AlreadyApplied = False
  | | - Tag 'x:xmpmeta/rdf:RDF/rdf:Description/crs:AlreadyApplied'
  | | Description = OLYMPUS DIGITAL CAMERA
  | | - Tag 'x:xmpmeta/rdf:RDF/rdf:Description/dc:description/rdf:Alt/rdf:li 10'
  | | HistoryAction = derived
  | | - Tag 'x:xmpmeta/rdf:RDF/rdf:Description/xmpMM:History/rdf:Seq/rdf:li 10/stEvt:action'
  | | HistoryParameters = converted from image/x-olympus-raw to image/dng, saved to new location
  | | - Tag 'x:xmpmeta/rdf:RDF/rdf:Description/xmpMM:History/rdf:Seq/rdf:li 10/stEvt:parameters'
  | | HistoryAction = saved
  | | - Tag 'x:xmpmeta/rdf:RDF/rdf:Description/xmpMM:History/rdf:Seq/rdf:li 11/stEvt:action'
  | | HistoryInstanceID = xmp.iid:ae42a542-4680-47c4-92b1-8638bc7f0072
  | | - Tag 'x:xmpmeta/rdf:RDF/rdf:Description/xmpMM:History/rdf:Seq/rdf:li 11/stEvt:instanceID'
  | | HistoryWhen = 2023-07-26T06:11:34+02:00
  | | - Tag 'x:xmpmeta/rdf:RDF/rdf:Description/xmpMM:History/rdf:Seq/rdf:li 11/stEvt:when'
  | | HistorySoftwareAgent = Adobe DNG Converter 15.4 (Macintosh)
  | | - Tag 'x:xmpmeta/rdf:RDF/rdf:Description/xmpMM:History/rdf:Seq/rdf:li 11/stEvt:softwareAgent'
  | | HistoryChanged = /
  | | - Tag 'x:xmpmeta/rdf:RDF/rdf:Description/xmpMM:History/rdf:Seq/rdf:li 11/stEvt:changed'
  | | DerivedFromDocumentID = DE9924ECC46ED701E3BD3AE3D9444DFB
  | | - Tag 'x:xmpmeta/rdf:RDF/rdf:Description/xmpMM:DerivedFrom/stRef:documentID'
  | | DerivedFromOriginalDocumentID = DE9924ECC46ED701E3BD3AE3D9444DFB
  | | - Tag 'x:xmpmeta/rdf:RDF/rdf:Description/xmpMM:DerivedFrom/stRef:originalDocumentID'
  | 19) ExifOffset (SubDirectory) -->
  |     - Tag 0x8769 (4 bytes, int32u[1]):
  |         00f6: bc 78 17 00                                     [.x..]
  | + [ExifIFD directory with 30 entries, Little-endian]
  | | 0)  ExposureTime = 0.0015625 (1/640)
  | |     - Tag 0x829a (8 bytes, rational64u[1]):
  | |       177a2a: 01 00 00 00 80 02 00 00                         [........]
  | | 1)  FNumber = 4 (4/1)
  | |     - Tag 0x829d (8 bytes, rational64u[1]):
  | |       177a32: 04 00 00 00 01 00 00 00                         [........]
  | | 2)  ExposureProgram = 2
  | |     - Tag 0x8822 (2 bytes, int16u[1]):
  | |       1778de: 02 00                                           [..]
  | | 3)  ISO = 100
  | |     - Tag 0x8827 (2 bytes, int16u[1]):
  | |       1778ea: 64 00                                           [d.]
  | | 4)  ExifVersion = 0231
  | |     - Tag 0x9000 (4 bytes, undef[4]):
  | |       1778f6: 30 32 33 31                                     [0231]
  | | 5)  DateTimeOriginal = 2014:12:28 15:50:57
  | |     - Tag 0x9003 (20 bytes, string[20]):
  | |       177a3a: 32 30 31 34 3a 31 32 3a 32 38 20 31 35 3a 35 30 [2014:12:28 15:50]
  | |       177a4a: 3a 35 37 00                                     [:57.]
  | | 6)  CreateDate = 2014:12:28 15:50:57
  | |     - Tag 0x9004 (20 bytes, string[20]):
  | |       177a4e: 32 30 31 34 3a 31 32 3a 32 38 20 31 35 3a 35 30 [2014:12:28 15:50]
  | |       177a5e: 3a 35 37 00                                     [:57.]
  | | 7)  OffsetTime = +02:00
  | |     - Tag 0x9010 (7 bytes, string[7]):
  | |       177a62: 2b 30 32 3a 30 30 00                            [+02:00.]
  | | 8)  ShutterSpeedValue = 9.321928 (9321928/1000000)
  | |     - Tag 0x9201 (8 bytes, rational64s[1]):
  | |       177a6a: c8 3d 8e 00 40 42 0f 00                         [.=..@B..]
  | | 9)  ApertureValue = 4 (4/1)
  | |     - Tag 0x9202 (8 bytes, rational64u[1]):
  | |       177a72: 04 00 00 00 01 00 00 00                         [........]
  | | 10) ExposureCompensation = 0 (0/10)
  | |     - Tag 0x9204 (8 bytes, rational64s[1]):
  | |       177a7a: 00 00 00 00 0a 00 00 00                         [........]
  | | 11) MaxApertureValue = 1.7 (170/100)
  | |     - Tag 0x9205 (8 bytes, rational64u[1]):
  | |       177a82: aa 00 00 00 64 00 00 00                         [....d...]
  | | 12) MeteringMode = 2
  | |     - Tag 0x9207 (2 bytes, int16u[1]):
  | |       177956: 02 00                                           [..]
  | | 13) LightSource = 0
  | |     - Tag 0x9208 (2 bytes, int16u[1]):
  | |       177962: 00 00                                           [..]
  | | 14) Flash = 24
  | |     - Tag 0x9209 (2 bytes, int16u[1]):
  | |       17796e: 18 00                                           [..]
  | | 15) FocalLength = 15.27 (1527/100)
  | |     - Tag 0x920a (8 bytes, rational64u[1]):
  | |       177a8a: f7 05 00 00 64 00 00 00                         [....d...]
  | | 16) ColorSpace = 1
  | |     - Tag 0xa001 (2 bytes, int16u[1]):
  | |       177986: 01 00                                           [..]
  | | 17) FileSource = 3
  | |     - Tag 0xa300 (1 bytes, undef[1]):
  | |       177992: 03                                              [.]
  | | 18) CFAPattern = .....
  | |     - Tag 0xa302 (8 bytes, undef[8]):
  | |       177a92: 02 00 02 00 00 01 01 02                         [........]
  | | 19) CustomRendered = 1
  | |     - Tag 0xa401 (2 bytes, int16u[1]):
  | |       1779aa: 01 00                                           [..]
  | | 20) ExposureMode = 0
  | |     - Tag 0xa402 (2 bytes, int16u[1]):
  | |       1779b6: 00 00                                           [..]
  | | 21) WhiteBalance = 1
  | |     - Tag 0xa403 (2 bytes, int16u[1]):
  | |       1779c2: 01 00                                           [..]
  | | 22) DigitalZoomRatio = 1 (100/100)
  | |     - Tag 0xa404 (8 bytes, rational64u[1]):
  | |       177a9a: 64 00 00 00 64 00 00 00                         [d...d...]
  | | 23) FocalLengthIn35mmFormat = 71
  | |     - Tag 0xa405 (2 bytes, int16u[1]):
  | |       1779da: 47 00                                           [G.]
  | | 24) SceneCaptureType = 0
  | |     - Tag 0xa406 (2 bytes, int16u[1]):
  | |       1779e6: 00 00                                           [..]
  | | 25) GainControl = 0
  | |     - Tag 0xa407 (2 bytes, int16u[1]):
  | |       1779f2: 00 00                                           [..]
  | | 26) Contrast = 0
  | |     - Tag 0xa408 (2 bytes, int16u[1]):
  | |       1779fe: 00 00                                           [..]
  | | 27) Saturation = 0
  | |     - Tag 0xa409 (2 bytes, int16u[1]):
  | |       177a0a: 00 00                                           [..]
  | | 28) Sharpness = 0
  | |     - Tag 0xa40a (2 bytes, int16u[1]):
  | |       177a16: 00 00                                           [..]
  | | 29) SerialNumber = AAM516822
  | |     - Tag 0xa431 (10 bytes, string[10]):
  | |       177aa2: 41 41 4d 35 31 36 38 32 32 00                   [AAM516822.]
  | 20) DNGVersion = 1 4 0 0
  |     - Tag 0xc612 (4 bytes, int8u[4]):
  |         0102: 01 04 00 00                                     [....]
  | 21) DNGBackwardVersion = 1 3 0 0
  |     - Tag 0xc613 (4 bytes, int8u[4]):
  |         010e: 01 03 00 00                                     [....]
  | 22) UniqueCameraModel = Olympus XZ-1
  |     - Tag 0xc614 (13 bytes, string[13]):
  |         1c16: 4f 6c 79 6d 70 75 73 20 58 5a 2d 31 00          [Olympus XZ-1.]
  | 23) ColorMatrix1 = 1.1283 -0.5046 -0.0307 -0.0843 0.8485 0.2822 0.0272 0.0824 0.5672 (11283/10000 -5046/10000 -307/10000 -843/10000 8485/10000 2822/10000 272/10000 824/10000 5672/10000)
  |     - Tag 0xc621 (72 bytes, rational64s[9]):
  |         1c24: 13 2c 00 00 10 27 00 00 4a ec ff ff 10 27 00 00 [.,...'..J....'..]
  |         1c34: cd fe ff ff 10 27 00 00 b5 fc ff ff 10 27 00 00 [.....'.......'..]
  |         1c44: 25 21 00 00 10 27 00 00 06 0b 00 00 10 27 00 00 [%!...'.......'..]
  |         1c54: 10 01 00 00 10 27 00 00 38 03 00 00 10 27 00 00 [.....'..8....'..]
  |         1c64: 28 16 00 00 10 27 00 00                         [(....'..]
  | 24) ColorMatrix2 = 1.0901 -0.4095 -0.1074 -0.1141 0.9208 0.2293 -0.0062 0.1417 0.5158 (10901/10000 -4095/10000 -1074/10000 -1141/10000 9208/10000 2293/10000 -62/10000 1417/10000 5158/10000)
  |     - Tag 0xc622 (72 bytes, rational64s[9]):
  |         1c6c: 95 2a 00 00 10 27 00 00 01 f0 ff ff 10 27 00 00 [.*...'.......'..]
  |         1c7c: ce fb ff ff 10 27 00 00 8b fb ff ff 10 27 00 00 [.....'.......'..]
  |         1c8c: f8 23 00 00 10 27 00 00 f5 08 00 00 10 27 00 00 [.#...'.......'..]
  |         1c9c: c2 ff ff ff 10 27 00 00 89 05 00 00 10 27 00 00 [.....'.......'..]
  |         1cac: 26 14 00 00 10 27 00 00                         [&....'..]
  | 25) CameraCalibration1 = 0.9258 0 0 0 1 0 0 0 0.9573 (9258/10000 0/10000 0/10000 0/10000 10000/10000 0/10000 0/10000 0/10000 9573/10000)
  |     - Tag 0xc623 (72 bytes, rational64s[9]):
  |         1cb4: 2a 24 00 00 10 27 00 00 00 00 00 00 10 27 00 00 [*$...'.......'..]
  |         1cc4: 00 00 00 00 10 27 00 00 00 00 00 00 10 27 00 00 [.....'.......'..]
  |         1cd4: 10 27 00 00 10 27 00 00 00 00 00 00 10 27 00 00 [.'...'.......'..]
  |         1ce4: 00 00 00 00 10 27 00 00 00 00 00 00 10 27 00 00 [.....'.......'..]
  |         1cf4: 65 25 00 00 10 27 00 00                         [e%...'..]
  | 26) CameraCalibration2 = 0.9258 0 0 0 1 0 0 0 0.9573 (9258/10000 0/10000 0/10000 0/10000 10000/10000 0/10000 0/10000 0/10000 9573/10000)
  |     - Tag 0xc624 (72 bytes, rational64s[9]):
  |         1cfc: 2a 24 00 00 10 27 00 00 00 00 00 00 10 27 00 00 [*$...'.......'..]
  |         1d0c: 00 00 00 00 10 27 00 00 00 00 00 00 10 27 00 00 [.....'.......'..]
  |         1d1c: 10 27 00 00 10 27 00 00 00 00 00 00 10 27 00 00 [.'...'.......'..]
  |         1d2c: 00 00 00 00 10 27 00 00 00 00 00 00 10 27 00 00 [.....'.......'..]
  |         1d3c: 65 25 00 00 10 27 00 00                         [e%...'..]
  | 27) AnalogBalance = 1 1 1 (1000000/1000000 1000000/1000000 1000000/1000000)
  |     - Tag 0xc627 (24 bytes, rational64u[3]):
  |         1d44: 40 42 0f 00 40 42 0f 00 40 42 0f 00 40 42 0f 00 [@B..@B..@B..@B..]
  |         1d54: 40 42 0f 00 40 42 0f 00                         [@B..@B..]
  | 28) AsShotNeutral = 0.501961 1 0.540084 (501961/1000000 1000000/1000000 540084/1000000)
  |     - Tag 0xc628 (24 bytes, rational64u[3]):
  |         1d5c: c9 a8 07 00 40 42 0f 00 40 42 0f 00 40 42 0f 00 [....@B..@B..@B..]
  |         1d6c: b4 3d 08 00 40 42 0f 00                         [.=..@B..]
  | 29) BaselineExposure = -0.43 (-43/100)
  |     - Tag 0xc62a (8 bytes, rational64s[1]):
  |         1d74: d5 ff ff ff 64 00 00 00                         [....d...]
  | 30) BaselineNoise = 3 (300/100)
  |     - Tag 0xc62b (8 bytes, rational64u[1]):
  |         1d7c: 2c 01 00 00 64 00 00 00                         [,...d...]
  | 31) BaselineSharpness = 1.33 (133/100)
  |     - Tag 0xc62c (8 bytes, rational64u[1]):
  |         1d84: 85 00 00 00 64 00 00 00                         [....d...]
  | 32) LinearResponseLimit = 1 (100/100)
  |     - Tag 0xc62e (8 bytes, rational64u[1]):
  |         1d8c: 64 00 00 00 64 00 00 00                         [d...d...]
  | 33) CameraSerialNumber = AAM516822
  |     - Tag 0xc62f (10 bytes, string[10]):
  |         1d94: 41 41 4d 35 31 36 38 32 32 00                   [AAM516822.]
  | 34) ShadowScale = 1 (1/1)
  |     - Tag 0xc633 (8 bytes, rational64u[1]):
  |         1d9e: 01 00 00 00 01 00 00 00                         [........]
  | 35) DNGAdobeData (SubDirectory) -->
  |     - Tag 0xc634 (1474992 bytes, int8u[1474992] read as undef[1474992]):
  |         1da6: 41 64 6f 62 65 00 4d 61 6b 4e 00 16 81 a2 49 49 [Adobe.MakN....II]
  |         1db6: 00 00 0c 64 4f 4c 59 4d 50 55 53 00 49 49 03 00 [...dOLYMPUS.II..]
  |         1dc6: 08 00 00 01 07 00 39 19 00 00 9c 97 00 00 00 02 [......9.........]
  |         1dd6: 04 00 03 00 00 00 bc 12 00 00 09 02 07 00 20 00 [.............. .]
  |         1de6: 00 00 c8 12 00 00 10 20 0d 00 01 00 00 00 72 00 [....... ......r.]
  |         1df6: 00 00 20 20 0d 00 01 00 00 00 fc 00 00 00 30 20 [..  ..........0 ]
  |         1e06: 0d 00 01 00 00 00 de 03 00 00 40 20 0d 00 01 00 [..........@ ....]
  |         1e16: 00 00 8c 04 00 00 50 20 0d 00 01 00 00 00 d6 0e [......P ........]
  |         1e26: 00 00 00 00 00 00 0b 00 00 00 07 00 04 00 00 00 [................]
  |         1e36: 30 31 30 30 00 01 02 00 06 00 00 00 ec 12 00 00 [0100............]
  |         1e46: 01 01 02 00 20 00 00 00 f2 12 00 00 02 01 02 00 [.... ...........]
  |         1e56: 20 00 00 00 12 13 00 00 03 01 05 00 01 00 00 00 [ ...............]
  |         1e66: 34 13 00 00 04 01 04 00 01 00 00 00 01 14 00 00 [4...............]
  |         1e76: 03 04 02 00 20 00 00 00 f0 13 00 00 00 10 03 00 [.... ...........]
  |         1e86: 01 00 00 00 00 00 00 00 01 10 03 00 01 00 00 00 [................]
  |         1e96: 00 00 00 00 02 10 04 00 01 00 00 00 00 00 00 00 [................]
  |         1ea6: 03 10 02 00 20 00 00 00 18 14 00 00 00 00 00 00 [.... ...........]
  |         1eb6: 3d 00 00 00 07 00 04 00 00 00 30 31 30 30 00 01 [=.........0100..]
  |         1ec6: 04 00 01 00 00 00 01 00 00 00 01 01 04 00 01 00 [................]
  |         1ed6: 00 00 9c bf 00 00 02 01 04 00 01 00 00 00 55 40 [..............U@]
  |         1ee6: 10 00 00 02 03 00 01 00 00 00 02 00 00 00 01 02 [................]
  |         1ef6: 03 00 01 00 00 00 00 00 00 00 02 02 03 00 01 00 [................]
  |         1f06: 00 00 02 00 00 00 03 02 0a 00 01 00 00 00 50 14 [..............P.]
  |         1f16: 00 00 04 02 01 00 01 00 00 00 00 00 00 00 00 03 [................]
  |         1f26: 03 00 01 00 00 00 01 00 00 00 01 03 03 00 02 00 [................]
  |         1f36: 00 00 00 00 00 00 02 03 03 00 02 00 00 00 00 00 [................]
  |         1f46: 00 00 03 03 03 00 01 00 00 00 00 00 00 00 04 03 [................]
  |         1f56: 04 00 40 00 00 00 68 14 00 00 05 03 0a 00 05 00 [..@...h.........]
  |         1f66: 00 00 68 15 00 00 06 03 01 00 01 00 00 00 00 00 [..h.............]
  |         1f76: 00 00 07 03 08 00 03 00 00 00 92 15 00 00 00 04 [................]
  |         1f86: 03 00 01 00 00 00 28 00 00 00 01 04 0a 00 01 00 [......(.........]
  |         1f96: 00 00 9c 15 00 00 02 04 03 00 01 00 00 00 00 00 [................]
  |         1fa6: 00 00 03 04 03 00 01 00 00 00 00 00 00 00 04 04 [................]
  |         1fb6: 03 00 03 00 00 00 a8 15 00 00 05 04 0a 00 03 00 [................]
  |         1fc6: 00 00 b0 15 00 00 06 04 0a 00 03 00 00 00 c8 15 [................]
  |         1fd6: 00 00 00 05 03 00 01 00 00 00 00 00 00 00 01 05 [................]
  |         1fe6: 03 00 01 00 00 00 00 00 00 00 02 05 08 00 02 00 [................]
  |         1ff6: 00 00 01 00 00 00 03 05 08 00 03 00 00 00 e8 15 [................]
  |         2006: 00 00 04 05 03 00 01 00 00 00 00 00 00 00 05 05 [................]
  |         2016: 08 00 03 00 00 00 f0 15 00 00 06 05 08 00 03 00 [................]
  |         2026: 00 00 f6 15 00 00 07 05 03 00 01 00 00 00 00 00 [................]
  |         2036: 00 00 08 05 03 00 01 00 00 00 00 00 00 00 09 05 [................]
  |         2046: 03 00 01 00 00 00 00 00 00 00 0a 05 03 00 01 00 [................]
  |         2056: 00 00 01 00 00 00 0b 05 03 00 01 00 00 00 00 00 [................]
  |         2066: 00 00 0c 05 03 00 01 00 00 00 00 00 00 00 0e 05 [................]
  |         2076: 03 00 01 00 00 00 00 00 00 00 0f 05 08 00 04 00 [................]
  |         2086: 00 00 12 16 00 00 20 05 03 00 02 00 00 00 02 00 [...... .........]
  |         2096: 02 00 21 05 08 00 03 00 00 00 64 16 00 00 22 05 [..!.......d...".]
  |         20a6: 03 00 01 00 00 00 00 00 00 00 23 05 08 00 03 00 [..........#.....]
  |         20b6: 00 00 6c 16 00 00 24 05 08 00 03 00 00 00 72 16 [..l...$.......r.]
  |         20c6: 00 00 25 05 08 00 01 00 00 00 00 00 00 00 26 05 [..%...........&.]
  |         20d6: 08 00 01 00 00 00 00 00 00 00 27 05 08 00 03 00 [..........'.....]
  |         20e6: 00 00 1a 16 00 00 28 05 03 00 01 00 00 00 00 00 [......(.........]
  |         20f6: 00 00 29 05 03 00 04 00 00 00 22 16 00 00 2a 05 [..)......."...*.]
  |         2106: 04 00 01 00 00 00 33 01 08 00 2b 05 03 00 10 00 [......3...+.....]
  |         2116: 00 00 30 16 00 00 2e 05 08 00 0c 00 00 00 7c 16 [..0...........|.]
  |         2126: 00 00 2f 05 03 00 14 00 00 00 94 16 00 00 30 05 [../...........0.]
  |         2136: 03 00 20 00 00 00 bc 16 00 00 00 06 03 00 03 00 [.. .............]
  |         2146: 00 00 fc 16 00 00 01 06 03 00 02 00 00 00 00 00 [................]
  |         2156: 00 00 04 06 04 00 01 00 00 00 01 00 00 00 00 08 [................]
  |         2166: 03 00 01 00 00 00 01 00 00 00 00 09 03 00 01 00 [................]
  |         2176: 00 00 00 00 00 00 01 09 09 00 02 00 00 00 94 17 [................]
  |         2186: 00 00 02 09 03 00 01 00 00 00 00 00 00 00 00 00 [................]
  |         2196: 00 00 0e 00 00 00 07 00 04 00 00 00 30 31 30 30 [............0100]
  |         21a6: 00 01 0a 00 01 00 00 00 ac 17 00 00 01 01 03 00 [................]
  |         21b6: 01 00 00 00 00 00 00 00 02 01 08 00 01 00 00 00 [................]
  |         21c6: 00 00 00 00 03 01 03 00 03 00 00 00 b8 17 00 00 [................]
  |         21d6: 04 01 08 00 03 00 00 00 be 17 00 00 05 01 03 00 [................]
  |         21e6: 01 00 00 00 00 00 00 00 06 01 08 00 03 00 00 00 [................]
  |         21f6: c6 17 00 00 07 01 08 00 03 00 00 00 cc 17 00 00 [................]
  |         2206: 08 01 03 00 01 00 00 00 00 00 00 00 09 01 03 00 [................]
  |         2216: 01 00 00 00 00 00 00 00 0a 01 03 00 01 00 00 00 [................]
  |         2226: 00 00 00 00 0b 01 03 00 01 00 00 00 00 00 00 00 [................]
  |         2236: 0c 01 03 00 01 00 00 00 00 00 00 00 00 00 00 00 [................]
  |         2246: db 00 00 00 07 00 04 00 00 00 30 31 31 32 00 01 [..........0112..]
  |         2256: 03 00 04 00 00 00 de 17 00 00 01 01 03 00 04 00 [................]
  |         2266: 00 00 e6 17 00 00 02 01 03 00 04 00 00 00 ee 17 [................]
  |         2276: 00 00 03 01 03 00 04 00 00 00 f6 17 00 00 04 01 [................]
  |         2286: 03 00 04 00 00 00 fe 17 00 00 05 01 03 00 04 00 [................]
  |         2296: 00 00 06 18 00 00 06 01 03 00 04 00 00 00 0e 18 [................]
  |         22a6: 00 00 07 01 03 00 04 00 00 00 16 18 00 00 08 01 [................]
  |         22b6: 03 00 04 00 00 00 1e 18 00 00 09 01 03 00 04 00 [................]
  |         22c6: 00 00 26 18 00 00 0a 01 03 00 04 00 00 00 2e 18 [..&.............]
  |         22d6: 00 00 0b 01 03 00 04 00 00 00 36 18 00 00 0c 01 [..........6.....]
  |         22e6: 03 00 04 00 00 00 3e 18 00 00 0d 01 03 00 04 00 [......>.........]
  |         22f6: 00 00 46 18 00 00 0e 01 03 00 04 00 00 00 4e 18 [..F...........N.]
  |         2306: 00 00 0f 01 03 00 04 00 00 00 56 18 00 00 10 01 [..........V.....]
  |         2316: 03 00 04 00 00 00 5e 18 00 00 11 01 03 00 04 00 [......^.........]
  |         2326: 00 00 66 18 00 00 20 01 03 00 04 00 00 00 6e 18 [..f... .......n.]
  |         2336: 00 00 21 01 03 00 04 00 00 00 76 18 00 00 22 01 [..!.......v...".]
  |         2346: 08 00 08 00 00 00 7e 18 00 00 23 01 03 00 08 00 [......~...#.....]
  |         2356: 00 00 8e 18 00 00 24 01 03 00 01 00 00 00 f4 bf [......$.........]
  |         2366: 00 00 25 01 03 00 04 00 00 00 a0 18 00 00 00 02 [..%.............]
  |         2376: 03 00 09 00 00 00 aa 18 00 00 01 02 03 00 09 00 [................]
  |         2386: 00 00 bc 18 00 00 02 02 03 00 09 00 00 00 ce 18 [................]
  |         2396: 00 00 03 02 03 00 09 00 00 00 e0 18 00 00 04 02 [................]
  |         23a6: 03 00 09 00 00 00 f2 18 00 00 05 02 03 00 09 00 [................]
  |         23b6: 00 00 04 19 00 00 06 02 03 00 09 00 00 00 16 19 [................]
  |         23c6: 00 00 07 02 03 00 09 00 00 00 28 19 00 00 08 02 [..........(.....]
  |         23d6: 03 00 09 00 00 00 3a 19 00 00 09 02 03 00 09 00 [......:.........]
  |         23e6: 00 00 4c 19 00 00 0a 02 03 00 09 00 00 00 5e 19 [..L...........^.]
  |         23f6: 00 00 0b 02 03 00 09 00 00 00 70 19 00 00 0c 02 [..........p.....]
  |         2406: 03 00 09 00 00 00 82 19 00 00 0d 02 03 00 09 00 [................]
  |         2416: 00 00 94 19 00 00 0e 02 03 00 09 00 00 00 a6 19 [................]
  |         2426: 00 00 0f 02 03 00 09 00 00 00 b8 19 00 00 10 02 [................]
  |         2436: 03 00 09 00 00 00 ca 19 00 00 11 02 03 00 09 00 [................]
  |         2446: 00 00 dc 19 00 00 12 02 03 00 09 00 00 00 ee 19 [................]
  |         2456: 00 00 13 02 03 00 09 00 00 00 00 1a 00 00 14 02 [................]
  |         2466: 03 00 09 00 00 00 12 1a 00 00 15 02 03 00 09 00 [................]
  |         2476: 00 00 24 1a 00 00 16 02 03 00 09 00 00 00 36 1a [..$...........6.]
  |         2486: 00 00 17 02 03 00 09 00 00 00 48 1a 00 00 18 02 [..........H.....]
  |         2496: 03 00 09 00 00 00 5a 1a 00 00 19 02 03 00 09 00 [......Z.........]
  |         24a6: 00 00 6c 1a 00 00 1a 02 03 00 09 00 00 00 7e 1a [..l...........~.]
  |         24b6: 00 00 28 02 03 00 09 00 00 00 90 1a 00 00 29 02 [..(...........).]
  |         24c6: 03 00 09 00 00 00 a2 1a 00 00 59 02 08 00 63 00 [..........Y...c.]
  |         24d6: 00 00 b4 1a 00 00 02 03 03 00 01 00 00 00 00 01 [................]
  |         24e6: 00 00 03 03 03 00 01 00 00 00 00 00 00 00 04 03 [................]
  |         24f6: 03 00 0b 00 00 00 7e 1b 00 00 05 03 03 00 05 00 [......~.........]
  |         2506: 00 00 96 1b 00 00 12 03 03 00 01 00 00 00 00 01 [................]
  |         2516: 00 00 13 03 03 00 01 00 00 00 00 00 00 00 14 03 [................]
  |         2526: 03 00 0b 00 00 00 a0 1b 00 00 15 03 03 00 05 00 [................]
  |         2536: 00 00 b6 1b 00 00 40 03 08 00 18 00 00 00 c2 1b [......@.........]
  |         2546: 00 00 41 03 08 00 18 00 00 00 f2 1b 00 00 42 03 [..A...........B.]
  |         2556: 08 00 18 00 00 00 22 1c 00 00 43 03 08 00 18 00 [......"...C.....]
  |         2566: 00 00 52 1c 00 00 50 03 03 00 0c 00 00 00 82 1c [..R...P.........]
  |         2576: 00 00 51 03 03 00 1e 00 00 00 9a 1c 00 00 00 04 [..Q.............]
  |         2586: 03 00 3f 00 00 00 20 1d 00 00 01 04 03 00 05 00 [..?... .........]
  |         [snip 1472960 bytes]
  | + [DNGAdobeData directory, 1474992 bytes]
  | | MakN = II.dOLYMPUSII....9........... ... ..r  ...0 ....@ ....P .......0100........ ..... ......4.......... ................ ..=..0100..............U@..................P........................@h.....h..............(..................................................................................................... .....!...d."...#...l.$...r.%...&...'.....(...)...".*...3..+...0.....|./.....0.. ....................................0100................................................................0112.........................................................&...........6.....>.....F.....N.....V.....^.....f. ...n.!...v."...~.#.....$.....%..................................................(.....:.....L.....^.....p..........................................................$.....6.....H.....Z.....l.....~.(.....).....Y..c...............~............................@.....A.....B...".C...R.P.....Q.......? .................................................................. ...!...".....#.....$.....%..........................*.........................@......................... ....0....5....36..P.G7.....8...@...A....B...C....D....E....F....G....H....I....P....Q....R....S....T.......h........................................................................................................$.....,.....2.................................:..G......G.......r..............\.....l.....=............................................................................................ ..... .... ..... ....`"....l"..............~"....."....."................"...............6.....1......".................&#.....".....".....#....22....22............,#....8#....................^#........z#.....#.........#.........#....Q..0100...f.f......#............R....S.#......................................$.....$.........$......$.................&0.....0....60..............................H0.................0.............0........Z0........3A.....n..............p0...........T.0.................... ....1!....."...#...$.....%....1&....1'...(....1.......(.........[snip]
  | | - Tag 'MakN' (1474978 bytes):
  | |     1db4: 49 49 00 00 0c 64 4f 4c 59 4d 50 55 53 00 49 49 [II...dOLYMPUS.II]
  | |     1dc4: 03 00 08 00 00 01 07 00 39 19 00 00 9c 97 00 00 [........9.......]
  | |     1dd4: 00 02 04 00 03 00 00 00 bc 12 00 00 09 02 07 00 [................]
  | |     1de4: 20 00 00 00 c8 12 00 00 10 20 0d 00 01 00 00 00 [ ........ ......]
  | |     1df4: 72 00 00 00 20 20 0d 00 01 00 00 00 fc 00 00 00 [r...  ..........]
  | |     1e04: 30 20 0d 00 01 00 00 00 de 03 00 00 40 20 0d 00 [0 ..........@ ..]
  | |     1e14: 01 00 00 00 8c 04 00 00 50 20 0d 00 01 00 00 00 [........P ......]
  | |     1e24: d6 0e 00 00 00 00 00 00 0b 00 00 00 07 00 04 00 [................]
  | |     1e34: 00 00 30 31 30 30 00 01 02 00 06 00 00 00 ec 12 [..0100..........]
  | |     1e44: 00 00 01 01 02 00 20 00 00 00 f2 12 00 00 02 01 [...... .........]
  | |     1e54: 02 00 20 00 00 00 12 13 00 00 03 01 05 00 01 00 [.. .............]
  | |     1e64: 00 00 34 13 00 00 04 01 04 00 01 00 00 00 01 14 [..4.............]
  | |     1e74: 00 00 03 04 02 00 20 00 00 00 f0 13 00 00 00 10 [...... .........]
  | |     1e84: 03 00 01 00 00 00 00 00 00 00 01 10 03 00 01 00 [................]
  | |     1e94: 00 00 00 00 00 00 02 10 04 00 01 00 00 00 00 00 [................]
  | |     1ea4: 00 00 03 10 02 00 20 00 00 00 18 14 00 00 00 00 [...... .........]
  | |     1eb4: 00 00 3d 00 00 00 07 00 04 00 00 00 30 31 30 30 [..=.........0100]
  | |     1ec4: 00 01 04 00 01 00 00 00 01 00 00 00 01 01 04 00 [................]
  | |     1ed4: 01 00 00 00 9c bf 00 00 02 01 04 00 01 00 00 00 [................]
  | |     1ee4: 55 40 10 00 00 02 03 00 01 00 00 00 02 00 00 00 [U@..............]
  | |     1ef4: 01 02 03 00 01 00 00 00 00 00 00 00 02 02 03 00 [................]
  | |     1f04: 01 00 00 00 02 00 00 00 03 02 0a 00 01 00 00 00 [................]
  | |     1f14: 50 14 00 00 04 02 01 00 01 00 00 00 00 00 00 00 [P...............]
  | |     1f24: 00 03 03 00 01 00 00 00 01 00 00 00 01 03 03 00 [................]
  | |     1f34: 02 00 00 00 00 00 00 00 02 03 03 00 02 00 00 00 [................]
  | |     1f44: 00 00 00 00 03 03 03 00 01 00 00 00 00 00 00 00 [................]
  | |     1f54: 04 03 04 00 40 00 00 00 68 14 00 00 05 03 0a 00 [....@...h.......]
  | |     1f64: 05 00 00 00 68 15 00 00 06 03 01 00 01 00 00 00 [....h...........]
  | |     1f74: 00 00 00 00 07 03 08 00 03 00 00 00 92 15 00 00 [................]
  | |     1f84: 00 04 03 00 01 00 00 00 28 00 00 00 01 04 0a 00 [........(.......]
  | |     1f94: 01 00 00 00 9c 15 00 00 02 04 03 00 01 00 00 00 [................]
  | |     1fa4: 00 00 00 00 03 04 03 00 01 00 00 00 00 00 00 00 [................]
  | |     1fb4: 04 04 03 00 03 00 00 00 a8 15 00 00 05 04 0a 00 [................]
  | |     1fc4: 03 00 00 00 b0 15 00 00 06 04 0a 00 03 00 00 00 [................]
  | |     1fd4: c8 15 00 00 00 05 03 00 01 00 00 00 00 00 00 00 [................]
  | |     1fe4: 01 05 03 00 01 00 00 00 00 00 00 00 02 05 08 00 [................]
  | |     1ff4: 02 00 00 00 01 00 00 00 03 05 08 00 03 00 00 00 [................]
  | |     2004: e8 15 00 00 04 05 03 00 01 00 00 00 00 00 00 00 [................]
  | |     2014: 05 05 08 00 03 00 00 00 f0 15 00 00 06 05 08 00 [................]
  | |     2024: 03 00 00 00 f6 15 00 00 07 05 03 00 01 00 00 00 [................]
  | |     2034: 00 00 00 00 08 05 03 00 01 00 00 00 00 00 00 00 [................]
  | |     2044: 09 05 03 00 01 00 00 00 00 00 00 00 0a 05 03 00 [................]
  | |     2054: 01 00 00 00 01 00 00 00 0b 05 03 00 01 00 00 00 [................]
  | |     2064: 00 00 00 00 0c 05 03 00 01 00 00 00 00 00 00 00 [................]
  | |     2074: 0e 05 03 00 01 00 00 00 00 00 00 00 0f 05 08 00 [................]
  | |     2084: 04 00 00 00 12 16 00 00 20 05 03 00 02 00 00 00 [........ .......]
  | |     2094: 02 00 02 00 21 05 08 00 03 00 00 00 64 16 00 00 [....!.......d...]
  | |     20a4: 22 05 03 00 01 00 00 00 00 00 00 00 23 05 08 00 ["...........#...]
  | |     20b4: 03 00 00 00 6c 16 00 00 24 05 08 00 03 00 00 00 [....l...$.......]
  | |     20c4: 72 16 00 00 25 05 08 00 01 00 00 00 00 00 00 00 [r...%...........]
  | |     20d4: 26 05 08 00 01 00 00 00 00 00 00 00 27 05 08 00 [&...........'...]
  | |     20e4: 03 00 00 00 1a 16 00 00 28 05 03 00 01 00 00 00 [........(.......]
  | |     20f4: 00 00 00 00 29 05 03 00 04 00 00 00 22 16 00 00 [....)......."...]
  | |     2104: 2a 05 04 00 01 00 00 00 33 01 08 00 2b 05 03 00 [*.......3...+...]
  | |     2114: 10 00 00 00 30 16 00 00 2e 05 08 00 0c 00 00 00 [....0...........]
  | |     2124: 7c 16 00 00 2f 05 03 00 14 00 00 00 94 16 00 00 [|.../...........]
  | |     2134: 30 05 03 00 20 00 00 00 bc 16 00 00 00 06 03 00 [0... ...........]
  | |     2144: 03 00 00 00 fc 16 00 00 01 06 03 00 02 00 00 00 [................]
  | |     2154: 00 00 00 00 04 06 04 00 01 00 00 00 01 00 00 00 [................]
  | |     2164: 00 08 03 00 01 00 00 00 01 00 00 00 00 09 03 00 [................]
  | |     2174: 01 00 00 00 00 00 00 00 01 09 09 00 02 00 00 00 [................]
  | |     2184: 94 17 00 00 02 09 03 00 01 00 00 00 00 00 00 00 [................]
  | |     2194: 00 00 00 00 0e 00 00 00 07 00 04 00 00 00 30 31 [..............01]
  | |     21a4: 30 30 00 01 0a 00 01 00 00 00 ac 17 00 00 01 01 [00..............]
  | |     21b4: 03 00 01 00 00 00 00 00 00 00 02 01 08 00 01 00 [................]
  | |     21c4: 00 00 00 00 00 00 03 01 03 00 03 00 00 00 b8 17 [................]
  | |     21d4: 00 00 04 01 08 00 03 00 00 00 be 17 00 00 05 01 [................]
  | |     21e4: 03 00 01 00 00 00 00 00 00 00 06 01 08 00 03 00 [................]
  | |     21f4: 00 00 c6 17 00 00 07 01 08 00 03 00 00 00 cc 17 [................]
  | |     2204: 00 00 08 01 03 00 01 00 00 00 00 00 00 00 09 01 [................]
  | |     2214: 03 00 01 00 00 00 00 00 00 00 0a 01 03 00 01 00 [................]
  | |     2224: 00 00 00 00 00 00 0b 01 03 00 01 00 00 00 00 00 [................]
  | |     2234: 00 00 0c 01 03 00 01 00 00 00 00 00 00 00 00 00 [................]
  | |     2244: 00 00 db 00 00 00 07 00 04 00 00 00 30 31 31 32 [............0112]
  | |     2254: 00 01 03 00 04 00 00 00 de 17 00 00 01 01 03 00 [................]
  | |     2264: 04 00 00 00 e6 17 00 00 02 01 03 00 04 00 00 00 [................]
  | |     2274: ee 17 00 00 03 01 03 00 04 00 00 00 f6 17 00 00 [................]
  | |     2284: 04 01 03 00 04 00 00 00 fe 17 00 00 05 01 03 00 [................]
  | |     2294: 04 00 00 00 06 18 00 00 06 01 03 00 04 00 00 00 [................]
  | |     22a4: 0e 18 00 00 07 01 03 00 04 00 00 00 16 18 00 00 [................]
  | |     22b4: 08 01 03 00 04 00 00 00 1e 18 00 00 09 01 03 00 [................]
  | |     22c4: 04 00 00 00 26 18 00 00 0a 01 03 00 04 00 00 00 [....&...........]
  | |     22d4: 2e 18 00 00 0b 01 03 00 04 00 00 00 36 18 00 00 [............6...]
  | |     22e4: 0c 01 03 00 04 00 00 00 3e 18 00 00 0d 01 03 00 [........>.......]
  | |     22f4: 04 00 00 00 46 18 00 00 0e 01 03 00 04 00 00 00 [....F...........]
  | |     2304: 4e 18 00 00 0f 01 03 00 04 00 00 00 56 18 00 00 [N...........V...]
  | |     2314: 10 01 03 00 04 00 00 00 5e 18 00 00 11 01 03 00 [........^.......]
  | |     2324: 04 00 00 00 66 18 00 00 20 01 03 00 04 00 00 00 [....f... .......]
  | |     2334: 6e 18 00 00 21 01 03 00 04 00 00 00 76 18 00 00 [n...!.......v...]
  | |     2344: 22 01 08 00 08 00 00 00 7e 18 00 00 23 01 03 00 [".......~...#...]
  | |     2354: 08 00 00 00 8e 18 00 00 24 01 03 00 01 00 00 00 [........$.......]
  | |     2364: f4 bf 00 00 25 01 03 00 04 00 00 00 a0 18 00 00 [....%...........]
  | |     2374: 00 02 03 00 09 00 00 00 aa 18 00 00 01 02 03 00 [................]
  | |     2384: 09 00 00 00 bc 18 00 00 02 02 03 00 09 00 00 00 [................]
  | |     2394: ce 18 00 00 03 02 03 00 09 00 00 00 e0 18 00 00 [................]
  | |     23a4: 04 02 03 00 09 00 00 00 f2 18 00 00 05 02 03 00 [................]
  | |     23b4: 09 00 00 00 04 19 00 00 06 02 03 00 09 00 00 00 [................]
  | |     23c4: 16 19 00 00 07 02 03 00 09 00 00 00 28 19 00 00 [............(...]
  | |     23d4: 08 02 03 00 09 00 00 00 3a 19 00 00 09 02 03 00 [........:.......]
  | |     23e4: 09 00 00 00 4c 19 00 00 0a 02 03 00 09 00 00 00 [....L...........]
  | |     23f4: 5e 19 00 00 0b 02 03 00 09 00 00 00 70 19 00 00 [^...........p...]
  | |     2404: 0c 02 03 00 09 00 00 00 82 19 00 00 0d 02 03 00 [................]
  | |     2414: 09 00 00 00 94 19 00 00 0e 02 03 00 09 00 00 00 [................]
  | |     2424: a6 19 00 00 0f 02 03 00 09 00 00 00 b8 19 00 00 [................]
  | |     2434: 10 02 03 00 09 00 00 00 ca 19 00 00 11 02 03 00 [................]
  | |     2444: 09 00 00 00 dc 19 00 00 12 02 03 00 09 00 00 00 [................]
  | |     2454: ee 19 00 00 13 02 03 00 09 00 00 00 00 1a 00 00 [................]
  | |     2464: 14 02 03 00 09 00 00 00 12 1a 00 00 15 02 03 00 [................]
  | |     2474: 09 00 00 00 24 1a 00 00 16 02 03 00 09 00 00 00 [....$...........]
  | |     2484: 36 1a 00 00 17 02 03 00 09 00 00 00 48 1a 00 00 [6...........H...]
  | |     2494: 18 02 03 00 09 00 00 00 5a 1a 00 00 19 02 03 00 [........Z.......]
  | |     24a4: 09 00 00 00 6c 1a 00 00 1a 02 03 00 09 00 00 00 [....l...........]
  | |     24b4: 7e 1a 00 00 28 02 03 00 09 00 00 00 90 1a 00 00 [~...(...........]
  | |     24c4: 29 02 03 00 09 00 00 00 a2 1a 00 00 59 02 08 00 [)...........Y...]
  | |     24d4: 63 00 00 00 b4 1a 00 00 02 03 03 00 01 00 00 00 [c...............]
  | |     24e4: 00 01 00 00 03 03 03 00 01 00 00 00 00 00 00 00 [................]
  | |     24f4: 04 03 03 00 0b 00 00 00 7e 1b 00 00 05 03 03 00 [........~.......]
  | |     2504: 05 00 00 00 96 1b 00 00 12 03 03 00 01 00 00 00 [................]
  | |     2514: 00 01 00 00 13 03 03 00 01 00 00 00 00 00 00 00 [................]
  | |     2524: 14 03 03 00 0b 00 00 00 a0 1b 00 00 15 03 03 00 [................]
  | |     2534: 05 00 00 00 b6 1b 00 00 40 03 08 00 18 00 00 00 [........@.......]
  | |     2544: c2 1b 00 00 41 03 08 00 18 00 00 00 f2 1b 00 00 [....A...........]
  | |     2554: 42 03 08 00 18 00 00 00 22 1c 00 00 43 03 08 00 [B......."...C...]
  | |     2564: 18 00 00 00 52 1c 00 00 50 03 03 00 0c 00 00 00 [....R...P.......]
  | |     2574: 82 1c 00 00 51 03 03 00 1e 00 00 00 9a 1c 00 00 [....Q...........]
  | |     2584: 00 04 03 00 3f 00 00 00 20 1d 00 00 01 04 03 00 [....?... .......]
  | |     2594: 05 00 00 00 d6 1c 00 00 02 04 03 00 05 00 00 00 [................]
  | |     [snip 1472946 bytes]
  | | + [AdobeMakN directory, 1474978 bytes]
  | | | + [MakerNotes directory with 8 entries, Little-endian]
  | | | | 0)  ThumbnailImage = .............................................................!.. .........................................................................x...!..........................................}.......!1A..Qa."q.2....#B...R..$3br........%&'()*456789:CDEFGHIJSTUVWXYZcdefghijstuvwxyz.............................................................................................................w......!1..AQ.aq."2...B.....#3R..br...$4.%.....&'()*56789:CDEFGHIJSTUVWXYZcdefghijstuvwxyz.................................................................................?..>.........w....K..F{z..d...M.{.!....). .%.&.#OF....##QL...~.<q.....Cm$..F.;...Ph...Y:C..F...X..#../.f..`r......j.d.jw.l.Xb./.4.3.......w...b...j..|....1.j)q..s....@ONF1.|Ly$...@..L1. ....i0.q@.Zg{....pK#..A..:...\.=1R.!.n..8...c......l;..as..1..z.1VVk.._.zpY.K.'l;H.V?67.qD.w&kc.x.xR".|......+J.b..*(\c.u.+..Y.......M+).b.'.i.V.........7........%.....2q.b.!9iO..jH./.#.g.H.'.gn....$.........s......28.?.=..y...B.N....A....R.........R.0.x.#.....}}.SF,..sop.-.d...~.....Xd....N..de..^r...br.....Z..' .D.,....@..@..A.qP-.#..F2h. ....pNsJ..r<...X..GWv.0.S...{...`'..!.H....I=Oz.k9L.>^..1.V%.8.Ri.W *..E.+.......K...S.4..)].,G.....i..n..|...c..N.s>.....Z.,..Y/g7...G..v...6. ....4].X.Ka..6:..K..J.?.b*M:../....D.d.`....).p.<..+.a..$q..N.j(Q.R.xf.>.1.Wlr6>m.8.....01.T..'&..]..1.q.....o...T.e..>........6/.n..r.n?,U..B...]j6.....*...X.$..|i.X.#TYT.....#.$w.~u./........x...*...?.S...hNVz..Z...,.V.\........../u..m2[...\0T....Vc.....Y.y..........R3YY,.XF........zzV..<.s6.z...c.~......PLr.G.a.=8..|C..-ms*FB.K3....,j..6p.y*1...S....'(.s.7.3..Qm]..;3.....*... .,Me...._..\....T~U.h.Sr3u.f.zV.a.......]...S9....-..^&......H.....g.... 0..Z0I`=.9..:..w&.-...sI%....'?.;$O3{...`u..Z...y....B.M.`T..9.j]..N.Ei+-..}..$.....3..z...'.. .w&..k9=.5....g7w4.....[C.8.BN....p?J..m..L...]x_...b>$}U.bo....z[.?....Q2.&0z......\.~.....E........7..Q...F.&l....Sd[S..k..@..U~.g..6..>...yE.."]]..I..&....}I..55f.R+.........<n-H.............u.}Ly...H.2.62}..yy"...ss.>..N....u+.8Z;.-.)."...w..H.j....^.-..M.nJ.%.[snip]
  | | | |     - Tag 0x0100 (6457 bytes, undef[6457]):
  | | | |         b556: ff d8 ff db 00 84 00 05 03 04 04 04 03 05 04 04 [................]
  | | | |         b566: 04 05 05 05 06 07 0b 07 07 06 06 07 0e 0a 0a 08 [................]
  | | | |         b576: 0b 10 0e 11 10 10 0e 0f 0f 11 14 19 15 11 13 18 [................]
  | | | |         b586: 13 0f 0f 16 1d 16 18 1a 1b 1c 1c 1c 11 15 1f 21 [...............!]
  | | | |         b596: 1e 1b 20 19 1b 1c 1b 01 05 05 05 07 06 07 0d 07 [.. .............]
  | | | |         b5a6: 07 0d 1b 12 0f 12 1b 1b 1b 1b 1b 1b 1b 1b 1b 1b [................]
  | | | |         b5b6: 1b 1b 1b 1b 1b 1b 1b 1b 1b 1b 1b 1b 1b 1b 1b 1b [................]
  | | | |         b5c6: 1b 1b 1b 1b 1b 1b 1b 1b 1b 1b 1b 1b 1b 1b 1b 1b [................]
  | | | |         b5d6: 1b 1b 1b 1b 1b 1b 1b 1b ff c0 00 11 08 00 78 00 [..............x.]
  | | | |         b5e6: a0 03 01 21 00 02 11 01 03 11 01 ff c4 01 a2 00 [...!............]
  | | | |         b5f6: 00 01 05 01 01 01 01 01 01 00 00 00 00 00 00 00 [................]
  | | | |         b606: 00 01 02 03 04 05 06 07 08 09 0a 0b 10 00 02 01 [................]
  | | | |         b616: 03 03 02 04 03 05 05 04 04 00 00 01 7d 01 02 03 [............}...]
  | | | |         b626: 00 04 11 05 12 21 31 41 06 13 51 61 07 22 71 14 [.....!1A..Qa."q.]
  | | | |         b636: 32 81 91 a1 08 23 42 b1 c1 15 52 d1 f0 24 33 62 [2....#B...R..$3b]
  | | | |         b646: 72 82 09 0a 16 17 18 19 1a 25 26 27 28 29 2a 34 [r........%&'()*4]
  | | | |         b656: 35 36 37 38 39 3a 43 44 45 46 47 48 49 4a 53 54 [56789:CDEFGHIJST]
  | | | |         b666: 55 56 57 58 59 5a 63 64 65 66 67 68 69 6a 73 74 [UVWXYZcdefghijst]
  | | | |         b676: 75 76 77 78 79 7a 83 84 85 86 87 88 89 8a 92 93 [uvwxyz..........]
  | | | |         b686: 94 95 96 97 98 99 9a a2 a3 a4 a5 a6 a7 a8 a9 aa [................]
  | | | |         b696: b2 b3 b4 b5 b6 b7 b8 b9 ba c2 c3 c4 c5 c6 c7 c8 [................]
  | | | |         b6a6: c9 ca d2 d3 d4 d5 d6 d7 d8 d9 da e1 e2 e3 e4 e5 [................]
  | | | |         b6b6: e6 e7 e8 e9 ea f1 f2 f3 f4 f5 f6 f7 f8 f9 fa 01 [................]
  | | | |         b6c6: 00 03 01 01 01 01 01 01 01 01 01 00 00 00 00 00 [................]
  | | | |         b6d6: 00 01 02 03 04 05 06 07 08 09 0a 0b 11 00 02 01 [................]
  | | | |         b6e6: 02 04 04 03 04 07 05 04 04 00 01 02 77 00 01 02 [............w...]
  | | | |         b6f6: 03 11 04 05 21 31 06 12 41 51 07 61 71 13 22 32 [....!1..AQ.aq."2]
  | | | |         b706: 81 08 14 42 91 a1 b1 c1 09 23 33 52 f0 15 62 72 [...B.....#3R..br]
  | | | |         b716: d1 0a 16 24 34 e1 25 f1 17 18 19 1a 26 27 28 29 [...$4.%.....&'()]
  | | | |         b726: 2a 35 36 37 38 39 3a 43 44 45 46 47 48 49 4a 53 [*56789:CDEFGHIJS]
  | | | |         b736: 54 55 56 57 58 59 5a 63 64 65 66 67 68 69 6a 73 [TUVWXYZcdefghijs]
  | | | |         b746: 74 75 76 77 78 79 7a 82 83 84 85 86 87 88 89 8a [tuvwxyz.........]
  | | | |         b756: 92 93 94 95 96 97 98 99 9a a2 a3 a4 a5 a6 a7 a8 [................]
  | | | |         b766: a9 aa b2 b3 b4 b5 b6 b7 b8 b9 ba c2 c3 c4 c5 c6 [................]
  | | | |         b776: c7 c8 c9 ca d2 d3 d4 d5 d6 d7 d8 d9 da e2 e3 e4 [................]
  | | | |         b786: e5 e6 e7 e8 e9 ea f2 f3 f4 f5 f6 f7 f8 f9 fa ff [................]
  | | | |         b796: da 00 0c 03 01 00 02 11 03 11 00 3f 00 f6 ad 3e [...........?...>]
  | | | |         b7a6: fa d1 ee e2 b3 b0 8d ee 9f 77 97 84 fd dc 4b e9 [.........w....K.]
  | | | |         b7b6: 82 46 7b 7a 0a e9 64 b0 bb 8f 4d 96 7b 89 21 8c [.F{z..d...M.{.!.]
  | | | |         b7c6: 0e 05 bc 29 c0 20 e3 25 8f 26 b8 23 4f 46 ce f9 [...). .%.&.#OF..]
  | | | |         b7d6: d4 d5 23 23 51 4c d8 82 fc 7e f6 3c 71 fe d8 a4 [..##QL...~.<q...]
  | | | |         b7e6: b2 b3 43 6d 24 93 82 46 c7 3b 9b b0 db 50 68 de [..Cm$..F.;...Ph.]
  | | | |         b7f6: 87 a0 59 3a 43 14 a6 46 11 af 98 58 16 e3 23 02 [..Y:C..F...X..#.]
  | | | |         b806: b1 2f d5 66 bc 9a 60 72 ac d9 19 18 e2 ba 6a b5 [./.f..`r......j.]
  | | | |         b816: 64 8e 6a 77 e6 6c 8e 58 62 9a 2f 9e 34 92 33 82 [d.jw.l.Xb./.4.3.]
  | | | |         b826: 11 d4 11 91 df 9a 77 98 e5 81 62 08 03 8f 6a c0 [......w...b...j.]
  | | | |         b836: d8 7c ce 19 c8 ce 31 c6 6a 29 71 81 b4 73 9a 01 [.|....1.j)q..s..]
  | | | |         b846: 0d 96 40 4f 4e 46 31 8a 7c 4c 79 24 e0 e3 91 40 [..@ONF1.|Ly$...@]
  | | | |         b856: 0c 96 4c 31 c1 20 fa 8a 89 80 69 30 06 71 40 12 [..L1. ....i0.q@.]
  | | | |         b866: 5a 67 7b 12 7f 0a 92 70 4b 23 1e fd 41 f4 a0 3a [Zg{....pK#..A..:]
  | | | |         b876: 91 80 a2 5c ef 3d 31 52 97 21 90 6e e0 b6 38 a0 [...\.=1R.!.n..8.]
  | | | |         b886: 18 e6 63 b4 8c f3 da 98 e3 6c 3b 98 0a 61 73 cc [..c......l;..as.]
  | | | |         b896: fc 31 0d cc 7a 8a 31 56 56 6b a5 c0 5f a5 7a 70 [.1..z.1VVk.._.zp]
  | | | |         b8a6: 59 17 4b 95 27 6c 3b 48 f8 56 3f 36 37 e4 71 44 [Y.K.'l;H.V?67.qD]
  | | | |         b8b6: 1b 77 26 6b 63 2e 78 92 78 52 22 18 7c ea d9 1e [.w&kc.x.xR".|...]
  | | | |         b8c6: c4 1f e8 2b 4a dd 62 f2 f6 2a 28 5c 63 04 75 cd [...+J.b..*(\c.u.]
  | | | |         b8d6: 2b 14 c4 59 19 a4 da cd b8 f3 92 4d 2b 29 18 62 [+..Y.......M+).b]
  | | | |         b8e6: d9 27 8e 69 88 56 07 cb c9 fb a0 0e 95 10 cb 37 [.'.i.V.........7]
  | | | |         b8f6: 00 e0 8c e6 93 1a 1d e5 96 25 c9 e0 f5 14 8a 32 [.........%.....2]
  | | | |         b906: 71 9c 62 80 21 39 69 4f 1c 0e 6a 48 9f 2f bf 23 [q.b.!9iO..jH./.#]
  | | | |         b916: 04 67 eb 48 08 27 9c 67 6e 09 04 f4 03 24 d4 9b [.g.H.'.gn....$..]
  | | | |         b926: b2 11 a4 e3 1c 85 1c 73 9e f4 00 e8 f3 9d dd 32 [.......s.......2]
  | | | |         b936: 38 ff 00 3f 8d 3d 98 10 79 07 07 b5 00 42 e5 4e [8..?.=..y....B.N]
  | | | |         b946: 1d 98 82 0f 41 de a7 ca 86 52 a3 8c d0 02 b8 c3 [....A....R......]
  | | | |         b956: 1e 9c 1c 52 bf 30 f2 78 a6 23 98 f0 87 88 b4 7d [...R.0.x.#.....}]
  | | | |         b966: 7d ef 53 46 2c a6 c6 73 6f 70 a6 2d 9b 64 19 ce [}.SF,..sop.-.d..]
  | | | |         b976: 0f 7e 87 9a df f2 19 58 64 0c 11 cf e7 4e d6 d0 [.~.....Xd....N..]
  | | | |         b986: 64 65 f6 a1 5e 72 0f f5 a9 62 72 c4 00 d8 03 1d [de..^r...br.....]
  | | | |         b996: 07 5a 00 01 09 27 20 f1 44 87 2c a0 9e 99 eb 40 [.Z...' .D.,....@]
  | | | |         b9a6: 16 1e 40 a9 82 41 e0 71 50 2d c0 23 81 f7 46 32 [..@..A.qP-.#..F2]
  | | | |         b9b6: 68 01 20 ba dc 8d ce 70 4e 73 4a d2 e6 72 00 3c [h. ....pNsJ..r.<]
  | | | |         b9c6: 0e a2 90 58 89 81 47 57 76 1f 30 c8 53 fe 15 1c [...X..GWv.0.S...]
  | | | |         b9d6: 7b c8 da 83 60 27 f1 c5 21 8e 48 f6 c6 c5 06 49 [{...`'..!.H....I]
  | | | |         b9e6: 3d 4f 7a 97 6b 39 4c ae 3e 5e 9f 8d 31 16 56 25 [=Oz.k9L.>^..1.V%]
  | | | |         b9f6: 00 06 38 cf 52 69 a1 57 20 2a 93 ee 45 02 2b ca [..8.Ri.W *..E.+.]
  | | | |         ba06: c3 cc e0 13 cf ad 4b f3 b1 1b 53 f1 34 86 06 29 [......K...S.4..)]
  | | | |         ba16: 5d 9b 2c 47 cd 9f 97 03 fc 69 a6 dc 6e 05 c0 7c [].,G.....i..n..|]
  | | | |         ba26: 1f e2 cb 63 f3 e9 4e c0 73 3e 07 f0 bd 87 86 5a [...c..N.s>.....Z]
  | | | |         ba36: f9 2c e5 9e 59 2f 67 37 17 12 cc 47 cc e4 76 0a [.,..Y/g7...G..v.]
  | | | |         ba46: 00 15 d3 36 e1 20 03 b0 e4 fe 34 5d bd 58 da 4b [...6. ....4].X.K]
  | | | |         ba56: 61 aa 10 36 3a fa f3 4b e6 2e 4a 80 3f 0a 62 2a [a..6:..K..J.?.b*]
  | | | |         ba66: 4d 3a 09 c0 2f c3 1e fd aa 44 99 64 b9 60 1b ee [M:../....D.d.`..]
  | | | |         ba76: 9c fd 29 00 af 70 92 3c 8b 13 2b 15 61 90 a7 24 [..)..p.<..+.a..$]
  | | | |         ba86: 71 91 9f 4e 0e 6a 28 51 96 52 c5 78 66 c1 3e d4 [q..N.j(Q.R.xf.>.]
  | | | |         ba96: 31 a1 57 6c 72 36 3e 6d c7 38 fa fb d3 b6 9f 30 [1.Wlr6>m.8.....0]
  | | | |         baa6: 31 91 54 11 9c 27 26 80 1e 5d 03 87 31 92 71 f8 [1.T..'&..]..1.q.]
  | | | |         bab6: d4 a7 cd 88 6f 96 15 89 54 1e 65 90 2e 3e bd e8 [....o...T.e..>..]
  | | | |         bac6: 16 c5 d8 f4 fb 99 36 2f 99 6e bb 86 72 09 6e 3f [......6/.n..r.n?]
  | | | |         bad6: 2c 55 1b 9d 42 c2 d9 f6 5d 6a 36 f0 91 f2 90 f2 [,U..B...]j6.....]
  | | | |         bae6: 2a f7 fa d5 58 95 24 cc f9 7c 69 e1 58 1b 23 54 [*...X.$..|i.X.#T]
  | | | |         baf6: 59 54 12 0b c2 a5 c0 23 a8 24 77 e4 7e 75 95 2f [YT.....#.$w.~u./]
  | | | |         bb06: c4 bf 02 ba 99 0e bd 0c 78 93 ca 09 2a b2 92 dd [........x...*...]
  | | | |         bb16: 3f 88 53 8c 1c 93 68 4e 56 7a 9b d6 5a b4 17 90 [?.S...hNVz..Z...]
  | | | |         bb26: 2c d6 56 b3 5c c6 c0 15 91 19 02 b0 fa ee a9 2f [,.V.\........../]
  | | | |         bb36: 75 1b 8b 6d 32 5b b7 b2 8d 5c 30 54 8d a7 e1 be [u..m2[...\0T....]
  | | | |         bb46: 56 63 92 17 8f bb ef 59 f3 79 16 d1 1f 86 a5 d5 [Vc.....Y.y......]
  | | | |         bb56: b5 cd 16 db 52 33 59 59 2c ea 58 46 90 b4 ac bc [....R3YY,.XF....]
  | | | |         bb66: 91 f7 99 f0 7a 7a 56 a7 f6 3c cc 73 36 af 7a 7f [....zzV..<.s6.z.]
  | | | |         bb76: d9 89 63 8c 7e 8b 9f d6 a8 86 cc 50 4c 72 16 47 [..c.~......PLr.G]
  | | | |         bb86: c1 61 c0 3d 38 ac c8 7c 43 03 ea 2d 6d 73 2a 46 [.a.=8..|C..-ms*F]
  | | | |         bb96: 42 8e 4b 00 33 9a 12 b9 a3 2c 6a ba ac 36 70 99 [B.K.3....,j..6p.]
  | | | |         bba6: 79 2a 31 86 03 ad 53 d1 f5 f8 af 27 28 8a 73 9e [y*1...S....'(.s.]
  | | | |         bbb6: 37 10 33 fa d3 51 6d 5d 09 d9 3b 33 07 c7 9a dc [7.3..Qm]..;3....]
  | | | |         bbc6: b6 2a 1a 01 18 20 f4 2c 4d 65 f8 13 c5 92 5f dd [.*... .,Me...._.]
  | | | |         bbd6: b2 5c c8 a4 b1 da 54 7e 55 b4 68 b9 53 72 33 75 [.\....T~U.h.Sr3u]
  | | | |         bbe6: 14 66 a2 7a 56 89 61 05 9d 87 d9 d6 e4 b6 5d a4 [.f.zV.a.......].]
  | | | |         bbf6: 2e c1 53 39 f5 c7 f3 ab 2d 15 b9 5e 26 89 8f a9 [..S9....-..^&...]
  | | | |         bc06: 94 1a e7 48 d5 c8 96 de 1b 67 d3 da fd 2e 20 30 [...H.....g.... 0]
  | | | |         bc16: ed de 5a 30 49 60 3d 06 39 aa d6 3a 84 17 77 26 [..Z0I`=.9..:..w&]
  | | | |         bc26: 08 2d ef b2 17 73 49 25 be c5 c7 b9 27 3f a5 3b [.-...sI%....'?.;]
  | | | |         bc36: 24 4f 33 7b 16 1d 1b 00 60 75 c7 bf 5a a7 a1 c5 [$O3{....`u..Z...]
  | | | |         bc46: 79 ff 00 08 05 a4 42 da 4d cb 60 54 8d 87 39 d8 [y.....B.M.`T..9.]
  | | | |         bc56: 6a 5d fa 0f 4e a7 45 69 2b 2d 95 b1 7d aa e2 24 [j]..N.Ei+-..}..$]
  | | | |         bc66: dd b9 80 c1 da 33 d6 be 7a f1 bb d9 27 8e b5 20 [.....3..z...'.. ]
  | | | |         bc76: e2 77 26 ec e7 6b 00 39 3d b8 35 a4 0c e2 b5 67 [.w&..k.9=.5....g]
  | | | |         bc86: 37 77 34 d1 e9 0e 1a ce 5b 43 e7 38 02 42 4e f1 [7w4.....[C.8.BN.]
  | | | |         bc96: b5 06 e0 70 3f 4a f2 fd 6d db c9 4c e7 99 f3 5d [...p?J..m..L...]]
  | | | |         bca6: 78 5f 85 fa 19 62 3e 24 7d 55 f0 62 6f f8 a5 ed [x_...b>$}U.bo...]
  | | | |         bcb6: f2 7a 5b c2 3f f1 da e9 fc 51 32 9d 26 30 7a 1b [.z[.?....Q2.&0z.]
  | | | |         bcc6: 95 07 1e f1 c9 5c 13 7e fb f9 9d 0b e1 45 ff 00 [.....\.~.....E..]
  | | | |         bcd6: 87 0e 9f f0 85 e9 82 37 dc be 51 c1 e9 fc 46 ba [.......7..Q...F.]
  | | | |         bce6: 26 6c 1d a7 af a5 53 64 5b 53 c5 bc 6b f1 07 40 [&l....Sd[S..k..@]
  | | | |         bcf6: d3 ac 55 7e d2 67 95 b2 36 a6 ee 3e a0 0f ad 79 [..U~.g..6..>...y]
  | | | |         bd06: 45 8f 8c 22 5d 5d 2e e3 49 0f 99 26 0c 8d 80 10 [E.."]]..I..&....]
  | | | |         bd16: 7d 49 ae bc 35 35 66 df 52 2b cd e8 91 bf f1 1f [}I..55f.R+......]
  | | | |         bd26: c7 db bc 3c 6e 2d 48 90 c6 bb 8a 86 e1 87 d6 bc [...<n-H.........]
  | | | |         bd36: ff 00 c3 bf 12 75 8b 7d 4c 79 16 f6 c1 48 07 32 [.....u.}Ly...H.2]
  | | | |         [snip 4425 bytes]
  | | | | 1)  SpecialMode = 0 0 0
  | | | |     - Tag 0x0200 (12 bytes, int32u[3]):
  | | | |         3076: 00 00 00 00 00 00 00 00 00 00 00 00             [............]
  | | | | 2)  CameraID = OLYMPUS DIGITAL CAMERA         
  | | | |     - Tag 0x0209 (32 bytes, undef[32] read as string[32]):
  | | | |         3082: 4f 4c 59 4d 50 55 53 20 44 49 47 49 54 41 4c 20 [OLYMPUS DIGITAL ]
  | | | |         3092: 43 41 4d 45 52 41 20 20 20 20 20 20 20 20 20 00 [CAMERA         .]
  | | | | 3)  EquipmentIFD (SubDirectory) -->
  | | | |     - Tag 0x2010 (4 bytes, ifd[1]):
  | | | |         1df4: 72 00 00 00                                     [r...]
  | | | | + [MakerNotes directory with 11 entries, Little-endian]
  | | | | | 0)  EquipmentVersion = 0100
  | | | | |     - Tag 0x0000 (4 bytes, undef[4]):
  | | | | |         1e36: 30 31 30 30                                     [0100]
  | | | | | 1)  CameraType2 = D4401
  | | | | |     - Tag 0x0100 (6 bytes, string[6]):
  | | | | |         30a6: 44 34 34 30 31 00                               [D4401.]
  | | | | | 2)  SerialNumber = AAM516822                      
  | | | | |     - Tag 0x0101 (32 bytes, string[32]):
  | | | | |         30ac: 41 41 4d 35 31 36 38 32 32 20 20 20 20 20 20 20 [AAM516822       ]
  | | | | |         30bc: 20 20 20 20 20 20 20 20 20 20 20 20 20 20 20 00 [               .]
  | | | | | 3)  InternalSerialNumber = 0237108010735001               
  | | | | |     - Tag 0x0102 (32 bytes, string[32]):
  | | | | |         30cc: 30 32 33 37 31 30 38 30 31 30 37 33 35 30 30 31 [0237108010735001]
  | | | | |         30dc: 20 20 20 20 20 20 20 20 20 20 20 20 20 20 20 00 [               .]
  | | | | | 4)  FocalPlaneDiagonal = 9.25 (925/100)
  | | | | |     - Tag 0x0103 (8 bytes, rational64u[1]):
  | | | | |         30ee: 9d 03 00 00 64 00 00 00                         [....d...]
  | | | | | 5)  BodyFirmwareVersion = 5121
  | | | | |     - Tag 0x0104 (4 bytes, int32u[1]):
  | | | | |         1e72: 01 14 00 00                                     [....]
  | | | | | 6)  ConversionLens = 
  | | | | |     - Tag 0x0403 (32 bytes, string[32]):
  | | | | |         31aa: 00 00 00 00 00 00 00 00 00 00 00 00 00 00 00 00 [................]
  | | | | |         31ba: 00 00 00 00 00 00 00 00 00 00 00 00 00 00 00 00 [................]
  | | | | | 7)  FlashType = 0
  | | | | |     - Tag 0x1000 (2 bytes, int16u[1]):
  | | | | |         1e8a: 00 00                                           [..]
  | | | | | 8)  FlashModel = 0
  | | | | |     - Tag 0x1001 (2 bytes, int16u[1]):
  | | | | |         1e96: 00 00                                           [..]
  | | | | | 9)  FlashFirmwareVersion = 0
  | | | | |     - Tag 0x1002 (4 bytes, int32u[1]):
  | | | | |         1ea2: 00 00 00 00                                     [....]
  | | | | | 10) FlashSerialNumber = 
  | | | | |     - Tag 0x1003 (32 bytes, string[32]):
  | | | | |         31d2: 00 00 00 00 00 00 00 00 00 00 00 00 00 00 00 00 [................]
  | | | | |         31e2: 00 00 00 00 00 00 00 00 00 00 00 00 00 00 00 00 [................]
  | | | | 4)  CameraSettingsIFD (SubDirectory) -->
  | | | |     - Tag 0x2020 (4 bytes, ifd[1]):
  | | | |         1e00: fc 00 00 00                                     [....]
  | | | | + [MakerNotes directory with 61 entries, Little-endian]
  | | | | | 0)  CameraSettingsVersion = 0100
  | | | | |     - Tag 0x0000 (4 bytes, undef[4]):
  | | | | |         1ec0: 30 31 30 30                                     [0100]
  | | | | | 1)  PreviewImageValid = 1
  | | | | |     - Tag 0x0100 (4 bytes, int32u[1]):
  | | | | |         1ecc: 01 00 00 00                                     [....]
  | | | | | 2)  PreviewImageStart = 49052
  | | | | |     - Tag 0x0101 (4 bytes, int32u[1]):
  | | | | |         1ed8: 9c bf 00 00                                     [....]
  | | | | | 3)  PreviewImageLength = 1065045
  | | | | |     - Tag 0x0102 (4 bytes, int32u[1]):
  | | | | |         1ee4: 55 40 10 00                                     [U@..]
  | | | | | 4)  ExposureMode = 2
  | | | | |     - Tag 0x0200 (2 bytes, int16u[1]):
  | | | | |         1ef0: 02 00                                           [..]
  | | | | | 5)  AELock = 0
  | | | | |     - Tag 0x0201 (2 bytes, int16u[1]):
  | | | | |         1efc: 00 00                                           [..]
  | | | | | 6)  MeteringMode = 2
  | | | | |     - Tag 0x0202 (2 bytes, int16u[1]):
  | | | | |         1f08: 02 00                                           [..]
  | | | | | 7)  ExposureShift = undef (0/0)
  | | | | |     - Tag 0x0203 (8 bytes, rational64s[1]):
  | | | | |         320a: 00 00 00 00 00 00 00 00                         [........]
  | | | | | 8)  NDFilter = 0
  | | | | |     - Tag 0x0204 (1 bytes, int8u[1]):
  | | | | |         1f20: 00                                              [.]
  | | | | | 9)  MacroMode = 1
  | | | | |     - Tag 0x0300 (2 bytes, int16u[1]):
  | | | | |         1f2c: 01 00                                           [..]
  | | | | | 10) FocusMode = 0 0
  | | | | |     - Tag 0x0301 (4 bytes, int16u[2]):
  | | | | |         1f38: 00 00 00 00                                     [....]
  | | | | | 11) FocusProcess = 0 0
  | | | | |     - Tag 0x0302 (4 bytes, int16u[2]):
  | | | | |         1f44: 00 00 00 00                                     [....]
  | | | | | 12) AFSearch = 0
  | | | | |     - Tag 0x0303 (2 bytes, int16u[1]):
  | | | | |         1f50: 00 00                                           [..]
  | | | | | 13) AFAreas = 0 0 0 0 0 0 0 0 0 0 0 0 0 0 0 0 0 0 0 0 0 0 0 0 0 0 0 0 0 0 0 0 0 0 0 0 0 0 0 0 0 0 0 0 0 0 0 0 0 0 0 0 0 0 0 0 0 0 0 0 0 0 0 0
  | | | | |     - Tag 0x0304 (256 bytes, int32u[64]):
  | | | | |         3222: 00 00 00 00 00 00 00 00 00 00 00 00 00 00 00 00 [................]
  | | | | |         3232: 00 00 00 00 00 00 00 00 00 00 00 00 00 00 00 00 [................]
  | | | | |         3242: 00 00 00 00 00 00 00 00 00 00 00 00 00 00 00 00 [................]
  | | | | |         3252: 00 00 00 00 00 00 00 00 00 00 00 00 00 00 00 00 [................]
  | | | | |         3262: 00 00 00 00 00 00 00 00 00 00 00 00 00 00 00 00 [................]
  | | | | |         3272: 00 00 00 00 00 00 00 00 00 00 00 00 00 00 00 00 [................]
  | | | | |         3282: 00 00 00 00 00 00 00 00 00 00 00 00 00 00 00 00 [................]
  | | | | |         3292: 00 00 00 00 00 00 00 00 00 00 00 00 00 00 00 00 [................]
  | | | | |         32a2: 00 00 00 00 00 00 00 00 00 00 00 00 00 00 00 00 [................]
  | | | | |         32b2: 00 00 00 00 00 00 00 00 00 00 00 00 00 00 00 00 [................]
  | | | | |         32c2: 00 00 00 00 00 00 00 00 00 00 00 00 00 00 00 00 [................]
  | | | | |         32d2: 00 00 00 00 00 00 00 00 00 00 00 00 00 00 00 00 [................]
  | | | | |         32e2: 00 00 00 00 00 00 00 00 00 00 00 00 00 00 00 00 [................]
  | | | | |         32f2: 00 00 00 00 00 00 00 00 00 00 00 00 00 00 00 00 [................]
  | | | | |         3302: 00 00 00 00 00 00 00 00 00 00 00 00 00 00 00 00 [................]
  | | | | |         3312: 00 00 00 00 00 00 00 00 00 00 00 00 00 00 00 00 [................]
  | | | | | 14) AFPointSelected = undef undef undef undef undef (0/0 0/0 0/0 0/0 0/0)
  | | | | |     - Tag 0x0305 (40 bytes, rational64s[5]):
  | | | | |         3322: 00 00 00 00 00 00 00 00 00 00 00 00 00 00 00 00 [................]
  | | | | |         3332: 00 00 00 00 00 00 00 00 00 00 00 00 00 00 00 00 [................]
  | | | | |         3342: 00 00 00 00 00 00 00 00                         [........]
  | | | | | 15) AFFineTune = 0
  | | | | |     - Tag 0x0306 (1 bytes, int8u[1]):
  | | | | |         1f74: 00                                              [.]
  | | | | | 16) AFFineTuneAdj = 0 0 0
  | | | | |     - Tag 0x0307 (6 bytes, int16s[3]):
  | | | | |         334c: 00 00 00 00 00 00                               [......]
  | | | | | 17) FlashMode = 40
  | | | | |     - Tag 0x0400 (2 bytes, int16u[1]):
  | | | | |         1f8c: 28 00                                           [(.]
  | | | | | 18) FlashExposureComp = -2 (-512/256)
  | | | | |     - Tag 0x0401 (8 bytes, rational64s[1]):
  | | | | |         3356: 00 fe ff ff 00 01 00 00                         [........]
  | | | | | 19) Olympus_CameraSettings_0x0402 = 0
  | | | | |     - Tag 0x0402 (2 bytes, int16u[1]):
  | | | | |         1fa4: 00 00                                           [..]
  | | | | | 20) FlashRemoteControl = 0
  | | | | |     - Tag 0x0403 (2 bytes, int16u[1]):
  | | | | |         1fb0: 00 00                                           [..]
  | | | | | 21) FlashControlMode = 0 0 0
  | | | | |     - Tag 0x0404 (6 bytes, int16u[3]):
  | | | | |         3362: 00 00 00 00 00 00                               [......]
  | | | | | 22) FlashIntensity = undef undef undef (0/0 0/0 0/0)
  | | | | |     - Tag 0x0405 (24 bytes, rational64s[3]):
  | | | | |         336a: 00 00 00 00 00 00 00 00 00 00 00 00 00 00 00 00 [................]
  | | | | |         337a: 00 00 00 00 00 00 00 00                         [........]
  | | | | | 23) ManualFlashStrength = undef undef undef (0/0 0/0 0/0)
  | | | | |     - Tag 0x0406 (24 bytes, rational64s[3]):
  | | | | |         3382: 00 00 00 00 00 00 00 00 00 00 00 00 00 00 00 00 [................]
  | | | | |         3392: 00 00 00 00 00 00 00 00                         [........]
  | | | | | 24) WhiteBalance2 = 0
  | | | | |     - Tag 0x0500 (2 bytes, int16u[1]):
  | | | | |         1fe0: 00 00                                           [..]
  | | | | | 25) WhiteBalanceTemperature = 0
  | | | | |     - Tag 0x0501 (2 bytes, int16u[1]):
  | | | | |         1fec: 00 00                                           [..]
  | | | | | 26) WhiteBalanceBracket = 1 0
  | | | | |     - Tag 0x0502 (4 bytes, int16s[2]):
  | | | | |         1ff8: 01 00 00 00                                     [....]
  | | | | | 27) CustomSaturation = 0 -5 5
  | | | | |     - Tag 0x0503 (6 bytes, int16s[3]):
  | | | | |         33a2: 00 00 fb ff 05 00                               [......]
  | | | | | 28) ModifiedSaturation = 0
  | | | | |     - Tag 0x0504 (2 bytes, int16u[1]):
  | | | | |         2010: 00 00                                           [..]
  | | | | | 29) ContrastSetting = 0 -5 5
  | | | | |     - Tag 0x0505 (6 bytes, int16s[3]):
  | | | | |         33aa: 00 00 fb ff 05 00                               [......]
  | | | | | 30) SharpnessSetting = 0 -5 5
  | | | | |     - Tag 0x0506 (6 bytes, int16s[3]):
  | | | | |         33b0: 00 00 fb ff 05 00                               [......]
  | | | | | 31) ColorSpace = 0
  | | | | |     - Tag 0x0507 (2 bytes, int16u[1]):
  | | | | |         2034: 00 00                                           [..]
  | | | | | 32) Olympus_CameraSettings_0x0508 = 0
  | | | | |     - Tag 0x0508 (2 bytes, int16u[1]):
  | | | | |         2040: 00 00                                           [..]
  | | | | | 33) SceneMode = 0
  | | | | |     - Tag 0x0509 (2 bytes, int16u[1]):
  | | | | |         204c: 00 00                                           [..]
  | | | | | 34) NoiseReduction = 1
  | | | | |     - Tag 0x050a (2 bytes, int16u[1]):
  | | | | |         2058: 01 00                                           [..]
  | | | | | 35) DistortionCorrection = 0
  | | | | |     - Tag 0x050b (2 bytes, int16u[1]):
  | | | | |         2064: 00 00                                           [..]
  | | | | | 36) ShadingCompensation = 0
  | | | | |     - Tag 0x050c (2 bytes, int16u[1]):
  | | | | |         2070: 00 00                                           [..]
  | | | | | 37) Olympus_CameraSettings_0x050e = 0
  | | | | |     - Tag 0x050e (2 bytes, int16u[1]):
  | | | | |         207c: 00 00                                           [..]
  | | | | | 38) Gradation = 0 -1 1 0
  | | | | |     - Tag 0x050f (8 bytes, int16s[4]):
  | | | | |         33cc: 00 00 ff ff 01 00 00 00                         [........]
  | | | | | 39) PictureMode = 2 2
  | | | | |     - Tag 0x0520 (4 bytes, int16u[2]):
  | | | | |         2094: 02 00 02 00                                     [....]
  | | | | | 40) PictureModeSaturation = 0 -2 2
  | | | | |     - Tag 0x0521 (6 bytes, int16s[3]):
  | | | | |         341e: 00 00 fe ff 02 00                               [......]
  | | | | | 41) PictureModeHue = 0
  | | | | |     - Tag 0x0522 (2 bytes, int16u[1]):
  | | | | |         20ac: 00 00                                           [..]
  | | | | | 42) PictureModeContrast = 0 -2 2
  | | | | |     - Tag 0x0523 (6 bytes, int16s[3]):
  | | | | |         3426: 00 00 fe ff 02 00                               [......]
  | | | | | 43) PictureModeSharpness = 0 -2 2
  | | | | |     - Tag 0x0524 (6 bytes, int16s[3]):
  | | | | |         342c: 00 00 fe ff 02 00                               [......]
  | | | | | 44) PictureModeBWFilter = 0
  | | | | |     - Tag 0x0525 (2 bytes, int16s[1]):
  | | | | |         20d0: 00 00                                           [..]
  | | | | | 45) PictureModeTone = 0
  | | | | |     - Tag 0x0526 (2 bytes, int16s[1]):
  | | | | |         20dc: 00 00                                           [..]
  | | | | | 46) NoiseFilter = 0 -2 1
  | | | | |     - Tag 0x0527 (6 bytes, int16s[3]):
  | | | | |         33d4: 00 00 fe ff 01 00                               [......]
  | | | | | 47) Olympus_CameraSettings_0x0528 = 0
  | | | | |     - Tag 0x0528 (2 bytes, int16u[1]):
  | | | | |         20f4: 00 00                                           [..]
  | | | | | 48) ArtFilter = 0 0 0 0
  | | | | |     - Tag 0x0529 (8 bytes, int16u[4]):
  | | | | |         33dc: 00 00 00 00 00 00 00 00                         [........]
  | | | | | 49) Olympus_CameraSettings_0x052a = 524595
  | | | | |     - Tag 0x052a (4 bytes, int32u[1]):
  | | | | |         210c: 33 01 08 00                                     [3...]
  | | | | | 50) Olympus_CameraSettings_0x052b = 0 4096 5300 0 7500 0 6000 0 3000 1 4000 2 0 4097 5500 3
  | | | | |     - Tag 0x052b (32 bytes, int16u[16]):
  | | | | |         33ea: 00 00 00 10 b4 14 00 00 4c 1d 00 00 70 17 00 00 [........L...p...]
  | | | | |         33fa: b8 0b 01 00 a0 0f 02 00 00 00 01 10 7c 15 03 00 [............|...]
  | | | | | 51) ToneLevel = -31999 0 -7 7 -31998 0 -7 7 0 0 0 0
  | | | | |     - Tag 0x052e (24 bytes, int16s[12]):
  | | | | |         3436: 01 83 00 00 f9 ff 07 00 02 83 00 00 f9 ff 07 00 [................]
  | | | | |         3446: 00 00 00 00 00 00 00 00                         [........]
  | | | | | 52) ArtFilterEffect = 0 0 0 0 0 0 0 0 0 0 0 0 0 0 0 0 0 0 0 0
  | | | | |     - Tag 0x052f (40 bytes, int16u[20]):
  | | | | |         344e: 00 00 00 00 00 00 00 00 00 00 00 00 00 00 00 00 [................]
  | | | | |         345e: 00 00 00 00 00 00 00 00 00 00 00 00 00 00 00 00 [................]
  | | | | |         346e: 00 00 00 00 00 00 00 00                         [........]
  | | | | | 53) Olympus_CameraSettings_0x0530 = 0 0 0 0 0 0 0 0 0 0 0 0 0 0 0 0 0 0 0 0 0 0 0 0 0 0 0 0 0 0 0 0
  | | | | |     - Tag 0x0530 (64 bytes, int16u[32]):
  | | | | |         3476: 00 00 00 00 00 00 00 00 00 00 00 00 00 00 00 00 [................]
  | | | | |         3486: 00 00 00 00 00 00 00 00 00 00 00 00 00 00 00 00 [................]
  | | | | |         3496: 00 00 00 00 00 00 00 00 00 00 00 00 00 00 00 00 [................]
  | | | | |         34a6: 00 00 00 00 00 00 00 00 00 00 00 00 00 00 00 00 [................]
  | | | | | 54) DriveMode = 0 0 0
  | | | | |     - Tag 0x0600 (6 bytes, int16u[3]):
  | | | | |         34b6: 00 00 00 00 00 00                               [......]
  | | | | | 55) PanoramaMode = 0 0
  | | | | |     - Tag 0x0601 (4 bytes, int16u[2]):
  | | | | |         2154: 00 00 00 00                                     [....]
  | | | | | 56) ImageStabilization = 1
  | | | | |     - Tag 0x0604 (4 bytes, int32u[1]):
  | | | | |         2160: 01 00 00 00                                     [....]
  | | | | | 57) Olympus_CameraSettings_0x0800 = 1
  | | | | |     - Tag 0x0800 (2 bytes, int16u[1]):
  | | | | |         216c: 01 00                                           [..]
  | | | | | 58) ManometerPressure = 0
  | | | | |     - Tag 0x0900 (2 bytes, int16u[1]):
  | | | | |         2178: 00 00                                           [..]
  | | | | | 59) ManometerReading = 0 0
  | | | | |     - Tag 0x0901 (8 bytes, int32s[2]):
  | | | | |         354e: 00 00 00 00 00 00 00 00                         [........]
  | | | | | 60) ExtendedWBDetect = 0
  | | | | |     - Tag 0x0902 (2 bytes, int16u[1]):
  | | | | |         2190: 00 00                                           [..]
  | | | | 5)  RawDevelopmentIFD (SubDirectory) -->
  | | | |     - Tag 0x2030 (4 bytes, ifd[1]):
  | | | |         1e0c: de 03 00 00                                     [....]
  | | | | + [MakerNotes directory with 14 entries, Little-endian]
  | | | | | 0)  RawDevVersion = 0100
  | | | | |     - Tag 0x0000 (4 bytes, undef[4]):
  | | | | |         21a2: 30 31 30 30                                     [0100]
  | | | | | 1)  RawDevExposureBiasValue = 0 (0/1)
  | | | | |     - Tag 0x0100 (8 bytes, rational64s[1]):
  | | | | |         3566: 00 00 00 00 01 00 00 00                         [........]
  | | | | | 2)  RawDevWhiteBalanceValue = 0
  | | | | |     - Tag 0x0101 (2 bytes, int16u[1]):
  | | | | |         21ba: 00 00                                           [..]
  | | | | | 3)  RawDevWBFineAdjustment = 0
  | | | | |     - Tag 0x0102 (2 bytes, int16s[1]):
  | | | | |         21c6: 00 00                                           [..]
  | | | | | 4)  RawDevGrayPoint = 0 0 0
  | | | | |     - Tag 0x0103 (6 bytes, int16u[3]):
  | | | | |         3572: 00 00 00 00 00 00                               [......]
  | | | | | 5)  RawDevSaturationEmphasis = 0 0 0
  | | | | |     - Tag 0x0104 (6 bytes, int16s[3]):
  | | | | |         3578: 00 00 00 00 00 00                               [......]
  | | | | | 6)  RawDevMemoryColorEmphasis = 0
  | | | | |     - Tag 0x0105 (2 bytes, int16u[1]):
  | | | | |         21ea: 00 00                                           [..]
  | | | | | 7)  RawDevContrastValue = 0 0 0
  | | | | |     - Tag 0x0106 (6 bytes, int16s[3]):
  | | | | |         3580: 00 00 00 00 00 00                               [......]
  | | | | | 8)  RawDevSharpnessValue = 0 0 0
  | | | | |     - Tag 0x0107 (6 bytes, int16s[3]):
  | | | | |         3586: 00 00 00 00 00 00                               [......]
  | | | | | 9)  RawDevColorSpace = 0
  | | | | |     - Tag 0x0108 (2 bytes, int16u[1]):
  | | | | |         220e: 00 00                                           [..]
  | | | | | 10) RawDevEngine = 0
  | | | | |     - Tag 0x0109 (2 bytes, int16u[1]):
  | | | | |         221a: 00 00                                           [..]
  | | | | | 11) RawDevNoiseReduction = 0
  | | | | |     - Tag 0x010a (2 bytes, int16u[1]):
  | | | | |         2226: 00 00                                           [..]
  | | | | | 12) RawDevEditStatus = 0
  | | | | |     - Tag 0x010b (2 bytes, int16u[1]):
  | | | | |         2232: 00 00                                           [..]
  | | | | | 13) RawDevSettings = 0
  | | | | |     - Tag 0x010c (2 bytes, int16u[1]):
  | | | | |         223e: 00 00                                           [..]
  | | | | 6)  ImageProcessingIFD (SubDirectory) -->
  | | | |     - Tag 0x2040 (4 bytes, ifd[1]):
  | | | |         1e18: 8c 04 00 00                                     [....]
  | | | | + [MakerNotes directory with 219 entries, Little-endian]
  | | | | | 0)  ImageProcessingVersion = 0112
  | | | | |     - Tag 0x0000 (4 bytes, undef[4]):
  | | | | |         2250: 30 31 31 32                                     [0112]
  | | | | | 1)  WB_RBLevels = 510 474 256 256
  | | | | |     - Tag 0x0100 (8 bytes, int16u[4]):
  | | | | |         3598: fe 01 da 01 00 01 00 01                         [........]
  | | | | | 2)  Olympus_ImageProcessing_0x0101 = 500 484 256 256
  | | | | |     - Tag 0x0101 (8 bytes, int16u[4]):
  | | | | |         35a0: f4 01 e4 01 00 01 00 01                         [........]
  | | | | | 3)  WB_RBLevels3000K = 316 796 256 256
  | | | | |     - Tag 0x0102 (8 bytes, int16u[4]):
  | | | | |         35a8: 3c 01 1c 03 00 01 00 01                         [<.......]
  | | | | | 4)  WB_RBLevels3300K = 378 668 256 256
  | | | | |     - Tag 0x0103 (8 bytes, int16u[4]):
  | | | | |         35b0: 7a 01 9c 02 00 01 00 01                         [z.......]
  | | | | | 5)  WB_RBLevels3600K = 408 606 256 256
  | | | | |     - Tag 0x0104 (8 bytes, int16u[4]):
  | | | | |         35b8: 98 01 5e 02 00 01 00 01                         [..^.....]
  | | | | | 6)  WB_RBLevels3900K = 432 574 256 256
  | | | | |     - Tag 0x0105 (8 bytes, int16u[4]):
  | | | | |         35c0: b0 01 3e 02 00 01 00 01                         [..>.....]
  | | | | | 7)  WB_RBLevels4000K = 490 648 256 256
  | | | | |     - Tag 0x0106 (8 bytes, int16u[4]):
  | | | | |         35c8: ea 01 88 02 00 01 00 01                         [........]
  | | | | | 8)  WB_RBLevels4300K = 460 538 256 256
  | | | | |     - Tag 0x0107 (8 bytes, int16u[4]):
  | | | | |         35d0: cc 01 1a 02 00 01 00 01                         [........]
  | | | | | 9)  WB_RBLevels4500K = 482 516 256 256
  | | | | |     - Tag 0x0108 (8 bytes, int16u[4]):
  | | | | |         35d8: e2 01 04 02 00 01 00 01                         [........]
  | | | | | 10) WB_RBLevels4800K = 488 500 256 256
  | | | | |     - Tag 0x0109 (8 bytes, int16u[4]):
  | | | | |         35e0: e8 01 f4 01 00 01 00 01                         [........]
  | | | | | 11) WB_RBLevels5300K = 512 468 256 256
  | | | | |     - Tag 0x010a (8 bytes, int16u[4]):
  | | | | |         35e8: 00 02 d4 01 00 01 00 01                         [........]
  | | | | | 12) WB_RBLevels6000K = 548 434 256 256
  | | | | |     - Tag 0x010b (8 bytes, int16u[4]):
  | | | | |         35f0: 24 02 b2 01 00 01 00 01                         [$.......]
  | | | | | 13) WB_RBLevels6600K = 560 430 256 256
  | | | | |     - Tag 0x010c (8 bytes, int16u[4]):
  | | | | |         35f8: 30 02 ae 01 00 01 00 01                         [0.......]
  | | | | | 14) WB_RBLevels7500K = 604 392 256 256
  | | | | |     - Tag 0x010d (8 bytes, int16u[4]):
  | | | | |         3600: 5c 02 88 01 00 01 00 01                         [\.......]
  | | | | | 15) WB_RBLevelsCWB1 = 712 326 256 256
  | | | | |     - Tag 0x010e (8 bytes, int16u[4]):
  | | | | |         3608: c8 02 46 01 00 01 00 01                         [..F.....]
  | | | | | 16) WB_RBLevelsCWB2 = 384 384 256 256
  | | | | |     - Tag 0x010f (8 bytes, int16u[4]):
  | | | | |         3610: 80 01 80 01 00 01 00 01                         [........]
  | | | | | 17) WB_RBLevelsCWB3 = 384 384 256 256
  | | | | |     - Tag 0x0110 (8 bytes, int16u[4]):
  | | | | |         3618: 80 01 80 01 00 01 00 01                         [........]
  | | | | | 18) WB_RBLevelsCWB4 = 384 384 256 256
  | | | | |     - Tag 0x0111 (8 bytes, int16u[4]):
  | | | | |         3620: 80 01 80 01 00 01 00 01                         [........]
  | | | | | 19) Olympus_ImageProcessing_0x0120 = 462 520 256 256
  | | | | |     - Tag 0x0120 (8 bytes, int16u[4]):
  | | | | |         3628: ce 01 08 02 00 01 00 01                         [........]
  | | | | | 20) Olympus_ImageProcessing_0x0121 = 512 468 256 256
  | | | | |     - Tag 0x0121 (8 bytes, int16u[4]):
  | | | | |         3630: 00 02 d4 01 00 01 00 01                         [........]
  | | | | | 21) Olympus_ImageProcessing_0x0122 = 2 100 -2 100 -2 100 -2 100
  | | | | |     - Tag 0x0122 (16 bytes, int16s[8]):
  | | | | |         3638: 02 00 64 00 fe ff 64 00 fe ff 64 00 fe ff 64 00 [..d...d...d...d.]
  | | | | | 22) Olympus_ImageProcessing_0x0123 = 270 269 270 269 804 804 804 804
  | | | | |     - Tag 0x0123 (16 bytes, int16u[8]):
  | | | | |         3648: 0e 01 0d 01 0e 01 0d 01 24 03 24 03 24 03 24 03 [........$.$.$.$.]
  | | | | | 23) Olympus_ImageProcessing_0x0124 = 49140
  | | | | |     - Tag 0x0124 (2 bytes, int16u[1]):
  | | | | |         2364: f4 bf                                           [..]
  | | | | | 24) Olympus_ImageProcessing_0x0125 = 500 484 256 256
  | | | | |     - Tag 0x0125 (8 bytes, int16u[4]):
  | | | | |         365a: f4 01 e4 01 00 01 00 01                         [........]
  | | | | | 25) ColorMatrix = 536 -312 32 -72 412 -84 6 -164 414
  | | | | |     - Tag 0x0200 (18 bytes, int16u[9] read as int16s[9]):
  | | | | |         3664: 18 02 c8 fe 20 00 b8 ff 9c 01 ac ff 06 00 5c ff [.... .........\.]
  | | | | |         3674: 9e 01                                           [..]
  | | | | | 26) Olympus_ImageProcessing_0x0201 = 0 0 0 0 0 0 0 0 0
  | | | | |     - Tag 0x0201 (18 bytes, int16u[9]):
  | | | | |         3676: 00 00 00 00 00 00 00 00 00 00 00 00 00 00 00 00 [................]
  | | | | |         3686: 00 00                                           [..]
  | | | | | 27) Olympus_ImageProcessing_0x0202 = 0 0 0 0 0 0 0 0 0
  | | | | |     - Tag 0x0202 (18 bytes, int16u[9]):
  | | | | |         3688: 00 00 00 00 00 00 00 00 00 00 00 00 00 00 00 00 [................]
  | | | | |         3698: 00 00                                           [..]
  | | | | | 28) Olympus_ImageProcessing_0x0203 = 0 0 0 0 0 0 0 0 0
  | | | | |     - Tag 0x0203 (18 bytes, int16u[9]):
  | | | | |         369a: 00 00 00 00 00 00 00 00 00 00 00 00 00 00 00 00 [................]
  | | | | |         36aa: 00 00                                           [..]
  | | | | | 29) Olympus_ImageProcessing_0x0204 = 0 0 0 0 0 0 0 0 0
  | | | | |     - Tag 0x0204 (18 bytes, int16u[9]):
  | | | | |         36ac: 00 00 00 00 00 00 00 00 00 00 00 00 00 00 00 00 [................]
  | | | | |         36bc: 00 00                                           [..]
  | | | | | 30) Olympus_ImageProcessing_0x0205 = 0 0 0 0 0 0 0 0 0
  | | | | |     - Tag 0x0205 (18 bytes, int16u[9]):
  | | | | |         36be: 00 00 00 00 00 00 00 00 00 00 00 00 00 00 00 00 [................]
  | | | | |         36ce: 00 00                                           [..]
  | | | | | 31) Olympus_ImageProcessing_0x0206 = 0 0 0 0 0 0 0 0 0
  | | | | |     - Tag 0x0206 (18 bytes, int16u[9]):
  | | | | |         36d0: 00 00 00 00 00 00 00 00 00 00 00 00 00 00 00 00 [................]
  | | | | |         36e0: 00 00                                           [..]
  | | | | | 32) Olympus_ImageProcessing_0x0207 = 0 0 0 0 0 0 0 0 0
  | | | | |     - Tag 0x0207 (18 bytes, int16u[9]):
  | | | | |         36e2: 00 00 00 00 00 00 00 00 00 00 00 00 00 00 00 00 [................]
  | | | | |         36f2: 00 00                                           [..]
  | | | | | 33) Olympus_ImageProcessing_0x0208 = 0 0 0 0 0 0 0 0 0
  | | | | |     - Tag 0x0208 (18 bytes, int16u[9]):
  | | | | |         36f4: 00 00 00 00 00 00 00 00 00 00 00 00 00 00 00 00 [................]
  | | | | |         3704: 00 00                                           [..]
  | | | | | 34) Olympus_ImageProcessing_0x0209 = 0 0 0 0 0 0 0 0 0
  | | | | |     - Tag 0x0209 (18 bytes, int16u[9]):
  | | | | |         3706: 00 00 00 00 00 00 00 00 00 00 00 00 00 00 00 00 [................]
  | | | | |         3716: 00 00                                           [..]
  | | | | | 35) Olympus_ImageProcessing_0x020a = 0 0 0 0 0 0 0 0 0
  | | | | |     - Tag 0x020a (18 bytes, int16u[9]):
  | | | | |         3718: 00 00 00 00 00 00 00 00 00 00 00 00 00 00 00 00 [................]
  | | | | |         3728: 00 00                                           [..]
  | | | | | 36) Olympus_ImageProcessing_0x020b = 0 0 0 0 0 0 0 0 0
  | | | | |     - Tag 0x020b (18 bytes, int16u[9]):
  | | | | |         372a: 00 00 00 00 00 00 00 00 00 00 00 00 00 00 00 00 [................]
  | | | | |         373a: 00 00                                           [..]
  | | | | | 37) Olympus_ImageProcessing_0x020c = 0 0 0 0 0 0 0 0 0
  | | | | |     - Tag 0x020c (18 bytes, int16u[9]):
  | | | | |         373c: 00 00 00 00 00 00 00 00 00 00 00 00 00 00 00 00 [................]
  | | | | |         374c: 00 00                                           [..]
  | | | | | 38) Olympus_ImageProcessing_0x020d = 0 0 0 0 0 0 0 0 0
  | | | | |     - Tag 0x020d (18 bytes, int16u[9]):
  | | | | |         374e: 00 00 00 00 00 00 00 00 00 00 00 00 00 00 00 00 [................]
  | | | | |         375e: 00 00                                           [..]
  | | | | | 39) Olympus_ImageProcessing_0x020e = 0 0 0 0 0 0 0 0 0
  | | | | |     - Tag 0x020e (18 bytes, int16u[9]):
  | | | | |         3760: 00 00 00 00 00 00 00 00 00 00 00 00 00 00 00 00 [................]
  | | | | |         3770: 00 00                                           [..]
  | | | | | 40) Olympus_ImageProcessing_0x020f = 0 0 0 0 0 0 0 0 0
  | | | | |     - Tag 0x020f (18 bytes, int16u[9]):
  | | | | |         3772: 00 00 00 00 00 00 00 00 00 00 00 00 00 00 00 00 [................]
  | | | | |         3782: 00 00                                           [..]
  | | | | | 41) Olympus_ImageProcessing_0x0210 = 0 0 0 0 0 0 0 0 0
  | | | | |     - Tag 0x0210 (18 bytes, int16u[9]):
  | | | | |         3784: 00 00 00 00 00 00 00 00 00 00 00 00 00 00 00 00 [................]
  | | | | |         3794: 00 00                                           [..]
  | | | | | 42) Olympus_ImageProcessing_0x0211 = 0 0 0 0 0 0 0 0 0
  | | | | |     - Tag 0x0211 (18 bytes, int16u[9]):
  | | | | |         3796: 00 00 00 00 00 00 00 00 00 00 00 00 00 00 00 00 [................]
  | | | | |         37a6: 00 00                                           [..]
  | | | | | 43) Olympus_ImageProcessing_0x0212 = 0 0 0 0 0 0 0 0 0
  | | | | |     - Tag 0x0212 (18 bytes, int16u[9]):
  | | | | |         37a8: 00 00 00 00 00 00 00 00 00 00 00 00 00 00 00 00 [................]
  | | | | |         37b8: 00 00                                           [..]
  | | | | | 44) Olympus_ImageProcessing_0x0213 = 0 0 0 0 0 0 0 0 0
  | | | | |     - Tag 0x0213 (18 bytes, int16u[9]):
  | | | | |         37ba: 00 00 00 00 00 00 00 00 00 00 00 00 00 00 00 00 [................]
  | | | | |         37ca: 00 00                                           [..]
  | | | | | 45) Olympus_ImageProcessing_0x0214 = 0 0 0 0 0 0 0 0 0
  | | | | |     - Tag 0x0214 (18 bytes, int16u[9]):
  | | | | |         37cc: 00 00 00 00 00 00 00 00 00 00 00 00 00 00 00 00 [................]
  | | | | |         37dc: 00 00                                           [..]
  | | | | | 46) Olympus_ImageProcessing_0x0215 = 0 0 0 0 0 0 0 0 0
  | | | | |     - Tag 0x0215 (18 bytes, int16u[9]):
  | | | | |         37de: 00 00 00 00 00 00 00 00 00 00 00 00 00 00 00 00 [................]
  | | | | |         37ee: 00 00                                           [..]
  | | | | | 47) Olympus_ImageProcessing_0x0216 = 0 0 0 0 0 0 0 0 0
  | | | | |     - Tag 0x0216 (18 bytes, int16u[9]):
  | | | | |         37f0: 00 00 00 00 00 00 00 00 00 00 00 00 00 00 00 00 [................]
  | | | | |         3800: 00 00                                           [..]
  | | | | | 48) Olympus_ImageProcessing_0x0217 = 0 0 0 0 0 0 0 0 0
  | | | | |     - Tag 0x0217 (18 bytes, int16u[9]):
  | | | | |         3802: 00 00 00 00 00 00 00 00 00 00 00 00 00 00 00 00 [................]
  | | | | |         3812: 00 00                                           [..]
  | | | | | 49) Olympus_ImageProcessing_0x0218 = 0 0 0 0 0 0 0 0 0
  | | | | |     - Tag 0x0218 (18 bytes, int16u[9]):
  | | | | |         3814: 00 00 00 00 00 00 00 00 00 00 00 00 00 00 00 00 [................]
  | | | | |         3824: 00 00                                           [..]
  | | | | | 50) Olympus_ImageProcessing_0x0219 = 0 0 0 0 0 0 0 0 0
  | | | | |     - Tag 0x0219 (18 bytes, int16u[9]):
  | | | | |         3826: 00 00 00 00 00 00 00 00 00 00 00 00 00 00 00 00 [................]
  | | | | |         3836: 00 00                                           [..]
  | | | | | 51) Olympus_ImageProcessing_0x021a = 0 0 0 0 0 0 0 0 0
  | | | | |     - Tag 0x021a (18 bytes, int16u[9]):
  | | | | |         3838: 00 00 00 00 00 00 00 00 00 00 00 00 00 00 00 00 [................]
  | | | | |         3848: 00 00                                           [..]
  | | | | | 52) Olympus_ImageProcessing_0x0228 = 0 0 0 0 0 0 0 0 0
  | | | | |     - Tag 0x0228 (18 bytes, int16u[9]):
  | | | | |         384a: 00 00 00 00 00 00 00 00 00 00 00 00 00 00 00 00 [................]
  | | | | |         385a: 00 00                                           [..]
  | | | | | 53) Olympus_ImageProcessing_0x0229 = 0 0 0 0 0 0 0 0 0
  | | | | |     - Tag 0x0229 (18 bytes, int16u[9]):
  | | | | |         385c: 00 00 00 00 00 00 00 00 00 00 00 00 00 00 00 00 [................]
  | | | | |         386c: 00 00                                           [..]
  | | | | | 54) Olympus_ImageProcessing_0x0259 = 0 0 0 0 0 0 0 0 0 0 0 0 0 0 0 0 0 0 0 0 0 0 0 0 0 0 0 0 0 0 0 0 0 0 0 0 0 0 0 0 0 0 0 0 0 0 0 0 0 0 0 0 0 0 0 0 0 0 0 0 0 0 0 0 0 0 0 0 0 0 0 0 0 0 0 0 0 0 0 0 0 0 0 0 0 0 0 0 0 0 0 0 0 0 0 0 0 0 0
  | | | | |     - Tag 0x0259 (198 bytes, int16s[99]):
  | | | | |         386e: 00 00 00 00 00 00 00 00 00 00 00 00 00 00 00 00 [................]
  | | | | |         387e: 00 00 00 00 00 00 00 00 00 00 00 00 00 00 00 00 [................]
  | | | | |         388e: 00 00 00 00 00 00 00 00 00 00 00 00 00 00 00 00 [................]
  | | | | |         389e: 00 00 00 00 00 00 00 00 00 00 00 00 00 00 00 00 [................]
  | | | | |         38ae: 00 00 00 00 00 00 00 00 00 00 00 00 00 00 00 00 [................]
  | | | | |         38be: 00 00 00 00 00 00 00 00 00 00 00 00 00 00 00 00 [................]
  | | | | |         38ce: 00 00 00 00 00 00 00 00 00 00 00 00 00 00 00 00 [................]
  | | | | |         38de: 00 00 00 00 00 00 00 00 00 00 00 00 00 00 00 00 [................]
  | | | | |         38ee: 00 00 00 00 00 00 00 00 00 00 00 00 00 00 00 00 [................]
  | | | | |         38fe: 00 00 00 00 00 00 00 00 00 00 00 00 00 00 00 00 [................]
  | | | | |         390e: 00 00 00 00 00 00 00 00 00 00 00 00 00 00 00 00 [................]
  | | | | |         391e: 00 00 00 00 00 00 00 00 00 00 00 00 00 00 00 00 [................]
  | | | | |         392e: 00 00 00 00 00 00                               [......]
  | | | | | 55) Olympus_ImageProcessing_0x0302 = 256
  | | | | |     - Tag 0x0302 (2 bytes, int16u[1]):
  | | | | |         24e4: 00 01                                           [..]
  | | | | | 56) Olympus_ImageProcessing_0x0303 = 0
  | | | | |     - Tag 0x0303 (2 bytes, int16u[1]):
  | | | | |         24f0: 00 00                                           [..]
  | | | | | 57) Olympus_ImageProcessing_0x0304 = 0 0 0 0 0 0 0 0 0 0 0
  | | | | |     - Tag 0x0304 (22 bytes, int16u[11]):
  | | | | |         3938: 00 00 00 00 00 00 00 00 00 00 00 00 00 00 00 00 [................]
  | | | | |         3948: 00 00 00 00 00 00                               [......]
  | | | | | 58) Olympus_ImageProcessing_0x0305 = 0 0 0 0 0
  | | | | |     - Tag 0x0305 (10 bytes, int16u[5]):
  | | | | |         3950: 00 00 00 00 00 00 00 00 00 00                   [..........]
  | | | | | 59) Olympus_ImageProcessing_0x0312 = 256
  | | | | |     - Tag 0x0312 (2 bytes, int16u[1]):
  | | | | |         2514: 00 01                                           [..]
  | | | | | 60) Olympus_ImageProcessing_0x0313 = 0
  | | | | |     - Tag 0x0313 (2 bytes, int16u[1]):
  | | | | |         2520: 00 00                                           [..]
  | | | | | 61) Olympus_ImageProcessing_0x0314 = 0 0 0 0 0 0 0 0 0 0 0
  | | | | |     - Tag 0x0314 (22 bytes, int16u[11]):
  | | | | |         395a: 00 00 00 00 00 00 00 00 00 00 00 00 00 00 00 00 [................]
  | | | | |         396a: 00 00 00 00 00 00                               [......]
  | | | | | 62) Olympus_ImageProcessing_0x0315 = 0 0 0 0 0
  | | | | |     - Tag 0x0315 (10 bytes, int16u[5]):
  | | | | |         3970: 00 00 00 00 00 00 00 00 00 00                   [..........]
  | | | | | 63) Olympus_ImageProcessing_0x0340 = 0 0 0 0 0 0 0 0 0 0 0 0 0 0 0 0 0 0 0 0 0 0 0 0
  | | | | |     - Tag 0x0340 (48 bytes, int16s[24]):
  | | | | |         397c: 00 00 00 00 00 00 00 00 00 00 00 00 00 00 00 00 [................]
  | | | | |         398c: 00 00 00 00 00 00 00 00 00 00 00 00 00 00 00 00 [................]
  | | | | |         399c: 00 00 00 00 00 00 00 00 00 00 00 00 00 00 00 00 [................]
  | | | | | 64) Olympus_ImageProcessing_0x0341 = 0 0 0 0 0 0 0 0 0 0 0 0 0 0 0 0 0 0 0 0 0 0 0 0
  | | | | |     - Tag 0x0341 (48 bytes, int16s[24]):
  | | | | |         39ac: 00 00 00 00 00 00 00 00 00 00 00 00 00 00 00 00 [................]
  | | | | |         39bc: 00 00 00 00 00 00 00 00 00 00 00 00 00 00 00 00 [................]
  | | | | |         39cc: 00 00 00 00 00 00 00 00 00 00 00 00 00 00 00 00 [................]
  | | | | | 65) Olympus_ImageProcessing_0x0342 = 0 0 0 0 0 0 0 0 0 0 0 0 0 0 0 0 0 0 0 0 0 0 0 0
  | | | | |     - Tag 0x0342 (48 bytes, int16s[24]):
  | | | | |         39dc: 00 00 00 00 00 00 00 00 00 00 00 00 00 00 00 00 [................]
  | | | | |         39ec: 00 00 00 00 00 00 00 00 00 00 00 00 00 00 00 00 [................]
  | | | | |         39fc: 00 00 00 00 00 00 00 00 00 00 00 00 00 00 00 00 [................]
  | | | | | 66) Olympus_ImageProcessing_0x0343 = 0 0 0 0 0 0 0 0 0 0 0 0 0 0 0 0 0 0 0 0 0 0 0 0
  | | | | |     - Tag 0x0343 (48 bytes, int16s[24]):
  | | | | |         3a0c: 00 00 00 00 00 00 00 00 00 00 00 00 00 00 00 00 [................]
  | | | | |         3a1c: 00 00 00 00 00 00 00 00 00 00 00 00 00 00 00 00 [................]
  | | | | |         3a2c: 00 00 00 00 00 00 00 00 00 00 00 00 00 00 00 00 [................]
  | | | | | 67) Olympus_ImageProcessing_0x0350 = 0 0 9 16383 4095 9 0 0 0 0 0 0
  | | | | |     - Tag 0x0350 (24 bytes, int16u[12]):
  | | | | |         3a3c: 00 00 00 00 09 00 ff 3f ff 0f 09 00 00 00 00 00 [.......?........]
  | | | | |         3a4c: 00 00 00 00 00 00 00 00                         [........]
  | | | | | 68) Olympus_ImageProcessing_0x0351 = 0 0 0 0 0 0 0 0 0 0 0 0 0 0 0 0 0 0 0 0 0 0 0 0 0 0 0 0 0 0
  | | | | |     - Tag 0x0351 (60 bytes, int16u[30]):
  | | | | |         3a54: 00 00 00 00 00 00 00 00 00 00 00 00 00 00 00 00 [................]
  | | | | |         3a64: 00 00 00 00 00 00 00 00 00 00 00 00 00 00 00 00 [................]
  | | | | |         3a74: 00 00 00 00 00 00 00 00 00 00 00 00 00 00 00 00 [................]
  | | | | |         3a84: 00 00 00 00 00 00 00 00 00 00 00 00             [............]
  | | | | | 69) Olympus_ImageProcessing_0x0400 = 0 0 0 0 0 0 0 0 0 0 0 0 0 0 0 0 0 0 0 0 0 0 0 0 0 0 0 0 0 0 0 0 0 0 0 0 0 0 0 0 0 0 0 0 0 0 0 0 0 0 0 0 0 0 0 0 0 0 0 0 0 0 0
  | | | | |     - Tag 0x0400 (126 bytes, int16u[63]):
  | | | | |         3ada: 00 00 00 00 00 00 00 00 00 00 00 00 00 00 00 00 [................]
  | | | | |         3aea: 00 00 00 00 00 00 00 00 00 00 00 00 00 00 00 00 [................]
  | | | | |         3afa: 00 00 00 00 00 00 00 00 00 00 00 00 00 00 00 00 [................]
  | | | | |         3b0a: 00 00 00 00 00 00 00 00 00 00 00 00 00 00 00 00 [................]
  | | | | |         3b1a: 00 00 00 00 00 00 00 00 00 00 00 00 00 00 00 00 [................]
  | | | | |         3b2a: 00 00 00 00 00 00 00 00 00 00 00 00 00 00 00 00 [................]
  | | | | |         3b3a: 00 00 00 00 00 00 00 00 00 00 00 00 00 00 00 00 [................]
  | | | | |         3b4a: 00 00 00 00 00 00 00 00 00 00 00 00 00 00       [..............]
  | | | | | 70) Olympus_ImageProcessing_0x0401 = 0 0 0 0 0
  | | | | |     - Tag 0x0401 (10 bytes, int16u[5]):
  | | | | |         3a90: 00 00 00 00 00 00 00 00 00 00                   [..........]
  | | | | | 71) Olympus_ImageProcessing_0x0402 = 0 0 0 0 0
  | | | | |     - Tag 0x0402 (10 bytes, int16u[5]):
  | | | | |         3a9a: 00 00 00 00 00 00 00 00 00 00                   [..........]
  | | | | | 72) Olympus_ImageProcessing_0x0403 = 0 0 0 0 0
  | | | | |     - Tag 0x0403 (10 bytes, int16u[5]):
  | | | | |         3aa4: 00 00 00 00 00 00 00 00 00 00                   [..........]
  | | | | | 73) Olympus_ImageProcessing_0x0404 = 0 0 0 0 0
  | | | | |     - Tag 0x0404 (10 bytes, int16u[5]):
  | | | | |         3aae: 00 00 00 00 00 00 00 00 00 00                   [..........]
  | | | | | 74) Olympus_ImageProcessing_0x0405 = 0 0 0 0 0
  | | | | |     - Tag 0x0405 (10 bytes, int16u[5]):
  | | | | |         3ab8: 00 00 00 00 00 00 00 00 00 00                   [..........]
  | | | | | 75) Olympus_ImageProcessing_0x0406 = 0 0 0 0 0
  | | | | |     - Tag 0x0406 (10 bytes, int16u[5]):
  | | | | |         3ac2: 00 00 00 00 00 00 00 00 00 00                   [..........]
  | | | | | 76) Olympus_ImageProcessing_0x0407 = 256
  | | | | |     - Tag 0x0407 (2 bytes, int16u[1]):
  | | | | |         25e0: 00 01                                           [..]
  | | | | | 77) Olympus_ImageProcessing_0x0408 = 0 0 0 0 0
  | | | | |     - Tag 0x0408 (10 bytes, int16u[5]):
  | | | | |         3acc: 00 00 00 00 00 00 00 00 00 00                   [..........]
  | | | | | 78) Olympus_ImageProcessing_0x0409 = 0 0 0 0 0
  | | | | |     - Tag 0x0409 (10 bytes, int16u[5]):
  | | | | |         3b5a: 00 00 00 00 00 00 00 00 00 00                   [..........]
  | | | | | 79) Olympus_ImageProcessing_0x040a = 0 0 0 0 0 0 0 0 0 0 0 0 0 0 0
  | | | | |     - Tag 0x040a (30 bytes, int16u[15]):
  | | | | |         3b64: 00 00 00 00 00 00 00 00 00 00 00 00 00 00 00 00 [................]
  | | | | |         3b74: 00 00 00 00 00 00 00 00 00 00 00 00 00 00       [..............]
  | | | | | 80) Olympus_ImageProcessing_0x0410 = 0 0 0 0 0
  | | | | |     - Tag 0x0410 (10 bytes, int16u[5]):
  | | | | |         3b82: 00 00 00 00 00 00 00 00 00 00                   [..........]
  | | | | | 81) Olympus_ImageProcessing_0x0420 = 0
  | | | | |     - Tag 0x0420 (2 bytes, int16s[1]):
  | | | | |         261c: 00 00                                           [..]
  | | | | | 82) Olympus_ImageProcessing_0x0421 = 0
  | | | | |     - Tag 0x0421 (2 bytes, int16u[1]):
  | | | | |         2628: 00 00                                           [..]
  | | | | | 83) Olympus_ImageProcessing_0x0422 = 0 0 0 0 0
  | | | | |     - Tag 0x0422 (10 bytes, int16s[5]):
  | | | | |         3b8c: 00 00 00 00 00 00 00 00 00 00                   [..........]
  | | | | | 84) Olympus_ImageProcessing_0x0423 = 0 0 0 0 0
  | | | | |     - Tag 0x0423 (10 bytes, int16u[5]):
  | | | | |         3b96: 00 00 00 00 00 00 00 00 00 00                   [..........]
  | | | | | 85) Olympus_ImageProcessing_0x0424 = 0 0 0 0 0
  | | | | |     - Tag 0x0424 (10 bytes, int16s[5]):
  | | | | |         3ba0: 00 00 00 00 00 00 00 00 00 00                   [..........]
  | | | | | 86) Olympus_ImageProcessing_0x0425 = 0 0 0 0 0
  | | | | |     - Tag 0x0425 (10 bytes, int16u[5]):
  | | | | |         3baa: 00 00 00 00 00 00 00 00 00 00                   [..........]
  | | | | | 87) BlackLevel2 = 67 67 67 67
  | | | | |     - Tag 0x0600 (8 bytes, int16u[4]):
  | | | | |         3bb4: 43 00 43 00 43 00 43 00                         [C.C.C.C.]
  | | | | | 88) Olympus_ImageProcessing_0x0601 = 320 4096 3328 4096 20 128
  | | | | |     - Tag 0x0601 (12 bytes, int16u[6]):
  | | | | |         3bcc: 40 01 00 10 00 0d 00 10 14 00 80 00             [@...........]
  | | | | | 89) Olympus_ImageProcessing_0x0602 = 320 4096 3328 4096 20 128
  | | | | |     - Tag 0x0602 (12 bytes, int16u[6]):
  | | | | |         3bd8: 40 01 00 10 00 0d 00 10 14 00 80 00             [@...........]
  | | | | | 90) Olympus_ImageProcessing_0x0603 = 320 4096 3328 4096 20 128
  | | | | |     - Tag 0x0603 (12 bytes, int16u[6]):
  | | | | |         3be4: 40 01 00 10 00 0d 00 10 14 00 80 00             [@...........]
  | | | | | 91) GainBase = 256
  | | | | |     - Tag 0x0610 (2 bytes, int16u[1]):
  | | | | |         2694: 00 01                                           [..]
  | | | | | 92) ValidBits = 12 0
  | | | | |     - Tag 0x0611 (4 bytes, int16u[2]):
  | | | | |         26a0: 0c 00 00 00                                     [....]
  | | | | | 93) CropLeft = 8 0
  | | | | |     - Tag 0x0612 (4 bytes, int16u[2]):
  | | | | |         26ac: 08 00 00 00                                     [....]
  | | | | | 94) CropTop = 8 0
  | | | | |     - Tag 0x0613 (4 bytes, int16u[2]):
  | | | | |         26b8: 08 00 00 00                                     [....]
  | | | | | 95) CropWidth = 3648
  | | | | |     - Tag 0x0614 (4 bytes, int32u[1]):
  | | | | |         26c4: 40 0e 00 00                                     [@...]
  | | | | | 96) CropHeight = 2736
  | | | | |     - Tag 0x0615 (4 bytes, int32u[1]):
  | | | | |         26d0: b0 0a 00 00                                     [....]
  | | | | | 97) Olympus_ImageProcessing_0x0617 = 65535
  | | | | |     - Tag 0x0617 (2 bytes, int16u[1]):
  | | | | |         26dc: ff ff                                           [..]
  | | | | | 98) Olympus_ImageProcessing_0x0618 = 65535
  | | | | |     - Tag 0x0618 (2 bytes, int16u[1]):
  | | | | |         26e8: ff ff                                           [..]
  | | | | | 99) Olympus_ImageProcessing_0x0619 = 65535
  | | | | |     - Tag 0x0619 (2 bytes, int16u[1]):
  | | | | |         26f4: ff ff                                           [..]
  | | | | | 100) Olympus_ImageProcessing_0x0620 = 3
  | | | | |     - Tag 0x0620 (2 bytes, int16u[1]):
  | | | | |         2700: 03 00                                           [..]
  | | | | | 101) Olympus_ImageProcessing_0x0630 = 3
  | | | | |     - Tag 0x0630 (2 bytes, int16u[1]):
  | | | | |         270c: 03 00                                           [..]
  | | | | | 102) UnknownBlock1 = CMIO....R..........................................................................l...........l....... .......\....... .......\....... .......\....... .......\....... .......\....... .......\....... .......\....... .......\...J.................J.................J.................J..............................l...b............\...b............\...b............\...b............\...b............\...b............\...b............\...b............\..............................................................Q...L...'a...t.............................................................................................................................................................................$,m8...............................................................=(.................................3.3.M.M.f.f......@`....0.`.......%........(.......u..y..z.z@@@@@@@@@@@@.d...........9....i9..9....i9.....x\OA1..........................................................................................8.....".....@.@.@.@....33...3..@.@.@.......lffff............................@...........:............................@...........:............................@...........:............................@...........:............................@...........:............................@...........:........................;;;;~........................@@..........;;;;~........................@@..........Ppx|...........%Wqx|...........Php....phOOOOOOOPpx|...........%Wqx|...........Php....phOOOOOOO....@...........:............................@...........:............................@...........:............................@...........:........................""""@...........)........................""""@...........)............................@...........:............................@...........:........................`N. .~..n....f........p......@..`N. .~..n....f........p......@..`N. .~..n....f........p......@..`N. .~..n....f........p......@..`N. .~..n....f........p......@..`N. .~..n....f........p......@..`N. .~..n....f........p.....[snip]
  | | | | |     - Tag 0x0635 (5120 bytes, undef[5120]):
  | | | | |         5146: 43 4d 49 4f 01 00 07 dc 00 05 52 08 c0 00 10 01 [CMIO......R.....]
  | | | | |         5156: f8 00 e0 00 00 02 10 ff f0 ff a0 ff 8c 01 d4 ff [................]
  | | | | |         5166: fc ff 10 ff f4 01 00 02 10 ff f0 ff a0 ff 8c 01 [................]
  | | | | |         5176: d4 ff fc ff 10 ff f4 01 00 02 10 ff f0 ff a0 ff [................]
  | | | | |         5186: 8c 01 d4 ff fc ff 10 ff f4 01 00 02 10 ff f0 ff [................]
  | | | | |         5196: a0 ff 8c 01 d4 ff fc ff 10 ff f4 01 6c 02 84 fe [............l...]
  | | | | |         51a6: 10 00 ac ff 80 01 d4 ff 06 00 6c ff 8e 01 18 02 [..........l.....]
  | | | | |         51b6: c8 fe 20 00 b8 ff 9c 01 ac ff 06 00 5c ff 9e 01 [.. .........\...]
  | | | | |         51c6: 18 02 c8 fe 20 00 b8 ff 9c 01 ac ff 06 00 5c ff [.... .........\.]
  | | | | |         51d6: 9e 01 18 02 c8 fe 20 00 b8 ff 9c 01 ac ff 06 00 [...... .........]
  | | | | |         51e6: 5c ff 9e 01 18 02 c8 fe 20 00 b8 ff 9c 01 ac ff [\....... .......]
  | | | | |         51f6: 06 00 5c ff 9e 01 18 02 c8 fe 20 00 b8 ff 9c 01 [..\....... .....]
  | | | | |         5206: ac ff 06 00 5c ff 9e 01 18 02 c8 fe 20 00 b8 ff [....\....... ...]
  | | | | |         5216: 9c 01 ac ff 06 00 5c ff 9e 01 18 02 c8 fe 20 00 [......\....... .]
  | | | | |         5226: b8 ff 9c 01 ac ff 06 00 5c ff 9e 01 18 02 c8 fe [........\.......]
  | | | | |         5236: 20 00 b8 ff 9c 01 ac ff 06 00 5c ff 9e 01 4a 01 [ .........\...J.]
  | | | | |         5246: ec ff ca ff 9e ff ac 01 b6 ff fc ff 10 ff f4 01 [................]
  | | | | |         5256: 4a 01 ec ff ca ff 9e ff ac 01 b6 ff fc ff 10 ff [J...............]
  | | | | |         5266: f4 01 4a 01 ec ff ca ff 9e ff ac 01 b6 ff fc ff [..J.............]
  | | | | |         5276: 10 ff f4 01 4a 01 ec ff ca ff 9e ff ac 01 b6 ff [....J...........]
  | | | | |         5286: fc ff 10 ff f4 01 92 01 88 ff e6 ff a8 ff 98 01 [................]
  | | | | |         5296: c0 ff 06 00 6c ff 8e 01 62 01 c0 ff de ff b6 ff [....l...b.......]
  | | | | |         52a6: b4 01 96 ff 06 00 5c ff 9e 01 62 01 c0 ff de ff [......\...b.....]
  | | | | |         52b6: b6 ff b4 01 96 ff 06 00 5c ff 9e 01 62 01 c0 ff [........\...b...]
  | | | | |         52c6: de ff b6 ff b4 01 96 ff 06 00 5c ff 9e 01 62 01 [..........\...b.]
  | | | | |         52d6: c0 ff de ff b6 ff b4 01 96 ff 06 00 5c ff 9e 01 [............\...]
  | | | | |         52e6: 62 01 c0 ff de ff b6 ff b4 01 96 ff 06 00 5c ff [b.............\.]
  | | | | |         52f6: 9e 01 62 01 c0 ff de ff b6 ff b4 01 96 ff 06 00 [..b.............]
  | | | | |         5306: 5c ff 9e 01 62 01 c0 ff de ff b6 ff b4 01 96 ff [\...b...........]
  | | | | |         5316: 06 00 5c ff 9e 01 62 01 c0 ff de ff b6 ff b4 01 [..\...b.........]
  | | | | |         5326: 96 ff 06 00 5c ff 9e 01 00 01 00 00 00 00 00 00 [....\...........]
  | | | | |         5336: 00 01 00 00 00 00 00 00 00 01 00 01 00 00 00 00 [................]
  | | | | |         5346: 00 00 00 01 00 00 00 00 00 00 00 01 00 01 00 00 [................]
  | | | | |         5356: 00 00 00 00 00 01 00 00 00 00 00 00 00 01 00 01 [................]
  | | | | |         5366: 00 00 00 00 00 00 00 01 00 00 00 00 00 00 00 01 [................]
  | | | | |         5376: 00 01 00 00 00 00 00 00 00 01 00 00 00 00 00 00 [................]
  | | | | |         5386: 00 01 00 01 00 00 00 00 00 00 00 01 00 00 00 00 [................]
  | | | | |         5396: 00 00 00 01 00 01 00 00 00 00 00 00 00 01 00 00 [................]
  | | | | |         53a6: 00 00 00 00 00 01 00 01 00 00 00 00 00 00 00 01 [................]
  | | | | |         53b6: 00 00 00 00 00 00 00 01 00 01 00 00 00 00 00 00 [................]
  | | | | |         53c6: 00 01 00 00 00 00 00 00 00 01 00 01 00 00 00 00 [................]
  | | | | |         53d6: 00 00 00 01 00 00 00 00 00 00 00 01 00 01 00 00 [................]
  | | | | |         53e6: 00 00 00 00 00 01 00 00 00 00 00 00 00 01 00 01 [................]
  | | | | |         53f6: 00 00 00 00 00 00 00 01 00 00 00 00 00 00 00 01 [................]
  | | | | |         5406: 13 01 e5 ff 08 00 09 00 09 01 ee ff 0f 00 1d 00 [................]
  | | | | |         5416: d4 00 1d 01 e7 ff fc ff 15 00 fc 00 ef ff 51 00 [..............Q.]
  | | | | |         5426: cc ff e3 00 4c 01 8d ff 27 00 61 00 c8 00 d7 ff [....L...'.a.....]
  | | | | |         5436: 74 00 dc ff b0 00 c3 00 1f 00 1e 00 fb ff 18 01 [t...............]
  | | | | |         5446: ed ff 9b ff a8 00 bd 00 11 01 f2 ff fd ff f9 ff [................]
  | | | | |         5456: 0a 01 fd ff f9 ff f2 ff 15 01 00 00 00 00 00 00 [................]
  | | | | |         5466: 00 00 00 00 ec ff e0 ff f8 ff 00 00 fc ff e0 ff [................]
  | | | | |         5476: 00 00 14 00 00 00 08 00 00 00 08 00 f0 ff f0 ff [................]
  | | | | |         5486: e0 ff f4 ff 0c 00 d0 ff 00 00 06 00 00 00 00 00 [................]
  | | | | |         5496: 00 00 00 00 fe ff e4 ff 10 00 00 00 04 00 e8 ff [................]
  | | | | |         54a6: 00 00 16 00 04 00 07 00 fa ff 08 00 02 00 f4 ff [................]
  | | | | |         54b6: f8 ff f4 ff 14 00 d8 ff 00 00 08 00 04 00 ff ff [................]
  | | | | |         54c6: fa ff 00 00 d6 ff e4 ff e8 ff 00 00 00 00 d8 ff [................]
  | | | | |         54d6: 03 00 14 00 fd ff 11 00 08 00 12 00 da ff f4 ff [................]
  | | | | |         54e6: d0 ff f4 ff 10 00 c8 ff 03 00 06 00 fd ff 07 00 [................]
  | | | | |         54f6: 08 00 0a 00 fa ff e0 ff f8 ff 05 00 fc ff e0 ff [................]
  | | | | |         5506: ff ff 14 00 02 00 06 00 00 00 08 00 fe ff f0 ff [................]
  | | | | |         5516: e0 ff f9 ff 0c 00 d0 ff ff ff 06 00 02 00 fe ff [................]
  | | | | |         5526: 00 00 00 00 f3 ff f6 ff 0e 00 0d 00 07 00 e8 ff [................]
  | | | | |         5536: ff ff 14 00 05 00 0c 00 ff ff 08 00 24 00 2c 00 [............$.,.]
  | | | | |         5546: 6d 00 38 00 fb ff 00 00 02 00 14 00 0a 00 11 00 [m.8.............]
  | | | | |         5556: 1d 00 05 00 e0 ff e6 ff f8 ff 0b 00 ff ff e0 ff [................]
  | | | | |         5566: ff ff 14 00 01 00 0d 00 05 00 08 00 e8 ff ea ff [................]
  | | | | |         5576: f8 ff 10 00 ff ff e0 ff ff ff 14 00 01 00 0d 00 [................]
  | | | | |         5586: 05 00 08 00 f2 ff f0 ff 10 00 05 00 07 00 e8 ff [................]
  | | | | |         5596: ff ff 14 00 05 00 0c 00 ff ff 08 00 14 00 0c 00 [................]
  | | | | |         55a6: 3d 00 28 00 1b 00 00 00 00 00 14 00 00 00 08 00 [=.(.............]
  | | | | |         55b6: 00 00 08 00 ec ff e0 ff f8 ff 00 00 fc ff e0 ff [................]
  | | | | |         55c6: 00 00 14 00 00 00 08 00 00 00 08 00 80 00 80 00 [................]
  | | | | |         55d6: 9a 00 9a 00 b3 00 b3 00 cd 00 cd 00 e6 00 e6 00 [................]
  | | | | |         55e6: 00 01 00 01 1a 01 1a 01 33 01 33 01 4d 01 4d 01 [........3.3.M.M.]
  | | | | |         55f6: 66 01 66 01 80 01 80 01 01 00 00 00 00 00 00 00 [f.f.............]
  | | | | |         5606: 40 00 60 00 80 00 a0 00 d0 00 00 01 30 01 60 01 [@.`.........0.`.]
  | | | | |         5616: 90 01 c0 01 00 02 00 00 07 25 00 00 06 05 04 04 [.........%......]
  | | | | |         5626: 06 00 00 00 14 14 c8 28 80 00 14 14 d0 08 80 00 [.......(........]
  | | | | |         5636: 80 75 8b 83 79 80 8d 7a 85 7a 00 00 00 00 00 00 [.u..y..z.z......]
  | | | | |         5646: 00 00 00 00 00 00 00 00 00 00 00 00 00 00 00 00 [................]
  | | | | |         5656: 00 00 00 00 00 00 00 00 00 00 00 00 40 40 40 40 [............@@@@]
  | | | | |         5666: 40 40 40 40 40 40 40 40 10 00 64 00 fa 00 ff 03 [@@@@@@@@..d.....]
  | | | | |         5676: e2 ff 01 00 0d 10 00 00 00 00 00 00 01 01 01 00 [................]
  | | | | |         5686: 39 a2 fb c6 96 69 39 14 04 39 a2 fb c6 96 69 39 [9....i9..9....i9]
  | | | | |         5696: 14 04 8a 87 8c 78 5c 4f 41 31 1f 00 10 10 10 10 [.....x\OA1......]
  | | | | |         56a6: 10 10 10 10 10 10 10 10 10 10 10 10 10 10 10 10 [................]
  | | | | |         56b6: 10 10 10 10 10 10 10 10 10 10 10 10 10 10 10 10 [................]
  | | | | |         56c6: 10 10 10 10 10 10 10 10 10 10 10 10 10 10 10 10 [................]
  | | | | |         56d6: 10 10 10 10 10 10 10 10 10 10 10 10 10 10 10 10 [................]
  | | | | |         56e6: 10 10 10 10 10 10 10 10 10 10 10 10 10 10 10 10 [................]
  | | | | |         56f6: 18 00 05 00 00 00 00 00 00 00 00 00 04 ff 18 00 [................]
  | | | | |         5706: 38 12 02 18 00 00 80 0f 00 22 1e 02 18 00 00 ff [8........"......]
  | | | | |         5716: 0c 00 00 40 00 00 ff 00 00 00 00 00 40 00 00 ff [...@........@...]
  | | | | |         5726: 00 00 00 00 00 40 00 00 ff 00 40 00 00 00 00 00 [.....@....@.....]
  | | | | |         5736: 00 00 00 00 00 00 00 00 03 00 05 00 00 00 00 00 [................]
  | | | | |         5746: 00 00 00 00 00 00 00 00 00 9a 05 33 33 0d 00 0c [...........33...]
  | | | | |         5756: 1a 00 00 00 00 33 0d 00 00 ff 00 00 00 00 00 40 [.....3.........@]
  | | | | |         5766: 00 00 ff 00 00 00 00 00 40 00 00 ff 00 40 00 00 [........@....@..]
  | | | | |         5776: 00 00 00 00 00 00 00 00 00 00 00 00 00 01 00 01 [................]
  | | | | |         5786: 00 01 00 01 00 01 00 01 dd 00 6c 00 66 00 66 00 [..........l.f.f.]
  | | | | |         5796: 66 00 66 00 00 01 00 01 00 01 00 01 00 01 00 01 [f.f.............]
  | | | | |         57a6: ee 00 b6 00 b3 00 b3 00 b3 00 b3 00 00 01 00 01 [................]
  | | | | |         57b6: 00 01 00 01 00 01 00 01 00 01 cd 00 cd 00 cd 00 [................]
  | | | | |         57c6: cd 00 cd 00 0b 0b 0b 0b 40 80 c0 f4 f4 f4 f4 f4 [........@.......]
  | | | | |         57d6: f4 f4 f4 f4 00 00 00 00 3a 80 c6 ff ff ff ff ff [........:.......]
  | | | | |         57e6: ff ff ff ff 00 00 00 00 8c 8c 8c 8c 8c 8c 8c 8c [................]
  | | | | |         57f6: 8c 8c 8c 8c 8c 0b 0b 0b 0b 40 80 c0 f4 f4 f4 f4 [.........@......]
  | | | | |         5806: f4 f4 f4 f4 f4 00 00 00 00 3a 80 c6 ff ff ff ff [.........:......]
  | | | | |         5816: ff ff ff ff ff 00 00 00 00 8c 8c 8c 8c 8c 8c 8c [................]
  | | | | |         5826: 8c 8c 8c 8c 8c 8c 0b 0b 0b 0b 40 80 c0 f4 f4 f4 [..........@.....]
  | | | | |         5836: f4 f4 f4 f4 f4 f4 00 00 00 00 3a 80 c6 ff ff ff [..........:.....]
  | | | | |         5846: ff ff ff ff ff ff 00 00 00 00 8c 8c 8c 8c 8c 8c [................]
  | | | | |         5856: 8c 8c 8c 8c 8c 8c 8c 0b 0b 0b 0b 40 80 c0 f4 f4 [...........@....]
  | | | | |         5866: f4 f4 f4 f4 f4 f4 f4 00 00 00 00 3a 80 c6 ff ff [...........:....]
  | | | | |         5876: ff ff ff ff ff ff ff 00 00 00 00 8c 8c 8c 8c 8c [................]
  | | | | |         5886: 8c 8c 8c 8c 8c 8c 8c 8c 0b 0b 0b 0b 40 80 c0 f4 [............@...]
  | | | | |         5896: f4 f4 f4 f4 f4 f4 f4 f4 00 00 00 00 3a 80 c6 ff [............:...]
  | | | | |         58a6: ff ff ff ff ff ff ff ff 00 00 00 00 8c 8c 8c 8c [................]
  | | | | |         58b6: 8c 8c 8c 8c 8c 8c 8c 8c 8c 0b 0b 0b 0b 40 80 c0 [.............@..]
  | | | | |         58c6: f4 f4 f4 f4 f4 f4 f4 f4 f4 00 00 00 00 3a 80 c6 [.............:..]
  | | | | |         58d6: ff ff ff ff ff ff ff ff ff 00 00 00 00 8c 8c 8c [................]
  | | | | |         58e6: 8c 8c 8c 8c 8c 8c 8c 8c 8c 8c 3b 3b 3b 3b 7e 80 [..........;;;;~.]
  | | | | |         58f6: 82 c5 c5 c5 c5 c5 c5 c5 c5 c5 00 00 00 00 7f 80 [................]
  | | | | |         5906: 81 ff ff ff ff ff ff ff ff ff 00 00 00 00 f3 40 [...............@]
  | | | | |         5916: 40 f1 f1 f1 f1 f1 f1 f1 f1 f1 f1 3b 3b 3b 3b 7e [@..........;;;;~]
  | | | | |         5926: 80 82 c5 c5 c5 c5 c5 c5 c5 c5 c5 00 00 00 00 7f [................]
  | | | | |         [snip 3088 bytes]
  | | | | | 103) UnknownBlock2 = CMIO.... o.r.......<.."Y.wj>......]!~..C"n.c..-..........F....sN(......[Ch.!N~S(..+.....?..`..s..1.`.UC.E.O.stP...?.5.1.d|..N..?.jz<.j....7.~hXF..f7?....S\........e..&.....>...3.......7gc.U...J.....@.0..c.Dh...g.Jk.......f...../.WL.?}.{.......6M..(x.`.w..iM9YN...C.p... ....3..........h..eE.....M....C..1n.....Q..?,;....Q...zt.....R........ ...l.w)A..G.9zv.#lqP.......v )l;....t.M..eV....3...D....Z..0HK..X.y...Bd....:....YX..ngjtRg.....b.E.....l..2?..P.. ...;.......o.......w.vf.#...GGJ.....2..M..(U.........-. {.~.......,.."Y.kv".......E9f.._"n.c..)..........J....sB$......[Oh.-B~S(..+.....?..`..s..1.d.UG.A.O.spT...?.1.5.dx..J..?.nz8.j....7.~hXF..b7?....S\........a..".....>...7.......7gc.Q...J.....D.4..c.Dl...c.Nk.......f.....+.SH.?y.........6M..,|.`.w..iM=]M...G.R...$....2..........q..fF.....J....D..2l.....]..2 6....[...q~.....S........'...j.q.G..G.9}u."jsQ.......u')m:....u.H..cT....1...F....\..3LO..X.y...Fb....;....[Z..ngntVc.....c.E..y..o..0:..S..#...;}......l.,.....u.vf.!...FFK.....6..M..,Q.........-. {.z.......8.."Z-kv"......X&y..@#j.c.............J.....N)......T@k."M~S(..*.....>..`..s..1.d.UD.A.O.ptS...<.6.1.g|..N..;.m~?.n....4.}k[E..e4<....P_........b..!.....:...7.......7bf.Q...O.....A.4..g.Eh...f.On.......g...../.RI.>|.~.......6M../}.`.s..iM9YM...C.R...'....2..........r..hG.....L....C..1o.....\..=.8....V...}s.....Q........'...k.w)@..G.8zs."jwU.......t!+o<....v.N..dW....7...@....X..6HJ..[.{...Fc....8....\[..lekqVf.....`.@..}..o..0>..Q.. ...:.......o.......u.ve."..DDH.....5..M../R.........). {.~.......8.."Y.kv".......Y%z..C%l.b..-..........E.....N+......WDo.!N~S(..*.....?..a..r..1.c.RD.A.N.wtW...:.0.1.os..O..;.i~8.n....4.zk[E..b3;....WY........d..&.....:...4.......4`d.Q...N.....@.4..f.Dh...f.No.......g...../.RI.>|.~.......7L..-|.a.r..iM8XM...C.R...'....2..........l..fF.....^....C..0o.....]..2!7....T....r.....R........'...k.u*C..F.9us.,kwT.......p",h:...q.I..dP....0...A....Y..7IK..[.{...Ea....9....^Y..ndisVg.....`.B..}..o..1>..Q..!...;}......o.,.....w.vg.#...FFJ.....7..L..-P.........(.!{.........8.."Y.kv"..[snip]
  | | | | |     - Tag 0x0636 (20480 bytes, undef[20480]):
  | | | | |         6546: 43 4d 49 4f 01 00 07 dc 84 20 6f 1a 72 0f ae 9a [CMIO..... o.r...]
  | | | | |         6556: a3 8e be 1b 3c a1 aa 22 59 2e 77 6a 3e f1 81 00 [....<.."Y.wj>...]
  | | | | |         6566: f5 b4 fe a2 5d 21 7e 97 8e 43 22 6e 95 63 85 05 [....]!~..C"n.c..]
  | | | | |         6576: 2d 1d ae 1b f9 e8 a1 98 bd f6 85 46 be 93 eb a8 [-..........F....]
  | | | | |         6586: 73 4e 28 ca bc 1f 15 c7 d8 5b 43 68 01 21 4e 7e [sN(......[Ch.!N~]
  | | | | |         6596: 53 28 bd c1 2b 0b 9f ed d0 19 3f ef d8 60 9f 15 [S(..+.....?..`..]
  | | | | |         65a6: 73 8b 98 31 c8 60 82 55 43 ae 45 cd 4f df 73 74 [s..1.`.UC.E.O.st]
  | | | | |         65b6: 50 dd d1 19 3f 06 35 ed 31 ce 64 7c 81 18 4e ff [P...?.5.1.d|..N.]
  | | | | |         65c6: e2 3f bd 6a 7a 3c b9 6a 92 95 d3 c2 37 98 7e 68 [.?.jz<.j....7.~h]
  | | | | |         65d6: 58 46 dd 0c 66 37 3f b7 c3 c9 e8 53 5c 81 b8 8a [XF..f7?....S\...]
  | | | | |         65e6: 13 f9 fd 1e f7 65 8c 9a 26 a4 90 0f 0c fe 3e 9a [.....e..&.....>.]
  | | | | |         65f6: 09 92 33 0a d6 0b d7 f6 f0 d1 37 67 63 dc 55 e5 [..3.......7gc.U.]
  | | | | |         6606: 93 be 4a c8 d8 92 ed e2 40 1f 30 c9 f1 63 e5 44 [..J.....@.0..c.D]
  | | | | |         6616: 68 be 92 e4 67 90 4a 6b fe 83 8b db a3 97 81 66 [h...g.Jk.......f]
  | | | | |         6626: bd ec a0 90 c9 2f 96 57 4c c5 3f 7d e8 7b b7 fc [...../.WL.?}.{..]
  | | | | |         6636: ae e4 99 d8 a9 36 4d 85 c1 28 78 a0 60 03 77 91 [.....6M..(x.`.w.]
  | | | | |         6646: f7 69 4d 39 59 4e 83 ee ab 43 b5 70 b5 02 f5 20 [.iM9YN...C.p... ]
  | | | | |         6656: 07 b0 cf 88 33 a0 e5 ae ff f5 c2 9e b3 9b e9 68 [....3..........h]
  | | | | |         6666: a9 e8 65 45 d3 91 16 b4 eb 4d ee 12 b9 fc 43 94 [..eE.....M....C.]
  | | | | |         6676: d8 31 6e 87 fc 1a 94 9b 51 a7 10 3f 2c 3b 06 8b [.1n.....Q..?,;..]
  | | | | |         6686: ec f8 51 8e 95 85 7a 74 e9 a1 d4 a8 f7 52 dd c1 [..Q...zt.....R..]
  | | | | |         6696: a8 81 ed 87 a4 0d 20 f6 be f5 6c df 77 29 41 eb [...... ...l.w)A.]
  | | | | |         66a6: f1 47 98 39 7a 76 bf 23 6c 71 50 c2 a9 c4 a5 f5 [.G.9zv.#lqP.....]
  | | | | |         66b6: ed 07 76 20 29 6c 3b 05 a6 c3 18 74 0d 4d b4 c0 [..v )l;....t.M..]
  | | | | |         66c6: 65 56 f0 a3 0d f2 33 eb f6 a9 44 99 97 8d fa 5a [eV....3...D....Z]
  | | | | |         66d6: 91 98 30 48 4b ba 8c 58 c9 79 86 0a 83 42 64 a8 [..0HK..X.y...Bd.]
  | | | | |         66e6: c6 1a 06 3a d9 fb a9 cb 59 58 ef c3 6e 67 6a 74 [...:....YX..ngjt]
  | | | | |         66f6: 52 67 0e f1 e0 9e da 62 fc 45 e5 9d 7f fd f9 6c [Rg.....b.E.....l]
  | | | | |         6706: f4 99 32 3f 81 b0 50 13 b5 20 fc 1e f1 3b 7f fc [..2?..P.. ...;..]
  | | | | |         6716: 08 cc d3 fd d1 6f aa 2e db 10 d0 fd cf 77 f2 76 [.....o.......w.v]
  | | | | |         6726: 66 de 23 ed 03 c2 47 47 4a 85 98 90 d1 ee 32 c9 [f.#...GGJ.....2.]
  | | | | |         6736: e0 4d ed 0a 28 55 dc 13 d3 f5 b8 8c 1f bf 99 2d [.M..(U.........-]
  | | | | |         6746: 1a 20 7b 16 7e 0f ad 99 a3 8e be 1b 2c a9 a2 22 [. {.~.......,.."]
  | | | | |         6756: 59 2e 6b 76 22 f1 99 18 f1 b0 fa a2 45 39 66 93 [Y.kv".......E9f.]
  | | | | |         6766: 96 5f 22 6e 95 63 8d 0d 29 19 aa 17 f5 e0 a9 94 [._"n.c..).......]
  | | | | |         6776: bd f6 89 4a b2 93 e7 a8 73 42 24 ca bc 13 19 cb [...J....sB$.....]
  | | | | |         6786: d4 5b 4f 68 01 2d 42 7e 53 28 b1 cd 2b 0b 9f ed [.[Oh.-B~S(..+...]
  | | | | |         6796: d0 19 3f ef d8 60 9b 11 73 8b 98 31 cc 64 82 55 [..?..`..s..1.d.U]
  | | | | |         67a6: 47 ae 41 cd 4f db 73 70 54 d9 d1 19 3f 06 31 ed [G.A.O.spT...?.1.]
  | | | | |         67b6: 35 ca 64 78 85 18 4a fb e2 3f b9 6e 7a 38 b9 6a [5.dx..J..?.nz8.j]
  | | | | |         67c6: 96 95 d7 c2 37 9c 7e 68 58 46 dd 0c 62 37 3f b7 [....7.~hXF..b7?.]
  | | | | |         67d6: c3 c9 e8 53 5c 81 b8 8a 17 f9 fd 1e f7 61 8c 9a [...S\........a..]
  | | | | |         67e6: 22 a4 94 0f 0c fa 3e 9e 0d 92 37 0e d2 0b d7 f6 [".....>...7.....]
  | | | | |         67f6: f0 d1 37 67 63 dc 51 e5 97 be 4a c8 d8 96 ed e6 [..7gc.Q...J.....]
  | | | | |         6806: 44 1f 34 c9 f5 63 e1 44 6c ba 96 e4 63 90 4e 6b [D.4..c.Dl...c.Nk]
  | | | | |         6816: fa 83 8b df a3 93 81 66 b9 ec a4 90 c9 2b 92 53 [.......f.....+.S]
  | | | | |         6826: 48 c5 3f 79 ec 7f b3 fc ae e0 9d dc ad 36 4d 81 [H.?y.........6M.]
  | | | | |         6836: c5 2c 7c a0 60 07 77 95 f7 69 4d 3d 5d 4d 80 ee [.,|.`.w..iM=]M..]
  | | | | |         6846: af 47 b5 52 8b 0d f5 24 05 b2 cd 8f 32 9f c7 bc [.G.R...$....2...]
  | | | | |         6856: ff f2 c2 9e b3 99 e8 71 b6 f2 66 46 d5 97 17 b2 [.......q..fF....]
  | | | | |         6866: e8 4a ed 1a b1 fb 44 9c d7 32 6c 85 f0 18 93 93 [.J....D..2l.....]
  | | | | |         6876: 5d a7 11 32 20 36 07 86 ed ff 5b 83 94 85 71 7e []..2 6....[...q~]
  | | | | |         6886: e5 a2 da a3 f1 53 d6 cb af 81 eb 83 a1 0b 27 f6 [.....S........'.]
  | | | | |         6896: b9 f2 6a df 71 2e 47 e9 f2 47 98 39 7d 75 bb 22 [..j.q.G..G.9}u."]
  | | | | |         68a6: 6a 73 51 c7 a8 c4 a0 f2 ee 02 75 27 29 6d 3a 01 [jsQ.......u')m:.]
  | | | | |         68b6: a6 c0 1a 75 09 48 b5 c4 63 54 f1 a6 09 f3 31 ed [...u.H..cT....1.]
  | | | | |         68c6: f7 ad 46 9e 97 8a f9 5c 90 9f 33 4c 4f bb 8b 58 [..F....\..3LO..X]
  | | | | |         68d6: c9 79 87 0b 81 46 62 a8 c7 19 06 3b de fb ad cb [.y...Fb....;....]
  | | | | |         68e6: 5b 5a ee c2 6e 67 6e 74 56 63 0e f7 e3 9f db 63 [[Z..ngntVc.....c]
  | | | | |         68f6: fc 45 e4 9c 79 fb fb 6f f7 99 30 3a 85 b0 53 13 [.E..y..o..0:..S.]
  | | | | |         6906: b5 23 fe 1f f3 3b 7d ff 09 ce d3 fe d3 6c aa 2c [.#...;}......l.,]
  | | | | |         6916: db 12 d1 fc cc 75 f3 76 66 dd 21 ec 02 c3 46 46 [.....u.vf.!...FF]
  | | | | |         6926: 4b 85 98 90 d1 ee 36 cc e0 4d ec 0a 2c 51 dd 12 [K.....6..M..,Q..]
  | | | | |         6936: d7 f0 bc 88 1f bf 9d 2d 1e 20 7b 16 7a 0b ae 9a [.......-. {.z...]
  | | | | |         6946: a3 8a ba 1b 38 a5 ae 22 5a 2d 6b 76 22 f1 93 00 [....8.."Z-kv"...]
  | | | | |         6956: f5 b1 f9 a2 58 26 79 92 94 40 23 6a 96 63 88 0a [....X&y..@#j.c..]
  | | | | |         6966: 2e 1e af 16 f4 e4 a2 94 b1 fa 89 4a b2 9e ea a5 [...........J....]
  | | | | |         6976: 7f 4e 29 c7 b0 1f 16 c4 d4 54 40 6b 01 22 4d 7e [.N)......T@k."M~]
  | | | | |         6986: 53 28 bd c1 2a 0a 9f ec d1 18 3e ee d8 60 9a 10 [S(..*.....>..`..]
  | | | | |         6996: 73 8b 98 31 cc 64 82 55 44 ad 41 cd 4f dc 70 74 [s..1.d.UD.A.O.pt]
  | | | | |         69a6: 53 de d1 1a 3c 06 36 ee 31 cd 67 7c 82 1b 4e fc [S...<.6.1.g|..N.]
  | | | | |         69b6: e1 3b be 6d 7e 3f ba 6e 91 96 d3 c1 34 9c 7d 6b [.;.m~?.n....4.}k]
  | | | | |         69c6: 5b 45 d9 0f 65 34 3c b4 c0 ca eb 50 5f 82 bb 89 [[E..e4<....P_...]
  | | | | |         69d6: 13 fa fe 1a f4 62 88 99 21 a0 94 0b 0f f9 3a 9e [.....b..!.....:.]
  | | | | |         69e6: 09 96 37 0a d6 0f d3 f6 f4 d5 37 62 66 dc 51 e1 [..7.......7bf.Q.]
  | | | | |         69f6: 93 bf 4f cc d8 93 e8 e6 41 1a 34 c8 f0 67 e0 45 [..O.....A.4..g.E]
  | | | | |         6a06: 68 bf 97 e1 66 91 4f 6e ff 83 8a de a6 96 80 67 [h...f.On.......g]
  | | | | |         6a16: bc e9 a5 91 c8 2f 97 52 49 c4 3e 7c e9 7e b2 fd [...../.RI.>|.~..]
  | | | | |         6a26: ae e5 98 dc ad 36 4d 86 c2 2f 7d a1 60 02 73 95 [.....6M../}.`.s.]
  | | | | |         6a36: f7 69 4d 39 59 4d 80 ee ab 43 b5 52 8b 0d f5 27 [.iM9YM...C.R...']
  | | | | |         6a46: 06 b2 cd 8f 32 bd f9 b3 ff f5 c3 9c b1 9e e9 72 [....2..........r]
  | | | | |         6a56: a6 e4 68 47 d4 96 14 b0 e9 4c f1 1d b3 fb 43 99 [..hG.....L....C.]
  | | | | |         6a66: d3 31 6f 87 f0 14 98 97 5c ab 1d 3d 2e 38 04 84 [.1o.....\..=.8..]
  | | | | |         6a76: e1 f3 56 8e 99 89 7d 73 e8 a2 d7 a8 f7 51 d9 c6 [..V...}s.....Q..]
  | | | | |         6a86: aa 87 e9 83 a2 0b 27 f6 be f5 6b d8 77 29 40 ee [......'...k.w)@.]
  | | | | |         6a96: f4 47 99 38 7a 73 ba 22 6a 77 55 c7 a8 c4 a7 f0 [.G.8zs."jwU.....]
  | | | | |         6aa6: eb 04 74 21 2b 6f 3c 06 a4 c2 1b 76 0c 4e b7 c0 [..t!+o<....v.N..]
  | | | | |         6ab6: 64 57 f4 a7 0d f1 37 e9 f3 ad 40 98 93 8e f9 58 [dW....7...@....X]
  | | | | |         6ac6: 93 9d 36 48 4a bb 8f 5b ca 7b 84 0f 87 46 63 a9 [..6HJ..[.{...Fc.]
  | | | | |         6ad6: c4 1b 04 38 dc ff a8 ce 5c 5b ed c2 6c 65 6b 71 [...8....\[..lekq]
  | | | | |         6ae6: 56 66 0b f5 e0 9f d9 60 fc 40 e1 9c 7d ff fb 6f [Vf.....`.@..}..o]
  | | | | |         6af6: f5 9b 30 3e 80 b1 51 11 b7 20 ff 1d f1 3a 7f fd [..0>..Q.. ...:..]
  | | | | |         6b06: 08 cc d1 fd d3 6f aa 2e db 10 d2 ff ce 75 f1 76 [.....o.......u.v]
  | | | | |         6b16: 65 dd 22 ef 00 c1 44 44 48 85 9b 93 d3 ec 35 cf [e."...DDH.....5.]
  | | | | |         6b26: e3 4d ee 09 2f 52 dc 13 d3 f5 bd 89 1e be 98 29 [.M../R.........)]
  | | | | |         6b36: 1e 20 7b 16 7e 0f ae 9a a3 8e be 1b 38 a5 ae 22 [. {.~.......8.."]
  | | | | |         6b46: 59 2e 6b 76 22 f1 9d 1c f5 b0 fa a2 59 25 7a 93 [Y.kv".......Y%z.]
  | | | | |         6b56: 89 43 25 6c 91 62 89 0e 2d 1c ae 17 f5 e7 ad 94 [.C%l.b..-.......]
  | | | | |         6b66: b0 fb 87 45 bd 9f eb a5 7f 4e 2b c6 b0 1f 14 c6 [...E.....N+.....]
  | | | | |         6b76: d5 57 44 6f 06 21 4e 7e 53 28 bd c0 2a 0a 9e ec [.WDo.!N~S(..*...]
  | | | | |         6b86: d1 18 3f ee d8 61 9a 11 72 8a 98 31 cb 63 85 52 [..?..a..r..1.c.R]
  | | | | |         6b96: 44 aa 41 cc 4e da 77 74 57 da d2 1d 3a 07 30 e9 [D.A.N.wtW...:.0.]
  | | | | |         6ba6: 31 c5 6f 73 85 1d 4f fa e6 3b b9 69 7e 38 bd 6e [1.os..O..;.i~8.n]
  | | | | |         6bb6: 97 91 d2 c7 34 9b 7a 6b 5b 45 d9 08 62 33 3b b3 [....4.zk[E..b3;.]
  | | | | |         6bc6: c7 cc ed 57 59 84 bd 8e 12 fc f9 1a f2 64 88 9e [...WY........d..]
  | | | | |         6bd6: 26 a0 94 08 0b fe 3a 9d 0a 96 34 09 d6 0c d0 f5 [&.....:...4.....]
  | | | | |         6be6: f4 d6 34 60 64 dc 51 e2 90 be 4e cc d8 92 ea e5 [..4`d.Q...N.....]
  | | | | |         6bf6: 40 1b 34 c9 f0 66 e1 44 68 be 96 e1 66 90 4e 6f [@.4..f.Dh...f.No]
  | | | | |         6c06: ff 82 8b de a6 97 80 67 bd e9 a5 91 c8 2f 97 52 [.......g...../.R]
  | | | | |         6c16: 49 c4 3e 7c e9 7e b2 fd ae e5 98 dd ac 37 4c 84 [I.>|.~.......7L.]
  | | | | |         6c26: c0 2d 7c a1 61 02 72 94 f6 69 4d 38 58 4d 80 ee [.-|.a.r..iM8XM..]
  | | | | |         6c36: ab 43 b5 52 8b 0d f5 27 06 b2 cd 8f 32 bd f9 b3 [.C.R...'....2...]
  | | | | |         6c46: ff f5 c3 9c b1 9e e9 6c aa ef 66 46 d4 95 15 b7 [.......l..fF....]
  | | | | |         6c56: e8 5e f0 01 ac fe 43 99 d3 30 6f 86 f1 17 98 97 [.^....C..0o.....]
  | | | | |         6c66: 5d aa 1d 32 21 37 08 88 e2 f3 54 8c 99 8b 7f 72 []..2!7....T....r]
  | | | | |         6c76: eb a2 d4 ab f7 52 db c7 a8 87 ea 80 a2 0c 27 f6 [.....R........'.]
  | | | | |         6c86: be f4 6b d9 75 2a 43 ee f5 46 98 39 75 73 b5 2c [..k.u*C..F.9us.,]
  | | | | |         6c96: 6b 77 54 c7 a8 c4 a0 f7 e8 03 70 22 2c 68 3a 00 [kwT.......p",h:.]
  | | | | |         6ca6: a2 c3 1d 71 0c 49 b0 c7 64 50 f3 a7 0a f1 30 e9 [...q.I..dP....0.]
  | | | | |         6cb6: f3 ac 41 98 92 8f f8 59 92 9d 37 49 4b ba 8f 5b [..A....Y..7IK..[]
  | | | | |         6cc6: ca 7b 85 0e 87 45 61 a8 c4 19 06 39 de fc aa cc [.{...Ea....9....]
  | | | | |         6cd6: 5e 59 ef c1 6e 64 69 73 56 67 09 f6 e0 9e d8 60 [^Y..ndisVg.....`]
  | | | | |         6ce6: ff 42 e0 9c 7d ff fb 6f f5 9a 31 3e 80 b1 51 11 [.B..}..o..1>..Q.]
  | | | | |         6cf6: b6 21 ff 1d f1 3b 7d fe 09 cd d1 ff d1 6f ab 2c [.!...;}......o.,]
  | | | | |         6d06: d8 11 d0 fd cf 77 f3 76 67 df 23 ed 02 c3 46 46 [.....w.vg.#...FF]
  | | | | |         6d16: 4a 84 99 91 d1 ee 37 cd e1 4c ec 0b 2d 50 dd 12 [J.....7..L..-P..]
  | | | | |         6d26: d2 f4 bd 88 1e be 98 28 1f 21 7b 16 7f 0e ae 9a [.......(.!{.....]
  | | | | |         [snip 18448 bytes]
  | | | | | 104) Olympus_ImageProcessing_0x0637 = 1834 3647 1378 2735
  | | | | |     - Tag 0x0637 (8 bytes, int16u[4]):
  | | | | |         b546: 2a 07 3f 0e 62 05 af 0a                         [*.?.b...]
  | | | | | 105) Olympus_ImageProcessing_0x0638 = 0
  | | | | |     - Tag 0x0638 (4 bytes, int32u[1]):
  | | | | |         273c: 00 00 00 00                                     [....]
  | | | | | 106) Olympus_ImageProcessing_0x0640 = 0
  | | | | |     - Tag 0x0640 (2 bytes, int16u[1]):
  | | | | |         2748: 00 00                                           [..]
  | | | | | 107) Olympus_ImageProcessing_0x0641 = 5
  | | | | |     - Tag 0x0641 (2 bytes, int16u[1]):
  | | | | |         2754: 05 00                                           [..]
  | | | | | 108) Olympus_ImageProcessing_0x0642 = 0
  | | | | |     - Tag 0x0642 (2 bytes, int16u[1]):
  | | | | |         2760: 00 00                                           [..]
  | | | | | 109) Olympus_ImageProcessing_0x0643 = 2
  | | | | |     - Tag 0x0643 (2 bytes, int16u[1]):
  | | | | |         276c: 02 00                                           [..]
  | | | | | 110) Olympus_ImageProcessing_0x0644 = 5
  | | | | |     - Tag 0x0644 (2 bytes, int16u[1]):
  | | | | |         2778: 05 00                                           [..]
  | | | | | 111) Olympus_ImageProcessing_0x0645 = 4
  | | | | |     - Tag 0x0645 (2 bytes, int16u[1]):
  | | | | |         2784: 04 00                                           [..]
  | | | | | 112) Olympus_ImageProcessing_0x0646 = 3
  | | | | |     - Tag 0x0646 (2 bytes, int16u[1]):
  | | | | |         2790: 03 00                                           [..]
  | | | | | 113) Olympus_ImageProcessing_0x0647 = 2
  | | | | |     - Tag 0x0647 (2 bytes, int16u[1]):
  | | | | |         279c: 02 00                                           [..]
  | | | | | 114) Olympus_ImageProcessing_0x0648 = 3
  | | | | |     - Tag 0x0648 (2 bytes, int16u[1]):
  | | | | |         27a8: 03 00                                           [..]
  | | | | | 115) Olympus_ImageProcessing_0x0649 = 4
  | | | | |     - Tag 0x0649 (2 bytes, int16u[1]):
  | | | | |         27b4: 04 00                                           [..]
  | | | | | 116) Olympus_ImageProcessing_0x0650 = 7
  | | | | |     - Tag 0x0650 (2 bytes, int16u[1]):
  | | | | |         27c0: 07 00                                           [..]
  | | | | | 117) Olympus_ImageProcessing_0x0651 = 15
  | | | | |     - Tag 0x0651 (2 bytes, int16u[1]):
  | | | | |         27cc: 0f 00                                           [..]
  | | | | | 118) Olympus_ImageProcessing_0x0652 = 12
  | | | | |     - Tag 0x0652 (2 bytes, int16u[1]):
  | | | | |         27d8: 0c 00                                           [..]
  | | | | | 119) Olympus_ImageProcessing_0x0653 = 5
  | | | | |     - Tag 0x0653 (2 bytes, int16u[1]):
  | | | | |         27e4: 05 00                                           [..]
  | | | | | 120) Olympus_ImageProcessing_0x0654 = 237
  | | | | |     - Tag 0x0654 (2 bytes, int16u[1]):
  | | | | |         27f0: ed 00                                           [..]
  | | | | | 121) Olympus_ImageProcessing_0x0800 = 0 0 0 0 0 0 0 0 0
  | | | | |     - Tag 0x0800 (36 bytes, float[9]):
  | | | | |         3c22: 00 00 00 00 00 00 00 00 00 00 00 00 00 00 00 00 [................]
  | | | | |         3c32: 00 00 00 00 00 00 00 00 00 00 00 00 00 00 00 00 [................]
  | | | | |         3c42: 00 00 00 00                                     [....]
  | | | | | 122) Olympus_ImageProcessing_0x0801 = 0 0 0 0 0 0 0 0 0 0 0 0 0 0 0 0
  | | | | |     - Tag 0x0801 (32 bytes, int16u[16]):
  | | | | |         3c46: 00 00 00 00 00 00 00 00 00 00 00 00 00 00 00 00 [................]
  | | | | |         3c56: 00 00 00 00 00 00 00 00 00 00 00 00 00 00 00 00 [................]
  | | | | | 123) Olympus_ImageProcessing_0x0802 = 159.690367 (11140000/69760)
  | | | | |     - Tag 0x0802 (8 bytes, rational64u[1]):
  | | | | |         3c66: a0 fb a9 00 80 10 01 00                         [........]
  | | | | | 124) Olympus_ImageProcessing_0x0803 = 12 20 24
  | | | | |     - Tag 0x0803 (6 bytes, int16u[3]):
  | | | | |         3c6e: 0c 00 14 00 18 00                               [......]
  | | | | | 125) Olympus_ImageProcessing_0x0804 = 0 0
  | | | | |     - Tag 0x0804 (4 bytes, int16u[2]):
  | | | | |         282c: 00 00 00 00                                     [....]
  | | | | | 126) SensorCalibration = 10 488
  | | | | |     - Tag 0x0805 (4 bytes, int16s[2]):
  | | | | |         2838: 0a 00 e8 01                                     [....]
  | | | | | 127) Olympus_ImageProcessing_0x1003 = 8
  | | | | |     - Tag 0x1003 (2 bytes, int16u[1]):
  | | | | |         2844: 08 00                                           [..]
  | | | | | 128) Olympus_ImageProcessing_0x1004 = 1280
  | | | | |     - Tag 0x1004 (2 bytes, int16u[1]):
  | | | | |         2850: 00 05                                           [..]
  | | | | | 129) Olympus_ImageProcessing_0x1005 = 0 0
  | | | | |     - Tag 0x1005 (4 bytes, int16u[2]):
  | | | | |         285c: 00 00 00 00                                     [....]
  | | | | | 130) Olympus_ImageProcessing_0x1006 = 0 0 0 0 0 0 0 0
  | | | | |     - Tag 0x1006 (16 bytes, int16u[8]):
  | | | | |         3c84: 00 00 00 00 00 00 00 00 00 00 00 00 00 00 00 00 [................]
  | | | | | 131) Olympus_ImageProcessing_0x1007 = 0 0 0 0 0
  | | | | |     - Tag 0x1007 (10 bytes, int16u[5]):
  | | | | |         3c94: 00 00 00 00 00 00 00 00 00 00                   [..........]
  | | | | | 132) Olympus_ImageProcessing_0x1008 = 0
  | | | | |     - Tag 0x1008 (2 bytes, int16u[1]):
  | | | | |         2880: 00 00                                           [..]
  | | | | | 133) Olympus_ImageProcessing_0x1009 = 0 0 0
  | | | | |     - Tag 0x1009 (6 bytes, int16u[3]):
  | | | | |         3ca0: 00 00 00 00 00 00                               [......]
  | | | | | 134) Olympus_ImageProcessing_0x100a = 0 0 0
  | | | | |     - Tag 0x100a (6 bytes, int16u[3]):
  | | | | |         3ca6: 00 00 00 00 00 00                               [......]
  | | | | | 135) NoiseReduction2 = 0
  | | | | |     - Tag 0x1010 (2 bytes, int16u[1]):
  | | | | |         28a4: 00 00                                           [..]
  | | | | | 136) DistortionCorrection2 = 0
  | | | | |     - Tag 0x1011 (2 bytes, int16u[1]):
  | | | | |         28b0: 00 00                                           [..]
  | | | | | 137) ShadingCompensation2 = 0
  | | | | |     - Tag 0x1012 (2 bytes, int16u[1]):
  | | | | |         28bc: 00 00                                           [..]
  | | | | | 138) Olympus_ImageProcessing_0x1013 = 0 0 0 0 0 0 0 0 0 0
  | | | | |     - Tag 0x1013 (20 bytes, int16u[10]):
  | | | | |         3cb2: 00 00 00 00 00 00 00 00 00 00 00 00 00 00 00 00 [................]
  | | | | |         3cc2: 00 00 00 00                                     [....]
  | | | | | 139) Olympus_ImageProcessing_0x1014 = 0 0 0 0 0 0 0 0 0 0
  | | | | |     - Tag 0x1014 (20 bytes, int16u[10]):
  | | | | |         3cc6: 00 00 00 00 00 00 00 00 00 00 00 00 00 00 00 00 [................]
  | | | | |         3cd6: 00 00 00 00                                     [....]
  | | | | | 140) Olympus_ImageProcessing_0x1015 = 0 0
  | | | | |     - Tag 0x1015 (4 bytes, int16u[2]):
  | | | | |         28e0: 00 00 00 00                                     [....]
  | | | | | 141) Olympus_ImageProcessing_0x1016 = 0 0 0 0
  | | | | |     - Tag 0x1016 (8 bytes, int16u[4]):
  | | | | |         3cde: 00 00 00 00 00 00 00 00                         [........]
  | | | | | 142) Olympus_ImageProcessing_0x1017 = 0 0 0
  | | | | |     - Tag 0x1017 (6 bytes, int16u[3]):
  | | | | |         3ce6: 00 00 00 00 00 00                               [......]
  | | | | | 143) Olympus_ImageProcessing_0x1018 = 0 0 0
  | | | | |     - Tag 0x1018 (6 bytes, int16u[3]):
  | | | | |         3cec: 00 00 00 00 00 00                               [......]
  | | | | | 144) Olympus_ImageProcessing_0x1019 = 0 0
  | | | | |     - Tag 0x1019 (4 bytes, int16u[2]):
  | | | | |         2910: 00 00 00 00                                     [....]
  | | | | | 145) Olympus_ImageProcessing_0x101a = 0
  | | | | |     - Tag 0x101a (2 bytes, int16u[1]):
  | | | | |         291c: 00 00                                           [..]
  | | | | | 146) Olympus_ImageProcessing_0x101b = 0 0
  | | | | |     - Tag 0x101b (4 bytes, int16s[2]):
  | | | | |         2928: 00 00 00 00                                     [....]
  | | | | | 147) MultipleExposureMode = 2 1
  | | | | |     - Tag 0x101c (4 bytes, int16u[2]):
  | | | | |         2934: 02 00 01 00                                     [....]
  | | | | | 148) Olympus_ImageProcessing_0x101e = 0 0
  | | | | |     - Tag 0x101e (4 bytes, int16u[2]):
  | | | | |         2940: 00 00 00 00                                     [....]
  | | | | | 149) Olympus_ImageProcessing_0x1102 = 0 1 2 3
  | | | | |     - Tag 0x1102 (4 bytes, int8u[4]):
  | | | | |         294c: 00 01 02 03                                     [....]
  | | | | | 150) UnknownBlock3 = x....(Y(U*n*.).-.+@(:*j-dBT/O*.*.)%,.-.*.+..=(.$.&b%.%.#.".%.7.=./ho.hKr.e.e6q s.1.0.2.0./.1.4.3.8.Y.7.....+._._EY.C.6.:+<.?.C:=b6"8.:.9.7.3.7z7.7g3.4.7.:.8V:.4.6.4.5Y8.8.8z6.8.;]<};.;.9.8$:K5.:$;.:F6Q2<2.1.0.-r162.3.1$2C5T82=Y:.?.>.9*5.5.2.366l7b5.0Y3.7;7K9.8.;.<.<.;.:.=.;.<.9.>(<.=K;.9.6p6.9.3)5Q9.1.4x.x.x.x.x.x.x.x.q$.$.&@'.%.(.+.,;+/&Q.d.K.2.).(.+.,.+.,.,...&.#^#@!.".".(q3I;r>.4hj.iiiPc`d.g.lP1B4.2n/E1 2A7.4.7.U_>.G.LFP.=.:.:b9.7.;.=.?.B.?Y9.9v9.7x68.7.7.6{6J4.6.;)?S<.5v5.5.7.7.8.6u4.7.:.;.:.:.9.8)7.3.4y3J6.322.3.0m0./.3.3.0.0.1U6.7.9.9.;Q>.5.2.5.296.6%3^3./..k2^5O8.9.;U;.;.:.6m;.7.:.:.;.:.<d9x7&9'6,;.;.6@9.6H6q$q$q$q$q$q$q$q$7)8%.%w'.$.)[).B.\.YS4o.."B4H*0+.+~,o+k,.....&. . .!#+.'-.:.>.>.9.`.g0d.crd.l.n.0j1.3.4.3.6A9.9.:t?gL.8.9.8.<~9-8.6.8b;.:~<$@!=.9@9.8.5.8.8":.:.9.5.2.469><.:.6'7.6.1.4.8f8.8F5.9':]9.:.6P6`7776.3*4.5.6.3.3.0...4.2C1./...6.4s7@<5;.926)7Z4s2.9a4.4d3d2.0.3.6.7~7.7d6.7.8.3.:B<.:.:.8F:.<"9a3.4.5I9.;W9^8.:.47)7)7)7)7)7)7)7).&."1).)K.!F.UW?.#v.... C@u8.(P)`).'.)...,..E,C!.".$.-x(%..A.EUC.8.T.e.e(c.e.o.j.3.4.5B6!2C8I<.;.8.-1=.9.7.7C4.3.0.3.8.8.:.A.?.:.8.6.8.5W7.9.9<<z:.7,3.5.6.7.7.4.9.5.4.5B4'5.6.5P9.:.7#;y7.7.5.5.6U4.2.6.6{1.1.1z1!5v2./c0.1]3.6c8.;.8.:.8.7h1.0.5 5 8*7./.1.5\8;6.7.6.6(6.4w1.;S=v7.8.7O;l<.6.3.786.6.:.9.9.6.4.&.&.&.&.&.&.&.&.$.$`C.X.T.(/......!HK{A.f.;.*.,1*.*...0.-m n+x$.$.%r-u*.1.E.O.E.:oGmh"fBb9dAh.e#6.7.698B5.7C9.:.:.8#?.7.3)5.4f5.3.4.6.8.8.B.<08.9.8 :.:L:.9.:.<.:x4.0.6.7.9C7c518^4.4.0.1.3$6?6.86;{;0:i5.7!5.2.6.4.2H6.4G1.0.4.172|1.,/.3"5!9&:@9.6u9.9.7.062%9;;.9-673.4.6<:.8.8.8.9.7.2.3.8y<.9J8.9.9X9.6<5.7.4S8.9n9.7,4.2.$.$.$.$.$.$.$.$fO.K.7..)...n"./?9.-.d.L.c.<.-.*.(*,R-./v-. m*9$.$a(..!)z0.E.FL>.<.?.g.d`b.k}t.Ow<.6.6.<.7.4.5787=.:d9w7.4:8.8F7.7.6.6.9.7.=.9.7F817T7.:j<28.9.9.5[5*4.6.7.6.3S1q322w1./.2.5K7P8.:.:r:.9.8.5.3.2.3K2.4G6*4.0>0)2.1.4t4r0;1.3G8.:.8.9v5.9.;.:.5.3.7.7.6.6n6.6.6.6.8.8.7.9A;.3.2.7=<.9~6.7w6.9G6.4.4.79:.;.;.7e3S4fOfOfOfOfOfOfOfO..".J...f....+'?H.1De.M.b,?I+.+.)W.c-7/.,../+.$Y'#,.1.,@2.>.2A>.A.?.m~y.m7W.8J7l;.7[9$=t7 7p4.5.=.:.:L9.8.7P5.9.7.5W7d8W7.?5694[snip]
  | | | | |     - Tag 0x1103 (145920 bytes, undef[145920]):
  | | | | |       146556: 78 0e 0a 1b 84 28 59 28 55 2a 6e 2a db 29 94 2d [x....(Y(U*n*.).-]
  | | | | |       146566: d3 2b 40 28 3a 2a 6a 2d 64 42 54 2f 4f 2a 91 2a [.+@(:*j-dBT/O*.*]
  | | | | |       146576: c8 29 25 2c eb 2d a4 2a bf 2b b2 1e 3d 28 0b 24 [.)%,.-.*.+..=(.$]
  | | | | |       146586: a5 26 62 25 fe 25 ee 23 df 22 e2 25 17 37 ed 3d [.&b%.%.#.".%.7.=]
  | | | | |       146596: e2 2f 68 6f a0 68 4b 72 91 65 b1 65 36 71 20 73 [./ho.hKr.e.e6q s]
  | | | | |       1465a6: d1 31 a8 30 05 32 12 30 ae 2f 1c 31 15 34 be 33 [.1.0.2.0./.1.4.3]
  | | | | |       1465b6: ba 38 aa 59 b3 37 b5 1d af 1e d4 2b f1 5f e9 5f [.8.Y.7.....+._._]
  | | | | |       1465c6: 45 59 b0 43 01 36 c5 3a 2b 3c b0 3f 83 43 3a 3d [EY.C.6.:+<.?.C:=]
  | | | | |       1465d6: 62 36 22 38 c4 3a c2 39 1f 37 03 33 1b 37 7a 37 [b6"8.:.9.7.3.7z7]
  | | | | |       1465e6: 1b 37 67 33 c7 34 ad 37 83 3a fb 38 56 3a 85 34 [.7g3.4.7.:.8V:.4]
  | | | | |       1465f6: 02 36 c8 34 2e 35 59 38 b6 38 93 38 7a 36 da 38 [.6.4.5Y8.8.8z6.8]
  | | | | |       146606: 8f 3b 5d 3c 7d 3b e8 3b e6 39 be 38 24 3a 4b 35 [.;]<};.;.9.8$:K5]
  | | | | |       146616: ab 3a 24 3b 9a 3a 46 36 51 32 3c 32 bb 31 06 30 [.:$;.:F6Q2<2.1.0]
  | | | | |       146626: fd 2d 72 31 36 32 a7 33 c9 31 24 32 43 35 54 38 [.-r162.3.1$2C5T8]
  | | | | |       146636: 32 3d 59 3a 09 3f 12 3e a4 39 2a 35 85 35 f0 32 [2=Y:.?.>.9*5.5.2]
  | | | | |       146646: bd 33 36 36 6c 37 62 35 f5 30 59 33 9a 37 3b 37 [.366l7b5.0Y3.7;7]
  | | | | |       146656: 4b 39 81 38 a3 3b df 3c 8d 3c d4 3b 18 3a a8 3d [K9.8.;.<.<.;.:.=]
  | | | | |       146666: a6 3b 82 3c d9 39 bb 3e 28 3c c0 3d 4b 3b 93 39 [.;.<.9.>(<.=K;.9]
  | | | | |       146676: e0 36 70 36 12 39 f1 33 29 35 51 39 92 31 9d 34 [.6p6.9.3)5Q9.1.4]
  | | | | |       146686: 78 0e 78 0e 78 0e 78 0e 78 0e 78 0e 78 0e 78 0e [x.x.x.x.x.x.x.x.]
  | | | | |       146696: 71 24 85 24 bd 26 40 27 a4 25 ca 28 13 2b bd 2c [q$.$.&@'.%.(.+.,]
  | | | | |       1466a6: 3b 2b 00 2f 26 51 aa 64 8c 4b f4 32 cf 29 f3 28 [;+./&Q.d.K.2.).(]
  | | | | |       1466b6: 13 2b b5 2c dd 2b aa 2c 88 2c b0 1f a7 26 1d 23 [.+.,.+.,.,...&.#]
  | | | | |       1466c6: 5e 23 40 21 ec 22 bd 22 9a 28 71 33 49 3b 72 3e [^#@!.".".(q3I;r>]
  | | | | |       1466d6: 18 34 68 6a fb 69 69 69 50 63 60 64 b0 67 81 6c [.4hj.iiiPc`d.g.l]
  | | | | |       1466e6: 50 31 42 34 d9 32 6e 2f 45 31 20 32 41 37 b6 34 [P1B4.2n/E1 2A7.4]
  | | | | |       1466f6: a0 37 c5 55 5f 3e fb 47 ee 4c 46 50 fb 3d e8 3a [.7.U_>.G.LFP.=.:]
  | | | | |       146706: fa 3a 62 39 a6 37 0a 3b 85 3d c5 3f bd 42 01 3f [.:b9.7.;.=.?.B.?]
  | | | | |       146716: 59 39 af 39 76 39 d4 37 78 36 00 38 fe 37 17 37 [Y9.9v9.7x6.8.7.7]
  | | | | |       146726: 84 36 7b 36 4a 34 a5 36 d4 3b 29 3f 53 3c fb 35 [.6{6J4.6.;)?S<.5]
  | | | | |       146736: 76 35 cf 35 a9 37 ab 37 db 38 cb 36 75 34 ae 37 [v5.5.7.7.8.6u4.7]
  | | | | |       146746: 1e 3a c8 3b 1e 3a b1 3a 08 39 a1 38 29 37 1c 33 [.:.;.:.:.9.8)7.3]
  | | | | |       146756: f0 34 79 33 4a 36 17 33 32 32 11 33 ef 30 6d 30 [.4y3J6.322.3.0m0]
  | | | | |       146766: 98 2f 16 33 dd 33 9d 30 82 30 06 31 55 36 e6 37 [./.3.3.0.0.1U6.7]
  | | | | |       146776: e5 39 f5 39 dd 3b 51 3e 90 35 ac 32 c1 35 91 32 [.9.9.;Q>.5.2.5.2]
  | | | | |       146786: 39 36 10 36 25 33 5e 33 eb 2f dd 2e 6b 32 5e 35 [96.6%3^3./..k2^5]
  | | | | |       146796: 4f 38 04 39 17 3b 55 3b ff 3b fb 3a 9c 36 6d 3b [O8.9.;U;.;.:.6m;]
  | | | | |       1467a6: f3 37 1e 3a ee 3a 91 3b c6 3a b8 3c 64 39 78 37 [.7.:.:.;.:.<d9x7]
  | | | | |       1467b6: 26 39 27 36 2c 3b 1b 3b f6 36 40 39 a1 36 48 36 [&9'6,;.;.6@9.6H6]
  | | | | |       1467c6: 71 24 71 24 71 24 71 24 71 24 71 24 71 24 71 24 [q$q$q$q$q$q$q$q$]
  | | | | |       1467d6: 37 29 38 25 d2 25 77 27 01 24 89 29 5b 29 14 42 [7)8%.%w'.$.)[).B]
  | | | | |       1467e6: e2 5c eb 59 53 34 6f 1e a5 22 42 34 48 2a 30 2b [.\.YS4o.."B4H*0+]
  | | | | |       1467f6: ef 2b 7e 2c 6f 2b 6b 2c 2e 2e 80 1f b3 26 02 20 [.+~,o+k,.....&. ]
  | | | | |       146806: 95 20 ce 21 23 2b e3 27 00 2d de 3a b5 3e ca 3e [. .!#+.'.-.:.>.>]
  | | | | |       146816: aa 39 92 60 dc 67 30 64 99 63 72 64 cd 6c c4 6e [.9.`.g0d.crd.l.n]
  | | | | |       146826: d0 30 6a 31 11 33 bc 34 8c 33 15 36 41 39 97 39 [.0j1.3.4.3.6A9.9]
  | | | | |       146836: 16 3a 74 3f 67 4c fa 38 99 39 e3 38 e1 3c 7e 39 [.:t?gL.8.9.8.<~9]
  | | | | |       146846: 2d 38 d3 36 ff 38 62 3b bd 3a 7e 3c 24 40 21 3d [-8.6.8b;.:~<$@!=]
  | | | | |       146856: e4 39 40 39 86 38 d4 35 ab 38 e1 38 22 3a b2 3a [.9@9.8.5.8.8":.:]
  | | | | |       146866: 06 39 19 35 b9 32 e3 34 36 39 3e 3c fa 3a d9 36 [.9.5.2.469><.:.6]
  | | | | |       146876: 27 37 bd 36 d9 31 d9 34 1a 38 66 38 ae 38 46 35 ['7.6.1.4.8f8.8F5]
  | | | | |       146886: 85 39 27 3a 5d 39 02 3a fd 36 50 36 60 37 37 37 [.9':]9.:.6P6`777]
  | | | | |       146896: 00 36 aa 33 2a 34 ae 35 a5 36 a1 33 c4 33 10 30 [.6.3*4.5.6.3.3.0]
  | | | | |       1468a6: 16 2e 80 34 a5 32 43 31 b4 2f e2 2e 05 36 9e 34 [...4.2C1./...6.4]
  | | | | |       1468b6: 73 37 40 3c 35 3b 95 39 32 36 29 37 5a 34 73 32 [s7@<5;.926)7Z4s2]
  | | | | |       1468c6: 8f 39 61 34 d4 34 64 33 64 32 0c 30 bf 33 bb 36 [.9a4.4d3d2.0.3.6]
  | | | | |       1468d6: 1d 37 7e 37 13 37 64 36 d6 37 07 38 e4 33 84 3a [.7~7.7d6.7.8.3.:]
  | | | | |       1468e6: 42 3c c3 3a f0 3a a9 38 46 3a e2 3c 22 39 61 33 [B<.:.:.8F:.<"9a3]
  | | | | |       1468f6: a7 34 84 35 49 39 90 3b 57 39 5e 38 a2 3a 8f 34 [.4.5I9.;W9^8.:.4]
  | | | | |       146906: 37 29 37 29 37 29 37 29 37 29 37 29 37 29 37 29 [7)7)7)7)7)7)7)7)]
  | | | | |       146916: b6 26 fd 22 31 29 b8 29 4b 2e 21 46 0d 55 57 3f [.&."1).)K.!F.UW?]
  | | | | |       146926: 01 23 76 1e ba 1e d3 20 43 40 75 38 c8 28 50 29 [.#v.... C@u8.(P)]
  | | | | |       146936: 60 29 8a 27 f4 29 fb 2e 1a 2c cb 1f 45 2c 43 21 [`).'.)...,..E,C!]
  | | | | |       146946: e4 22 bc 24 01 2d 78 28 25 2e a9 41 06 45 55 43 [.".$.-x(%..A.EUC]
  | | | | |       146956: e5 38 d6 54 f0 65 ef 65 28 63 d7 65 14 6f ef 6a [.8.T.e.e(c.e.o.j]
  | | | | |       146966: 1b 33 ef 34 e7 35 42 36 21 32 43 38 49 3c 8e 3b [.3.4.5B6!2C8I<.;]
  | | | | |       146976: a4 38 f4 2d 31 3d f4 39 f0 37 0f 37 43 34 1f 33 [.8.-1=.9.7.7C4.3]
  | | | | |       146986: 90 30 97 33 1a 38 13 38 cd 3a e1 41 9e 3f e2 3a [.0.3.8.8.:.A.?.:]
  | | | | |       146996: a8 38 e0 36 87 38 ea 35 57 37 e4 39 b6 39 3c 3c [.8.6.8.5W7.9.9<<]
  | | | | |       1469a6: 7a 3a e7 37 2c 33 14 35 b2 36 c0 37 d5 37 a3 34 [z:.7,3.5.6.7.7.4]
  | | | | |       1469b6: 80 39 87 35 2e 34 d5 35 42 34 27 35 19 36 fe 35 [.9.5.4.5B4'5.6.5]
  | | | | |       1469c6: 50 39 d6 3a b6 37 23 3b 79 37 a7 37 89 35 eb 35 [P9.:.7#;y7.7.5.5]
  | | | | |       1469d6: 16 36 55 34 e0 32 0e 36 9b 36 7b 31 e9 31 f1 31 [.6U4.2.6.6{1.1.1]
  | | | | |       1469e6: 7a 31 21 35 76 32 aa 2f 63 30 14 31 5d 33 f5 36 [z1!5v2./c0.1]3.6]
  | | | | |       1469f6: 63 38 df 3b 8d 38 13 3a de 38 ad 37 68 31 f6 30 [c8.;.8.:.8.7h1.0]
  | | | | |       146a06: ca 35 20 35 20 38 2a 37 c4 2f f9 31 cd 35 5c 38 [.5 5 8*7./.1.5\8]
  | | | | |       146a16: 3b 36 9b 37 14 36 2e 36 28 36 f0 34 77 31 01 3b [;6.7.6.6(6.4w1.;]
  | | | | |       146a26: 53 3d 76 37 f3 38 0f 37 4f 3b 6c 3c 9d 36 98 33 [S=v7.8.7O;l<.6.3]
  | | | | |       146a36: b1 37 38 36 d0 36 a7 3a cb 39 ad 39 f5 36 c3 34 [.786.6.:.9.9.6.4]
  | | | | |       146a46: b6 26 b6 26 b6 26 b6 26 b6 26 b6 26 b6 26 b6 26 [.&.&.&.&.&.&.&.&]
  | | | | |       146a56: fa 24 ec 24 60 43 d1 58 2e 54 df 28 2f 1c d8 1e [.$.$`C.X.T.(/...]
  | | | | |       146a66: 87 1f 8e 21 48 4b 7b 41 1d 66 7f 3b d0 2a b5 2c [...!HK{A.f.;.*.,]
  | | | | |       146a76: 31 2a 0b 2a c0 2e 87 30 a5 2d 6d 20 6e 2b 78 24 [1*.*...0.-m n+x$]
  | | | | |       146a86: d1 24 e7 25 72 2d 75 2a 11 31 c6 45 db 4f f6 45 [.$.%r-u*.1.E.O.E]
  | | | | |       146a96: f6 3a 6f 47 6d 68 22 66 42 62 39 64 41 68 fb 65 [.:oGmh"fBb9dAh.e]
  | | | | |       146aa6: 23 36 9a 37 99 36 39 38 42 35 a3 37 43 39 a6 3a [#6.7.698B5.7C9.:]
  | | | | |       146ab6: ee 3a 97 38 23 3f 03 37 c6 33 29 35 9c 34 66 35 [.:.8#?.7.3)5.4f5]
  | | | | |       146ac6: ce 33 7f 34 d7 36 ae 38 9c 38 17 42 be 3c 30 38 [.3.4.6.8.8.B.<08]
  | | | | |       146ad6: 91 39 15 38 20 3a ae 3a 4c 3a e8 39 01 3a 15 3c [.9.8 :.:L:.9.:.<]
  | | | | |       146ae6: 97 3a 78 34 94 30 e2 36 0f 37 98 39 43 37 63 35 [.:x4.0.6.7.9C7c5]
  | | | | |       146af6: 31 38 5e 34 a3 34 1f 30 e8 31 e8 33 24 36 3f 36 [18^4.4.0.1.3$6?6]
  | | | | |       146b06: 96 38 36 3b 7b 3b 30 3a 69 35 82 37 21 35 a1 32 [.86;{;0:i5.7!5.2]
  | | | | |       146b16: b4 36 9b 34 7f 32 48 36 86 34 47 31 eb 30 05 34 [.6.4.2H6.4G1.0.4]
  | | | | |       146b26: e4 31 37 32 7c 31 f0 2c 00 2f 03 33 22 35 21 39 [.172|1.,./.3"5!9]
  | | | | |       146b36: 26 3a 40 39 c7 36 75 39 ad 39 d8 37 c7 30 36 32 [&:@9.6u9.9.7.062]
  | | | | |       146b46: 25 39 3b 3b d7 39 2d 36 37 33 e6 34 c1 36 3c 3a [%9;;.9-673.4.6<:]
  | | | | |       146b56: db 38 de 38 a5 38 f6 39 f2 37 f9 32 cf 33 fa 38 [.8.8.8.9.7.2.3.8]
  | | | | |       146b66: 79 3c 81 39 4a 38 f2 39 12 39 58 39 c6 36 3c 35 [y<.9J8.9.9X9.6<5]
  | | | | |       146b76: c3 37 a8 34 53 38 f4 39 6e 39 ba 37 2c 34 f3 32 [.7.4S8.9n9.7,4.2]
  | | | | |       146b86: fa 24 fa 24 fa 24 fa 24 fa 24 fa 24 fa 24 fa 24 [.$.$.$.$.$.$.$.$]
  | | | | |       146b96: 66 4f cd 4b eb 37 01 18 29 19 fa 18 6e 22 e6 2f [fO.K.7..)...n"./]
  | | | | |       146ba6: 3f 39 d7 2d 91 64 81 4c c3 63 a4 3c a3 2d 06 2a [?9.-.d.L.c.<.-.*]
  | | | | |       146bb6: ad 28 2a 2c 52 2d e7 2f 76 2d a2 20 6d 2a 39 24 [.(*,R-./v-. m*9$]
  | | | | |       146bc6: 13 24 61 28 e1 2e 21 29 7a 30 e5 45 8e 46 4c 3e [.$a(..!)z0.E.FL>]
  | | | | |       146bd6: 04 3c ee 3f 99 67 8c 64 60 62 a2 6b 7d 74 8f 4f [.<.?.g.d`b.k}t.O]
  | | | | |       146be6: 77 3c 18 36 1a 36 ef 3c f4 37 d9 34 a2 35 37 38 [w<.6.6.<.7.4.578]
  | | | | |       146bf6: 37 3d 8d 3a 64 39 77 37 7f 34 3a 38 93 38 46 37 [7=.:d9w7.4:8.8F7]
  | | | | |       146c06: dc 37 0e 36 c0 36 85 39 c3 37 a9 3d 16 39 0d 37 [.7.6.6.9.7.=.9.7]
  | | | | |       146c16: 46 38 31 37 54 37 dd 3a 6a 3c 32 38 bb 39 0e 39 [F817T7.:j<28.9.9]
  | | | | |       146c26: b4 35 5b 35 2a 34 15 36 8f 37 2e 36 d0 33 53 31 [.5[5*4.6.7.6.3S1]
  | | | | |       146c36: 71 33 32 32 77 31 15 2f 94 32 c0 35 4b 37 50 38 [q322w1./.2.5K7P8]
  | | | | |       146c46: d1 3a a5 3a 72 3a fc 39 1d 38 ce 35 bd 33 ed 32 [.:.:r:.9.8.5.3.2]
  | | | | |       146c56: 13 33 4b 32 f7 34 47 36 2a 34 90 30 3e 30 29 32 [.3K2.4G6*4.0>0)2]
  | | | | |       146c66: ff 31 92 34 74 34 72 30 3b 31 16 33 47 38 fc 3a [.1.4t4r0;1.3G8.:]
  | | | | |       146c76: 19 38 ae 39 76 35 e2 39 91 3b 19 3a e4 35 c2 33 [.8.9v5.9.;.:.5.3]
  | | | | |       146c86: e3 37 a0 37 d6 36 db 36 6e 36 dc 36 18 36 f0 36 [.7.7.6.6n6.6.6.6]
  | | | | |       146c96: f2 38 18 38 fb 37 9b 39 41 3b bc 33 e6 32 83 37 [.8.8.7.9A;.3.2.7]
  | | | | |       146ca6: 3d 3c 1e 39 7e 36 d8 37 77 36 ea 39 47 36 85 34 [=<.9~6.7w6.9G6.4]
  | | | | |       146cb6: 93 34 eb 37 39 3a a2 3b c7 3b a0 37 65 33 53 34 [.4.79:.;.;.7e3S4]
  | | | | |       146cc6: 66 4f 66 4f 66 4f 66 4f 66 4f 66 4f 66 4f 66 4f [fOfOfOfOfOfOfOfO]
  | | | | |       146cd6: d6 1e 22 18 4a 17 bc 17 66 1b 2e 1c a3 2b 27 3f [..".J...f....+'?]
  | | | | |       146ce6: 00 48 05 31 44 65 f3 4d d0 62 2c 3f 49 2b 8a 2b [.H.1De.M.b,?I+.+]
  | | | | |       146cf6: b8 29 57 2e 63 2d 37 2f 11 2c ae 1e 2f 2b 82 24 [.)W.c-7/.,../+.$]
  | | | | |       146d06: 59 27 23 2c d6 31 da 2c 40 32 b2 3e a8 32 41 3e [Y'#,.1.,@2.>.2A>]
  | | | | |       146d16: 93 41 ba 3f 1c 6d 7e 79 e1 6d 37 57 c0 38 4a 37 [.A.?.m~y.m7W.8J7]
  | | | | |       146d26: 6c 3b 8b 37 5b 39 24 3d 74 37 20 37 70 34 be 35 [l;.7[9$=t7 7p4.5]
  | | | | |       146d36: 0f 3d c3 3a c0 3a 4c 39 cd 38 b1 37 50 35 90 39 [.=.:.:L9.8.7P5.9]
  | | | | |         [snip 143888 bytes]
  | | | | | 151) UnknownBlock4 = x....(Y(U*n*.).-.+@(:*j-dBT/O*.*.)%,.-.*.+..=(.$.&b%.%.#.".%.7.=./ho.hKr.e.e6q s.1.0.2.0./.1.4.3.8.Y.7.....+._._EY.C.6.:+<.?.C:=b6"8.:.9.7.3.7z7.7g3.4.7.:.8V:.4.6.4.5Y8.8.8z6.8.;]<};.;.9.8$:K5.:$;.:F6Q2<2.1.0.-r162.3.1$2C5T82=Y:.?.>.9*5.5.2.366l7b5.0Y3.7;7K9.8.;.<.<.;.:.=.;.<.9.>(<.=K;.9.6p6.9.3)5Q9.1.4x.x.x.x.x.x.x.x.q$.$.&@'.%.(.+.,;+/&Q.d.K.2.).(.+.,.+.,.,...&.#^#@!.".".(q3I;r>.4hj.iiiPc`d.g.lP1B4.2n/E1 2A7.4.7.U_>.G.LFP.=.:.:b9.7.;.=.?.B.?Y9.9v9.7x68.7.7.6{6J4.6.;)?S<.5v5.5.7.7.8.6u4.7.:.;.:.:.9.8)7.3.4y3J6.322.3.0m0./.3.3.0.0.1U6.7.9.9.;Q>.5.2.5.296.6%3^3./..k2^5O8.9.;U;.;.:.6m;.7.:.:.;.:.<d9x7&9'6,;.;.6@9.6H6q$q$q$q$q$q$q$q$7)8%.%w'.$.)[).B.\.YS4o.."B4H*0+.+~,o+k,.....&. . .!#+.'-.:.>.>.9.`.g0d.crd.l.n.0j1.3.4.3.6A9.9.:t?gL.8.9.8.<~9-8.6.8b;.:~<$@!=.9@9.8.5.8.8":.:.9.5.2.469><.:.6'7.6.1.4.8f8.8F5.9':]9.:.6P6`7776.3*4.5.6.3.3.0...4.2C1./...6.4s7@<5;.926)7Z4s2.9a4.4d3d2.0.3.6.7~7.7d6.7.8.3.:B<.:.:.8F:.<"9a3.4.5I9.;W9^8.:.47)7)7)7)7)7)7)7).&."1).)K.!F.UW?.#v.... C@u8.(P)`).'.)...,..E,C!.".$.-x(%..A.EUC.8.T.e.e(c.e.o.j.3.4.5B6!2C8I<.;.8.-1=.9.7.7C4.3.0.3.8.8.:.A.?.:.8.6.8.5W7.9.9<<z:.7,3.5.6.7.7.4.9.5.4.5B4'5.6.5P9.:.7#;y7.7.5.5.6U4.2.6.6{1.1.1z1!5v2./c0.1]3.6c8.;.8.:.8.7h1.0.5 5 8*7./.1.5\8;6.7.6.6(6.4w1.;S=v7.8.7O;l<.6.3.786.6.:.9.9.6.4.&.&.&.&.&.&.&.&.$.$`C.X.T.(/......!HK{A.f.;.*.,1*.*...0.-m n+x$.$.%r-u*.1.E.O.E.:oGmh"fBb9dAh.e#6.7.698B5.7C9.:.:.8#?.7.3)5.4f5.3.4.6.8.8.B.<08.9.8 :.:L:.9.:.<.:x4.0.6.7.9C7c518^4.4.0.1.3$6?6.86;{;0:i5.7!5.2.6.4.2H6.4G1.0.4.172|1.,/.3"5!9&:@9.6u9.9.7.062%9;;.9-673.4.6<:.8.8.8.9.7.2.3.8y<.9J8.9.9X9.6<5.7.4S8.9n9.7,4.2.$.$.$.$.$.$.$.$fO.K.7..)...n"./?9.-.d.L.c.<.-.*.(*,R-./v-. m*9$.$a(..!)z0.E.FL>.<.?.g.d`b.k}t.Ow<.6.6.<.7.4.5787=.:d9w7.4:8.8F7.7.6.6.9.7.=.9.7F817T7.:j<28.9.9.5[5*4.6.7.6.3S1q322w1./.2.5K7P8.:.:r:.9.8.5.3.2.3K2.4G6*4.0>0)2.1.4t4r0;1.3G8.:.8.9v5.9.;.:.5.3.7.7.6.6n6.6.6.6.8.8.7.9A;.3.2.7=<.9~6.7w6.9G6.4.4.79:.;.;.7e3S4fOfOfOfOfOfOfOfO..".J...f....+'?H.1De.M.b,?I+.+.)W.c-7/.,../+.$Y'#,.1.,@2.>.2A>.A.?.m~y.m7W.8J7l;.7[9$=t7 7p4.5.=.:.:L9.8.7P5.9.7.5W7d8W7.?5694[snip]
  | | | | |     - Tag 0x1104 (4608 bytes, undef[4608]):
  | | | | |       146556: 78 0e 0a 1b 84 28 59 28 55 2a 6e 2a db 29 94 2d [x....(Y(U*n*.).-]
  | | | | |       146566: d3 2b 40 28 3a 2a 6a 2d 64 42 54 2f 4f 2a 91 2a [.+@(:*j-dBT/O*.*]
  | | | | |       146576: c8 29 25 2c eb 2d a4 2a bf 2b b2 1e 3d 28 0b 24 [.)%,.-.*.+..=(.$]
  | | | | |       146586: a5 26 62 25 fe 25 ee 23 df 22 e2 25 17 37 ed 3d [.&b%.%.#.".%.7.=]
  | | | | |       146596: e2 2f 68 6f a0 68 4b 72 91 65 b1 65 36 71 20 73 [./ho.hKr.e.e6q s]
  | | | | |       1465a6: d1 31 a8 30 05 32 12 30 ae 2f 1c 31 15 34 be 33 [.1.0.2.0./.1.4.3]
  | | | | |       1465b6: ba 38 aa 59 b3 37 b5 1d af 1e d4 2b f1 5f e9 5f [.8.Y.7.....+._._]
  | | | | |       1465c6: 45 59 b0 43 01 36 c5 3a 2b 3c b0 3f 83 43 3a 3d [EY.C.6.:+<.?.C:=]
  | | | | |       1465d6: 62 36 22 38 c4 3a c2 39 1f 37 03 33 1b 37 7a 37 [b6"8.:.9.7.3.7z7]
  | | | | |       1465e6: 1b 37 67 33 c7 34 ad 37 83 3a fb 38 56 3a 85 34 [.7g3.4.7.:.8V:.4]
  | | | | |       1465f6: 02 36 c8 34 2e 35 59 38 b6 38 93 38 7a 36 da 38 [.6.4.5Y8.8.8z6.8]
  | | | | |       146606: 8f 3b 5d 3c 7d 3b e8 3b e6 39 be 38 24 3a 4b 35 [.;]<};.;.9.8$:K5]
  | | | | |       146616: ab 3a 24 3b 9a 3a 46 36 51 32 3c 32 bb 31 06 30 [.:$;.:F6Q2<2.1.0]
  | | | | |       146626: fd 2d 72 31 36 32 a7 33 c9 31 24 32 43 35 54 38 [.-r162.3.1$2C5T8]
  | | | | |       146636: 32 3d 59 3a 09 3f 12 3e a4 39 2a 35 85 35 f0 32 [2=Y:.?.>.9*5.5.2]
  | | | | |       146646: bd 33 36 36 6c 37 62 35 f5 30 59 33 9a 37 3b 37 [.366l7b5.0Y3.7;7]
  | | | | |       146656: 4b 39 81 38 a3 3b df 3c 8d 3c d4 3b 18 3a a8 3d [K9.8.;.<.<.;.:.=]
  | | | | |       146666: a6 3b 82 3c d9 39 bb 3e 28 3c c0 3d 4b 3b 93 39 [.;.<.9.>(<.=K;.9]
  | | | | |       146676: e0 36 70 36 12 39 f1 33 29 35 51 39 92 31 9d 34 [.6p6.9.3)5Q9.1.4]
  | | | | |       146686: 78 0e 78 0e 78 0e 78 0e 78 0e 78 0e 78 0e 78 0e [x.x.x.x.x.x.x.x.]
  | | | | |       146696: 71 24 85 24 bd 26 40 27 a4 25 ca 28 13 2b bd 2c [q$.$.&@'.%.(.+.,]
  | | | | |       1466a6: 3b 2b 00 2f 26 51 aa 64 8c 4b f4 32 cf 29 f3 28 [;+./&Q.d.K.2.).(]
  | | | | |       1466b6: 13 2b b5 2c dd 2b aa 2c 88 2c b0 1f a7 26 1d 23 [.+.,.+.,.,...&.#]
  | | | | |       1466c6: 5e 23 40 21 ec 22 bd 22 9a 28 71 33 49 3b 72 3e [^#@!.".".(q3I;r>]
  | | | | |       1466d6: 18 34 68 6a fb 69 69 69 50 63 60 64 b0 67 81 6c [.4hj.iiiPc`d.g.l]
  | | | | |       1466e6: 50 31 42 34 d9 32 6e 2f 45 31 20 32 41 37 b6 34 [P1B4.2n/E1 2A7.4]
  | | | | |       1466f6: a0 37 c5 55 5f 3e fb 47 ee 4c 46 50 fb 3d e8 3a [.7.U_>.G.LFP.=.:]
  | | | | |       146706: fa 3a 62 39 a6 37 0a 3b 85 3d c5 3f bd 42 01 3f [.:b9.7.;.=.?.B.?]
  | | | | |       146716: 59 39 af 39 76 39 d4 37 78 36 00 38 fe 37 17 37 [Y9.9v9.7x6.8.7.7]
  | | | | |       146726: 84 36 7b 36 4a 34 a5 36 d4 3b 29 3f 53 3c fb 35 [.6{6J4.6.;)?S<.5]
  | | | | |       146736: 76 35 cf 35 a9 37 ab 37 db 38 cb 36 75 34 ae 37 [v5.5.7.7.8.6u4.7]
  | | | | |       146746: 1e 3a c8 3b 1e 3a b1 3a 08 39 a1 38 29 37 1c 33 [.:.;.:.:.9.8)7.3]
  | | | | |       146756: f0 34 79 33 4a 36 17 33 32 32 11 33 ef 30 6d 30 [.4y3J6.322.3.0m0]
  | | | | |       146766: 98 2f 16 33 dd 33 9d 30 82 30 06 31 55 36 e6 37 [./.3.3.0.0.1U6.7]
  | | | | |       146776: e5 39 f5 39 dd 3b 51 3e 90 35 ac 32 c1 35 91 32 [.9.9.;Q>.5.2.5.2]
  | | | | |       146786: 39 36 10 36 25 33 5e 33 eb 2f dd 2e 6b 32 5e 35 [96.6%3^3./..k2^5]
  | | | | |       146796: 4f 38 04 39 17 3b 55 3b ff 3b fb 3a 9c 36 6d 3b [O8.9.;U;.;.:.6m;]
  | | | | |       1467a6: f3 37 1e 3a ee 3a 91 3b c6 3a b8 3c 64 39 78 37 [.7.:.:.;.:.<d9x7]
  | | | | |       1467b6: 26 39 27 36 2c 3b 1b 3b f6 36 40 39 a1 36 48 36 [&9'6,;.;.6@9.6H6]
  | | | | |       1467c6: 71 24 71 24 71 24 71 24 71 24 71 24 71 24 71 24 [q$q$q$q$q$q$q$q$]
  | | | | |       1467d6: 37 29 38 25 d2 25 77 27 01 24 89 29 5b 29 14 42 [7)8%.%w'.$.)[).B]
  | | | | |       1467e6: e2 5c eb 59 53 34 6f 1e a5 22 42 34 48 2a 30 2b [.\.YS4o.."B4H*0+]
  | | | | |       1467f6: ef 2b 7e 2c 6f 2b 6b 2c 2e 2e 80 1f b3 26 02 20 [.+~,o+k,.....&. ]
  | | | | |       146806: 95 20 ce 21 23 2b e3 27 00 2d de 3a b5 3e ca 3e [. .!#+.'.-.:.>.>]
  | | | | |       146816: aa 39 92 60 dc 67 30 64 99 63 72 64 cd 6c c4 6e [.9.`.g0d.crd.l.n]
  | | | | |       146826: d0 30 6a 31 11 33 bc 34 8c 33 15 36 41 39 97 39 [.0j1.3.4.3.6A9.9]
  | | | | |       146836: 16 3a 74 3f 67 4c fa 38 99 39 e3 38 e1 3c 7e 39 [.:t?gL.8.9.8.<~9]
  | | | | |       146846: 2d 38 d3 36 ff 38 62 3b bd 3a 7e 3c 24 40 21 3d [-8.6.8b;.:~<$@!=]
  | | | | |       146856: e4 39 40 39 86 38 d4 35 ab 38 e1 38 22 3a b2 3a [.9@9.8.5.8.8":.:]
  | | | | |       146866: 06 39 19 35 b9 32 e3 34 36 39 3e 3c fa 3a d9 36 [.9.5.2.469><.:.6]
  | | | | |       146876: 27 37 bd 36 d9 31 d9 34 1a 38 66 38 ae 38 46 35 ['7.6.1.4.8f8.8F5]
  | | | | |       146886: 85 39 27 3a 5d 39 02 3a fd 36 50 36 60 37 37 37 [.9':]9.:.6P6`777]
  | | | | |       146896: 00 36 aa 33 2a 34 ae 35 a5 36 a1 33 c4 33 10 30 [.6.3*4.5.6.3.3.0]
  | | | | |       1468a6: 16 2e 80 34 a5 32 43 31 b4 2f e2 2e 05 36 9e 34 [...4.2C1./...6.4]
  | | | | |       1468b6: 73 37 40 3c 35 3b 95 39 32 36 29 37 5a 34 73 32 [s7@<5;.926)7Z4s2]
  | | | | |       1468c6: 8f 39 61 34 d4 34 64 33 64 32 0c 30 bf 33 bb 36 [.9a4.4d3d2.0.3.6]
  | | | | |       1468d6: 1d 37 7e 37 13 37 64 36 d6 37 07 38 e4 33 84 3a [.7~7.7d6.7.8.3.:]
  | | | | |       1468e6: 42 3c c3 3a f0 3a a9 38 46 3a e2 3c 22 39 61 33 [B<.:.:.8F:.<"9a3]
  | | | | |       1468f6: a7 34 84 35 49 39 90 3b 57 39 5e 38 a2 3a 8f 34 [.4.5I9.;W9^8.:.4]
  | | | | |       146906: 37 29 37 29 37 29 37 29 37 29 37 29 37 29 37 29 [7)7)7)7)7)7)7)7)]
  | | | | |       146916: b6 26 fd 22 31 29 b8 29 4b 2e 21 46 0d 55 57 3f [.&."1).)K.!F.UW?]
  | | | | |       146926: 01 23 76 1e ba 1e d3 20 43 40 75 38 c8 28 50 29 [.#v.... C@u8.(P)]
  | | | | |       146936: 60 29 8a 27 f4 29 fb 2e 1a 2c cb 1f 45 2c 43 21 [`).'.)...,..E,C!]
  | | | | |       146946: e4 22 bc 24 01 2d 78 28 25 2e a9 41 06 45 55 43 [.".$.-x(%..A.EUC]
  | | | | |       146956: e5 38 d6 54 f0 65 ef 65 28 63 d7 65 14 6f ef 6a [.8.T.e.e(c.e.o.j]
  | | | | |       146966: 1b 33 ef 34 e7 35 42 36 21 32 43 38 49 3c 8e 3b [.3.4.5B6!2C8I<.;]
  | | | | |       146976: a4 38 f4 2d 31 3d f4 39 f0 37 0f 37 43 34 1f 33 [.8.-1=.9.7.7C4.3]
  | | | | |       146986: 90 30 97 33 1a 38 13 38 cd 3a e1 41 9e 3f e2 3a [.0.3.8.8.:.A.?.:]
  | | | | |       146996: a8 38 e0 36 87 38 ea 35 57 37 e4 39 b6 39 3c 3c [.8.6.8.5W7.9.9<<]
  | | | | |       1469a6: 7a 3a e7 37 2c 33 14 35 b2 36 c0 37 d5 37 a3 34 [z:.7,3.5.6.7.7.4]
  | | | | |       1469b6: 80 39 87 35 2e 34 d5 35 42 34 27 35 19 36 fe 35 [.9.5.4.5B4'5.6.5]
  | | | | |       1469c6: 50 39 d6 3a b6 37 23 3b 79 37 a7 37 89 35 eb 35 [P9.:.7#;y7.7.5.5]
  | | | | |       1469d6: 16 36 55 34 e0 32 0e 36 9b 36 7b 31 e9 31 f1 31 [.6U4.2.6.6{1.1.1]
  | | | | |       1469e6: 7a 31 21 35 76 32 aa 2f 63 30 14 31 5d 33 f5 36 [z1!5v2./c0.1]3.6]
  | | | | |       1469f6: 63 38 df 3b 8d 38 13 3a de 38 ad 37 68 31 f6 30 [c8.;.8.:.8.7h1.0]
  | | | | |       146a06: ca 35 20 35 20 38 2a 37 c4 2f f9 31 cd 35 5c 38 [.5 5 8*7./.1.5\8]
  | | | | |       146a16: 3b 36 9b 37 14 36 2e 36 28 36 f0 34 77 31 01 3b [;6.7.6.6(6.4w1.;]
  | | | | |       146a26: 53 3d 76 37 f3 38 0f 37 4f 3b 6c 3c 9d 36 98 33 [S=v7.8.7O;l<.6.3]
  | | | | |       146a36: b1 37 38 36 d0 36 a7 3a cb 39 ad 39 f5 36 c3 34 [.786.6.:.9.9.6.4]
  | | | | |       146a46: b6 26 b6 26 b6 26 b6 26 b6 26 b6 26 b6 26 b6 26 [.&.&.&.&.&.&.&.&]
  | | | | |       146a56: fa 24 ec 24 60 43 d1 58 2e 54 df 28 2f 1c d8 1e [.$.$`C.X.T.(/...]
  | | | | |       146a66: 87 1f 8e 21 48 4b 7b 41 1d 66 7f 3b d0 2a b5 2c [...!HK{A.f.;.*.,]
  | | | | |       146a76: 31 2a 0b 2a c0 2e 87 30 a5 2d 6d 20 6e 2b 78 24 [1*.*...0.-m n+x$]
  | | | | |       146a86: d1 24 e7 25 72 2d 75 2a 11 31 c6 45 db 4f f6 45 [.$.%r-u*.1.E.O.E]
  | | | | |       146a96: f6 3a 6f 47 6d 68 22 66 42 62 39 64 41 68 fb 65 [.:oGmh"fBb9dAh.e]
  | | | | |       146aa6: 23 36 9a 37 99 36 39 38 42 35 a3 37 43 39 a6 3a [#6.7.698B5.7C9.:]
  | | | | |       146ab6: ee 3a 97 38 23 3f 03 37 c6 33 29 35 9c 34 66 35 [.:.8#?.7.3)5.4f5]
  | | | | |       146ac6: ce 33 7f 34 d7 36 ae 38 9c 38 17 42 be 3c 30 38 [.3.4.6.8.8.B.<08]
  | | | | |       146ad6: 91 39 15 38 20 3a ae 3a 4c 3a e8 39 01 3a 15 3c [.9.8 :.:L:.9.:.<]
  | | | | |       146ae6: 97 3a 78 34 94 30 e2 36 0f 37 98 39 43 37 63 35 [.:x4.0.6.7.9C7c5]
  | | | | |       146af6: 31 38 5e 34 a3 34 1f 30 e8 31 e8 33 24 36 3f 36 [18^4.4.0.1.3$6?6]
  | | | | |       146b06: 96 38 36 3b 7b 3b 30 3a 69 35 82 37 21 35 a1 32 [.86;{;0:i5.7!5.2]
  | | | | |       146b16: b4 36 9b 34 7f 32 48 36 86 34 47 31 eb 30 05 34 [.6.4.2H6.4G1.0.4]
  | | | | |       146b26: e4 31 37 32 7c 31 f0 2c 00 2f 03 33 22 35 21 39 [.172|1.,./.3"5!9]
  | | | | |       146b36: 26 3a 40 39 c7 36 75 39 ad 39 d8 37 c7 30 36 32 [&:@9.6u9.9.7.062]
  | | | | |       146b46: 25 39 3b 3b d7 39 2d 36 37 33 e6 34 c1 36 3c 3a [%9;;.9-673.4.6<:]
  | | | | |       146b56: db 38 de 38 a5 38 f6 39 f2 37 f9 32 cf 33 fa 38 [.8.8.8.9.7.2.3.8]
  | | | | |       146b66: 79 3c 81 39 4a 38 f2 39 12 39 58 39 c6 36 3c 35 [y<.9J8.9.9X9.6<5]
  | | | | |       146b76: c3 37 a8 34 53 38 f4 39 6e 39 ba 37 2c 34 f3 32 [.7.4S8.9n9.7,4.2]
  | | | | |       146b86: fa 24 fa 24 fa 24 fa 24 fa 24 fa 24 fa 24 fa 24 [.$.$.$.$.$.$.$.$]
  | | | | |       146b96: 66 4f cd 4b eb 37 01 18 29 19 fa 18 6e 22 e6 2f [fO.K.7..)...n"./]
  | | | | |       146ba6: 3f 39 d7 2d 91 64 81 4c c3 63 a4 3c a3 2d 06 2a [?9.-.d.L.c.<.-.*]
  | | | | |       146bb6: ad 28 2a 2c 52 2d e7 2f 76 2d a2 20 6d 2a 39 24 [.(*,R-./v-. m*9$]
  | | | | |       146bc6: 13 24 61 28 e1 2e 21 29 7a 30 e5 45 8e 46 4c 3e [.$a(..!)z0.E.FL>]
  | | | | |       146bd6: 04 3c ee 3f 99 67 8c 64 60 62 a2 6b 7d 74 8f 4f [.<.?.g.d`b.k}t.O]
  | | | | |       146be6: 77 3c 18 36 1a 36 ef 3c f4 37 d9 34 a2 35 37 38 [w<.6.6.<.7.4.578]
  | | | | |       146bf6: 37 3d 8d 3a 64 39 77 37 7f 34 3a 38 93 38 46 37 [7=.:d9w7.4:8.8F7]
  | | | | |       146c06: dc 37 0e 36 c0 36 85 39 c3 37 a9 3d 16 39 0d 37 [.7.6.6.9.7.=.9.7]
  | | | | |       146c16: 46 38 31 37 54 37 dd 3a 6a 3c 32 38 bb 39 0e 39 [F817T7.:j<28.9.9]
  | | | | |       146c26: b4 35 5b 35 2a 34 15 36 8f 37 2e 36 d0 33 53 31 [.5[5*4.6.7.6.3S1]
  | | | | |       146c36: 71 33 32 32 77 31 15 2f 94 32 c0 35 4b 37 50 38 [q322w1./.2.5K7P8]
  | | | | |       146c46: d1 3a a5 3a 72 3a fc 39 1d 38 ce 35 bd 33 ed 32 [.:.:r:.9.8.5.3.2]
  | | | | |       146c56: 13 33 4b 32 f7 34 47 36 2a 34 90 30 3e 30 29 32 [.3K2.4G6*4.0>0)2]
  | | | | |       146c66: ff 31 92 34 74 34 72 30 3b 31 16 33 47 38 fc 3a [.1.4t4r0;1.3G8.:]
  | | | | |       146c76: 19 38 ae 39 76 35 e2 39 91 3b 19 3a e4 35 c2 33 [.8.9v5.9.;.:.5.3]
  | | | | |       146c86: e3 37 a0 37 d6 36 db 36 6e 36 dc 36 18 36 f0 36 [.7.7.6.6n6.6.6.6]
  | | | | |       146c96: f2 38 18 38 fb 37 9b 39 41 3b bc 33 e6 32 83 37 [.8.8.7.9A;.3.2.7]
  | | | | |       146ca6: 3d 3c 1e 39 7e 36 d8 37 77 36 ea 39 47 36 85 34 [=<.9~6.7w6.9G6.4]
  | | | | |       146cb6: 93 34 eb 37 39 3a a2 3b c7 3b a0 37 65 33 53 34 [.4.79:.;.;.7e3S4]
  | | | | |       146cc6: 66 4f 66 4f 66 4f 66 4f 66 4f 66 4f 66 4f 66 4f [fOfOfOfOfOfOfOfO]
  | | | | |       146cd6: d6 1e 22 18 4a 17 bc 17 66 1b 2e 1c a3 2b 27 3f [..".J...f....+'?]
  | | | | |       146ce6: 00 48 05 31 44 65 f3 4d d0 62 2c 3f 49 2b 8a 2b [.H.1De.M.b,?I+.+]
  | | | | |       146cf6: b8 29 57 2e 63 2d 37 2f 11 2c ae 1e 2f 2b 82 24 [.)W.c-7/.,../+.$]
  | | | | |       146d06: 59 27 23 2c d6 31 da 2c 40 32 b2 3e a8 32 41 3e [Y'#,.1.,@2.>.2A>]
  | | | | |       146d16: 93 41 ba 3f 1c 6d 7e 79 e1 6d 37 57 c0 38 4a 37 [.A.?.m~y.m7W.8J7]
  | | | | |       146d26: 6c 3b 8b 37 5b 39 24 3d 74 37 20 37 70 34 be 35 [l;.7[9$=t7 7p4.5]
  | | | | |       146d36: 0f 3d c3 3a c0 3a 4c 39 cd 38 b1 37 50 35 90 39 [.=.:.:L9.8.7P5.9]
  | | | | |         [snip 2576 bytes]
  | | | | | 152) Olympus_ImageProcessing_0x1105 = 160 0 152 114
  | | | | |     - Tag 0x1105 (4 bytes, int8u[4]):
  | | | | |         2970: a0 00 98 72                                     [...r]
  | | | | | 153) Olympus_ImageProcessing_0x1106 = 0 0 0 0
  | | | | |     - Tag 0x1106 (4 bytes, int8u[4]):
  | | | | |         297c: 00 00 00 00                                     [....]
  | | | | | 154) Olympus_ImageProcessing_0x1107 = 131 135
  | | | | |     - Tag 0x1107 (4 bytes, int16u[2]):
  | | | | |         2988: 83 00 87 00                                     [....]
  | | | | | 155) Olympus_ImageProcessing_0x1108 = 2464 3 0 238 251 32 21 25
  | | | | |     - Tag 0x1108 (16 bytes, int16u[8]):
  | | | | |         3d16: a0 09 03 00 00 00 ee 00 fb 00 20 00 15 00 19 00 [.......... .....]
  | | | | | 156) Olympus_ImageProcessing_0x1109 = 146 118 203 88 0 0 147 116 145 118 128 139 117 151 106 166
  | | | | |     - Tag 0x1109 (32 bytes, int16u[16]):
  | | | | |         3d26: 92 00 76 00 cb 00 58 00 00 00 00 00 93 00 74 00 [..v...X.......t.]
  | | | | |         3d36: 91 00 76 00 80 00 8b 00 75 00 97 00 6a 00 a6 00 [..v.....u...j...]
  | | | | | 157) Olympus_ImageProcessing_0x110a = 2109
  | | | | |     - Tag 0x110a (2 bytes, int16s[1]):
  | | | | |         29ac: 3d 08                                           [=.]
  | | | | | 158) Olympus_ImageProcessing_0x110b = 0 4 32 117 0
  | | | | |     - Tag 0x110b (10 bytes, int16u[5]):
  | | | | |         3d48: 00 00 04 00 20 00 75 00 00 00                   [.... .u...]
  | | | | | 159) Olympus_ImageProcessing_0x110c = 180 0 0 0
  | | | | |     - Tag 0x110c (8 bytes, int16u[4]):
  | | | | |         3d52: b4 00 00 00 00 00 00 00                         [........]
  | | | | | 160) Olympus_ImageProcessing_0x110d = 5111
  | | | | |     - Tag 0x110d (2 bytes, int16u[1]):
  | | | | |         29d0: f7 13                                           [..]
  | | | | | 161) Olympus_ImageProcessing_0x110e = 546 0 0 47 50 32 21 1
  | | | | |     - Tag 0x110e (16 bytes, int16u[8]):
  | | | | |         3d5c: 22 02 00 00 00 00 2f 00 32 00 20 00 15 00 01 00 ["...../.2. .....]
  | | | | | 162) Olympus_ImageProcessing_0x110f = 0 2493 41
  | | | | |     - Tag 0x110f (6 bytes, int16u[3]):
  | | | | |         3d6c: 00 00 bd 09 29 00                               [....).]
  | | | | | 163) Olympus_ImageProcessing_0x1110 = 0 4 3 3 128 133 137 23 132 143
  | | | | |     - Tag 0x1110 (20 bytes, int16u[10]):
  | | | | |         3d72: 00 00 04 00 03 00 03 00 80 00 85 00 89 00 17 00 [................]
  | | | | |         3d82: 84 00 8f 00                                     [....]
  | | | | | 164) AspectRatio = 1 1
  | | | | |     - Tag 0x1112 (2 bytes, int8u[2]):
  | | | | |         2a00: 01 01                                           [..]
  | | | | | 165) AspectFrame = 0 0 3647 2735
  | | | | |     - Tag 0x1113 (8 bytes, int16u[4]):
  | | | | |         3d88: 00 00 00 00 3f 0e af 0a                         [....?...]
  | | | | | 166) Olympus_ImageProcessing_0x1114 = 0
  | | | | |     - Tag 0x1114 (1 bytes, int8u[1]):
  | | | | |         2a18: 00                                              [.]
  | | | | | 167) Olympus_ImageProcessing_0x1115 = 0 0
  | | | | |     - Tag 0x1115 (4 bytes, int16u[2]):
  | | | | |         2a24: 00 00 00 00                                     [....]
  | | | | | 168) Olympus_ImageProcessing_0x1116 = 0 0
  | | | | |     - Tag 0x1116 (4 bytes, int16u[2]):
  | | | | |         2a30: 00 00 00 00                                     [....]
  | | | | | 169) Olympus_ImageProcessing_0x1117 = 0 0
  | | | | |     - Tag 0x1117 (8 bytes, int32u[2]):
  | | | | |         3d9a: 00 00 00 00 00 00 00 00                         [........]
  | | | | | 170) Olympus_ImageProcessing_0x1118 = 0 0
  | | | | |     - Tag 0x1118 (4 bytes, int16s[2]):
  | | | | |         2a48: 00 00 00 00                                     [....]
  | | | | | 171) Olympus_ImageProcessing_0x1119 = 0 0
  | | | | |     - Tag 0x1119 (2 bytes, int8u[2]):
  | | | | |         2a54: 00 00                                           [..]
  | | | | | 172) Olympus_ImageProcessing_0x111a = 1 1
  | | | | |     - Tag 0x111a (2 bytes, int8u[2]):
  | | | | |         2a60: 01 01                                           [..]
  | | | | | 173) Olympus_ImageProcessing_0x111b = 
  | | | | |     - Tag 0x111b (170 bytes, undef[170]):
  | | | | |         3daa: 00 00 00 00 00 00 00 00 00 00 00 00 00 00 00 00 [................]
  | | | | |         3dba: 00 00 00 00 00 00 00 00 00 00 00 00 00 00 00 00 [................]
  | | | | |         3dca: 00 00 00 00 00 00 00 00 00 00 00 00 00 00 00 00 [................]
  | | | | |         3dda: 00 00 00 00 00 00 00 00 00 00 00 00 00 00 00 00 [................]
  | | | | |         3dea: 00 00 00 00 00 00 00 00 00 00 00 00 00 00 00 00 [................]
  | | | | |         3dfa: 00 00 00 00 00 00 00 00 00 00 00 00 00 00 00 00 [................]
  | | | | |         3e0a: 00 00 00 00 00 00 00 00 00 00 00 00 00 00 00 00 [................]
  | | | | |         3e1a: 00 00 00 00 00 00 00 00 00 00 00 00 00 00 00 00 [................]
  | | | | |         3e2a: 00 00 00 00 00 00 00 00 00 00 00 00 00 00 00 00 [................]
  | | | | |         3e3a: 00 00 00 00 00 00 00 00 00 00 00 00 00 00 00 00 [................]
  | | | | |         3e4a: 00 00 00 00 00 00 00 00 00 00                   [..........]
  | | | | | 174) Olympus_ImageProcessing_0x111d = 1199 140 121 0 0 1902 50 0 131 135
  | | | | |     - Tag 0x111d (20 bytes, int16u[10]):
  | | | | |         3e54: af 04 8c 00 79 00 00 00 00 00 6e 07 32 00 00 00 [....y.....n.2...]
  | | | | |         3e64: 83 00 87 00                                     [....]
  | | | | | 175) Olympus_ImageProcessing_0x111e = 108 167 119 151 128 140 141 126 160 108 207 82 117 152 135 127 133 101
  | | | | |     - Tag 0x111e (36 bytes, int16u[18]):
  | | | | |         3e68: 6c 00 a7 00 77 00 97 00 80 00 8c 00 8d 00 7e 00 [l...w.........~.]
  | | | | |         3e78: a0 00 6c 00 cf 00 52 00 75 00 98 00 87 00 7f 00 [..l...R.u.......]
  | | | | |         3e88: 85 00 65 00                                     [..e.]
  | | | | | 176) FacesDetected = 0 0 0
  | | | | |     - Tag 0x1200 (12 bytes, int32u[3]):
  | | | | |         3e8e: 00 00 00 00 00 00 00 00 00 00 00 00             [............]
  | | | | | 177) FaceDetectArea = 0 0 0 0 0 0 0 0 0 0 0 0 0 0 0 0 0 0 0 0 0 0 0 0 0 0 0 0 0 0 0 0 0 0 0 0 0 0 0 0 0 0 0 0 0 0 0 0 0 0 0 0 0 0 0 0 0 0 0 0 0 0 0 0 0 0 0 0 0 0 0 0 0 0 0 0 0 0 0 0 0 0 0 0 0 0 0 0 0 0 0 0 0 0 0 0 0 0 0 0 0 0 0 0 0 0 0 0 0 0 0 0 0 0 0 0 0 0 0 0 0 0 0 0 0 0 0 0 0 0 0 0 0 0 0 0 0 0 0 0 0 0 0 0 0 0 0 0 0 0 0 0 0 0 0 0 0 0 0 0 0 0 0 0 0 0 0 0 0 0 0 0 0 0 0 0 0 0 0 0 0 0 0 0 0 0 0 0 0 0 0 0
  | | | | |     - Tag 0x1201 (384 bytes, int16u[192]):
  | | | | |         3e9a: 00 00 00 00 00 00 00 00 00 00 00 00 00 00 00 00 [................]
  | | | | |         3eaa: 00 00 00 00 00 00 00 00 00 00 00 00 00 00 00 00 [................]
  | | | | |         3eba: 00 00 00 00 00 00 00 00 00 00 00 00 00 00 00 00 [................]
  | | | | |         3eca: 00 00 00 00 00 00 00 00 00 00 00 00 00 00 00 00 [................]
  | | | | |         3eda: 00 00 00 00 00 00 00 00 00 00 00 00 00 00 00 00 [................]
  | | | | |         3eea: 00 00 00 00 00 00 00 00 00 00 00 00 00 00 00 00 [................]
  | | | | |         3efa: 00 00 00 00 00 00 00 00 00 00 00 00 00 00 00 00 [................]
  | | | | |         3f0a: 00 00 00 00 00 00 00 00 00 00 00 00 00 00 00 00 [................]
  | | | | |         3f1a: 00 00 00 00 00 00 00 00 00 00 00 00 00 00 00 00 [................]
  | | | | |         3f2a: 00 00 00 00 00 00 00 00 00 00 00 00 00 00 00 00 [................]
  | | | | |         3f3a: 00 00 00 00 00 00 00 00 00 00 00 00 00 00 00 00 [................]
  | | | | |         3f4a: 00 00 00 00 00 00 00 00 00 00 00 00 00 00 00 00 [................]
  | | | | |         3f5a: 00 00 00 00 00 00 00 00 00 00 00 00 00 00 00 00 [................]
  | | | | |         3f6a: 00 00 00 00 00 00 00 00 00 00 00 00 00 00 00 00 [................]
  | | | | |         3f7a: 00 00 00 00 00 00 00 00 00 00 00 00 00 00 00 00 [................]
  | | | | |         3f8a: 00 00 00 00 00 00 00 00 00 00 00 00 00 00 00 00 [................]
  | | | | |         3f9a: 00 00 00 00 00 00 00 00 00 00 00 00 00 00 00 00 [................]
  | | | | |         3faa: 00 00 00 00 00 00 00 00 00 00 00 00 00 00 00 00 [................]
  | | | | |         3fba: 00 00 00 00 00 00 00 00 00 00 00 00 00 00 00 00 [................]
  | | | | |         3fca: 00 00 00 00 00 00 00 00 00 00 00 00 00 00 00 00 [................]
  | | | | |         3fda: 00 00 00 00 00 00 00 00 00 00 00 00 00 00 00 00 [................]
  | | | | |         3fea: 00 00 00 00 00 00 00 00 00 00 00 00 00 00 00 00 [................]
  | | | | |         3ffa: 00 00 00 00 00 00 00 00 00 00 00 00 00 00 00 00 [................]
  | | | | |         400a: 00 00 00 00 00 00 00 00 00 00 00 00 00 00 00 00 [................]
  | | | | | 178) MaxFaces = 8 8 0
  | | | | |     - Tag 0x1202 (12 bytes, int32u[3]):
  | | | | |         401a: 08 00 00 00 08 00 00 00 00 00 00 00             [............]
  | | | | | 179) FaceDetectFrameSize = 0 0 0 0 0 0
  | | | | |     - Tag 0x1203 (12 bytes, int16u[6]):
  | | | | |         4026: 00 00 00 00 00 00 00 00 00 00 00 00             [............]
  | | | | | 180) Olympus_ImageProcessing_0x1204 = 2 0
  | | | | |     - Tag 0x1204 (4 bytes, int16s[2]):
  | | | | |         2ac0: 02 00 00 00                                     [....]
  | | | | | 181) Olympus_ImageProcessing_0x1205 = 1
  | | | | |     - Tag 0x1205 (2 bytes, int16s[1]):
  | | | | |         2acc: 01 00                                           [..]
  | | | | | 182) Olympus_ImageProcessing_0x1206 = 2 120 0 200 0
  | | | | |     - Tag 0x1206 (10 bytes, int16s[5]):
  | | | | |         4038: 02 00 78 00 00 00 c8 00 00 00                   [..x.......]
  | | | | | 183) FaceDetectFrameCrop = 0 0 0 0 0 0 0 0 0 0 0 0
  | | | | |     - Tag 0x1207 (24 bytes, int16s[12]):
  | | | | |         4042: 00 00 00 00 00 00 00 00 00 00 00 00 00 00 00 00 [................]
  | | | | |         4052: 00 00 00 00 00 00 00 00                         [........]
  | | | | | 184) Olympus_ImageProcessing_0x1208 = 0 0 0 0 0 0 0 0
  | | | | |     - Tag 0x1208 (16 bytes, int16s[8]):
  | | | | |         405a: 00 00 00 00 00 00 00 00 00 00 00 00 00 00 00 00 [................]
  | | | | | 185) Olympus_ImageProcessing_0x1209 = 0
  | | | | |     - Tag 0x1209 (1 bytes, int8u[1]):
  | | | | |         2afc: 00                                              [.]
  | | | | | 186) Olympus_ImageProcessing_0x120a = 0 0
  | | | | |     - Tag 0x120a (4 bytes, int16u[2]):
  | | | | |         2b08: 00 00 00 00                                     [....]
  | | | | | 187) Olympus_ImageProcessing_0x120b = 0
  | | | | |     - Tag 0x120b (2 bytes, int16s[1]):
  | | | | |         2b14: 00 00                                           [..]
  | | | | | 188) Olympus_ImageProcessing_0x1300 = 0 0 0 0
  | | | | |     - Tag 0x1300 (8 bytes, int16s[4]):
  | | | | |         4072: 00 00 00 00 00 00 00 00                         [........]
  | | | | | 189) Olympus_ImageProcessing_0x1301 = 10 0
  | | | | |     - Tag 0x1301 (4 bytes, int16u[2]):
  | | | | |         2b2c: 0a 00 00 00                                     [....]
  | | | | | 190) Olympus_ImageProcessing_0x1302 = 2254 0
  | | | | |     - Tag 0x1302 (4 bytes, int16s[2]):
  | | | | |         2b38: ce 08 00 00                                     [....]
  | | | | | 191) Olympus_ImageProcessing_0x1303 = 2102 0
  | | | | |     - Tag 0x1303 (4 bytes, int16s[2]):
  | | | | |         2b44: 36 08 00 00                                     [6...]
  | | | | | 192) Olympus_ImageProcessing_0x1304 = 2097 0
  | | | | |     - Tag 0x1304 (4 bytes, int16s[2]):
  | | | | |         2b50: 31 08 00 00                                     [1...]
  | | | | | 193) Olympus_ImageProcessing_0x1305 = 30 40 0 0
  | | | | |     - Tag 0x1305 (8 bytes, int16u[4]):
  | | | | |         408a: 1e 00 28 00 00 00 00 00                         [..(.....]
  | | | | | 194) CameraTemperature = 0
  | | | | |     - Tag 0x1306 (2 bytes, int16u[1] read as int16s[1]):
  | | | | |         2b68: 00 00                                           [..]
  | | | | | 195) Olympus_ImageProcessing_0x1307 = 0
  | | | | |     - Tag 0x1307 (2 bytes, int16u[1]):
  | | | | |         2b74: 00 00                                           [..]
  | | | | | 196) Olympus_ImageProcessing_0x1308 = 2525
  | | | | |     - Tag 0x1308 (2 bytes, int16s[1]):
  | | | | |         2b80: dd 09                                           [..]
  | | | | | 197) Olympus_ImageProcessing_0x1400 = 0 0 0
  | | | | |     - Tag 0x1400 (6 bytes, int16s[3]):
  | | | | |         40e0: 00 00 00 00 00 00                               [......]
  | | | | | 198) Olympus_ImageProcessing_0x1401 = 30 35 30 35 30 35 10 60 10 60
  | | | | |     - Tag 0x1401 (20 bytes, int16u[10]):
  | | | | |         4098: 1e 00 23 00 1e 00 23 00 1e 00 23 00 0a 00 3c 00 [..#...#...#...<.]
  | | | | |         40a8: 0a 00 3c 00                                     [..<.]
  | | | | | 199) Olympus_ImageProcessing_0x1402 = 60 60 60 60 60 60 0 85 0 85
  | | | | |     - Tag 0x1402 (20 bytes, int16s[10]):
  | | | | |         40ac: 3c 00 3c 00 3c 00 3c 00 3c 00 3c 00 00 00 55 00 [<.<.<.<.<.<...U.]
  | | | | |         40bc: 00 00 55 00                                     [..U.]
  | | | | | 200) Olympus_ImageProcessing_0x1403 = 60 60 60 60 60 60 60 60 60 60
  | | | | |     - Tag 0x1403 (20 bytes, int16u[10]):
  | | | | |         40c0: 3c 00 3c 00 3c 00 3c 00 3c 00 3c 00 3c 00 3c 00 [<.<.<.<.<.<.<.<.]
  | | | | |         40d0: 3c 00 3c 00                                     [<.<.]
  | | | | | 201) Olympus_ImageProcessing_0x1404 = 50 50
  | | | | |     - Tag 0x1404 (4 bytes, int16u[2]):
  | | | | |         2bbc: 32 00 32 00                                     [2.2.]
  | | | | | 202) Olympus_ImageProcessing_0x1405 = 50 50
  | | | | |     - Tag 0x1405 (4 bytes, int16u[2]):
  | | | | |         2bc8: 32 00 32 00                                     [2.2.]
  | | | | | 203) Olympus_ImageProcessing_0x1406 = 0 0
  | | | | |     - Tag 0x1406 (4 bytes, int16u[2]):
  | | | | |         2bd4: 00 00 00 00                                     [....]
  | | | | | 204) Olympus_ImageProcessing_0x1407 = 0 0
  | | | | |     - Tag 0x1407 (4 bytes, int16u[2]):
  | | | | |         2be0: 00 00 00 00                                     [....]
  | | | | | 205) Olympus_ImageProcessing_0x1408 = -7 6 -7 7 -7 7
  | | | | |     - Tag 0x1408 (12 bytes, int16s[6]):
  | | | | |         40e6: f9 ff 06 00 f9 ff 07 00 f9 ff 07 00             [............]
  | | | | | 206) Olympus_ImageProcessing_0x1409 = 1008 2032 3056 4096 5120 6144 7168 520 512 512 504 512 512 512 512
  | | | | |     - Tag 0x1409 (30 bytes, int16u[15]):
  | | | | |         40f2: f0 03 f0 07 f0 0b 00 10 00 14 00 18 00 1c 08 02 [................]
  | | | | |         4102: 00 02 00 02 f8 01 00 02 00 02 00 02 00 02       [..............]
  | | | | | 207) Olympus_ImageProcessing_0x1500 = 12 12 12
  | | | | |     - Tag 0x1500 (3 bytes, int8u[3]):
  | | | | |         2c04: 0c 0c 0c                                        [...]
  | | | | | 208) Olympus_ImageProcessing_0x1501 = 0 0 0
  | | | | |     - Tag 0x1501 (3 bytes, int8u[3]):
  | | | | |         2c10: 00 00 00                                        [...]
  | | | | | 209) Olympus_ImageProcessing_0x1502 = 19
  | | | | |     - Tag 0x1502 (1 bytes, int8u[1]):
  | | | | |         2c1c: 13                                              [.]
  | | | | | 210) Olympus_ImageProcessing_0x1503 = 197 132 19 197 132 19 197 132 19 197 132 19
  | | | | |     - Tag 0x1503 (24 bytes, int16s[12]):
  | | | | |         4118: c5 00 84 00 13 00 c5 00 84 00 13 00 c5 00 84 00 [................]
  | | | | |         4128: 13 00 c5 00 84 00 13 00                         [........]
  | | | | | 211) Olympus_ImageProcessing_0x1504 = 0 0 0 0
  | | | | |     - Tag 0x1504 (4 bytes, int8u[4]):
  | | | | |         2c34: 00 00 00 00                                     [....]
  | | | | | 212) Olympus_ImageProcessing_0x1505 = 247 247 247 247
  | | | | |     - Tag 0x1505 (8 bytes, int16s[4]):
  | | | | |         4134: f7 00 f7 00 f7 00 f7 00                         [........]
  | | | | | 213) Olympus_ImageProcessing_0x1506 = 0 0 0 0 0 0 0 0 0 0 0 0
  | | | | |     - Tag 0x1506 (24 bytes, int16u[12]):
  | | | | |         413c: 00 00 00 00 00 00 00 00 00 00 00 00 00 00 00 00 [................]
  | | | | |         414c: 00 00 00 00 00 00 00 00                         [........]
  | | | | | 214) Olympus_ImageProcessing_0x1507 = 0
  | | | | |     - Tag 0x1507 (2 bytes, int16u[1]):
  | | | | |         2c58: 00 00                                           [..]
  | | | | | 215) Olympus_ImageProcessing_0x1508 = 0 0 0
  | | | | |     - Tag 0x1508 (6 bytes, int16s[3]):
  | | | | |         4156: 00 00 00 00 00 00                               [......]
  | | | | | 216) Olympus_ImageProcessing_0x1509 = 0
  | | | | |     - Tag 0x1509 (2 bytes, int16u[1]):
  | | | | |         2c70: 00 00                                           [..]
  | | | | | 217) Olympus_ImageProcessing_0x150a = 0 0 0 0.9912109375
  | | | | |     - Tag 0x150a (16 bytes, float[4]):
  | | | | |         415e: 00 00 00 00 00 00 00 00 00 00 00 00 00 c0 7d 3f [..............}?]
  | | | | | 218) Olympus_ImageProcessing_0x150b = 0
  | | | | |     - Tag 0x150b (1 bytes, int8u[1]):
  | | | | |         2c88: 00                                              [.]
  | | | | 7)  FocusInfoIFD (SubDirectory) -->
  | | | |     - Tag 0x2050 (4 bytes, ifd[1]):
  | | | |         1e24: d6 0e 00 00                                     [....]
  | | | | + [MakerNotes directory with 81 entries, Little-endian]
  | | | | | 0)  FocusInfoVersion = 0100
  | | | | |     - Tag 0x0000 (4 bytes, undef[4]):
  | | | | |         2c9a: 30 31 30 30                                     [0100]
  | | | | | 1)  Olympus_FocusInfo_0x0200 = 2406 2406
  | | | | |     - Tag 0x0200 (4 bytes, int16s[2]):
  | | | | |         2ca6: 66 09 66 09                                     [f.f.]
  | | | | | 2)  Olympus_FocusInfo_0x0201 = 1280 1280 1280
  | | | | |     - Tag 0x0201 (6 bytes, int16s[3]):
  | | | | |         417c: 00 05 00 05 00 05                               [......]
  | | | | | 3)  Olympus_FocusInfo_0x0202 = 1004 1004
  | | | | |     - Tag 0x0202 (4 bytes, int16s[2]):
  | | | | |         2cbe: ec 03 ec 03                                     [....]
  | | | | | 4)  Olympus_FocusInfo_0x0203 = 2130 0
  | | | | |     - Tag 0x0203 (4 bytes, int16s[2]):
  | | | | |         2cca: 52 08 00 00                                     [R...]
  | | | | | 5)  Olympus_FocusInfo_0x0204 = 2102 2153 17 0 0 1 255 255 255 255 255 255 255 255 255 255 255 255 255 255 255 255 63 254 255 248 255 227 255 143 255 255 255 255 255 255 255 255 255 255 255 255 255 255 255 255 15 0 0 0 0 2161 2437 1280 1004 0 1004 777 2161 11 2472 2092 1004 777 2130 2406 1280 1004 0 0 0 0 0 0 0 0 0 0 0 0 0 0 0
  | | | | |     - Tag 0x0204 (166 bytes, int16s[83]):
  | | | | |         418a: 36 08 69 08 11 00 00 00 00 00 01 00 ff 00 ff 00 [6.i.............]
  | | | | |         419a: ff 00 ff 00 ff 00 ff 00 ff 00 ff 00 ff 00 ff 00 [................]
  | | | | |         41aa: ff 00 ff 00 ff 00 ff 00 ff 00 ff 00 3f 00 fe 00 [............?...]
  | | | | |         41ba: ff 00 f8 00 ff 00 e3 00 ff 00 8f 00 ff 00 ff 00 [................]
  | | | | |         41ca: ff 00 ff 00 ff 00 ff 00 ff 00 ff 00 ff 00 ff 00 [................]
  | | | | |         41da: ff 00 ff 00 ff 00 ff 00 ff 00 ff 00 0f 00 00 00 [................]
  | | | | |         41ea: 00 00 00 00 00 00 71 08 85 09 00 05 ec 03 00 00 [......q.........]
  | | | | |         41fa: ec 03 09 03 71 08 0b 00 a8 09 2c 08 ec 03 09 03 [....q.....,.....]
  | | | | |         420a: 52 08 66 09 00 05 ec 03 00 00 00 00 00 00 00 00 [R.f.............]
  | | | | |         421a: 00 00 00 00 00 00 00 00 00 00 00 00 00 00 00 00 [................]
  | | | | |         422a: 00 00 00 00 00 00                               [......]
  | | | | | 6)  Olympus_FocusInfo_0x0205 = 0
  | | | | |     - Tag 0x0205 (2 bytes, int16s[1]):
  | | | | |         2ce2: 00 00                                           [..]
  | | | | | 7)  Olympus_FocusInfo_0x0206 = 0
  | | | | |     - Tag 0x0206 (2 bytes, int16s[1]):
  | | | | |         2cee: 00 00                                           [..]
  | | | | | 8)  Olympus_FocusInfo_0x0207 = 0
  | | | | |     - Tag 0x0207 (2 bytes, int16u[1]):
  | | | | |         2cfa: 00 00                                           [..]
  | | | | | 9)  AutoFocus = 0
  | | | | |     - Tag 0x0209 (2 bytes, int16u[1]):
  | | | | |         2d06: 00 00                                           [..]
  | | | | | 10) Olympus_FocusInfo_0x020a = 0
  | | | | |     - Tag 0x020a (2 bytes, int16u[1]):
  | | | | |         2d12: 00 00                                           [..]
  | | | | | 11) Olympus_FocusInfo_0x020b = 256
  | | | | |     - Tag 0x020b (2 bytes, int16u[1]):
  | | | | |         2d1e: 00 01                                           [..]
  | | | | | 12) Olympus_FocusInfo_0x020c = 0 0
  | | | | |     - Tag 0x020c (4 bytes, int16s[2]):
  | | | | |         2d2a: 00 00 00 00                                     [....]
  | | | | | 13) Olympus_FocusInfo_0x020d = 0
  | | | | |     - Tag 0x020d (4 bytes, int32u[1]):
  | | | | |         2d36: 00 00 00 00                                     [....]
  | | | | | 14) Olympus_FocusInfo_0x020e = 0 0 0 0 0
  | | | | |     - Tag 0x020e (20 bytes, int32u[5]):
  | | | | |         423a: 00 00 00 00 00 00 00 00 00 00 00 00 00 00 00 00 [................]
  | | | | |         424a: 00 00 00 00                                     [....]
  | | | | | 15) Olympus_FocusInfo_0x020f = 0 0 157680896 139591680 65798147
  | | | | |     - Tag 0x020f (20 bytes, int32u[5]):
  | | | | |         424e: 00 00 00 00 00 00 00 00 00 05 66 09 00 00 52 08 [..........f...R.]
  | | | | |         425e: 03 00 ec 03                                     [....]
  | | | | | 16) SceneDetect = 0
  | | | | |     - Tag 0x0210 (2 bytes, int16u[1]):
  | | | | |         2d5a: 00 00                                           [..]
  | | | | | 17) SceneArea = 0 0 0 0 0 0 0 67112976
  | | | | |     - Tag 0x0211 (32 bytes, int32u[8]):
  | | | | |         4266: 00 00 00 00 00 00 00 00 00 00 00 00 00 00 00 00 [................]
  | | | | |         4276: 00 00 00 00 00 00 00 00 00 00 00 00 10 10 00 04 [................]
  | | | | | 18) SceneDetectData = 0 0 0 0 0 0 0 0 0 0 0 0 0 0 0 0 0 0 0 0 0 0 0 0 0 0 0 0 0 0 0 0 0 0 0 0 0 0 0 0 0 0 0 0 0 0 0 0 0 0 0 0 0 0 0 0 0 0 0 0 0 0 0 0 0 0 0 0 0 0 0 0 0 0 0 0 0 0 0 0 0 0 0 0 0 0 0 0 0 0 0 0 0 0 0 0 0 0 0 0 0 0 0 0 0 0 0 0 0 0 0 0 0 0 0 0 0 0 0 0 0 0 0 0 0 0 0 0 0 0 0 0 0 0 0 0 0 0 0 0 0 0 0 0 0 0 0 0 0 0 0 0 0 0 0 0 0 0 0 0 0 0 0 0 0 0 0 0 0 0 0 0 0 0 0 0 0 0 0 0 0 0 0 0 0 0 0 0 0 0 0 0 0 0 0 0 0 0 0 0 0 0 0 0 0 0 0 0 0 0 0 0 0 0 0 0 0 0 0 0 0 0 0 0 0 0 0 0 0 0 0 0 0 0 0 0 0 0 0 0 0 0 0 0 0 0 0 0 0 0 0 0 0 0 0 0 0 0 0 0 0 0 0 0 0 0 0 0 0 0 0 0 0 0 0 0 0 0 0 0 0 0 0 0 0 0 0 0 0 0 0 0 0 0 0 0 0 0 0 0 0 0 0 0 0 0 0 0 0 0 0 0 0 0 0 0 0 0 0 0 0 0 0 0 0 0 0 0 0 0 0 0 0 0 0 0 0 0 0 0 0 0 0 0 0 0 0 0 0 0 0 0 0 0 0 0 0 0 0 0 0 0 0 0 0 0 0 0 0 0 0 0 0 0 0 0 0 0 0 0 0 0 0 0 0 0 0 0 0 0 0 0 0 0 0 0 0 0 0 0 0 0 0 0 0 0 0 0 0 0 0 0 0 0 0 0 0 0 0 0 0 0 0 0 0 0 0 0 0 0 0 0 0 0 0 0 0 0 0 0 0 0 0 0 0 0 0 0 0 0 0 0 0 0 0 0 0 0 0 0 0 0 0 0 0 0 0 0 0 0 0 0 0 0 0 0 0 0 0 0 0 0 0 0 0 0 0 0 0 0 0 0 0 0 0 0 0 0 0 0 0 0 0 0 0 0 0 0 0 0 0 0 0 0 16 0 0 0 0 0 0 0 0 0 0 0 0 0 0 0 0 0 0 0 0 0 0 0 0 0 0 0 0 0 0 0 0 0 0 0 0 0 0 0 0 0 0 0 173214109 165284291 171707080 170396203 169478696 169937426 168954375 169478692 170396196 172165426 170592747 170134045 169478689 168692250 168495623 168954371 168233498 169937444 168692181 168692223 168954382 169216555 168233508 166922739 169675259 168495649 169216541 169216397 168495619 168495611 165808639 167709171 168954371 171969053 170592818 171313747 168495578 167447039 164104648 166398434 167971319 179309151 157616673 163776755 177015310 160238050 158796162 148769091 171051553 170396243 175901297 143788450 159844150 175901163 143460794 134154300 135399575 161286467 166136259 164694481 156043624 157223215 160565611 124061699 131729324 160237786 164432300 164694481 166922672 160238005 155781506 156633433 124454736 146737109 157812790 178391518 169478407 124848424 157026396 120522642 150407435 123471676 137496439 120980983 146999426 146081905 101582931 155387639 111937215 117901202 117376730 120522553 12327[snip]
  | | | | |     - Tag 0x0212 (2880 bytes, int32u[720]):
  | | | | |         4286: 00 00 00 00 00 00 00 00 00 00 00 00 00 00 00 00 [................]
  | | | | |         4296: 00 00 00 00 00 00 00 00 00 00 00 00 00 00 00 00 [................]
  | | | | |         42a6: 00 00 00 00 00 00 00 00 00 00 00 00 00 00 00 00 [................]
  | | | | |         42b6: 00 00 00 00 00 00 00 00 00 00 00 00 00 00 00 00 [................]
  | | | | |         42c6: 00 00 00 00 00 00 00 00 00 00 00 00 00 00 00 00 [................]
  | | | | |         42d6: 00 00 00 00 00 00 00 00 00 00 00 00 00 00 00 00 [................]
  | | | | |         42e6: 00 00 00 00 00 00 00 00 00 00 00 00 00 00 00 00 [................]
  | | | | |         42f6: 00 00 00 00 00 00 00 00 00 00 00 00 00 00 00 00 [................]
  | | | | |         4306: 00 00 00 00 00 00 00 00 00 00 00 00 00 00 00 00 [................]
  | | | | |         4316: 00 00 00 00 00 00 00 00 00 00 00 00 00 00 00 00 [................]
  | | | | |         4326: 00 00 00 00 00 00 00 00 00 00 00 00 00 00 00 00 [................]
  | | | | |         4336: 00 00 00 00 00 00 00 00 00 00 00 00 00 00 00 00 [................]
  | | | | |         4346: 00 00 00 00 00 00 00 00 00 00 00 00 00 00 00 00 [................]
  | | | | |         4356: 00 00 00 00 00 00 00 00 00 00 00 00 00 00 00 00 [................]
  | | | | |         4366: 00 00 00 00 00 00 00 00 00 00 00 00 00 00 00 00 [................]
  | | | | |         4376: 00 00 00 00 00 00 00 00 00 00 00 00 00 00 00 00 [................]
  | | | | |         4386: 00 00 00 00 00 00 00 00 00 00 00 00 00 00 00 00 [................]
  | | | | |         4396: 00 00 00 00 00 00 00 00 00 00 00 00 00 00 00 00 [................]
  | | | | |         43a6: 00 00 00 00 00 00 00 00 00 00 00 00 00 00 00 00 [................]
  | | | | |         43b6: 00 00 00 00 00 00 00 00 00 00 00 00 00 00 00 00 [................]
  | | | | |         43c6: 00 00 00 00 00 00 00 00 00 00 00 00 00 00 00 00 [................]
  | | | | |         43d6: 00 00 00 00 00 00 00 00 00 00 00 00 00 00 00 00 [................]
  | | | | |         43e6: 00 00 00 00 00 00 00 00 00 00 00 00 00 00 00 00 [................]
  | | | | |         43f6: 00 00 00 00 00 00 00 00 00 00 00 00 00 00 00 00 [................]
  | | | | |         4406: 00 00 00 00 00 00 00 00 00 00 00 00 00 00 00 00 [................]
  | | | | |         4416: 00 00 00 00 00 00 00 00 00 00 00 00 00 00 00 00 [................]
  | | | | |         4426: 00 00 00 00 00 00 00 00 00 00 00 00 00 00 00 00 [................]
  | | | | |         4436: 00 00 00 00 00 00 00 00 00 00 00 00 00 00 00 00 [................]
  | | | | |         4446: 00 00 00 00 00 00 00 00 00 00 00 00 00 00 00 00 [................]
  | | | | |         4456: 00 00 00 00 00 00 00 00 00 00 00 00 00 00 00 00 [................]
  | | | | |         4466: 00 00 00 00 00 00 00 00 00 00 00 00 00 00 00 00 [................]
  | | | | |         4476: 00 00 00 00 00 00 00 00 00 00 00 00 00 00 00 00 [................]
  | | | | |         4486: 00 00 00 00 00 00 00 00 00 00 00 00 00 00 00 00 [................]
  | | | | |         4496: 00 00 00 00 00 00 00 00 00 00 00 00 00 00 00 00 [................]
  | | | | |         44a6: 00 00 00 00 00 00 00 00 00 00 00 00 00 00 00 00 [................]
  | | | | |         44b6: 00 00 00 00 00 00 00 00 00 00 00 00 00 00 00 00 [................]
  | | | | |         44c6: 00 00 00 00 00 00 00 00 00 00 00 00 00 00 00 00 [................]
  | | | | |         44d6: 00 00 00 00 00 00 00 00 00 00 00 00 00 00 00 00 [................]
  | | | | |         44e6: 00 00 00 00 00 00 00 00 00 00 00 00 00 00 00 00 [................]
  | | | | |         44f6: 00 00 00 00 00 00 00 00 00 00 00 00 00 00 00 00 [................]
  | | | | |         4506: 00 00 00 00 00 00 00 00 00 00 00 00 00 00 00 00 [................]
  | | | | |         4516: 00 00 00 00 00 00 00 00 00 00 00 00 00 00 00 00 [................]
  | | | | |         4526: 00 00 00 00 00 00 00 00 00 00 00 00 00 00 00 00 [................]
  | | | | |         4536: 00 00 00 00 00 00 00 00 00 00 00 00 00 00 00 00 [................]
  | | | | |         4546: 00 00 00 00 00 00 00 00 00 00 00 00 00 00 00 00 [................]
  | | | | |         4556: 00 00 00 00 00 00 00 00 00 00 00 00 00 00 00 00 [................]
  | | | | |         4566: 00 00 00 00 00 00 00 00 00 00 00 00 00 00 00 00 [................]
  | | | | |         4576: 00 00 00 00 00 00 00 00 00 00 00 00 00 00 00 00 [................]
  | | | | |         4586: 00 00 00 00 00 00 00 00 00 00 00 00 00 00 00 00 [................]
  | | | | |         4596: 00 00 00 00 00 00 00 00 00 00 00 00 00 00 00 00 [................]
  | | | | |         45a6: 00 00 00 00 00 00 00 00 00 00 00 00 00 00 00 00 [................]
  | | | | |         45b6: 00 00 00 00 00 00 00 00 00 00 00 00 00 00 00 00 [................]
  | | | | |         45c6: 00 00 00 00 00 00 00 00 00 00 00 00 00 00 00 00 [................]
  | | | | |         45d6: 00 00 00 00 00 00 00 00 00 00 00 00 00 00 00 00 [................]
  | | | | |         45e6: 00 00 00 00 00 00 00 00 00 00 00 00 00 00 00 00 [................]
  | | | | |         45f6: 00 00 00 00 00 00 00 00 00 00 00 00 00 00 00 00 [................]
  | | | | |         4606: 00 00 00 00 00 00 00 00 00 00 00 00 00 00 00 00 [................]
  | | | | |         4616: 00 00 00 00 00 00 00 00 00 00 00 00 00 00 00 00 [................]
  | | | | |         4626: 00 00 00 00 00 00 00 00 00 00 00 00 00 00 00 00 [................]
  | | | | |         4636: 00 00 00 00 00 00 00 00 00 00 00 00 00 00 00 00 [................]
  | | | | |         4646: 00 00 00 00 00 00 00 00 00 00 00 00 00 00 00 00 [................]
  | | | | |         4656: 00 00 00 00 00 00 00 00 00 00 00 00 00 00 00 00 [................]
  | | | | |         4666: 00 00 00 00 00 00 00 00 00 00 00 00 00 00 00 00 [................]
  | | | | |         4676: 00 00 00 00 00 00 00 00 00 00 00 00 00 00 00 00 [................]
  | | | | |         4686: 00 00 00 00 00 00 00 00 00 00 00 00 00 00 00 00 [................]
  | | | | |         4696: 00 00 00 00 00 00 00 00 00 00 00 00 00 00 00 00 [................]
  | | | | |         46a6: 00 00 00 00 00 00 00 00 00 00 00 00 00 00 00 00 [................]
  | | | | |         46b6: 00 00 00 00 00 00 00 00 00 00 00 00 00 00 00 00 [................]
  | | | | |         46c6: 00 00 00 00 00 00 00 00 00 00 00 00 00 00 00 00 [................]
  | | | | |         46d6: 00 00 00 00 00 00 00 00 00 00 00 00 00 00 00 00 [................]
  | | | | |         46e6: 00 00 00 00 00 00 00 00 00 00 00 00 00 00 00 00 [................]
  | | | | |         46f6: 00 00 00 00 00 00 00 00 00 00 00 00 00 00 00 00 [................]
  | | | | |         4706: 00 00 00 00 00 00 00 00 00 00 00 00 00 00 00 00 [................]
  | | | | |         4716: 00 00 00 00 00 00 00 00 00 00 00 00 00 00 00 00 [................]
  | | | | |         4726: 00 00 00 00 00 00 00 00 00 00 00 00 00 00 00 00 [................]
  | | | | |         4736: 00 00 00 00 00 00 00 00 00 00 00 00 00 00 00 00 [................]
  | | | | |         4746: 00 00 00 00 00 00 00 00 00 00 00 00 00 00 00 00 [................]
  | | | | |         4756: 00 00 00 00 00 00 00 00 00 00 00 00 00 00 00 00 [................]
  | | | | |         4766: 00 00 00 00 00 00 00 00 00 00 00 00 00 00 00 00 [................]
  | | | | |         4776: 00 00 00 00 00 00 00 00 00 00 00 00 00 00 00 00 [................]
  | | | | |         4786: 00 00 00 00 00 00 00 00 00 00 00 00 00 00 00 00 [................]
  | | | | |         4796: 00 00 00 00 00 00 00 00 00 00 00 00 00 00 00 00 [................]
  | | | | |         47a6: 00 00 00 00 00 00 00 00 00 00 00 00 00 00 00 00 [................]
  | | | | |         47b6: 00 00 00 00 00 00 00 00 00 00 00 00 00 00 00 00 [................]
  | | | | |         47c6: 00 00 00 00 00 00 00 00 00 00 00 00 00 00 00 00 [................]
  | | | | |         47d6: 00 00 00 00 00 00 00 00 00 00 00 00 00 00 00 00 [................]
  | | | | |         47e6: 00 00 00 00 00 00 00 00 00 00 00 00 00 00 00 00 [................]
  | | | | |         47f6: 00 00 00 00 00 00 00 00 00 00 00 00 00 00 00 00 [................]
  | | | | |         4806: 00 00 00 00 00 00 00 00 00 00 00 00 00 00 00 00 [................]
  | | | | |         4816: 00 00 00 00 00 00 00 00 00 00 00 00 00 00 00 00 [................]
  | | | | |         4826: 00 00 00 00 00 00 00 00 00 00 00 00 00 00 00 00 [................]
  | | | | |         4836: 00 00 00 00 00 00 00 00 00 00 00 00 00 00 00 00 [................]
  | | | | |         4846: 00 00 00 00 00 00 00 00 00 00 00 00 00 00 00 00 [................]
  | | | | |         4856: 00 00 00 00 00 00 00 00 00 00 00 00 00 00 00 00 [................]
  | | | | |         4866: 00 00 00 00 00 00 00 00 00 00 00 00 00 00 00 00 [................]
  | | | | |         4876: 00 00 00 00 00 00 00 00 00 00 00 00 00 00 00 00 [................]
  | | | | |         4886: 00 00 00 00 00 00 00 00 00 00 00 00 00 00 00 00 [................]
  | | | | |         4896: 00 00 00 00 00 00 00 00 00 00 00 00 00 00 00 00 [................]
  | | | | |         48a6: 00 00 00 00 00 00 00 00 00 00 00 00 00 00 00 00 [................]
  | | | | |         48b6: 00 00 00 00 00 00 00 00 00 00 00 00 00 00 00 00 [................]
  | | | | |         48c6: 00 00 00 00 00 00 00 00 00 00 00 00 00 00 00 00 [................]
  | | | | |         48d6: 00 00 00 00 00 00 00 00 00 00 00 00 00 00 00 00 [................]
  | | | | |         48e6: 00 00 00 00 00 00 00 00 00 00 00 00 00 00 00 00 [................]
  | | | | |         48f6: 00 00 00 00 00 00 00 00 00 00 00 00 00 00 00 00 [................]
  | | | | |         4906: 00 00 00 00 00 00 00 00 00 00 00 00 00 00 00 00 [................]
  | | | | |         4916: 00 00 00 00 00 00 00 00 00 00 00 00 00 00 00 00 [................]
  | | | | |         4926: 00 00 00 00 00 00 00 00 00 00 00 00 00 00 00 00 [................]
  | | | | |         4936: 00 00 00 00 00 00 00 00 00 00 00 00 00 00 00 00 [................]
  | | | | |         4946: 00 00 00 00 00 00 00 00 00 00 00 00 00 00 00 00 [................]
  | | | | |         4956: 00 00 00 00 00 00 00 00 00 00 00 00 00 00 00 00 [................]
  | | | | |         4966: 00 00 00 00 00 00 00 00 00 00 00 00 00 00 00 00 [................]
  | | | | |         4976: 00 00 00 00 00 00 00 00 00 00 00 00 00 00 00 00 [................]
  | | | | |         4986: 00 00 00 00 00 00 00 00 00 00 00 00 00 00 00 00 [................]
  | | | | |         4996: 00 00 00 00 00 00 00 00 00 00 00 00 00 00 00 00 [................]
  | | | | |         49a6: 00 00 00 00 00 00 00 00 00 00 00 00 00 00 00 00 [................]
  | | | | |         49b6: 00 00 00 00 00 00 00 00 00 00 00 00 00 00 00 00 [................]
  | | | | |         49c6: 00 00 00 00 00 00 00 00 00 00 00 00 00 00 00 00 [................]
  | | | | |         49d6: 00 00 00 00 00 00 00 00 00 00 00 00 00 00 00 00 [................]
  | | | | |         49e6: 00 00 00 00 00 00 00 00 00 00 00 00 00 00 00 00 [................]
  | | | | |         49f6: 00 00 00 00 00 00 00 00 00 00 00 00 00 00 00 00 [................]
  | | | | |         4a06: 00 00 00 00 00 00 00 00 00 00 00 00 00 00 00 00 [................]
  | | | | |         4a16: 00 00 00 00 00 00 00 00 00 00 00 00 00 00 00 00 [................]
  | | | | |         4a26: 00 00 00 00 00 00 00 00 00 00 00 00 00 00 00 00 [................]
  | | | | |         4a36: 00 00 00 00 00 00 00 00 00 00 00 00 00 00 00 00 [................]
  | | | | |         4a46: 00 00 00 00 00 00 00 00 00 00 00 00 00 00 00 00 [................]
  | | | | |         4a56: 00 00 00 00 00 00 00 00 00 00 00 00 00 00 00 00 [................]
  | | | | |         4a66: 00 00 00 00 00 00 00 00 00 00 00 00 00 00 00 00 [................]
  | | | | |         [snip 848 bytes]
  | | | | | 19) Olympus_FocusInfo_0x0213 = 0
  | | | | |     - Tag 0x0213 (2 bytes, int16u[1]):
  | | | | |         2d7e: 00 00                                           [..]
  | | | | | 20) Olympus_FocusInfo_0x0214 = 256
  | | | | |     - Tag 0x0214 (2 bytes, int16u[1]):
  | | | | |         2d8a: 00 01                                           [..]
  | | | | | 21) Olympus_FocusInfo_0x0215 = 0
  | | | | |     - Tag 0x0215 (2 bytes, int16u[1]):
  | | | | |         2d96: 00 00                                           [..]
  | | | | | 22) Olympus_FocusInfo_0x0219 = 0 0 0 0
  | | | | |     - Tag 0x0219 (8 bytes, int16s[4]):
  | | | | |         4de0: 00 00 00 00 00 00 00 00                         [........]
  | | | | | 23) Olympus_FocusInfo_0x021a = 743 714 608 475
  | | | | |     - Tag 0x021a (8 bytes, int16s[4]):
  | | | | |         4de8: e7 02 ca 02 60 02 db 01                         [....`...]
  | | | | | 24) Olympus_FocusInfo_0x021b = 728 661 541
  | | | | |     - Tag 0x021b (6 bytes, int16s[3]):
  | | | | |         4df0: d8 02 95 02 1d 02                               [......]
  | | | | | 25) ZoomStepCount = 12
  | | | | |     - Tag 0x0300 (2 bytes, int16u[1]):
  | | | | |         2dc6: 0c 00                                           [..]
  | | | | | 26) FocusStepCount = 1158
  | | | | |     - Tag 0x0301 (2 bytes, int16u[1]):
  | | | | |         2dd2: 86 04                                           [..]
  | | | | | 27) Olympus_FocusInfo_0x0302 = 0
  | | | | |     - Tag 0x0302 (2 bytes, int16u[1]):
  | | | | |         2dde: 00 00                                           [..]
  | | | | | 28) FocusStepInfinity = 1154
  | | | | |     - Tag 0x0303 (2 bytes, int16u[1]):
  | | | | |         2dea: 82 04                                           [..]
  | | | | | 29) FocusStepNear = 1309
  | | | | |     - Tag 0x0304 (2 bytes, int16u[1]):
  | | | | |         2df6: 1d 05                                           [..]
  | | | | | 30) FocusDistance = 100350 10
  | | | | |     - Tag 0x0305 (8 bytes, rational64u[1] read as int32u[2]):
  | | | | |         4e02: fe 87 01 00 0a 00 00 00                         [........]
  | | | | | 31) Olympus_FocusInfo_0x0307 = 0
  | | | | |     - Tag 0x0307 (2 bytes, int16u[1]):
  | | | | |         2e0e: 00 00                                           [..]
  | | | | | 32) AFPoint = 0
  | | | | |     - Tag 0x0308 (2 bytes, int16u[1]):
  | | | | |         2e1a: 00 00                                           [..]
  | | | | | 33) Olympus_FocusInfo_0x0309 = 0
  | | | | |     - Tag 0x0309 (2 bytes, int16u[1]):
  | | | | |         2e26: 00 00                                           [..]
  | | | | | 34) Olympus_FocusInfo_0x030a = 0 0 0 0 0 0 0 0 0 0 0 0 0 0 0 0 0 0 0 0
  | | | | |     - Tag 0x030a (40 bytes, int16s[20]):
  | | | | |         4e46: 00 00 00 00 00 00 00 00 00 00 00 00 00 00 00 00 [................]
  | | | | |         4e56: 00 00 00 00 00 00 00 00 00 00 00 00 00 00 00 00 [................]
  | | | | |         4e66: 00 00 00 00 00 00 00 00                         [........]
  | | | | | 35) Olympus_FocusInfo_0x030b = 0
  | | | | |     - Tag 0x030b (2 bytes, int16u[1]):
  | | | | |         2e3e: 00 00                                           [..]
  | | | | | 36) Olympus_FocusInfo_0x030c = 0 0
  | | | | |     - Tag 0x030c (4 bytes, int16u[2]):
  | | | | |         2e4a: 00 00 00 00                                     [....]
  | | | | | 37) Olympus_FocusInfo_0x030d = 0 0 0 0 0 0 0 0 0 0 0 0 0 0 0 0 0 0 0 0 0 0
  | | | | |     - Tag 0x030d (44 bytes, int16u[22]):
  | | | | |         4e70: 00 00 00 00 00 00 00 00 00 00 00 00 00 00 00 00 [................]
  | | | | |         4e80: 00 00 00 00 00 00 00 00 00 00 00 00 00 00 00 00 [................]
  | | | | |         4e90: 00 00 00 00 00 00 00 00 00 00 00 00             [............]
  | | | | | 38) Olympus_FocusInfo_0x030e = 0
  | | | | |     - Tag 0x030e (2 bytes, int16u[1]):
  | | | | |         2e62: 00 00                                           [..]
  | | | | | 39) Olympus_FocusInfo_0x030f = 400 0 0 0
  | | | | |     - Tag 0x030f (8 bytes, int16s[4]):
  | | | | |         4e14: 90 01 00 00 00 00 00 00                         [........]
  | | | | | 40) Olympus_FocusInfo_0x0311 = 0
  | | | | |     - Tag 0x0311 (2 bytes, int16u[1]):
  | | | | |         2e7a: 00 00                                           [..]
  | | | | | 41) Olympus_FocusInfo_0x0312 = 51 833
  | | | | |     - Tag 0x0312 (4 bytes, int16u[2]):
  | | | | |         2e86: 33 00 41 03                                     [3.A.]
  | | | | | 42) Olympus_FocusInfo_0x0313 = 1134
  | | | | |     - Tag 0x0313 (2 bytes, int16s[1]):
  | | | | |         2e92: 6e 04                                           [n.]
  | | | | | 43) Olympus_FocusInfo_0x0314 = 9
  | | | | |     - Tag 0x0314 (2 bytes, int16u[1]):
  | | | | |         2e9e: 09 00                                           [..]
  | | | | | 44) Olympus_FocusInfo_0x0315 = 0
  | | | | |     - Tag 0x0315 (2 bytes, int16s[1]):
  | | | | |         2eaa: 00 00                                           [..]
  | | | | | 45) Olympus_FocusInfo_0x0316 = 2350 0 0 0 0 0 0 0 0 0
  | | | | |     - Tag 0x0316 (20 bytes, int16s[10]):
  | | | | |         4e2a: 2e 09 00 00 00 00 00 00 00 00 00 00 00 00 00 00 [................]
  | | | | |         4e3a: 00 00 00 00                                     [....]
  | | | | | 46) Olympus_FocusInfo_0x0318 = 0
  | | | | |     - Tag 0x0318 (2 bytes, int16u[1]):
  | | | | |         2ec2: 00 00                                           [..]
  | | | | | 47) Olympus_FocusInfo_0x0319 = 0
  | | | | |     - Tag 0x0319 (2 bytes, int16u[1]):
  | | | | |         2ece: 00 00                                           [..]
  | | | | | 48) Olympus_FocusInfo_0x031a = 0 0 0 0 0 0 0 0 0 0 0 0 0 0 0 0 0 0 0 0 0 0 0 0 0 0 0 0 0 0 0 0 0 0 0 0 0 0 0 0 0 0 0 0 0 0 0 0 0 0 0 0 0 0 0 0 0 0 0 0 0 0 0 0 0 0 0 0 0 0 0 0 0 0 0 0 0 0 0 0 0 0 0 0
  | | | | |     - Tag 0x031a (168 bytes, int16u[84]):
  | | | | |         4ea2: 00 00 00 00 00 00 00 00 00 00 00 00 00 00 00 00 [................]
  | | | | |         4eb2: 00 00 00 00 00 00 00 00 00 00 00 00 00 00 00 00 [................]
  | | | | |         4ec2: 00 00 00 00 00 00 00 00 00 00 00 00 00 00 00 00 [................]
  | | | | |         4ed2: 00 00 00 00 00 00 00 00 00 00 00 00 00 00 00 00 [................]
  | | | | |         4ee2: 00 00 00 00 00 00 00 00 00 00 00 00 00 00 00 00 [................]
  | | | | |         4ef2: 00 00 00 00 00 00 00 00 00 00 00 00 00 00 00 00 [................]
  | | | | |         4f02: 00 00 00 00 00 00 00 00 00 00 00 00 00 00 00 00 [................]
  | | | | |         4f12: 00 00 00 00 00 00 00 00 00 00 00 00 00 00 00 00 [................]
  | | | | |         4f22: 00 00 00 00 00 00 00 00 00 00 00 00 00 00 00 00 [................]
  | | | | |         4f32: 00 00 00 00 00 00 00 00 00 00 00 00 00 00 00 00 [................]
  | | | | |         4f42: 00 00 00 00 00 00 00 00                         [........]
  | | | | | 49) AFPointDetails = 0
  | | | | |     - Tag 0x031b (2 bytes, int16u[1]):
  | | | | |         2ee6: 00 00                                           [..]
  | | | | | 50) Olympus_FocusInfo_0x031c = 0
  | | | | |     - Tag 0x031c (2 bytes, int16s[1]):
  | | | | |         2ef2: 00 00                                           [..]
  | | | | | 51) Olympus_FocusInfo_0x031d = 1160
  | | | | |     - Tag 0x031d (2 bytes, int16s[1]):
  | | | | |         2efe: 88 04                                           [..]
  | | | | | 52) Olympus_FocusInfo_0x031e = 1160
  | | | | |     - Tag 0x031e (2 bytes, int16s[1]):
  | | | | |         2f0a: 88 04                                           [..]
  | | | | | 53) Olympus_FocusInfo_0x0320 = 0 0 0 0 0 0 0 0 0 0 0 0 0 0 0 0
  | | | | |     - Tag 0x0320 (32 bytes, int16u[16]):
  | | | | |         4f4c: 00 00 00 00 00 00 00 00 00 00 00 00 00 00 00 00 [................]
  | | | | |         4f5c: 00 00 00 00 00 00 00 00 00 00 00 00 00 00 00 00 [................]
  | | | | | 54) Olympus_FocusInfo_0x0321 = 1160
  | | | | |     - Tag 0x0321 (2 bytes, int16s[1]):
  | | | | |         2f22: 88 04                                           [..]
  | | | | | 55) Olympus_FocusInfo_0x0322 = 0
  | | | | |     - Tag 0x0322 (2 bytes, int16s[1]):
  | | | | |         2f2e: 00 00                                           [..]
  | | | | | 56) Olympus_FocusInfo_0x0323 = 0
  | | | | |     - Tag 0x0323 (2 bytes, int16s[1]):
  | | | | |         2f3a: 00 00                                           [..]
  | | | | | 57) Olympus_FocusInfo_0x0324 = 1216
  | | | | |     - Tag 0x0324 (2 bytes, int16s[1]):
  | | | | |         2f46: c0 04                                           [..]
  | | | | | 58) Olympus_FocusInfo_0x0325 = 0 0 0 0 0 0 0 0
  | | | | |     - Tag 0x0325 (16 bytes, int16u[8]):
  | | | | |         4f6c: 00 00 00 00 00 00 00 00 00 00 00 00 00 00 00 00 [................]
  | | | | | 59) Olympus_FocusInfo_0x0326 = 0 0 0 0 0 0 0 0
  | | | | |     - Tag 0x0326 (16 bytes, int16u[8]):
  | | | | |         4f7c: 00 00 00 00 00 00 00 00 00 00 00 00 00 00 00 00 [................]
  | | | | | 60) Olympus_FocusInfo_0x0327 = 0
  | | | | |     - Tag 0x0327 (2 bytes, int16u[1]):
  | | | | |         2f6a: 00 00                                           [..]
  | | | | | 61) AFInfo (SubDirectory) -->
  | | | | |     - Tag 0x0328 (256 bytes, undef[256]):
  | | | | |         4f8c: 00 00 00 00 00 00 00 00 00 00 00 00 00 00 00 00 [................]
  | | | | |         4f9c: 00 00 00 00 00 00 00 00 00 00 00 00 00 00 00 00 [................]
  | | | | |         4fac: 00 00 00 00 00 00 00 00 00 00 00 00 00 00 00 00 [................]
  | | | | |         4fbc: 00 00 00 00 00 00 00 00 00 00 00 00 00 00 00 00 [................]
  | | | | |         4fcc: 00 00 00 00 00 00 00 00 00 00 00 00 00 00 00 00 [................]
  | | | | |         4fdc: 00 00 00 00 00 00 00 00 00 00 00 00 00 00 00 00 [................]
  | | | | |         4fec: 00 00 00 00 00 00 00 00 00 00 00 00 00 00 00 00 [................]
  | | | | |         4ffc: 00 00 00 00 00 00 00 00 00 00 00 00 00 00 00 00 [................]
  | | | | |         500c: 00 00 00 00 00 00 00 00 00 00 00 00 00 00 00 00 [................]
  | | | | |         501c: 00 00 00 00 00 00 00 00 00 00 00 00 00 00 00 00 [................]
  | | | | |         502c: 00 00 00 00 00 00 00 00 00 00 00 00 00 00 00 00 [................]
  | | | | |         503c: 00 00 00 00 00 00 00 00 00 00 00 00 00 00 00 00 [................]
  | | | | |         504c: 00 00 00 00 00 00 00 00 00 00 00 00 00 00 00 00 [................]
  | | | | |         505c: 00 00 00 00 00 00 00 00 00 00 00 00 00 00 00 00 [................]
  | | | | |         506c: 00 00 00 00 00 00 00 00 00 00 00 00 00 00 00 00 [................]
  | | | | |         507c: 00 00 00 00 00 00 00 00 00 00 00 00 00 00 00 00 [................]
  | | | | | + [BinaryData directory, 256 bytes, Little-endian]
  | | | | | 62) Olympus_FocusInfo_0x0402 = 0
  | | | | |     - Tag 0x0402 (2 bytes, int16u[1]):
  | | | | |         2f82: 00 00                                           [..]
  | | | | | 63) Olympus_FocusInfo_0x1200 = 40
  | | | | |     - Tag 0x1200 (2 bytes, int16u[1]):
  | | | | |         2f8e: 28 00                                           [(.]
  | | | | | 64) ExternalFlash = 0 0
  | | | | |     - Tag 0x1201 (4 bytes, int16u[2]):
  | | | | |         2f9a: 00 00 00 00                                     [....]
  | | | | | 65) Olympus_FocusInfo_0x1202 = 0
  | | | | |     - Tag 0x1202 (2 bytes, int16u[1]):
  | | | | |         2fa6: 00 00                                           [..]
  | | | | | 66) ExternalFlashGuideNumber = 0 (0/1)
  | | | | |     - Tag 0x1203 (8 bytes, rational64s[1]):
  | | | | |         50b2: 00 00 00 00 01 00 00 00                         [........]
  | | | | | 67) ExternalFlashBounce = 0
  | | | | |     - Tag 0x1204 (2 bytes, int16u[1]):
  | | | | |         2fbe: 00 00                                           [..]
  | | | | | 68) ExternalFlashZoom = 0 (0/1)
  | | | | |     - Tag 0x1205 (8 bytes, rational64u[1]):
  | | | | |         50be: 00 00 00 00 01 00 00 00                         [........]
  | | | | | 69) Olympus_FocusInfo_0x1206 = 0
  | | | | |     - Tag 0x1206 (2 bytes, int16u[1]):
  | | | | |         2fd6: 00 00                                           [..]
  | | | | | 70) Olympus_FocusInfo_0x1207 = 0
  | | | | |     - Tag 0x1207 (2 bytes, int16u[1]):
  | | | | |         2fe2: 00 00                                           [..]
  | | | | | 71) InternalFlash = 0
  | | | | |     - Tag 0x1208 (2 bytes, int16u[1]):
  | | | | |         2fee: 00 00                                           [..]
  | | | | | 72) ManualFlash = 0 1
  | | | | |     - Tag 0x1209 (4 bytes, int16u[2]):
  | | | | |         2ffa: 00 00 01 00                                     [....]
  | | | | | 73) MacroLED = 0
  | | | | |     - Tag 0x120a (2 bytes, int16u[1]):
  | | | | |         3006: 00 00                                           [..]
  | | | | | 74) SensorTemperature = 0
  | | | | |     - Tag 0x1500 (2 bytes, int16s[1]):
  | | | | |         3012: 00 00                                           [..]
  | | | | | 75) Olympus_FocusInfo_0x1501 = 2 102
  | | | | |     - Tag 0x1501 (8 bytes, int32u[2]):
  | | | | |         50d6: 02 00 00 00 66 00 00 00                         [....f...]
  | | | | | 76) Olympus_FocusInfo_0x1502 = 0
  | | | | |     - Tag 0x1502 (2 bytes, int16u[1]):
  | | | | |         302a: 00 00                                           [..]
  | | | | | 77) Olympus_FocusInfo_0x1600 = .11..;........................
  | | | | |     - Tag 0x1600 (80 bytes, undef[80]):
  | | | | |         50e0: 15 31 31 00 00 e7 01 3b 01 80 01 b1 0c f5 07 88 [.11....;........]
  | | | | |         50f0: 82 a9 00 a1 00 02 02 02 02 a9 00 a1 00 a9 00 a3 [................]
  | | | | |         5100: 00 00 00 00 00 00 00 02 00 03 00 00 01 00 00 00 [................]
  | | | | |         5110: ff ff 00 00 00 00 00 00 00 00 00 00 00 00 00 00 [................]
  | | | | |         5120: 00 00 00 00 00 00 00 00 00 00 00 00 00 00 00 00 [................]
  | | | | | 78) Olympus_FocusInfo_0x1700 = 0 0 0 0
  | | | | |     - Tag 0x1700 (4 bytes, int8u[4]):
  | | | | |         3042: 00 00 00 00                                     [....]
  | | | | | 79) Olympus_FocusInfo_0x1800 = 0
  | | | | |     - Tag 0x1800 (4 bytes, int32u[1]):
  | | | | |         304e: 00 00 00 00                                     [....]
  | | | | | 80) Olympus_FocusInfo_0x1801 = 21314
  | | | | |     - Tag 0x1801 (4 bytes, int32u[1]):
  | | | | |         305a: 42 53 00 00                                     [BS..]
  | 36) CalibrationIlluminant1 = 17
  |     - Tag 0xc65a (2 bytes, int16u[1]):
  |         01c2: 11 00                                           [..]
  | 37) CalibrationIlluminant2 = 21
  |     - Tag 0xc65b (2 bytes, int16u[1]):
  |         01ce: 15 00                                           [..]
  | 38) RawDataUniqueID = Q..oC...!MP.8...
  |     - Tag 0xc65d (16 bytes, int8u[16] read as undef[16]):
  |       169f56: 51 8a a6 6f 43 a2 d6 c6 21 4d 50 fb 38 19 04 87 [Q..oC...!MP.8...]
  | 39) OriginalRawFileName = photo_65.orf
  |     - Tag 0xc68b (13 bytes, string[13]):
  |       169f66: 70 68 6f 74 6f 5f 36 35 2e 6f 72 66 00          [photo_65.orf.]
  | 40) CameraCalibrationSig = com.adobe
  |     - Tag 0xc6f3 (10 bytes, string[10]):
  |       169f74: 63 6f 6d 2e 61 64 6f 62 65 00                   [com.adobe.]
  | 41) ProfileCalibrationSig = com.adobe
  |     - Tag 0xc6f4 (10 bytes, string[10]):
  |       169f7e: 63 6f 6d 2e 61 64 6f 62 65 00                   [com.adobe.]
  | 42) ProfileName = Adobe Standard
  |     - Tag 0xc6f8 (15 bytes, string[15]):
  |       169f88: 41 64 6f 62 65 20 53 74 61 6e 64 61 72 64 00    [Adobe Standard.]
  | 43) ProfileEmbedPolicy = 0
  |     - Tag 0xc6fd (4 bytes, int32u[1]):
  |         0216: 00 00 00 00                                     [....]
  | 44) ProfileCopyright = Copyright 2011 Adobe Systems, Inc.
  |     - Tag 0xc6fe (35 bytes, string[35]):
  |       169f98: 43 6f 70 79 72 69 67 68 74 20 32 30 31 31 20 41 [Copyright 2011 A]
  |       169fa8: 64 6f 62 65 20 53 79 73 74 65 6d 73 2c 20 49 6e [dobe Systems, In]
  |       169fb8: 63 2e 00                                        [c..]
  | 45) ForwardMatrix1 = 0.5755 0.2852 0.1036 0.0103 1.1527 -0.1629 -0.0795 -0.5167 1.4213 (5755/10000 2852/10000 1036/10000 103/10000 11527/10000 -1629/10000 -795/10000 -5167/10000 14213/10000)
  |     - Tag 0xc714 (72 bytes, rational64s[9]):
  |       169fbc: 7b 16 00 00 10 27 00 00 24 0b 00 00 10 27 00 00 [{....'..$....'..]
  |       169fcc: 0c 04 00 00 10 27 00 00 67 00 00 00 10 27 00 00 [.....'..g....'..]
  |       169fdc: 07 2d 00 00 10 27 00 00 a3 f9 ff ff 10 27 00 00 [.-...'.......'..]
  |       169fec: e5 fc ff ff 10 27 00 00 d1 eb ff ff 10 27 00 00 [.....'.......'..]
  |       169ffc: 85 37 00 00 10 27 00 00                         [.7...'..]
  | 46) ForwardMatrix2 = 0.5158 0.5215 -0.073 0.0777 1.3038 -0.3815 -0.0123 -0.2487 1.0861 (5158/10000 5215/10000 -730/10000 777/10000 13038/10000 -3815/10000 -123/10000 -2487/10000 10861/10000)
  |     - Tag 0xc715 (72 bytes, rational64s[9]):
  |       16a004: 26 14 00 00 10 27 00 00 5f 14 00 00 10 27 00 00 [&....'.._....'..]
  |       16a014: 26 fd ff ff 10 27 00 00 09 03 00 00 10 27 00 00 [&....'.......'..]
  |       16a024: ee 32 00 00 10 27 00 00 19 f1 ff ff 10 27 00 00 [.2...'.......'..]
  |       16a034: 85 ff ff ff 10 27 00 00 49 f6 ff ff 10 27 00 00 [.....'..I....'..]
  |       16a044: 6d 2a 00 00 10 27 00 00                         [m*...'..]
  | 47) PreviewApplicationName = Adobe DNG Converter
  |     - Tag 0xc716 (20 bytes, string[20]):
  |       16a04c: 41 64 6f 62 65 20 44 4e 47 20 43 6f 6e 76 65 72 [Adobe DNG Conver]
  |       16a05c: 74 65 72 00                                     [ter.]
  | 48) PreviewApplicationVersion = 15.4
  |     - Tag 0xc717 (5 bytes, string[5]):
  |       16a060: 31 35 2e 34 00                                  [15.4.]
  | 49) PreviewSettingsDigest = +..s,.&2...C...E
  |     - Tag 0xc719 (16 bytes, int8u[16] read as undef[16]):
  |       16a066: 2b a6 d9 73 2c c7 26 32 f4 ef ec 43 db a0 98 45 [+..s,.&2...C...E]
  | 50) PreviewColorSpace = 2
  |     - Tag 0xc71a (4 bytes, int32u[1]):
  |         026a: 02 00 00 00                                     [....]
  | 51) PreviewDateTime = 2023-07-26T06:11:34+02:00
  |     - Tag 0xc71b (26 bytes, string[26]):
  |       16a076: 32 30 32 33 2d 30 37 2d 32 36 54 30 36 3a 31 31 [2023-07-26T06:11]
  |       16a086: 3a 33 34 2b 30 32 3a 30 30 00                   [:34+02:00.]
  | 52) ProfileLookTableDims = 36 8 16
  |     - Tag 0xc725 (12 bytes, int32u[3]):
  |       16a090: 24 00 00 00 08 00 00 00 10 00 00 00             [$...........]
  | Warning = [Minor] Not decoding some large array(s). Ignore minor errors to decode
  | 53) ProfileLookTableData = (large array of 13824 float values)
  |     - Tag 0xc726 (55296 bytes, float[13824]):
  |       16a09c: 00 00 00 00 00 00 80 3f 00 00 80 3f 00 00 00 00 [.......?...?....]
  |       16a0ac: ad ea 60 3f 00 00 80 3f 00 00 00 00 59 92 62 3f [..`?...?....Y.b?]
  |       16a0bc: 00 00 80 3f 00 00 00 00 14 82 64 3f 00 00 80 3f [...?......d?...?]
  |       16a0cc: 00 00 00 00 bd d8 66 3f 00 00 80 3f 00 00 00 00 [......f?...?....]
  |       16a0dc: c0 9d 69 3f 00 00 80 3f 00 00 00 00 83 b3 6e 3f [..i?...?......n?]
  |       16a0ec: 00 00 80 3f 00 00 00 00 00 00 80 3f 00 00 80 3f [...?.......?...?]
  |       16a0fc: 00 00 00 00 00 00 80 3f 00 00 80 3f f0 54 0f bc [.......?...?.T..]
  |       16a10c: ad ea 60 3f 00 00 80 3f b9 7d 1f bd 59 92 62 3f [..`?...?.}..Y.b?]
  |       16a11c: 00 00 80 3f 31 a3 cb bd 14 82 64 3f 00 00 80 3f [...?1.....d?...?]
  |       16a12c: 71 c9 53 be bd d8 66 3f 00 00 80 3f 41 68 df be [q.S...f?...?Ah..]
  |       16a13c: c0 9d 69 3f 00 00 80 3f 82 78 70 bf 83 b3 6e 3f [..i?...?.xp...n?]
  |       16a14c: 00 00 80 3f ff d6 d3 bf 00 00 80 3f 00 00 80 3f [...?.......?...?]
  |       16a15c: 00 00 00 00 00 00 80 3f 00 00 80 3f b3 c1 63 bc [.......?...?..c.]
  |       16a16c: ad ea 60 3f 00 00 80 3f dd 2f 7b bd 59 92 62 3f [..`?...?./{.Y.b?]
  |       16a17c: 00 00 80 3f bd 6d 1e be 14 82 64 3f 00 00 80 3f [...?.m....d?...?]
  |       16a18c: fd cf a1 be bd d8 66 3f 00 00 80 3f cd a4 1f bf [......f?...?....]
  |       16a19c: c0 9d 69 3f 00 00 80 3f 26 fe a2 bf 83 b3 6e 3f [..i?...?&.....n?]
  |       16a1ac: 00 00 80 3f 6d d1 15 c0 00 00 80 3f 00 00 80 3f [...?m......?...?]
  |       16a1bc: 00 00 00 00 00 00 80 3f 00 00 80 3f 70 83 7e bc [.......?...?p.~.]
  |       16a1cc: ad ea 60 3f 00 00 80 3f 65 2d 8b bd 59 92 62 3f [..`?...?e-..Y.b?]
  |       16a1dc: 00 00 80 3f 17 af 2d be 14 82 64 3f 00 00 80 3f [...?..-...d?...?]
  |       16a1ec: b4 d1 ae be bd d8 66 3f 00 00 80 3f 77 64 26 bf [......f?...?wd&.]
  |       16a1fc: c0 9d 69 3f 00 00 80 3f cb 11 a1 bf 83 b3 6e 3f [..i?...?......n?]
  |       16a20c: 00 00 80 3f 91 02 11 c0 00 00 80 3f 00 00 80 3f [...?.......?...?]
  |       16a21c: 00 00 00 00 00 00 80 3f 00 00 80 3f 25 bd 60 bc [.......?...?%.`.]
  |       16a22c: ad ea 60 3f 00 00 80 3f 2c df 73 bd 59 92 62 3f [..`?...?,.s.Y.b?]
  |       16a23c: 00 00 80 3f 91 b4 16 be 14 82 64 3f 00 00 80 3f [...?......d?...?]
  |       16a24c: e1 d6 95 be bd d8 66 3f 00 00 80 3f c7 38 0b bf [......f?...?.8..]
  |       16a25c: c0 9d 69 3f 00 00 80 3f b5 1e 82 bf 83 b3 6e 3f [..i?...?......n?]
  |       16a26c: 00 00 80 3f d7 b5 e4 bf 00 00 80 3f 00 00 80 3f [...?.......?...?]
  |       16a27c: 00 00 00 00 00 00 80 3f 00 00 80 3f 72 8b 0b bc [.......?...?r...]
  |       16a28c: ad ea 60 3f 00 00 80 3f 98 50 16 bd 59 92 62 3f [..`?...?.P..Y.b?]
  |       16a29c: 00 00 80 3f 7c 2c b8 bd 14 82 64 3f 00 00 80 3f [...?|,....d?...?]
  |       16a2ac: ec 31 35 be bd d8 66 3f 00 00 80 3f ce 57 a5 be [.15...f?...?.W..]
  |       16a2bc: c0 9d 69 3f 00 00 80 3f 86 a4 16 bf 83 b3 6e 3f [..i?...?......n?]
  |       16a2cc: 00 00 80 3f cc e6 81 bf 00 00 80 3f 00 00 80 3f [...?.......?...?]
  |       16a2dc: 00 00 00 00 00 00 80 3f 00 00 80 3f 00 00 00 00 [.......?...?....]
  |       16a2ec: ad ea 60 3f 00 00 80 3f 00 00 00 00 59 92 62 3f [..`?...?....Y.b?]
  |       16a2fc: 00 00 80 3f 00 00 00 00 14 82 64 3f 00 00 80 3f [...?......d?...?]
  |       16a30c: 00 00 00 00 bd d8 66 3f 00 00 80 3f 00 00 00 00 [......f?...?....]
  |       16a31c: c0 9d 69 3f 00 00 80 3f 00 00 00 00 83 b3 6e 3f [..i?...?......n?]
  |       16a32c: 00 00 80 3f 00 00 00 00 00 00 80 3f 00 00 80 3f [...?.......?...?]
  |       16a33c: 00 00 00 00 00 00 80 3f 00 00 80 3f c0 fe 38 3e [.......?...?..8>]
  |       16a34c: ad ea 60 3f 00 00 80 3f 00 47 c7 3e 59 92 62 3f [..`?...?.G.>Y.b?]
  |       16a35c: 00 00 80 3f f0 c6 22 3f 14 82 64 3f 00 00 80 3f [...?.."?..d?...?]
  |       16a36c: 40 38 70 3f bd d8 66 3f 00 00 80 3f 98 5d af 3f [@8p?..f?...?.].?]
  |       16a37c: c0 9d 69 3f 00 00 80 3f ec 24 05 40 83 b3 6e 3f [..i?...?.$.@..n?]
  |       16a38c: 00 00 80 3f 2c d2 44 40 00 00 80 3f 00 00 80 3f [...?,.D@...?...?]
  |       16a39c: 00 00 00 00 00 00 80 3f 00 00 80 3f 90 f8 94 3e [.......?...?...>]
  |       16a3ac: ad ea 60 3f 00 00 80 3f 10 a8 21 3f 59 92 62 3f [..`?...?..!?Y.b?]
  |       16a3bc: 00 00 80 3f fc 32 85 3f 14 82 64 3f 00 00 80 3f [...?.2.?..d?...?]
  |       16a3cc: ec a6 c6 3f bd d8 66 3f 00 00 80 3f 0e a9 13 40 [...?..f?...?...@]
  |       16a3dc: c0 9d 69 3f 00 00 80 3f 9e 02 66 40 83 b3 6e 3f [..i?...?..f@..n?]
  |       16a3ec: 00 00 80 3f f0 43 ad 40 00 00 80 3f 00 00 80 3f [...?.C.@...?...?]
  |       16a3fc: 00 00 00 00 00 00 80 3f 00 00 80 3f a0 b6 a8 3e [.......?...?...>]
  |       16a40c: ad ea 60 3f 00 00 80 3f f0 83 38 3f 59 92 62 3f [..`?...?..8?Y.b?]
  |       16a41c: 00 00 80 3f 20 82 99 3f 14 82 64 3f 00 00 80 3f [...? ..?..d?...?]
  |       16a42c: 80 c4 e7 3f bd d8 66 3f 00 00 80 3f 20 7a 30 40 [...?..f?...? z0@]
  |       16a43c: c0 9d 69 3f 00 00 80 3f 06 5c 8e 40 83 b3 6e 3f [..i?...?.\.@..n?]
  |       16a44c: 00 00 80 3f 4f b6 db 40 00 00 80 3f 00 00 80 3f [...?O..@...?...?]
  |       16a45c: 00 00 00 00 00 00 80 3f 00 00 80 3f 60 f9 96 3e [.......?...?`..>]
  |       16a46c: ad ea 60 3f 00 00 80 3f 30 83 26 3f 59 92 62 3f [..`?...?0.&?Y.b?]
  |       16a47c: 00 00 80 3f 7c 06 8c 3f 14 82 64 3f 00 00 80 3f [...?|..?..d?...?]
  |       16a48c: 48 86 d6 3f bd d8 66 3f 00 00 80 3f c8 51 29 40 [H..?..f?...?.Q)@]
  |       16a49c: c0 9d 69 3f 00 00 80 3f 33 0f 90 40 83 b3 6e 3f [..i?...?3..@..n?]
  |       16a4ac: 00 00 80 3f 4a ff e2 40 00 00 80 3f 00 00 80 3f [...?J..@...?...?]
  |       16a4bc: 00 00 00 00 00 00 80 3f 00 00 80 3f e0 06 3e 3e [.......?...?..>>]
  |       16a4cc: ad ea 60 3f 00 00 80 3f 40 73 d3 3e 59 92 62 3f [..`?...?@s.>Y.b?]
  |       16a4dc: 00 00 80 3f c8 fb 33 3f 14 82 64 3f 00 00 80 3f [...?..3?..d?...?]
  |       16a4ec: c4 63 8c 3f bd d8 66 3f 00 00 80 3f 5c f2 ec 3f [.c.?..f?...?\..?]
  |       16a4fc: c0 9d 69 3f 00 00 80 3f 92 89 54 40 83 b3 6e 3f [..i?...?..T@..n?]
  |       16a50c: 00 00 80 3f 1f 7c a0 40 00 00 80 3f 00 00 80 3f [...?.|.@...?...?]
  |       16a51c: 00 00 00 00 00 00 80 3f 00 00 80 3f 00 00 00 00 [.......?...?....]
  |       16a52c: ad ea 60 3f 00 00 80 3f 00 00 00 00 59 92 62 3f [..`?...?....Y.b?]
  |       16a53c: 00 00 80 3f 00 00 00 00 14 82 64 3f 00 00 80 3f [...?......d?...?]
  |       16a54c: 00 00 00 00 bd d8 66 3f 00 00 80 3f 00 00 00 00 [......f?...?....]
  |       16a55c: c0 9d 69 3f 00 00 80 3f 00 00 00 00 83 b3 6e 3f [..i?...?......n?]
  |       16a56c: 00 00 80 3f 00 00 00 00 00 00 80 3f 00 00 80 3f [...?.......?...?]
  |       16a57c: 00 00 00 00 00 00 80 3f 00 00 80 3f 00 05 3e be [.......?...?..>.]
  |       16a58c: ad ea 60 3f 00 00 80 3f 40 73 d3 be 59 92 62 3f [..`?...?@s..Y.b?]
  |       16a59c: 00 00 80 3f 40 fc 33 bf 14 82 64 3f 00 00 80 3f [...?@.3...d?...?]
  |       16a5ac: 00 64 8c bf bd d8 66 3f 00 00 80 3f 20 f2 ec bf [.d....f?...? ...]
  |       16a5bc: c0 9d 69 3f 00 00 80 3f 74 89 54 c0 83 b3 6e 3f [..i?...?t.T...n?]
  |       16a5cc: 00 00 80 3f 10 7c a0 c0 00 00 80 3f 00 00 80 3f [...?.|.....?...?]
  |       16a5dc: 00 00 00 00 00 00 80 3f 00 00 80 3f 80 f7 96 be [.......?...?....]
  |       16a5ec: ad ea 60 3f 00 00 80 3f 40 82 26 bf 59 92 62 3f [..`?...?@.&.Y.b?]
  |       16a5fc: 00 00 80 3f b8 06 8c bf 14 82 64 3f 00 00 80 3f [...?......d?...?]
  |       16a60c: 48 86 d6 bf bd d8 66 3f 00 00 80 3f c8 51 29 c0 [H.....f?...?.Q).]
  |       16a61c: c0 9d 69 3f 00 00 80 3f 24 0f 90 c0 83 b3 6e 3f [..i?...?$.....n?]
  |       16a62c: 00 00 80 3f 4a ff e2 c0 00 00 80 3f 00 00 80 3f [...?J......?...?]
  |       16a63c: 00 00 00 00 00 00 80 3f 00 00 80 3f a0 b6 a8 be [.......?...?....]
  |       16a64c: ad ea 60 3f 00 00 80 3f f0 83 38 bf 59 92 62 3f [..`?...?..8.Y.b?]
  |       16a65c: 00 00 80 3f 20 82 99 bf 14 82 64 3f 00 00 80 3f [...? .....d?...?]
  |       16a66c: 80 c4 e7 bf bd d8 66 3f 00 00 80 3f 20 7a 30 c0 [......f?...? z0.]
  |       16a67c: c0 9d 69 3f 00 00 80 3f 06 5c 8e c0 83 b3 6e 3f [..i?...?.\....n?]
  |       16a68c: 00 00 80 3f 40 b6 db c0 00 00 80 3f 00 00 80 3f [...?@......?...?]
  |       16a69c: 00 00 00 00 00 00 80 3f 00 00 80 3f 80 f9 94 be [.......?...?....]
  |       16a6ac: ad ea 60 3f 00 00 80 3f 10 a8 21 bf 59 92 62 3f [..`?...?..!.Y.b?]
  |       16a6bc: 00 00 80 3f 38 33 85 bf 14 82 64 3f 00 00 80 3f [...?83....d?...?]
  |       16a6cc: b0 a6 c6 bf bd d8 66 3f 00 00 80 3f f0 a8 13 c0 [......f?...?....]
  |       16a6dc: c0 9d 69 3f 00 00 80 3f 80 02 66 c0 83 b3 6e 3f [..i?...?..f...n?]
  |       16a6ec: 00 00 80 3f f0 43 ad c0 00 00 80 3f 00 00 80 3f [...?.C.....?...?]
  |       16a6fc: 00 00 00 00 00 00 80 3f 00 00 80 3f c0 fe 38 be [.......?...?..8.]
  |       16a70c: ad ea 60 3f 00 00 80 3f c0 4a c7 be 59 92 62 3f [..`?...?.J..Y.b?]
  |       16a71c: 00 00 80 3f f0 c6 22 bf 14 82 64 3f 00 00 80 3f [...?.."...d?...?]
  |       16a72c: 40 38 70 bf bd d8 66 3f 00 00 80 3f 98 5d af bf [@8p...f?...?.]..]
  |       16a73c: c0 9d 69 3f 00 00 80 3f ec 24 05 c0 83 b3 6e 3f [..i?...?.$....n?]
  |       16a74c: 00 00 80 3f 2c d2 44 c0 00 00 80 3f 00 00 80 3f [...?,.D....?...?]
  |       16a75c: 00 00 00 00 00 00 80 3f 00 00 80 3f 00 00 00 00 [.......?...?....]
  |       16a76c: ad ea 60 3f 00 00 80 3f 00 00 00 00 59 92 62 3f [..`?...?....Y.b?]
  |       16a77c: 00 00 80 3f 00 00 00 00 14 82 64 3f 00 00 80 3f [...?......d?...?]
  |       16a78c: 00 00 00 00 bd d8 66 3f 00 00 80 3f 00 00 00 00 [......f?...?....]
  |       16a79c: c0 9d 69 3f 00 00 80 3f 00 00 00 00 83 b3 6e 3f [..i?...?......n?]
  |       16a7ac: 00 00 80 3f 00 00 00 00 00 00 80 3f 00 00 80 3f [...?.......?...?]
  |       16a7bc: 00 00 00 00 00 00 80 3f 00 00 80 3f c0 fe 38 3e [.......?...?..8>]
  |       16a7cc: ad ea 60 3f 00 00 80 3f c0 4a c7 3e 59 92 62 3f [..`?...?.J.>Y.b?]
  |       16a7dc: 00 00 80 3f f0 c6 22 3f 14 82 64 3f 00 00 80 3f [...?.."?..d?...?]
  |       16a7ec: 40 38 70 3f bd d8 66 3f 00 00 80 3f 98 5d af 3f [@8p?..f?...?.].?]
  |       16a7fc: c0 9d 69 3f 00 00 80 3f ec 24 05 40 83 b3 6e 3f [..i?...?.$.@..n?]
  |       16a80c: 00 00 80 3f 2c d2 44 40 00 00 80 3f 00 00 80 3f [...?,.D@...?...?]
  |       16a81c: 00 00 00 00 00 00 80 3f 00 00 80 3f a0 f7 94 3e [.......?...?...>]
  |       16a82c: ad ea 60 3f 00 00 80 3f 20 a7 21 3f 59 92 62 3f [..`?...? .!?Y.b?]
  |       16a83c: 00 00 80 3f c0 32 85 3f 14 82 64 3f 00 00 80 3f [...?.2.?..d?...?]
  |       16a84c: b0 a6 c6 3f bd d8 66 3f 00 00 80 3f f0 a8 13 40 [...?..f?...?...@]
  |       16a85c: c0 9d 69 3f 00 00 80 3f 80 02 66 40 83 b3 6e 3f [..i?...?..f@..n?]
  |       16a86c: 00 00 80 3f f0 43 ad 40 00 00 80 3f 00 00 80 3f [...?.C.@...?...?]
  |       16a87c: 00 00 00 00 00 00 80 3f 00 00 80 3f a0 b6 a8 3e [.......?...?...>]
  |         [snip 53264 bytes]
  | 54) NoiseProfile = 0.000129086747539483 5.27577742501695e-07
  |     - Tag 0xc761 (16 bytes, double[2]):
  |       17789c: 14 a9 d2 b7 6e eb 20 3f 66 44 91 b9 db b3 a1 3e [....n. ?fD.....>]
  | 55) NewRawImageDigest = .....T.S.Kf..s<$
  |     - Tag 0xc7a7 (16 bytes, int8u[16] read as undef[16]):
  |       1778ac: 16 ba e3 fa a7 54 d9 53 f8 4b 66 91 06 73 3c 24 [.....T.S.Kf..s<$]
