  ExifToolVersion = 13.59
  FileName = media_48.jpg
  Directory = C:/Users/micro/IdeaProjects/kim/src/commonTest/resources/de/stefan_oltmann/kim/testdata/full
  FileSize = 6804932
  FileModifyDate = 1776264339.14906
  FileAccessDate = 1786601302.67956
  FileCreateDate = 1776264339.13806
  FilePermissions = 33206
  FileType = JPEG
  FileTypeExtension = JPG
  MIMEType = image/jpeg
JPEG APP1 (13520 bytes):
      0006: 45 78 69 66 00 00 4d 4d 00 2a 00 00 00 08 00 0b [Exif..MM.*......]
      0016: 01 0f 00 02 00 00 00 06 00 00 00 92 01 10 00 02 [................]
      0026: 00 00 00 1b 00 00 00 98 01 12 00 03 00 00 00 01 [................]
      0036: 00 06 00 00 01 1a 00 05 00 00 00 01 00 00 00 b4 [................]
      0046: 01 1b 00 05 00 00 00 01 00 00 00 bc 01 28 00 03 [.............(..]
      0056: 00 00 00 01 00 02 00 00 01 31 00 02 00 00 00 07 [.........1......]
      0066: 00 00 00 c4 01 32 00 02 00 00 00 14 00 00 00 cc [.....2..........]
      [snip 13408 bytes]
  ExifByteOrder = MM
  + [IFD0 directory with 11 entries, Big-endian]
  | 0)  Make = Apple
  |     - Tag 0x010f (6 bytes, string[6]):
  |         009e: 41 70 70 6c 65 00                               [Apple.]
  | 1)  Model = iPhone SE (3rd generation)
  |     - Tag 0x0110 (27 bytes, string[27]):
  |         00a4: 69 50 68 6f 6e 65 20 53 45 20 28 33 72 64 20 67 [iPhone SE (3rd g]
  |         00b4: 65 6e 65 72 61 74 69 6f 6e 29 00                [eneration).]
  | 2)  Orientation = 6
  |     - Tag 0x0112 (2 bytes, int16u[1]):
  |         0036: 00 06                                           [..]
  | 3)  XResolution = 72 (72/1)
  |     - Tag 0x011a (8 bytes, rational64u[1]):
  |         00c0: 00 00 00 48 00 00 00 01                         [...H....]
  | 4)  YResolution = 72 (72/1)
  |     - Tag 0x011b (8 bytes, rational64u[1]):
  |         00c8: 00 00 00 48 00 00 00 01                         [...H....]
  | 5)  ResolutionUnit = 2
  |     - Tag 0x0128 (2 bytes, int16u[1]):
  |         005a: 00 02                                           [..]
  | 6)  Software = 16.0.3
  |     - Tag 0x0131 (7 bytes, string[7]):
  |         00d0: 31 36 2e 30 2e 33 00                            [16.0.3.]
  | 7)  ModifyDate = 2022:11:30 14:57:00
  |     - Tag 0x0132 (20 bytes, string[20]):
  |         00d8: 32 30 32 32 3a 31 31 3a 33 30 20 31 34 3a 35 37 [2022:11:30 14:57]
  |         00e8: 3a 30 30 00                                     [:00.]
  | 8)  HostComputer = iPhone SE (3rd generation)
  |     - Tag 0x013c (27 bytes, string[27]):
  |         00ec: 69 50 68 6f 6e 65 20 53 45 20 28 33 72 64 20 67 [iPhone SE (3rd g]
  |         00fc: 65 6e 65 72 61 74 69 6f 6e 29 00                [eneration).]
  | 9)  YCbCrPositioning = 1
  |     - Tag 0x0213 (2 bytes, int16u[1]):
  |         008a: 00 01                                           [..]
  | 10) ExifOffset (SubDirectory) -->
  |     - Tag 0x8769 (4 bytes, int32u[1]):
  |         0096: 00 00 00 fc                                     [....]
  | + [ExifIFD directory with 36 entries, Big-endian]
  | | 0)  ExposureTime = 0.01 (1/100)
  | |     - Tag 0x829a (8 bytes, rational64u[1]):
  | |         02be: 00 00 00 01 00 00 00 64                         [.......d]
  | | 1)  FNumber = 1.8 (9/5)
  | |     - Tag 0x829d (8 bytes, rational64u[1]):
  | |         02c6: 00 00 00 09 00 00 00 05                         [........]
  | | 2)  ExposureProgram = 2
  | |     - Tag 0x8822 (2 bytes, int16u[1]):
  | |         012a: 00 02                                           [..]
  | | 3)  ISO = 50
  | |     - Tag 0x8827 (2 bytes, int16u[1]):
  | |         0136: 00 32                                           [.2]
  | | 4)  ExifVersion = 0232
  | |     - Tag 0x9000 (4 bytes, undef[4]):
  | |         0142: 30 32 33 32                                     [0232]
  | | 5)  DateTimeOriginal = 2022:11:30 14:57:00
  | |     - Tag 0x9003 (20 bytes, string[20]):
  | |         02ce: 32 30 32 32 3a 31 31 3a 33 30 20 31 34 3a 35 37 [2022:11:30 14:57]
  | |         02de: 3a 30 30 00                                     [:00.]
  | | 6)  CreateDate = 2022:11:30 14:57:00
  | |     - Tag 0x9004 (20 bytes, string[20]):
  | |         02e2: 32 30 32 32 3a 31 31 3a 33 30 20 31 34 3a 35 37 [2022:11:30 14:57]
  | |         02f2: 3a 30 30 00                                     [:00.]
  | | 7)  OffsetTime = +01:00
  | |     - Tag 0x9010 (7 bytes, string[7]):
  | |         02f6: 2b 30 31 3a 30 30 00                            [+01:00.]
  | | 8)  OffsetTimeOriginal = +01:00
  | |     - Tag 0x9011 (7 bytes, string[7]):
  | |         02fe: 2b 30 31 3a 30 30 00                            [+01:00.]
  | | 9)  OffsetTimeDigitized = +01:00
  | |     - Tag 0x9012 (7 bytes, string[7]):
  | |         0306: 2b 30 31 3a 30 30 00                            [+01:00.]
  | | 10) ComponentsConfiguration = 1 2 3 0
  | |     - Tag 0x9101 (4 bytes, undef[4] read as int8u[4]):
  | |         018a: 01 02 03 00                                     [....]
  | | 11) ShutterSpeedValue = 6.645877378 (6287/946)
  | |     - Tag 0x9201 (8 bytes, rational64s[1]):
  | |         030e: 00 00 18 8f 00 00 03 b2                         [........]
  | | 12) ApertureValue = 1.695993813 (54823/32325)
  | |     - Tag 0x9202 (8 bytes, rational64u[1]):
  | |         0316: 00 00 d6 27 00 00 7e 45                         [...'..~E]
  | | 13) BrightnessValue = 4.578595273 (341522/74591)
  | |     - Tag 0x9203 (8 bytes, rational64s[1]):
  | |         031e: 00 05 36 12 00 01 23 5f                         [..6...#_]
  | | 14) ExposureCompensation = 0 (0/1)
  | |     - Tag 0x9204 (8 bytes, rational64s[1]):
  | |         0326: 00 00 00 00 00 00 00 01                         [........]
  | | 15) MeteringMode = 5
  | |     - Tag 0x9207 (2 bytes, int16u[1]):
  | |         01c6: 00 05                                           [..]
  | | 16) Flash = 16
  | |     - Tag 0x9209 (2 bytes, int16u[1]):
  | |         01d2: 00 10                                           [..]
  | | 17) FocalLength = 3.99 (399/100)
  | |     - Tag 0x920a (8 bytes, rational64u[1]):
  | |         032e: 00 00 01 8f 00 00 00 64                         [.......d]
  | | 18) SubjectArea = 2013 1511 2217 1330
  | |     - Tag 0x9214 (8 bytes, int16u[4]):
  | |         0336: 07 dd 05 e7 08 a9 05 32                         [.......2]
  | | 19) MakerNoteApple (SubDirectory) -->
  | |     - Tag 0x927c (1380 bytes, undef[1380]):
  | |         033e: 41 70 70 6c 65 20 69 4f 53 00 00 01 4d 4d 00 2b [Apple iOS...MM.+]
  | |         034e: 00 01 00 09 00 00 00 01 00 00 00 0e 00 02 00 07 [................]
  | |         035e: 00 00 02 00 00 00 02 18 00 03 00 07 00 00 00 68 [...............h]
  | |         036e: 00 00 04 18 00 04 00 09 00 00 00 01 00 00 00 01 [................]
  | |         037e: 00 05 00 09 00 00 00 01 00 00 00 a5 00 06 00 09 [................]
  | |         038e: 00 00 00 01 00 00 00 a2 00 07 00 09 00 00 00 01 [................]
  | |         039e: 00 00 00 01 00 08 00 0a 00 00 00 03 00 00 04 80 [................]
  | |         03ae: 00 0c 00 0a 00 00 00 02 00 00 04 98 00 0d 00 09 [................]
  | |         03be: 00 00 00 01 00 00 00 1e 00 0e 00 09 00 00 00 01 [................]
  | |         03ce: 00 00 00 00 00 10 00 09 00 00 00 01 00 00 00 01 [................]
  | |         03de: 00 14 00 09 00 00 00 01 00 00 00 0a 00 17 00 10 [................]
  | |         03ee: 00 00 00 01 00 00 04 a8 00 19 00 09 00 00 00 01 [................]
  | |         03fe: 00 00 00 02 00 1f 00 09 00 00 00 01 00 00 00 00 [................]
  | |         040e: 00 20 00 02 00 00 00 25 00 00 04 b0 00 21 00 0a [. .....%.....!..]
  | |         041e: 00 00 00 01 00 00 04 d5 00 23 00 09 00 00 00 02 [.........#......]
  | |         042e: 00 00 04 dd 00 25 00 10 00 00 00 01 00 00 04 e5 [.....%..........]
  | |         043e: 00 26 00 09 00 00 00 01 00 00 00 03 00 27 00 0a [.&...........'..]
  | |         044e: 00 00 00 01 00 00 04 ed 00 28 00 09 00 00 00 01 [.........(......]
  | |         045e: 00 00 00 02 00 2b 00 02 00 00 00 25 00 00 04 f5 [.....+.....%....]
  | |         046e: 00 2d 00 09 00 00 00 01 00 00 16 bc 00 2e 00 09 [.-..............]
  | |         047e: 00 00 00 01 00 00 00 01 00 2f 00 09 00 00 00 01 [........./......]
  | |         048e: 00 00 00 f5 00 33 00 09 00 00 00 01 00 00 10 00 [.....3..........]
  | |         049e: 00 34 00 09 00 00 00 01 00 00 00 04 00 35 00 09 [.4...........5..]
  | |         04ae: 00 00 00 01 00 00 00 03 00 36 00 09 00 00 00 01 [.........6......]
  | |         04be: 00 00 05 9e 00 37 00 09 00 00 00 01 00 00 00 04 [.....7..........]
  | |         04ce: 00 3a 00 09 00 00 00 01 00 00 00 00 00 3b 00 09 [.:...........;..]
  | |         04de: 00 00 00 01 00 00 00 00 00 3c 00 09 00 00 00 01 [.........<......]
  | |         04ee: 00 00 00 04 00 3f 00 09 00 00 00 01 00 00 00 01 [.....?..........]
  | |         04fe: 00 40 00 07 00 00 00 4a 00 00 05 1a 00 41 00 09 [.@.....J.....A..]
  | |         050e: 00 00 00 01 00 00 00 00 00 43 00 09 00 00 00 01 [.........C......]
  | |         051e: 00 00 00 00 00 44 00 09 00 00 00 01 00 00 00 00 [.....D..........]
  | |         052e: 00 45 00 09 00 00 00 01 00 00 00 00 00 46 00 09 [.E...........F..]
  | |         053e: 00 00 00 01 00 00 00 00 00 4a 00 09 00 00 00 01 [.........J......]
  | |         054e: 00 00 00 02 00 00 00 00 09 00 09 00 09 00 0a 00 [................]
  | |         055e: 0b 00 20 00 5b 00 29 00 88 00 ba 00 ab 00 28 00 [.. .[.).......(.]
  | |         056e: 21 00 1a 00 12 00 0e 00 0a 00 0a 00 0a 00 0b 00 [!...............]
  | |         057e: 10 00 a1 00 ab 00 4b 00 6a 00 b6 00 be 00 64 00 [......K.j.....d.]
  | |         058e: 49 00 15 00 12 00 12 00 0b 00 1f 00 44 00 0c 00 [I...........D...]
  | |         059e: 48 00 c5 00 b7 00 c8 00 05 01 19 01 80 00 46 00 [H.............F.]
  | |         05ae: 41 00 13 00 15 00 13 00 0c 00 84 00 6f 00 0d 00 [A...........o...]
  | |         05be: a3 00 a5 01 10 02 1c 02 17 02 b2 01 da 00 5d 00 [..............].]
  | |         05ce: 52 00 15 00 15 00 18 00 0d 00 82 00 84 00 0e 00 [R...............]
  | |         05de: c9 00 ac 01 2b 02 16 02 35 02 d1 01 d6 00 63 00 [....+...5.....c.]
  | |         05ee: 55 00 21 00 23 00 1b 00 0f 00 84 00 8c 00 11 00 [U.!.#...........]
  | |         05fe: 08 01 bf 01 bf 01 a6 01 26 02 51 01 ef 00 70 00 [........&.Q...p.]
  | |         060e: 21 00 24 00 24 00 1e 00 10 00 d4 00 95 00 20 00 [!.$.$......... .]
  | |         061e: d0 00 a7 01 ce 00 80 01 e4 00 c1 00 e9 00 7b 00 [..............{.]
  | |         062e: 0c 00 23 00 28 00 27 00 11 00 8d 00 7b 00 37 00 [..#.(.'.....{.7.]
  | |         063e: a8 00 d0 01 a5 01 d6 01 e4 01 63 01 e8 00 81 00 [..........c.....]
  | |         064e: 0c 00 24 00 26 00 2e 00 16 00 9e 00 a5 00 52 00 [..$.&.........R.]
  | |         065e: c1 00 8a 01 5f 01 0a 01 4d 01 25 01 0b 01 82 00 [...._...M.%.....]
  | |         066e: 0c 00 24 00 28 00 31 00 1b 00 87 00 82 00 66 00 [..$.(.1.......f.]
  | |         067e: ed 00 55 01 1d 01 2f 01 29 01 6b 01 1a 01 79 00 [..U.../.).k...y.]
  | |         068e: 0c 00 24 00 27 00 2c 00 37 00 e7 00 73 00 6f 00 [..$.'.,.7...s.o.]
  | |         069e: ed 00 0c 01 08 01 c4 00 06 01 41 01 0f 01 87 00 [..........A.....]
  | |         06ae: 0c 00 22 00 26 00 2c 00 1f 00 bc 00 15 00 6a 00 [..".&.,.......j.]
  | |         06be: f5 00 02 01 ce 00 bd 00 c6 00 49 01 ea 00 a1 00 [..........I.....]
  | |         06ce: 0c 00 16 00 22 00 29 00 2d 00 00 01 72 00 7c 00 [....".).-...r.|.]
  | |         06de: 22 01 a3 00 f7 00 dd 00 cf 00 e5 00 94 00 93 00 ["...............]
  | |         06ee: 1a 00 10 00 35 00 22 00 12 00 11 00 0f 00 74 00 [....5.".......t.]
  | |         06fe: d2 00 5b 00 39 00 56 00 76 00 73 00 b7 00 91 00 [..[.9.V.v.s.....]
  | |         070e: 1d 00 12 00 3a 00 1e 00 10 00 0f 00 0f 00 6f 00 [....:.........o.]
  | |         071e: e9 00 73 00 3f 00 a9 00 c0 00 ca 00 9a 00 70 00 [..s.?.........p.]
  | |         072e: 44 00 11 00 36 00 17 00 0f 00 0f 00 0e 00 57 00 [D...6.........W.]
  | |         073e: d9 00 f7 00 da 00 90 00 93 00 9f 00 a6 00 63 00 [..............c.]
  | |         074e: 14 00 0f 00 21 00 10 00 62 70 6c 69 73 74 30 30 [....!...bplist00]
  | |         075e: d4 01 02 03 04 05 06 07 08 55 66 6c 61 67 73 55 [.........UflagsU]
  | |         076e: 76 61 6c 75 65 59 74 69 6d 65 73 63 61 6c 65 55 [valueYtimescaleU]
  | |         077e: 65 70 6f 63 68 10 01 13 00 00 00 6d ba bc ad fe [epoch......m....]
  | |         078e: 12 3b 9a ca 00 10 00 08 11 17 1d 27 2d 2f 38 3d [.;.........'-/8=]
  | |         079e: 00 00 00 00 00 00 01 01 00 00 00 00 00 00 00 09 [................]
  | |         07ae: 00 00 00 00 00 00 00 00 00 00 00 00 00 00 00 3f [...............?]
  | |         07be: ff ff eb 8e 00 02 e5 73 ff ff c5 5d 00 00 40 0c [.......s...]..@.]
  | |         07ce: ff ff c1 95 00 00 99 8d 00 00 00 43 00 00 00 80 [...........C....]
  | |         07de: 00 00 00 15 00 00 00 40 00 00 00 00 42 50 20 00 [.......@....BP .]
  | |         07ee: 31 46 39 31 42 31 43 39 2d 43 38 41 45 2d 34 34 [1F91B1C9-C8AE-44]
  | |         07fe: 31 42 2d 39 42 30 45 2d 41 34 45 38 33 41 42 43 [1B-9B0E-A4E83ABC]
  | |         080e: 34 35 31 35 00 00 00 b4 8b 00 00 73 14 00 00 00 [4515.......s....]
  | |         081e: 07 10 00 00 84 00 00 00 00 00 00 00 8e 00 02 e2 [................]
  | |         082e: 8a 00 00 12 11 36 30 41 45 35 37 44 37 2d 44 41 [.....60AE57D7-DA]
  | |         083e: 30 32 2d 34 37 37 38 2d 39 45 31 44 2d 38 32 33 [02-4778-9E1D-823]
  | |         084e: 35 35 44 43 37 33 44 36 32 00 62 70 6c 69 73 74 [55DC73D62.bplist]
  | |         085e: 30 30 d4 01 02 03 04 05 06 06 07 51 33 51 31 51 [00.........Q3Q1Q]
  | |         086e: 32 51 30 10 00 22 00 00 00 00 10 01 08 11 13 15 [2Q0.."..........]
  | |         087e: 17 19 1b 20 00 00 00 00 00 00 01 01 00 00 00 00 [... ............]
  | |         088e: 00 00 00 08 00 00 00 00 00 00 00 00 00 00 00 00 [................]
  | |         089e: 00 00 00 22                                     [..."]
  | | + [MakerNotes directory with 43 entries, Big-endian]
  | | | 0)  MakerNoteVersion = 14
  | | |     - Tag 0x0001 (4 bytes, int32s[1]):
  | | |         0356: 00 00 00 0e                                     [....]
  | | | 1)  AEMatrix = ..... [)...(!..........Kj..dI.....D.H........FA.....o.............]R..........+...5....cU!#.............&.Q..p!$$.... .........{.#('..{7.........c....$&....R..._...M.%.....$(1...f.U.../.).k...y.$',7.so........A....."&,...j......I.....")-.r|"..........5"...t.[9Vvs....:....o.s?....pD.6....W.......c..!.
  | | |     - Tag 0x0002 (512 bytes, undef[512]):
  | | |         0556: 09 00 09 00 09 00 0a 00 0b 00 20 00 5b 00 29 00 [.......... .[.).]
  | | |         0566: 88 00 ba 00 ab 00 28 00 21 00 1a 00 12 00 0e 00 [......(.!.......]
  | | |         0576: 0a 00 0a 00 0a 00 0b 00 10 00 a1 00 ab 00 4b 00 [..............K.]
  | | |         0586: 6a 00 b6 00 be 00 64 00 49 00 15 00 12 00 12 00 [j.....d.I.......]
  | | |         0596: 0b 00 1f 00 44 00 0c 00 48 00 c5 00 b7 00 c8 00 [....D...H.......]
  | | |         05a6: 05 01 19 01 80 00 46 00 41 00 13 00 15 00 13 00 [......F.A.......]
  | | |         05b6: 0c 00 84 00 6f 00 0d 00 a3 00 a5 01 10 02 1c 02 [....o...........]
  | | |         05c6: 17 02 b2 01 da 00 5d 00 52 00 15 00 15 00 18 00 [......].R.......]
  | | |         05d6: 0d 00 82 00 84 00 0e 00 c9 00 ac 01 2b 02 16 02 [............+...]
  | | |         05e6: 35 02 d1 01 d6 00 63 00 55 00 21 00 23 00 1b 00 [5.....c.U.!.#...]
  | | |         05f6: 0f 00 84 00 8c 00 11 00 08 01 bf 01 bf 01 a6 01 [................]
  | | |         0606: 26 02 51 01 ef 00 70 00 21 00 24 00 24 00 1e 00 [&.Q...p.!.$.$...]
  | | |         0616: 10 00 d4 00 95 00 20 00 d0 00 a7 01 ce 00 80 01 [...... .........]
  | | |         0626: e4 00 c1 00 e9 00 7b 00 0c 00 23 00 28 00 27 00 [......{...#.(.'.]
  | | |         0636: 11 00 8d 00 7b 00 37 00 a8 00 d0 01 a5 01 d6 01 [....{.7.........]
  | | |         0646: e4 01 63 01 e8 00 81 00 0c 00 24 00 26 00 2e 00 [..c.......$.&...]
  | | |         0656: 16 00 9e 00 a5 00 52 00 c1 00 8a 01 5f 01 0a 01 [......R....._...]
  | | |         0666: 4d 01 25 01 0b 01 82 00 0c 00 24 00 28 00 31 00 [M.%.......$.(.1.]
  | | |         0676: 1b 00 87 00 82 00 66 00 ed 00 55 01 1d 01 2f 01 [......f...U.../.]
  | | |         0686: 29 01 6b 01 1a 01 79 00 0c 00 24 00 27 00 2c 00 [).k...y...$.'.,.]
  | | |         0696: 37 00 e7 00 73 00 6f 00 ed 00 0c 01 08 01 c4 00 [7...s.o.........]
  | | |         06a6: 06 01 41 01 0f 01 87 00 0c 00 22 00 26 00 2c 00 [..A.......".&.,.]
  | | |         06b6: 1f 00 bc 00 15 00 6a 00 f5 00 02 01 ce 00 bd 00 [......j.........]
  | | |         06c6: c6 00 49 01 ea 00 a1 00 0c 00 16 00 22 00 29 00 [..I.........".).]
  | | |         06d6: 2d 00 00 01 72 00 7c 00 22 01 a3 00 f7 00 dd 00 [-...r.|.".......]
  | | |         06e6: cf 00 e5 00 94 00 93 00 1a 00 10 00 35 00 22 00 [............5.".]
  | | |         06f6: 12 00 11 00 0f 00 74 00 d2 00 5b 00 39 00 56 00 [......t...[.9.V.]
  | | |         0706: 76 00 73 00 b7 00 91 00 1d 00 12 00 3a 00 1e 00 [v.s.........:...]
  | | |         0716: 10 00 0f 00 0f 00 6f 00 e9 00 73 00 3f 00 a9 00 [......o...s.?...]
  | | |         0726: c0 00 ca 00 9a 00 70 00 44 00 11 00 36 00 17 00 [......p.D...6...]
  | | |         0736: 0f 00 0f 00 0e 00 57 00 d9 00 f7 00 da 00 90 00 [......W.........]
  | | |         0746: 93 00 9f 00 a6 00 63 00 14 00 0f 00 21 00 10 00 [......c.....!...]
  | | | 2)  RunTime (SubDirectory) -->
  | | |     - Tag 0x0003 (104 bytes, undef[104]):
  | | |         0756: 62 70 6c 69 73 74 30 30 d4 01 02 03 04 05 06 07 [bplist00........]
  | | |         0766: 08 55 66 6c 61 67 73 55 76 61 6c 75 65 59 74 69 [.UflagsUvalueYti]
  | | |         0776: 6d 65 73 63 61 6c 65 55 65 70 6f 63 68 10 01 13 [mescaleUepoch...]
  | | |         0786: 00 00 00 6d ba bc ad fe 12 3b 9a ca 00 10 00 08 [...m.....;......]
  | | |         0796: 11 17 1d 27 2d 2f 38 3d 00 00 00 00 00 00 01 01 [...'-/8=........]
  | | |         07a6: 00 00 00 00 00 00 00 09 00 00 00 00 00 00 00 00 [................]
  | | |         07b6: 00 00 00 00 00 00 00 3f                         [.......?]
  | | | + [Binary PLIST directory]
  | | | | RunTimeFlags = 1
  | | | | RunTimeValue = 471284362750
  | | | | RunTimeScale = 1000000000
  | | | | RunTimeEpoch = 0
  | | | 3)  AEStable = 1
  | | |     - Tag 0x0004 (4 bytes, int32s[1]):
  | | |         037a: 00 00 00 01                                     [....]
  | | | 4)  AETarget = 165
  | | |     - Tag 0x0005 (4 bytes, int32s[1]):
  | | |         0386: 00 00 00 a5                                     [....]
  | | | 5)  AEAverage = 162
  | | |     - Tag 0x0006 (4 bytes, int32s[1]):
  | | |         0392: 00 00 00 a2                                     [....]
  | | | 6)  AFStable = 1
  | | |     - Tag 0x0007 (4 bytes, int32s[1]):
  | | |         039e: 00 00 00 01                                     [....]
  | | | 7)  AccelerationVector = -0.02757479809 -0.9155281776 -0.4064972398 (-5234/189811 -15011/16396 -15979/39309)
  | | |     - Tag 0x0008 (24 bytes, rational64s[3]):
  | | |         07be: ff ff eb 8e 00 02 e5 73 ff ff c5 5d 00 00 40 0c [.......s...]..@.]
  | | |         07ce: ff ff c1 95 00 00 99 8d                         [........]
  | | | 8)  FocusDistanceRange = 0.5234375 0.328125 (67/128 21/64)
  | | |     - Tag 0x000c (16 bytes, rational64s[2]):
  | | |         07d6: 00 00 00 43 00 00 00 80 00 00 00 15 00 00 00 40 [...C...........@]
  | | | 9)  Apple_0x000d = 30
  | | |     - Tag 0x000d (4 bytes, int32s[1]):
  | | |         03c2: 00 00 00 1e                                     [....]
  | | | 10) Apple_0x000e = 0
  | | |     - Tag 0x000e (4 bytes, int32s[1]):
  | | |         03ce: 00 00 00 00                                     [....]
  | | | 11) Apple_0x0010 = 1
  | | |     - Tag 0x0010 (4 bytes, int32s[1]):
  | | |         03da: 00 00 00 01                                     [....]
  | | | 12) ImageCaptureType = 10
  | | |     - Tag 0x0014 (4 bytes, int32s[1]):
  | | |         03e6: 00 00 00 0a                                     [....]
  | | | 13) LivePhotoVideoIndex = 1112547328
  | | |     - Tag 0x0017 (8 bytes, int64u[1]):
  | | |         07e6: 00 00 00 00 42 50 20 00                         [....BP .]
  | | | 14) ImageProcessingFlags = 2
  | | |     - Tag 0x0019 (4 bytes, int32s[1]):
  | | |         03fe: 00 00 00 02                                     [....]
  | | | 15) PhotosAppFeatureFlags = 0
  | | |     - Tag 0x001f (4 bytes, int32s[1]):
  | | |         040a: 00 00 00 00                                     [....]
  | | | 16) ImageCaptureRequestID = 1F91B1C9-C8AE-441B-9B0E-A4E83ABC4515
  | | |     - Tag 0x0020 (37 bytes, string[37]):
  | | |         07ee: 31 46 39 31 42 31 43 39 2d 43 38 41 45 2d 34 34 [1F91B1C9-C8AE-44]
  | | |         07fe: 31 42 2d 39 42 30 45 2d 41 34 45 38 33 41 42 43 [1B-9B0E-A4E83ABC]
  | | |         080e: 34 35 31 35 00                                  [4515.]
  | | | 17) HDRHeadroom = 1.568873048 (46219/29460)
  | | |     - Tag 0x0021 (8 bytes, rational64s[1]):
  | | |         0813: 00 00 b4 8b 00 00 73 14                         [......s.]
  | | | 18) AFPerformance = 7 268435588
  | | |     - Tag 0x0023 (8 bytes, int32s[2]):
  | | |         081b: 00 00 00 07 10 00 00 84                         [........]
  | | | 19) SceneFlags = 142
  | | |     - Tag 0x0025 (8 bytes, int64u[1]):
  | | |         0823: 00 00 00 00 00 00 00 8e                         [........]
  | | | 20) SignalToNoiseRatioType = 3
  | | |     - Tag 0x0026 (4 bytes, int32s[1]):
  | | |         0446: 00 00 00 03                                     [....]
  | | | 21) SignalToNoiseRatio = 40.87913514 (189066/4625)
  | | |     - Tag 0x0027 (8 bytes, rational64s[1]):
  | | |         082b: 00 02 e2 8a 00 00 12 11                         [........]
  | | | 22) Apple_0x0028 = 2
  | | |     - Tag 0x0028 (4 bytes, int32s[1]):
  | | |         045e: 00 00 00 02                                     [....]
  | | | 23) PhotoIdentifier = 60AE57D7-DA02-4778-9E1D-82355DC73D62
  | | |     - Tag 0x002b (37 bytes, string[37]):
  | | |         0833: 36 30 41 45 35 37 44 37 2d 44 41 30 32 2d 34 37 [60AE57D7-DA02-47]
  | | |         0843: 37 38 2d 39 45 31 44 2d 38 32 33 35 35 44 43 37 [78-9E1D-82355DC7]
  | | |         0853: 33 44 36 32 00                                  [3D62.]
  | | | 24) ColorTemperature = 5820
  | | |     - Tag 0x002d (4 bytes, int32s[1]):
  | | |         0476: 00 00 16 bc                                     [....]
  | | | 25) CameraType = 1
  | | |     - Tag 0x002e (4 bytes, int32s[1]):
  | | |         0482: 00 00 00 01                                     [....]
  | | | 26) FocusPosition = 245
  | | |     - Tag 0x002f (4 bytes, int32s[1]):
  | | |         048e: 00 00 00 f5                                     [....]
  | | | 27) Apple_0x0033 = 4096
  | | |     - Tag 0x0033 (4 bytes, int32s[1]):
  | | |         049a: 00 00 10 00                                     [....]
  | | | 28) Apple_0x0034 = 4
  | | |     - Tag 0x0034 (4 bytes, int32s[1]):
  | | |         04a6: 00 00 00 04                                     [....]
  | | | 29) Apple_0x0035 = 3
  | | |     - Tag 0x0035 (4 bytes, int32s[1]):
  | | |         04b2: 00 00 00 03                                     [....]
  | | | 30) Apple_0x0036 = 1438
  | | |     - Tag 0x0036 (4 bytes, int32s[1]):
  | | |         04be: 00 00 05 9e                                     [....]
  | | | 31) Apple_0x0037 = 4
  | | |     - Tag 0x0037 (4 bytes, int32s[1]):
  | | |         04ca: 00 00 00 04                                     [....]
  | | | 32) Apple_0x003a = 0
  | | |     - Tag 0x003a (4 bytes, int32s[1]):
  | | |         04d6: 00 00 00 00                                     [....]
  | | | 33) Apple_0x003b = 0
  | | |     - Tag 0x003b (4 bytes, int32s[1]):
  | | |         04e2: 00 00 00 00                                     [....]
  | | | 34) Apple_0x003c = 4
  | | |     - Tag 0x003c (4 bytes, int32s[1]):
  | | |         04ee: 00 00 00 04                                     [....]
  | | | 35) GreenGhostMitigationStatus = 1
  | | |     - Tag 0x003f (4 bytes, int32s[1]):
  | | |         04fa: 00 00 00 01                                     [....]
  | | | 36) SemanticStyle = bplist00.........Q3Q1Q2Q0."......... ..."
  | | |     - Tag 0x0040 (74 bytes, undef[74]):
  | | |         0858: 62 70 6c 69 73 74 30 30 d4 01 02 03 04 05 06 06 [bplist00........]
  | | |         0868: 07 51 33 51 31 51 32 51 30 10 00 22 00 00 00 00 [.Q3Q1Q2Q0.."....]
  | | |         0878: 10 01 08 11 13 15 17 19 1b 20 00 00 00 00 00 00 [......... ......]
  | | |         0888: 01 01 00 00 00 00 00 00 00 08 00 00 00 00 00 00 [................]
  | | |         0898: 00 00 00 00 00 00 00 00 00 22                   [........."]
  | | | 37) SemanticStyleRenderingVer = 0
  | | |     - Tag 0x0041 (4 bytes, int32s[1]):
  | | |         0512: 00 00 00 00                                     [....]
  | | | 38) Apple_0x0043 = 0
  | | |     - Tag 0x0043 (4 bytes, int32s[1]):
  | | |         051e: 00 00 00 00                                     [....]
  | | | 39) Apple_0x0044 = 0
  | | |     - Tag 0x0044 (4 bytes, int32s[1]):
  | | |         052a: 00 00 00 00                                     [....]
  | | | 40) Apple_0x0045 = 0
  | | |     - Tag 0x0045 (4 bytes, int32s[1]):
  | | |         0536: 00 00 00 00                                     [....]
  | | | 41) Apple_0x0046 = 0
  | | |     - Tag 0x0046 (4 bytes, int32s[1]):
  | | |         0542: 00 00 00 00                                     [....]
  | | | 42) Apple_0x004a = 2
  | | |     - Tag 0x004a (4 bytes, int32s[1]):
  | | |         054e: 00 00 00 02                                     [....]
  | | 20) SubSecTimeOriginal = 203
  | |     - Tag 0x9291 (4 bytes, string[4]):
  | |         0202: 32 30 33 00                                     [203.]
  | | 21) SubSecTimeDigitized = 203
  | |     - Tag 0x9292 (4 bytes, string[4]):
  | |         020e: 32 30 33 00                                     [203.]
  | | 22) FlashpixVersion = 0100
  | |     - Tag 0xa000 (4 bytes, undef[4]):
  | |         021a: 30 31 30 30                                     [0100]
  | | 23) ColorSpace = 65535
  | |     - Tag 0xa001 (2 bytes, int16u[1]):
  | |         0226: ff ff                                           [..]
  | | 24) ExifImageWidth = 4032
  | |     - Tag 0xa002 (4 bytes, int32u[1]):
  | |         0232: 00 00 0f c0                                     [....]
  | | 25) ExifImageHeight = 3024
  | |     - Tag 0xa003 (4 bytes, int32u[1]):
  | |         023e: 00 00 0b d0                                     [....]
  | | 26) SensingMethod = 2
  | |     - Tag 0xa217 (2 bytes, int16u[1]):
  | |         024a: 00 02                                           [..]
  | | 27) SceneType = 1
  | |     - Tag 0xa301 (1 bytes, undef[1]):
  | |         0256: 01                                              [.]
  | | 28) ExposureMode = 0
  | |     - Tag 0xa402 (2 bytes, int16u[1]):
  | |         0262: 00 00                                           [..]
  | | 29) WhiteBalance = 0
  | |     - Tag 0xa403 (2 bytes, int16u[1]):
  | |         026e: 00 00                                           [..]
  | | 30) FocalLengthIn35mmFormat = 28
  | |     - Tag 0xa405 (2 bytes, int16u[1]):
  | |         027a: 00 1c                                           [..]
  | | 31) SceneCaptureType = 0
  | |     - Tag 0xa406 (2 bytes, int16u[1]):
  | |         0286: 00 00                                           [..]
  | | 32) LensInfo = 3.99000001 3.99000001 1.8 1.8 (4183519/1048501 4183519/1048501 9/5 9/5)
  | |     - Tag 0xa432 (32 bytes, rational64u[4]):
  | |         08a2: 00 3f d5 df 00 0f ff b5 00 3f d5 df 00 0f ff b5 [.?.......?......]
  | |         08b2: 00 00 00 09 00 00 00 05 00 00 00 09 00 00 00 05 [................]
  | | 33) LensMake = Apple
  | |     - Tag 0xa433 (6 bytes, string[6]):
  | |         08c2: 41 70 70 6c 65 00                               [Apple.]
  | | 34) LensModel = iPhone SE (3rd generation) back camera 3.99mm f/1.8
  | |     - Tag 0xa434 (52 bytes, string[52]):
  | |         08c8: 69 50 68 6f 6e 65 20 53 45 20 28 33 72 64 20 67 [iPhone SE (3rd g]
  | |         08d8: 65 6e 65 72 61 74 69 6f 6e 29 20 62 61 63 6b 20 [eneration) back ]
  | |         08e8: 63 61 6d 65 72 61 20 33 2e 39 39 6d 6d 20 66 2f [camera 3.99mm f/]
  | |         08f8: 31 2e 38 00                                     [1.8.]
  | | 35) CompositeImage = 2
  | |     - Tag 0xa460 (2 bytes, int16u[1]):
  | |         02b6: 00 02                                           [..]
  + [IFD1 directory with 6 entries, Big-endian]
  | 0)  Compression = 6
  |     - Tag 0x0103 (2 bytes, int16u[1]):
  |         0906: 00 06                                           [..]
  | 1)  XResolution = 72 (72/1)
  |     - Tag 0x011a (8 bytes, rational64u[1]):
  |         094a: 00 00 00 48 00 00 00 01                         [...H....]
  | 2)  YResolution = 72 (72/1)
  |     - Tag 0x011b (8 bytes, rational64u[1]):
  |         0952: 00 00 00 48 00 00 00 01                         [...H....]
  | 3)  ResolutionUnit = 2
  |     - Tag 0x0128 (2 bytes, int16u[1]):
  |         092a: 00 02                                           [..]
  | 4)  ThumbnailOffset = 2382
  |     - Tag 0x0201 (4 bytes, int32u[1]):
  |         0936: 00 00 09 4e                                     [...N]
  | 5)  ThumbnailLength = 11130
  |     - Tag 0x0202 (4 bytes, int32u[1]):
  |         0942: 00 00 2b 7a                                     [..+z]
JPEG APP2 (550 bytes):
      34da: 49 43 43 5f 50 52 4f 46 49 4c 45 00 01 01 00 00 [ICC_PROFILE.....]
      34ea: 02 18 61 70 70 6c 04 00 00 00 6d 6e 74 72 52 47 [..appl....mntrRG]
      34fa: 42 20 58 59 5a 20 07 e6 00 01 00 01 00 00 00 00 [B XYZ ..........]
      350a: 00 00 61 63 73 70 41 50 50 4c 00 00 00 00 41 50 [..acspAPPL....AP]
      351a: 50 4c 00 00 00 00 00 00 00 00 00 00 00 00 00 00 [PL..............]
      352a: 00 00 00 00 f6 d6 00 01 00 00 00 00 d3 2d 61 70 [.............-ap]
      353a: 70 6c ec fd a3 8e 38 85 47 c3 6d b4 bd 4f 7a da [pl....8.G.m..Oz.]
      [snip 438 bytes]
ICC_Profile chunk 1 of 1
  + [ICC_Profile directory with 10 entries, 536 bytes]
  | ProfileHeader (SubDirectory) -->
  | + [BinaryData directory, 128 bytes, Big-endian]
  | | ProfileCMMType = appl
  | | - Tag 0x0004 (4 bytes, string[4]):
  | |     0004: 61 70 70 6c                                     [appl]
  | | ProfileVersion = 1024
  | | - Tag 0x0008 (2 bytes, int16s[1]):
  | |     0008: 04 00                                           [..]
  | | ProfileClass = mntr
  | | - Tag 0x000c (4 bytes, string[4]):
  | |     000c: 6d 6e 74 72                                     [mntr]
  | | ColorSpaceData = RGB 
  | | - Tag 0x0010 (4 bytes, string[4]):
  | |     0010: 52 47 42 20                                     [RGB ]
  | | ProfileConnectionSpace = XYZ 
  | | - Tag 0x0014 (4 bytes, string[4]):
  | |     0014: 58 59 5a 20                                     [XYZ ]
  | | ProfileDateTime = 2022 1 1 0 0 0
  | | - Tag 0x0018 (12 bytes, int16u[6]):
  | |     0018: 07 e6 00 01 00 01 00 00 00 00 00 00             [............]
  | | ProfileFileSignature = acsp
  | | - Tag 0x0024 (4 bytes, string[4]):
  | |     0024: 61 63 73 70                                     [acsp]
  | | PrimaryPlatform = APPL
  | | - Tag 0x0028 (4 bytes, string[4]):
  | |     0028: 41 50 50 4c                                     [APPL]
  | | CMMFlags = 0
  | | - Tag 0x002c (4 bytes, int32u[1]):
  | |     002c: 00 00 00 00                                     [....]
  | | DeviceManufacturer = APPL
  | | - Tag 0x0030 (4 bytes, string[4]):
  | |     0030: 41 50 50 4c                                     [APPL]
  | | DeviceModel = 
  | | - Tag 0x0034 (4 bytes, string[4]):
  | |     0034: 00 00 00 00                                     [....]
  | | DeviceAttributes = 0 0
  | | - Tag 0x0038 (8 bytes, int32u[2]):
  | |     0038: 00 00 00 00 00 00 00 00                         [........]
  | | RenderingIntent = 0
  | | - Tag 0x0040 (4 bytes, int32u[1]):
  | |     0040: 00 00 00 00                                     [....]
  | | ConnectionSpaceIlluminant = 0.9642 1 0.82491
  | | - Tag 0x0044 (12 bytes, fixed32s[3]):
  | |     0044: 00 00 f6 d6 00 01 00 00 00 00 d3 2d             [...........-]
  | | ProfileCreator = appl
  | | - Tag 0x0050 (4 bytes, string[4]):
  | |     0050: 61 70 70 6c                                     [appl]
  | | ProfileID = 236 253 163 142 56 133 71 195 109 180 189 79 122 218 24 47
  | | - Tag 0x0054 (16 bytes, int8u[16]):
  | |     0054: ec fd a3 8e 38 85 47 c3 6d b4 bd 4f 7a da 18 2f [....8.G.m..Oz../]
  | 0)  ProfileDescription = Display P3
  |     - Tag 'desc' (20 bytes, type 'mluc'):
  |         0118: 00 44 00 69 00 73 00 70 00 6c 00 61 00 79 00 20 [.D.i.s.p.l.a.y. ]
  |         0128: 00 50 00 33                                     [.P.3]
  | 1)  ProfileCopyright = Copyright Apple Inc., 2022
  |     - Tag 'cprt' (52 bytes, type 'mluc'):
  |         0148: 00 43 00 6f 00 70 00 79 00 72 00 69 00 67 00 68 [.C.o.p.y.r.i.g.h]
  |         0158: 00 74 00 20 00 41 00 70 00 70 00 6c 00 65 00 20 [.t. .A.p.p.l.e. ]
  |         0168: 00 49 00 6e 00 63 00 2e 00 2c 00 20 00 32 00 30 [.I.n.c...,. .2.0]
  |         0178: 00 32 00 32                                     [.2.2]
  | 2)  MediaWhitePoint = 0.96419 1 0.82489
  |     - Tag 'wtpt' (20 bytes, type 'XYZ '):
  |         017c: 58 59 5a 20 00 00 00 00 00 00 f6 d5 00 01 00 00 [XYZ ............]
  |         018c: 00 00 d3 2c                                     [...,]
  | 3)  RedMatrixColumn = 0.51512 0.2412 -0.00105
  |     - Tag 'rXYZ' (20 bytes, type 'XYZ '):
  |         0190: 58 59 5a 20 00 00 00 00 00 00 83 df 00 00 3d bf [XYZ ..........=.]
  |         01a0: ff ff ff bb                                     [....]
  | 4)  GreenMatrixColumn = 0.29198 0.69225 0.04189
  |     - Tag 'gXYZ' (20 bytes, type 'XYZ '):
  |         01a4: 58 59 5a 20 00 00 00 00 00 00 4a bf 00 00 b1 37 [XYZ ......J....7]
  |         01b4: 00 00 0a b9                                     [....]
  | 5)  BlueMatrixColumn = 0.1571 0.06657 0.78407
  |     - Tag 'bXYZ' (20 bytes, type 'XYZ '):
  |         01b8: 58 59 5a 20 00 00 00 00 00 00 28 38 00 00 11 0b [XYZ ......(8....]
  |         01c8: 00 00 c8 b9                                     [....]
  | 6)  RedTRC = para..ff...Y...[
  |     - Tag 'rTRC' (32 bytes, type 'para'):
  |         01cc: 70 61 72 61 00 00 00 00 00 03 00 00 00 02 66 66 [para..........ff]
  |         01dc: 00 00 f2 a7 00 00 0d 59 00 00 13 d0 00 00 0a 5b [.......Y.......[]
  | 7)  ChromaticAdaptation = 1.04788 0.02292 -0.0502 0.02959 0.99048 -0.01706 -0.00923 0.01508 0.75168
  |     - Tag 'chad' (44 bytes, type 'sf32'):
  |         01ec: 73 66 33 32 00 00 00 00 00 01 0c 42 00 00 05 de [sf32.......B....]
  |         01fc: ff ff f3 26 00 00 07 93 00 00 fd 90 ff ff fb a2 [...&............]
  |         020c: ff ff fd a3 00 00 03 dc 00 00 c0 6e             [...........n]
  | 8)  BlueTRC = para..ff...Y...[
  |     - Tag 'bTRC' (32 bytes, type 'para'):
  |         01cc: 70 61 72 61 00 00 00 00 00 03 00 00 00 02 66 66 [para..........ff]
  |         01dc: 00 00 f2 a7 00 00 0d 59 00 00 13 d0 00 00 0a 5b [.......Y.......[]
  | 9)  GreenTRC = para..ff...Y...[
  |     - Tag 'gTRC' (32 bytes, type 'para'):
  |         01cc: 70 61 72 61 00 00 00 00 00 03 00 00 00 02 66 66 [para..........ff]
  |         01dc: 00 00 f2 a7 00 00 0d 59 00 00 13 d0 00 00 0a 5b [.......Y.......[]
JPEG DQT (130 bytes):
      3704: 00 02 02 02 02 02 02 03 02 02 03 04 02 03 03 04 [................]
      3714: 05 04 04 04 04 05 06 05 05 05 05 05 06 07 06 06 [................]
      3724: 06 06 06 06 07 07 07 07 07 07 07 07 09 09 09 09 [................]
      3734: 09 09 0a 0a 0a 0a 0a 0c 0c 0c 0c 0c 0c 0c 0c 0c [................]
      3744: 0c 01 02 02 02 03 03 03 05 03 03 05 0c 08 07 08 [................]
      3754: 0c 0c 0c 0c 0c 0c 0c 0c 0c 0c 0c 0c 0c 0c 0c 0c [................]
      3764: 0c 0c 0c 0c 0c 0c 0c 0c 0c 0c 0c 0c 0c 0c 0c 0c [................]
      [snip 18 bytes]
JPEG DRI (2 bytes):
      378a: 00 fc                                           [..]
JPEG SOF0 (15 bytes):
      3790: 08 0b d0 0f c0 03 01 22 00 02 11 01 03 11 01    [.......".......]
  ImageWidth = 4032
  ImageHeight = 3024
  EncodingProcess = 0
  BitsPerSample = 8
  ColorComponents = 3
  YCbCrSubSampling = 2 2
JPEG DHT (416 bytes):
      37a3: 00 00 01 05 01 01 01 01 01 01 00 00 00 00 00 00 [................]
      37b3: 00 00 01 02 03 04 05 06 07 08 09 0a 0b 10 00 02 [................]
      37c3: 01 03 03 02 04 03 05 05 04 04 00 00 01 7d 01 02 [.............}..]
      37d3: 03 00 04 11 05 12 21 31 41 06 13 51 61 07 22 71 [......!1A..Qa."q]
      37e3: 14 32 81 91 a1 08 23 42 b1 c1 15 52 d1 f0 24 33 [.2....#B...R..$3]
      37f3: 62 72 82 09 0a 16 17 18 19 1a 25 26 27 28 29 2a [br........%&'()*]
      3803: 34 35 36 37 38 39 3a 43 44 45 46 47 48 49 4a 53 [456789:CDEFGHIJS]
      [snip 304 bytes]
JPEG SOS
JPEG RST0
JPEG RST1
JPEG RST2
JPEG RST3
JPEG RST4
JPEG RST5
JPEG RST6
JPEG RST7
JPEG RST0
JPEG RST1
JPEG RST2
JPEG RST3
JPEG RST4
JPEG RST5
JPEG RST6
JPEG RST7
JPEG RST0
JPEG RST1
JPEG RST2
JPEG RST3
JPEG RST4
JPEG RST5
JPEG RST6
JPEG RST7
JPEG RST0
JPEG RST1
JPEG RST2
JPEG RST3
JPEG RST4
JPEG RST5
JPEG RST6
JPEG RST7
JPEG RST0
JPEG RST1
JPEG RST2
JPEG RST3
JPEG RST4
JPEG RST5
JPEG RST6
JPEG RST7
JPEG RST0
JPEG RST1
JPEG RST2
JPEG RST3
JPEG RST4
JPEG RST5
JPEG RST6
JPEG RST7
JPEG RST0
JPEG RST1
JPEG RST2
JPEG RST3
JPEG RST4
JPEG RST5
JPEG RST6
JPEG RST7
JPEG RST0
JPEG RST1
JPEG RST2
JPEG RST3
JPEG RST4
JPEG RST5
JPEG RST6
JPEG RST7
JPEG RST0
JPEG RST1
JPEG RST2
JPEG RST3
JPEG RST4
JPEG RST5
JPEG RST6
JPEG RST7
JPEG RST0
JPEG RST1
JPEG RST2
JPEG RST3
JPEG RST4
JPEG RST5
JPEG RST6
JPEG RST7
JPEG RST0
JPEG RST1
JPEG RST2
JPEG RST3
JPEG RST4
JPEG RST5
JPEG RST6
JPEG RST7
JPEG RST0
JPEG RST1
JPEG RST2
JPEG RST3
JPEG RST4
JPEG RST5
JPEG RST6
JPEG RST7
JPEG RST0
JPEG RST1
JPEG RST2
JPEG RST3
JPEG RST4
JPEG RST5
JPEG RST6
JPEG RST7
JPEG RST0
JPEG RST1
JPEG RST2
JPEG RST3
JPEG RST4
JPEG RST5
JPEG RST6
JPEG RST7
JPEG RST0
JPEG RST1
JPEG RST2
JPEG RST3
JPEG RST4
JPEG RST5
JPEG RST6
JPEG RST7
JPEG RST0
JPEG RST1
JPEG RST2
JPEG RST3
JPEG RST4
JPEG RST5
JPEG RST6
JPEG RST7
JPEG RST0
JPEG RST1
JPEG RST2
JPEG RST3
JPEG RST4
JPEG RST5
JPEG RST6
JPEG RST7
JPEG RST0
JPEG RST1
JPEG RST2
JPEG RST3
JPEG RST4
JPEG RST5
JPEG RST6
JPEG RST7
JPEG RST0
JPEG RST1
JPEG RST2
JPEG RST3
JPEG RST4
JPEG RST5
JPEG RST6
JPEG RST7
JPEG RST0
JPEG RST1
JPEG RST2
JPEG RST3
JPEG RST4
JPEG RST5
JPEG RST6
JPEG RST7
JPEG RST0
JPEG RST1
JPEG RST2
JPEG RST3
JPEG RST4
JPEG RST5
JPEG RST6
JPEG RST7
JPEG RST0
JPEG RST1
JPEG RST2
JPEG RST3
JPEG RST4
JPEG RST5
JPEG RST6
JPEG RST7
JPEG RST0
JPEG RST1
JPEG RST2
JPEG RST3
JPEG RST4
JPEG RST5
JPEG RST6
JPEG RST7
JPEG RST0
JPEG RST1
JPEG RST2
JPEG RST3
JPEG EOI
