  ExifToolVersion = 13.59
  FileName = media_18.jpg
  Directory = C:/Users/micro/IdeaProjects/kim/src/commonTest/resources/de/stefan_oltmann/kim/testdata/full
  FileSize = 1014597
  FileModifyDate = 1776264338.0352
  FileAccessDate = 1786601296.05538
  FileCreateDate = 1776264338.0322
  FilePermissions = 33206
  FileType = JPEG
  FileTypeExtension = JPG
  MIMEType = image/jpeg
JPEG APP1 (9172 bytes):
      0006: 45 78 69 66 00 00 49 49 2a 00 08 00 00 00 0e 00 [Exif..II*.......]
      0016: 0f 01 02 00 06 00 00 00 b6 00 00 00 10 01 02 00 [................]
      0026: 0e 00 00 00 bc 00 00 00 1a 01 05 00 01 00 00 00 [................]
      0036: ca 00 00 00 1b 01 05 00 01 00 00 00 d2 00 00 00 [................]
      0046: 28 01 03 00 01 00 00 00 02 00 00 00 31 01 02 00 [(...........1...]
      0056: 0e 00 00 00 da 00 00 00 32 01 02 00 14 00 00 00 [........2.......]
      0066: e8 00 00 00 3b 01 02 00 01 00 00 00 00 00 00 00 [....;...........]
      [snip 9060 bytes]
  ExifByteOrder = II
  + [IFD0 directory with 14 entries, Little-endian]
  | 0)  Make = Canon
  |     - Tag 0x010f (6 bytes, string[6]):
  |         00c2: 43 61 6e 6f 6e 00                               [Canon.]
  | 1)  Model = Canon EOS 60D
  |     - Tag 0x0110 (14 bytes, string[14]):
  |         00c8: 43 61 6e 6f 6e 20 45 4f 53 20 36 30 44 00       [Canon EOS 60D.]
  | 2)  XResolution = 72 (72/1)
  |     - Tag 0x011a (8 bytes, rational64u[1]):
  |         00d6: 48 00 00 00 01 00 00 00                         [H.......]
  | 3)  YResolution = 72 (72/1)
  |     - Tag 0x011b (8 bytes, rational64u[1]):
  |         00de: 48 00 00 00 01 00 00 00                         [H.......]
  | 4)  ResolutionUnit = 2
  |     - Tag 0x0128 (2 bytes, int16u[1]):
  |         004e: 02 00                                           [..]
  | 5)  Software = www.meitu.com
  |     - Tag 0x0131 (14 bytes, string[14]):
  |         00e6: 77 77 77 2e 6d 65 69 74 75 2e 63 6f 6d 00       [www.meitu.com.]
  | 6)  ModifyDate = 2018:11:20 06:14:24
  |     - Tag 0x0132 (20 bytes, string[20]):
  |         00f4: 32 30 31 38 3a 31 31 3a 32 30 20 30 36 3a 31 34 [2018:11:20 06:14]
  |         0104: 3a 32 34 00                                     [:24.]
  | 7)  Artist = 
  |     - Tag 0x013b (1 bytes, string[1]):
  |         0072: 00                                              [.]
  | 8)  WhitePoint = 0.313 0.329 (313/1000 329/1000)
  |     - Tag 0x013e (16 bytes, rational64u[2]):
  |         0108: 39 01 00 00 e8 03 00 00 49 01 00 00 e8 03 00 00 [9.......I.......]
  | 9)  PrimaryChromaticities = 0.64 0.33 0.21 0.71 0.15 0.06 (64/100 33/100 21/100 71/100 15/100 6/100)
  |     - Tag 0x013f (48 bytes, rational64u[6]):
  |         0118: 40 00 00 00 64 00 00 00 21 00 00 00 64 00 00 00 [@...d...!...d...]
  |         0128: 15 00 00 00 64 00 00 00 47 00 00 00 64 00 00 00 [....d...G...d...]
  |         0138: 0f 00 00 00 64 00 00 00 06 00 00 00 64 00 00 00 [....d.......d...]
  | 10) YCbCrCoefficients = 0.299 0.587 0.114 (299/1000 587/1000 114/1000)
  |     - Tag 0x0211 (24 bytes, rational64u[3]):
  |         0148: 2b 01 00 00 e8 03 00 00 4b 02 00 00 e8 03 00 00 [+.......K.......]
  |         0158: 72 00 00 00 e8 03 00 00                         [r.......]
  | 11) YCbCrPositioning = 2
  |     - Tag 0x0213 (2 bytes, int16u[1]):
  |         00a2: 02 00                                           [..]
  | 12) Copyright = 
  |     - Tag 0x8298 (1 bytes, string[1] read as undef[1]):
  |         00ae: 00                                              [.]
  | 13) ExifOffset (SubDirectory) -->
  |     - Tag 0x8769 (4 bytes, int32u[1]):
  |         00ba: 54 01 00 00                                     [T...]
  | + [ExifIFD directory with 39 entries, Little-endian]
  | | 0)  ExposureTime = 0.0015625 (1/640)
  | |     - Tag 0x829a (8 bytes, rational64u[1]):
  | |         033a: 01 00 00 00 80 02 00 00                         [........]
  | | 1)  FNumber = 7.1 (71/10)
  | |     - Tag 0x829d (8 bytes, rational64u[1]):
  | |         0342: 47 00 00 00 0a 00 00 00                         [G.......]
  | | 2)  ExposureProgram = 1
  | |     - Tag 0x8822 (2 bytes, int16u[1]):
  | |         0182: 01 00                                           [..]
  | | 3)  ISO = 100
  | |     - Tag 0x8827 (2 bytes, int16u[1]):
  | |         018e: 64 00                                           [d.]
  | | 4)  SensitivityType = 2
  | |     - Tag 0x8830 (2 bytes, int16u[1]):
  | |         019a: 02 00                                           [..]
  | | 5)  RecommendedExposureIndex = 100
  | |     - Tag 0x8832 (4 bytes, int32u[1]):
  | |         01a6: 64 00 00 00                                     [d...]
  | | 6)  ExifVersion = 0230
  | |     - Tag 0x9000 (4 bytes, undef[4]):
  | |         01b2: 30 32 33 30                                     [0230]
  | | 7)  DateTimeOriginal = 2018:11:20 06:14:24
  | |     - Tag 0x9003 (20 bytes, string[20]):
  | |         034a: 32 30 31 38 3a 31 31 3a 32 30 20 30 36 3a 31 34 [2018:11:20 06:14]
  | |         035a: 3a 32 34 00                                     [:24.]
  | | 8)  CreateDate = 2018:11:20 06:14:24
  | |     - Tag 0x9004 (20 bytes, string[20]):
  | |         035e: 32 30 31 38 3a 31 31 3a 32 30 20 30 36 3a 31 34 [2018:11:20 06:14]
  | |         036e: 3a 32 34 00                                     [:24.]
  | | 9)  ComponentsConfiguration = 1 2 3 0
  | |     - Tag 0x9101 (4 bytes, undef[4] read as int8u[4]):
  | |         01d6: 01 02 03 00                                     [....]
  | | 10) ShutterSpeedValue = 9.375 (614400/65536)
  | |     - Tag 0x9201 (8 bytes, rational64s[1]):
  | |         0372: 00 60 09 00 00 00 01 00                         [.`......]
  | | 11) ApertureValue = 5.625 (368640/65536)
  | |     - Tag 0x9202 (8 bytes, rational64u[1]):
  | |         037a: 00 a0 05 00 00 00 01 00                         [........]
  | | 12) ExposureCompensation = 0 (0/1)
  | |     - Tag 0x9204 (8 bytes, rational64s[1]):
  | |         0382: 00 00 00 00 01 00 00 00                         [........]
  | | 13) MeteringMode = 5
  | |     - Tag 0x9207 (2 bytes, int16u[1]):
  | |         0206: 05 00                                           [..]
  | | 14) Flash = 16
  | |     - Tag 0x9209 (2 bytes, int16u[1]):
  | |         0212: 10 00                                           [..]
  | | 15) FocalLength = 155 (155/1)
  | |     - Tag 0x920a (8 bytes, rational64u[1]):
  | |         038a: 9b 00 00 00 01 00 00 00                         [........]
  | | 16) MakerNoteCanon (SubDirectory) -->
  | |     - Tag 0x927c (7696 bytes, undef[7696]):
  | |         0392: 27 00 01 00 03 00 31 00 00 00 e4 05 00 00 02 00 ['.....1.........]
  | |         03a2: 03 00 04 00 00 00 46 06 00 00 03 00 03 00 04 00 [......F.........]
  | |         03b2: 00 00 4e 06 00 00 04 00 03 00 22 00 00 00 56 06 [..N......."...V.]
  | |         03c2: 00 00 06 00 02 00 0e 00 00 00 9a 06 00 00 07 00 [................]
  | |         03d2: 02 00 18 00 00 00 ba 06 00 00 09 00 02 00 20 00 [.............. .]
  | |         03e2: 00 00 d2 06 00 00 0c 00 04 00 01 00 00 00 10 cf [................]
  | |         03f2: 4b d1 0d 00 07 00 00 06 00 00 f2 06 00 00 10 00 [K...............]
  | |         0402: 04 00 01 00 00 00 87 02 00 80 13 00 03 00 04 00 [................]
  | |         0412: 00 00 f2 0c 00 00 15 00 04 00 01 00 00 00 00 00 [................]
  | |         0422: 00 a0 19 00 03 00 01 00 00 00 01 00 00 00 26 00 [..............&.]
  | |         0432: 03 00 30 00 00 00 fa 0c 00 00 83 00 04 00 01 00 [..0.............]
  | |         0442: 00 00 00 00 00 00 93 00 03 00 1b 00 00 00 5a 0f [..............Z.]
  | |         0452: 00 00 95 00 02 00 46 00 00 00 90 0f 00 00 96 00 [......F.........]
  | |         0462: 02 00 10 00 00 00 d6 0f 00 00 97 00 07 00 00 04 [................]
  | |         0472: 00 00 e6 0f 00 00 98 00 03 00 04 00 00 00 e6 13 [................]
  | |         0482: 00 00 99 00 04 00 4a 00 00 00 ee 13 00 00 9a 00 [......J.........]
  | |         0492: 04 00 05 00 00 00 16 15 00 00 a0 00 03 00 0e 00 [................]
  | |         04a2: 00 00 2a 15 00 00 aa 00 03 00 06 00 00 00 46 15 [..*...........F.]
  | |         04b2: 00 00 b4 00 03 00 01 00 00 00 02 00 00 00 d0 00 [................]
  | |         04c2: 04 00 01 00 00 00 00 00 00 00 e0 00 03 00 11 00 [................]
  | |         04d2: 00 00 52 15 00 00 01 40 03 00 42 05 00 00 74 15 [..R....@..B...t.]
  | |         04e2: 00 00 08 40 03 00 03 00 00 00 f8 1f 00 00 09 40 [...@...........@]
  | |         04f2: 03 00 03 00 00 00 fe 1f 00 00 10 40 02 00 20 00 [...........@.. .]
  | |         0502: 00 00 04 20 00 00 11 40 07 00 fc 00 00 00 24 20 [... ...@......$ ]
  | |         0512: 00 00 12 40 02 00 20 00 00 00 20 21 00 00 15 40 [...@.. ... !...@]
  | |         0522: 07 00 74 00 00 00 40 21 00 00 16 40 04 00 06 00 [..t...@!...@....]
  | |         0532: 00 00 b4 21 00 00 17 40 04 00 02 00 00 00 cc 21 [...!...@.......!]
  | |         0542: 00 00 18 40 04 00 03 00 00 00 d4 21 00 00 19 40 [...@.......!...@]
  | |         0552: 07 00 1e 00 00 00 e0 21 00 00 20 40 04 00 05 00 [.......!.. @....]
  | |         0562: 00 00 fe 21 00 00 00 00 00 00 62 00 02 00 00 00 [...!......b.....]
  | |         0572: 02 00 00 00 00 00 00 00 00 00 00 00 01 00 01 00 [................]
  | |         0582: 01 00 00 00 00 00 00 00 ff 7f ff 7f 03 00 02 00 [................]
  | |         0592: 00 00 04 00 ff ff 32 00 c8 00 12 00 01 00 a0 00 [......2.........]
  | |         05a2: 4c 01 00 00 00 00 00 00 00 00 ff ff ff ff ff ff [L...............]
  | |         05b2: 00 00 00 00 00 00 00 00 ff ff ff ff 00 00 00 00 [................]
  | |         05c2: ff 7f ff ff ff ff ff ff 00 00 ff ff 00 00 9b 00 [................]
  | |         05d2: c6 22 ea 4c 00 00 00 00 00 00 00 00 44 00 00 00 [.".L........D...]
  | |         05e2: a0 00 34 01 b4 00 2c 01 00 00 00 00 03 00 00 00 [..4...,.........]
  | |         05f2: 08 00 08 00 92 00 00 00 00 00 00 00 00 00 00 00 [................]
  | |         0602: ff 00 00 00 00 00 b4 00 2c 01 a5 00 00 00 00 00 [........,.......]
  | |         0612: f8 00 ff ff ff ff ff ff ff ff 00 00 00 00 00 00 [................]
  | |         0622: 43 61 6e 6f 6e 20 45 4f 53 20 36 30 44 00 00 00 [Canon EOS 60D...]
  | |         0632: 00 00 00 00 00 00 00 00 00 00 00 00 00 00 00 00 [................]
  | |         0642: 46 69 72 6d 77 61 72 65 20 56 65 72 73 69 6f 6e [Firmware Version]
  | |         0652: 20 31 2e 31 2e 31 00 00 00 00 00 00 00 00 00 00 [ 1.1.1..........]
  | |         0662: 00 00 00 00 00 00 00 00 00 00 00 00 00 00 00 00 [................]
  | |         0672: 00 00 00 00 00 00 00 00 aa aa 83 35 83 35 48 00 [...........5.5H.]
  | |         0682: a5 a5 00 03 00 00 00 00 00 00 ff 00 00 06 00 00 [................]
  | |         0692: 00 92 9a 57 62 57 00 9b 00 40 00 00 00 00 00 00 [...WbW...@......]
  | |         06a2: 01 00 00 01 bb bb 01 01 00 00 00 00 00 01 00 00 [................]
  | |         06b2: 00 00 00 00 00 00 00 00 00 00 00 00 00 40 20 00 [.............@ .]
  | |         06c2: ff 00 00 00 0f 87 00 01 6b 00 00 2d 00 51 af 12 [........k..-.Q..]
  | |         06d2: c7 00 0c cc cc 03 00 00 00 03 00 00 00 00 00 00 [................]
  | |         06e2: 00 48 00 00 00 00 00 00 00 01 ff 01 00 00 00 00 [.H..............]
  | |         06f2: 00 00 00 00 00 50 14 00 00 00 01 00 01 00 01 00 [.....P..........]
  | |         0702: 00 01 00 00 00 01 00 00 00 01 00 00 00 02 00 00 [................]
  | |         0712: 00 02 00 00 00 02 00 00 00 00 00 00 00 01 00 00 [................]
  | |         0722: 00 00 00 00 00 01 00 00 00 83 00 00 00 01 00 00 [................]
  | |         0732: 00 00 00 00 00 01 00 00 00 00 00 00 00 00 00 00 [................]
  | |         0742: 00 04 01 00 00 06 01 00 00 00 00 ff ff 06 00 00 [................]
  | |         0752: 00 00 00 ff ff 00 00 00 00 00 00 00 00 01 30 5b [..............0[]
  | |         0762: 00 32 00 12 00 c8 91 75 9a 1f 00 ff ff ff ff ff [.2.....u........]
  | |         0772: ff 02 00 00 00 00 00 00 00 00 00 00 00 00 00 00 [................]
  | |         0782: 00 00 00 00 00 00 00 00 00 00 00 00 00 01 00 00 [................]
  | |         0792: 00 40 14 00 00 80 0d 00 00 34 10 00 00 74 09 00 [.@.......4...t..]
  | |         07a2: 00 06 02 00 00 b3 02 00 00 d0 02 00 00 e0 01 00 [................]
  | |         07b2: 00 00 00 00 00 00 00 00 00 d0 02 00 00 e0 01 00 [................]
  | |         07c2: 00 d0 02 00 00 e0 01 00 00 00 00 00 00 00 00 00 [................]
  | |         07d2: 00 d0 02 00 00 e0 01 00 00 00 00 00 00 00 00 00 [................]
  | |         07e2: 00 01 00 00 00 00 00 00 00 01 00 00 00 00 00 00 [................]
  | |         07f2: 00 00 00 00 00 00 00 00 00 00 00 00 00 00 02 00 [................]
  | |         0802: 00 00 01 00 01 01 00 02 01 00 00 00 00 00 00 00 [................]
  | |         0812: 00 31 2e 31 2e 31 00 36 43 28 32 66 29 00 41 63 [.1.1.1.6C(2f).Ac]
  | |         0822: 6b 00 00 00 00 00 00 00 00 00 00 00 00 00 00 00 [k...............]
  | |         0832: 00 00 00 00 00 00 00 00 00 00 00 00 00 00 00 00 [................]
  | |         0842: 00 8e 00 00 00 65 00 00 00 64 00 00 00 00 00 00 [.....e...d......]
  | |         0852: 00 8a 0c 00 00 00 00 00 00 64 00 00 00 66 00 00 [.........d...f..]
  | |         0862: 00 64 00 00 00 08 00 00 00 08 00 00 00 08 00 00 [.d..............]
  | |         0872: 00 08 00 00 00 01 00 00 00 00 00 00 00 00 00 00 [................]
  | |         0882: 00 00 00 00 00 00 00 00 00 00 00 00 00 00 00 00 [................]
  | |         0892: 00 00 00 00 00 00 00 00 00 f6 01 00 04 00 04 cf [................]
  | |         08a2: 02 40 23 90 91 10 cf 4b d1 00 00 00 00 00 00 00 [.@#....K........]
  | |         08b2: 00 00 00 00 00 00 00 00 00 00 00 00 00 00 00 00 [................]
  | |         08c2: 00 00 00 00 00 00 00 00 00 00 00 00 00 e9 01 00 [................]
  | |         08d2: 04 00 04 9f 02 00 00 00 00 00 00 00 00 00 00 00 [................]
  | |         08e2: 00 00 00 00 00 00 00 00 00 00 00 00 00 00 00 00 [................]
  | |         08f2: 00 00 00 00 00 00 00 00 00 00 00 00 00 00 00 00 [................]
  | |         0902: 00 e9 01 00 04 00 04 9f 02 00 00 00 00 00 00 00 [................]
  | |         0912: 00 00 00 00 00 00 00 00 00 00 00 00 00 00 00 00 [................]
  | |         0922: 00 00 00 00 00 00 00 00 00 00 00 00 00 00 00 00 [................]
  | |         0932: 00 00 00 00 00 e9 01 00 04 00 04 9f 02 00 00 00 [................]
  | |         0942: 00 00 00 00 00 00 00 00 00 00 00 00 00 00 00 00 [................]
  | |         0952: 00 00 00 00 00 00 00 00 00 00 00 00 00 00 00 00 [................]
  | |         0962: 00 00 00 00 00 00 00 00 00 e9 01 00 04 00 04 9f [................]
  | |         0972: 02 00 00 00 00 00 00 00 00 00 00 00 00 00 00 00 [................]
  | |         0982: 00 01 00 00 00 00 00 00 00 00 00 00 00 00 00 00 [................]
  | |         0992: 00 00 00 00 00 02 00 00 00 00 00 00 00 03 00 00 [................]
  | |         09a2: 00 00 00 00 00 00 00 00 00 ef be ad de ef be ad [................]
  | |         09b2: de 00 00 00 00 02 00 00 00 00 00 00 00 00 00 00 [................]
  | |         09c2: 00 ef be ad de ef be ad de 00 00 00 00 04 00 00 [................]
  | |         09d2: 00 00 00 00 00 00 00 00 00 ef be ad de ef be ad [................]
  | |         09e2: de 00 00 00 00 00 00 00 00 00 00 00 00 00 00 00 [................]
  | |         09f2: 00 ef be ad de ef be ad de 00 00 00 00 00 00 00 [................]
  | |         0a02: 00 00 00 00 00 00 00 00 00 ef be ad de ef be ad [................]
  | |         0a12: de 00 00 00 00 03 00 00 00 ef be ad de ef be ad [................]
  | |         0a22: de 00 00 00 00 00 00 00 00 00 00 00 00 00 00 00 [................]
  | |         0a32: 00 00 00 00 00 00 00 00 00 00 00 00 00 00 00 00 [................]
  | |         0a42: 00 00 00 00 00 03 00 00 00 ef be ad de ef be ad [................]
  | |         0a52: de 01 00 00 00 01 00 00 00 00 00 00 00 03 00 00 [................]
  | |         0a62: 00 00 00 00 00 00 00 00 00 00 00 00 00 00 00 00 [................]
  | |         0a72: 00 03 00 00 00 04 00 00 00 ff ff ff ff 02 00 00 [................]
  | |         0a82: 00 ef be ad de ef be ad de 86 00 81 00 83 00 00 [................]
  | |         0a92: 00 ff ff ff ff ff ff ff ff 00 00 00 00 00 00 00 [................]
  | |         0aa2: 00 00 00 00 00 00 00 00 00 00 00 00 00 00 00 00 [................]
  | |         0ab2: 00 00 00 00 00 00 00 00 00 00 04 00 04 00 04 00 [................]
  | |         0ac2: 04 00 00 00 00 00 00 00 00 00 00 00 00 00 00 00 [................]
  | |         0ad2: 00 00 00 00 00 00 00 00 00 00 00 00 00 00 00 00 [................]
  | |         0ae2: 00 00 04 00 04 00 04 00 04 00 00 00 00 00 00 00 [................]
  | |         0af2: 00 00 00 00 00 00 00 00 00 00 00 00 00 00 00 00 [................]
  | |         0b02: 00 00 00 00 00 00 00 00 00 00 04 00 04 00 04 00 [................]
  | |         0b12: 04 00 00 00 00 00 00 00 00 00 00 00 00 00 00 00 [................]
  | |         0b22: 00 00 00 00 00 00 00 00 00 00 00 00 00 00 00 00 [................]
  | |         0b32: 00 00 04 00 04 00 04 00 04 00 00 00 00 00 00 00 [................]
  | |         0b42: 00 00 00 00 00 00 00 00 00 00 00 00 00 00 00 00 [................]
  | |         0b52: 00 00 00 00 00 00 00 00 00 00 04 00 04 00 04 00 [................]
  | |         0b62: 04 00 00 00 00 00 00 00 00 40 a6 f3 5b 01 00 00 [.........@..[...]
  | |         0b72: 00 20 00 00 00 00 00 00 00 20 00 00 00 00 00 00 [. ....... ......]
  | |         [snip 5664 bytes]
  | | + [MakerNotes directory with 39 entries, Little-endian]
  | | | Warning = [minor] Adjusted MakerNotes base by -132
  | | | 0)  CanonCameraSettings (SubDirectory) -->
  | | |     - Tag 0x0001 (98 bytes, int16u[49] read as undef[98]):
  | | |         056c: 62 00 02 00 00 00 02 00 00 00 00 00 00 00 00 00 [b...............]
  | | |         057c: 00 00 01 00 01 00 01 00 00 00 00 00 00 00 ff 7f [................]
  | | |         058c: ff 7f 03 00 02 00 00 00 04 00 ff ff 32 00 c8 00 [............2...]
  | | |         059c: 12 00 01 00 a0 00 4c 01 00 00 00 00 00 00 00 00 [......L.........]
  | | |         05ac: ff ff ff ff ff ff 00 00 00 00 00 00 00 00 ff ff [................]
  | | |         05bc: ff ff 00 00 00 00 ff 7f ff ff ff ff ff ff 00 00 [................]
  | | |         05cc: ff ff                                           [..]
  | | | + [BinaryData directory, 98 bytes, Little-endian]
  | | | | MacroMode = 2
  | | | | - Tag 0x0001 (2 bytes, int16s[1]):
  | | | |     056e: 02 00                                           [..]
  | | | | SelfTimer = 0
  | | | | - Tag 0x0002 (2 bytes, int16s[1]):
  | | | |     0570: 00 00                                           [..]
  | | | | Quality = 2
  | | | | - Tag 0x0003 (2 bytes, int16s[1]):
  | | | |     0572: 02 00                                           [..]
  | | | | CanonFlashMode = 0
  | | | | - Tag 0x0004 (2 bytes, int16s[1]):
  | | | |     0574: 00 00                                           [..]
  | | | | ContinuousDrive = 0
  | | | | - Tag 0x0005 (2 bytes, int16s[1]):
  | | | |     0576: 00 00                                           [..]
  | | | | FocusMode = 0
  | | | | - Tag 0x0007 (2 bytes, int16s[1]):
  | | | |     057a: 00 00                                           [..]
  | | | | RecordMode = 1
  | | | | - Tag 0x0009 (2 bytes, int16s[1]):
  | | | |     057e: 01 00                                           [..]
  | | | | CanonImageSize = 1
  | | | | - Tag 0x000a (2 bytes, int16s[1]):
  | | | |     0580: 01 00                                           [..]
  | | | | EasyMode = 1
  | | | | - Tag 0x000b (2 bytes, int16s[1]):
  | | | |     0582: 01 00                                           [..]
  | | | | DigitalZoom = 0
  | | | | - Tag 0x000c (2 bytes, int16s[1]):
  | | | |     0584: 00 00                                           [..]
  | | | | Contrast = 0
  | | | | - Tag 0x000d (2 bytes, int16s[1]):
  | | | |     0586: 00 00                                           [..]
  | | | | Saturation = 0
  | | | | - Tag 0x000e (2 bytes, int16s[1]):
  | | | |     0588: 00 00                                           [..]
  | | | | Sharpness = 32767
  | | | | - Tag 0x000f (2 bytes, int16s[1]):
  | | | |     058a: ff 7f                                           [..]
  | | | | CameraISO = 32767
  | | | | - Tag 0x0010 (2 bytes, int16s[1]):
  | | | |     058c: ff 7f                                           [..]
  | | | | MeteringMode = 3
  | | | | - Tag 0x0011 (2 bytes, int16s[1]):
  | | | |     058e: 03 00                                           [..]
  | | | | FocusRange = 2
  | | | | - Tag 0x0012 (2 bytes, int16s[1]):
  | | | |     0590: 02 00                                           [..]
  | | | | AFPoint = 0
  | | | | - Tag 0x0013 (2 bytes, int16s[1]):
  | | | |     0592: 00 00                                           [..]
  | | | | CanonExposureMode = 4
  | | | | - Tag 0x0014 (2 bytes, int16s[1]):
  | | | |     0594: 04 00                                           [..]
  | | | | LensType = 50
  | | | | - Tag 0x0016 (2 bytes, int16u[1]):
  | | | |     0598: 32 00                                           [2.]
  | | | | MaxFocalLength = 200
  | | | | - Tag 0x0017 (2 bytes, int16u[1]):
  | | | |     059a: c8 00                                           [..]
  | | | | MinFocalLength = 18
  | | | | - Tag 0x0018 (2 bytes, int16u[1]):
  | | | |     059c: 12 00                                           [..]
  | | | | FocalUnits = 1
  | | | | - Tag 0x0019 (2 bytes, int16s[1]):
  | | | |     059e: 01 00                                           [..]
  | | | | MaxAperture = 160
  | | | | - Tag 0x001a (2 bytes, int16s[1]):
  | | | |     05a0: a0 00                                           [..]
  | | | | MinAperture = 332
  | | | | - Tag 0x001b (2 bytes, int16s[1]):
  | | | |     05a2: 4c 01                                           [L.]
  | | | | FlashModel = 0
  | | | | - Tag 0x001c, mask 0x7f (2 bytes, int16s[1]):
  | | | |     05a4: 00 00                                           [..]
  | | | | FlashBits = 0
  | | | | - Tag 0x001d (2 bytes, int16s[1]):
  | | | |     05a6: 00 00                                           [..]
  | | | | FocusContinuous = -1
  | | | | - Tag 0x0020 (2 bytes, int16s[1]):
  | | | |     05ac: ff ff                                           [..]
  | | | | AESetting = -1
  | | | | - Tag 0x0021 (2 bytes, int16s[1]):
  | | | |     05ae: ff ff                                           [..]
  | | | | ImageStabilization = -1
  | | | | - Tag 0x0022 (2 bytes, int16s[1]):
  | | | |     05b0: ff ff                                           [..]
  | | | | DisplayAperture = 0
  | | | | - Tag 0x0023 (2 bytes, int16s[1]):
  | | | |     05b2: 00 00                                           [..]
  | | | | ZoomSourceWidth = 0
  | | | | - Tag 0x0024 (2 bytes, int16s[1]):
  | | | |     05b4: 00 00                                           [..]
  | | | | ZoomTargetWidth = 0
  | | | | - Tag 0x0025 (2 bytes, int16s[1]):
  | | | |     05b6: 00 00                                           [..]
  | | | | SpotMeteringMode = -1
  | | | | - Tag 0x0027 (2 bytes, int16s[1]):
  | | | |     05ba: ff ff                                           [..]
  | | | | PhotoEffect = -1
  | | | | - Tag 0x0028 (2 bytes, int16s[1]):
  | | | |     05bc: ff ff                                           [..]
  | | | | ManualFlashOutput = 0
  | | | | - Tag 0x0029 (2 bytes, int16s[1]):
  | | | |     05be: 00 00                                           [..]
  | | | | ColorTone = 0
  | | | | - Tag 0x002a (2 bytes, int16s[1]):
  | | | |     05c0: 00 00                                           [..]
  | | | | SRAWQuality = -1
  | | | | - Tag 0x002e (2 bytes, int16s[1]):
  | | | |     05c8: ff ff                                           [..]
  | | | 1)  CanonFocalLength (SubDirectory) -->
  | | |     - Tag 0x0002 (8 bytes, int16u[4] read as undef[8]):
  | | |         05ce: 00 00 9b 00 c6 22 ea 4c                         [.....".L]
  | | | + [BinaryData directory, 8 bytes, Little-endian]
  | | | | FocalType = 0
  | | | | - Tag 0x0000 (2 bytes, int16u[1]):
  | | | |     05ce: 00 00                                           [..]
  | | | | FocalLength = 155
  | | | | - Tag 0x0001 (2 bytes, int16u[1]):
  | | | |     05d0: 9b 00                                           [..]
  | | | | FocalPlaneXUnknown = 8902
  | | | | - Tag 0x0002 (2 bytes, int16u[1]):
  | | | |     05d2: c6 22                                           [."]
  | | | | FocalPlaneYUnknown = 19690
  | | | | - Tag 0x0003 (2 bytes, int16u[1]):
  | | | |     05d4: ea 4c                                           [.L]
  | | | 2)  CanonFlashInfo = 0 0 0 0
  | | |     - Tag 0x0003 (8 bytes, int16u[4]):
  | | |         05d6: 00 00 00 00 00 00 00 00                         [........]
  | | | 3)  CanonShotInfo (SubDirectory) -->
  | | |     - Tag 0x0004 (68 bytes, int16u[34] read as undef[68]):
  | | |         05de: 44 00 00 00 a0 00 34 01 b4 00 2c 01 00 00 00 00 [D.....4...,.....]
  | | |         05ee: 03 00 00 00 08 00 08 00 92 00 00 00 00 00 00 00 [................]
  | | |         05fe: 00 00 00 00 ff 00 00 00 00 00 b4 00 2c 01 a5 00 [............,...]
  | | |         060e: 00 00 00 00 f8 00 ff ff ff ff ff ff ff ff 00 00 [................]
  | | |         061e: 00 00 00 00                                     [....]
  | | | + [BinaryData directory, 68 bytes, Little-endian]
  | | | | AutoISO = 0
  | | | | - Tag 0x0001 (2 bytes, int16s[1]):
  | | | |     05e0: 00 00                                           [..]
  | | | | BaseISO = 160
  | | | | - Tag 0x0002 (2 bytes, int16s[1]):
  | | | |     05e2: a0 00                                           [..]
  | | | | MeasuredEV = 308
  | | | | - Tag 0x0003 (2 bytes, int16s[1]):
  | | | |     05e4: 34 01                                           [4.]
  | | | | TargetAperture = 180
  | | | | - Tag 0x0004 (2 bytes, int16s[1]):
  | | | |     05e6: b4 00                                           [..]
  | | | | TargetExposureTime = 300
  | | | | - Tag 0x0005 (2 bytes, int16s[1]):
  | | | |     05e8: 2c 01                                           [,.]
  | | | | ExposureCompensation = 0
  | | | | - Tag 0x0006 (2 bytes, int16s[1]):
  | | | |     05ea: 00 00                                           [..]
  | | | | WhiteBalance = 0
  | | | | - Tag 0x0007 (2 bytes, int16s[1]):
  | | | |     05ec: 00 00                                           [..]
  | | | | SlowShutter = 3
  | | | | - Tag 0x0008 (2 bytes, int16s[1]):
  | | | |     05ee: 03 00                                           [..]
  | | | | SequenceNumber = 0
  | | | | - Tag 0x0009 (2 bytes, int16s[1]):
  | | | |     05f0: 00 00                                           [..]
  | | | | OpticalZoomCode = 8
  | | | | - Tag 0x000a (2 bytes, int16s[1]):
  | | | |     05f2: 08 00                                           [..]
  | | | | CameraTemperature = 146
  | | | | - Tag 0x000c (2 bytes, int16s[1]):
  | | | |     05f6: 92 00                                           [..]
  | | | | FlashGuideNumber = 0
  | | | | - Tag 0x000d (2 bytes, int16s[1]):
  | | | |     05f8: 00 00                                           [..]
  | | | | AFPointsInFocus = 0
  | | | | - Tag 0x000e (2 bytes, int16s[1]):
  | | | |     05fa: 00 00                                           [..]
  | | | | FlashExposureComp = 0
  | | | | - Tag 0x000f (2 bytes, int16s[1]):
  | | | |     05fc: 00 00                                           [..]
  | | | | AutoExposureBracketing = 0
  | | | | - Tag 0x0010 (2 bytes, int16s[1]):
  | | | |     05fe: 00 00                                           [..]
  | | | | AEBBracketValue = 0
  | | | | - Tag 0x0011 (2 bytes, int16s[1]):
  | | | |     0600: 00 00                                           [..]
  | | | | ControlMode = 255
  | | | | - Tag 0x0012 (2 bytes, int16s[1]):
  | | | |     0602: ff 00                                           [..]
  | | | | FocusDistanceUpper = 0
  | | | | - Tag 0x0013 (2 bytes, int16u[1]):
  | | | |     0604: 00 00                                           [..]
  | | | | FNumber = 180
  | | | | - Tag 0x0015 (2 bytes, int16s[1]):
  | | | |     0608: b4 00                                           [..]
  | | | | ExposureTime = 300
  | | | | - Tag 0x0016 (2 bytes, int16s[1]):
  | | | |     060a: 2c 01                                           [,.]
  | | | | MeasuredEV2 = 165
  | | | | - Tag 0x0017 (2 bytes, int16s[1]):
  | | | |     060c: a5 00                                           [..]
  | | | | BulbDuration = 0
  | | | | - Tag 0x0018 (2 bytes, int16s[1]):
  | | | |     060e: 00 00                                           [..]
  | | | | CameraType = 248
  | | | | - Tag 0x001a (2 bytes, int16s[1]):
  | | | |     0612: f8 00                                           [..]
  | | | | AutoRotate = -1
  | | | | - Tag 0x001b (2 bytes, int16s[1]):
  | | | |     0614: ff ff                                           [..]
  | | | | NDFilter = -1
  | | | | - Tag 0x001c (2 bytes, int16s[1]):
  | | | |     0616: ff ff                                           [..]
  | | | | SelfTimer2 = -1
  | | | | - Tag 0x001d (2 bytes, int16s[1]):
  | | | |     0618: ff ff                                           [..]
  | | | | FlashOutput = 0
  | | | | - Tag 0x0021 (2 bytes, int16s[1]):
  | | | |     0620: 00 00                                           [..]
  | | | 4)  CanonImageType = Canon EOS 60D
  | | |     - Tag 0x0006 (14 bytes, string[14]):
  | | |         0622: 43 61 6e 6f 6e 20 45 4f 53 20 36 30 44 00       [Canon EOS 60D.]
  | | | 5)  CanonFirmwareVersion = Firmware Version 1.1.1
  | | |     - Tag 0x0007 (24 bytes, string[24]):
  | | |         0642: 46 69 72 6d 77 61 72 65 20 56 65 72 73 69 6f 6e [Firmware Version]
  | | |         0652: 20 31 2e 31 2e 31 00 00                         [ 1.1.1..]
  | | | 6)  OwnerName = 
  | | |     - Tag 0x0009 (32 bytes, string[32]):
  | | |         065a: 00 00 00 00 00 00 00 00 00 00 00 00 00 00 00 00 [................]
  | | |         066a: 00 00 00 00 00 00 00 00 00 00 00 00 00 00 00 00 [................]
  | | | 7)  SerialNumber = 3511406352
  | | |     - Tag 0x000c (4 bytes, int32u[1]):
  | | |         03f0: 10 cf 4b d1                                     [..K.]
  | | | 8)  CanonCameraInfo60D (SubDirectory) -->
  | | |     - Tag 0x000d (1536 bytes, undef[1536]):
  | | |         067a: aa aa 83 35 83 35 48 00 a5 a5 00 03 00 00 00 00 [...5.5H.........]
  | | |         068a: 00 00 ff 00 00 06 00 00 00 92 9a 57 62 57 00 9b [...........WbW..]
  | | |         069a: 00 40 00 00 00 00 00 00 01 00 00 01 bb bb 01 01 [.@..............]
  | | |         06aa: 00 00 00 00 00 01 00 00 00 00 00 00 00 00 00 00 [................]
  | | |         06ba: 00 00 00 00 00 40 20 00 ff 00 00 00 0f 87 00 01 [.....@ .........]
  | | |         06ca: 6b 00 00 2d 00 51 af 12 c7 00 0c cc cc 03 00 00 [k..-.Q..........]
  | | |         06da: 00 03 00 00 00 00 00 00 00 48 00 00 00 00 00 00 [.........H......]
  | | |         06ea: 00 01 ff 01 00 00 00 00 00 00 00 00 00 50 14 00 [.............P..]
  | | |         06fa: 00 00 01 00 01 00 01 00 00 01 00 00 00 01 00 00 [................]
  | | |         070a: 00 01 00 00 00 02 00 00 00 02 00 00 00 02 00 00 [................]
  | | |         071a: 00 00 00 00 00 01 00 00 00 00 00 00 00 01 00 00 [................]
  | | |         072a: 00 83 00 00 00 01 00 00 00 00 00 00 00 01 00 00 [................]
  | | |         073a: 00 00 00 00 00 00 00 00 00 04 01 00 00 06 01 00 [................]
  | | |         074a: 00 00 00 ff ff 06 00 00 00 00 00 ff ff 00 00 00 [................]
  | | |         075a: 00 00 00 00 00 01 30 5b 00 32 00 12 00 c8 91 75 [......0[.2.....u]
  | | |         076a: 9a 1f 00 ff ff ff ff ff ff 02 00 00 00 00 00 00 [................]
  | | |         077a: 00 00 00 00 00 00 00 00 00 00 00 00 00 00 00 00 [................]
  | | |         078a: 00 00 00 00 00 01 00 00 00 40 14 00 00 80 0d 00 [.........@......]
  | | |         079a: 00 34 10 00 00 74 09 00 00 06 02 00 00 b3 02 00 [.4...t..........]
  | | |         07aa: 00 d0 02 00 00 e0 01 00 00 00 00 00 00 00 00 00 [................]
  | | |         07ba: 00 d0 02 00 00 e0 01 00 00 d0 02 00 00 e0 01 00 [................]
  | | |         07ca: 00 00 00 00 00 00 00 00 00 d0 02 00 00 e0 01 00 [................]
  | | |         07da: 00 00 00 00 00 00 00 00 00 01 00 00 00 00 00 00 [................]
  | | |         07ea: 00 01 00 00 00 00 00 00 00 00 00 00 00 00 00 00 [................]
  | | |         07fa: 00 00 00 00 00 00 02 00 00 00 01 00 01 01 00 02 [................]
  | | |         080a: 01 00 00 00 00 00 00 00 00 31 2e 31 2e 31 00 36 [.........1.1.1.6]
  | | |         081a: 43 28 32 66 29 00 41 63 6b 00 00 00 00 00 00 00 [C(2f).Ack.......]
  | | |         082a: 00 00 00 00 00 00 00 00 00 00 00 00 00 00 00 00 [................]
  | | |         083a: 00 00 00 00 00 00 00 00 00 8e 00 00 00 65 00 00 [.............e..]
  | | |         084a: 00 64 00 00 00 00 00 00 00 8a 0c 00 00 00 00 00 [.d..............]
  | | |         085a: 00 64 00 00 00 66 00 00 00 64 00 00 00 08 00 00 [.d...f...d......]
  | | |         086a: 00 08 00 00 00 08 00 00 00 08 00 00 00 01 00 00 [................]
  | | |         087a: 00 00 00 00 00 00 00 00 00 00 00 00 00 00 00 00 [................]
  | | |         088a: 00 00 00 00 00 00 00 00 00 00 00 00 00 00 00 00 [................]
  | | |         089a: 00 f6 01 00 04 00 04 cf 02 40 23 90 91 10 cf 4b [.........@#....K]
  | | |         08aa: d1 00 00 00 00 00 00 00 00 00 00 00 00 00 00 00 [................]
  | | |         08ba: 00 00 00 00 00 00 00 00 00 00 00 00 00 00 00 00 [................]
  | | |         08ca: 00 00 00 00 00 e9 01 00 04 00 04 9f 02 00 00 00 [................]
  | | |         08da: 00 00 00 00 00 00 00 00 00 00 00 00 00 00 00 00 [................]
  | | |         08ea: 00 00 00 00 00 00 00 00 00 00 00 00 00 00 00 00 [................]
  | | |         08fa: 00 00 00 00 00 00 00 00 00 e9 01 00 04 00 04 9f [................]
  | | |         090a: 02 00 00 00 00 00 00 00 00 00 00 00 00 00 00 00 [................]
  | | |         091a: 00 00 00 00 00 00 00 00 00 00 00 00 00 00 00 00 [................]
  | | |         092a: 00 00 00 00 00 00 00 00 00 00 00 00 00 e9 01 00 [................]
  | | |         093a: 04 00 04 9f 02 00 00 00 00 00 00 00 00 00 00 00 [................]
  | | |         094a: 00 00 00 00 00 00 00 00 00 00 00 00 00 00 00 00 [................]
  | | |         095a: 00 00 00 00 00 00 00 00 00 00 00 00 00 00 00 00 [................]
  | | |         096a: 00 e9 01 00 04 00 04 9f 02 00 00 00 00 00 00 00 [................]
  | | |         097a: 00 00 00 00 00 00 00 00 00 01 00 00 00 00 00 00 [................]
  | | |         098a: 00 00 00 00 00 00 00 00 00 00 00 00 00 02 00 00 [................]
  | | |         099a: 00 00 00 00 00 03 00 00 00 00 00 00 00 00 00 00 [................]
  | | |         09aa: 00 ef be ad de ef be ad de 00 00 00 00 02 00 00 [................]
  | | |         09ba: 00 00 00 00 00 00 00 00 00 ef be ad de ef be ad [................]
  | | |         09ca: de 00 00 00 00 04 00 00 00 00 00 00 00 00 00 00 [................]
  | | |         09da: 00 ef be ad de ef be ad de 00 00 00 00 00 00 00 [................]
  | | |         09ea: 00 00 00 00 00 00 00 00 00 ef be ad de ef be ad [................]
  | | |         09fa: de 00 00 00 00 00 00 00 00 00 00 00 00 00 00 00 [................]
  | | |         0a0a: 00 ef be ad de ef be ad de 00 00 00 00 03 00 00 [................]
  | | |         0a1a: 00 ef be ad de ef be ad de 00 00 00 00 00 00 00 [................]
  | | |         0a2a: 00 00 00 00 00 00 00 00 00 00 00 00 00 00 00 00 [................]
  | | |         0a3a: 00 00 00 00 00 00 00 00 00 00 00 00 00 03 00 00 [................]
  | | |         0a4a: 00 ef be ad de ef be ad de 01 00 00 00 01 00 00 [................]
  | | |         0a5a: 00 00 00 00 00 03 00 00 00 00 00 00 00 00 00 00 [................]
  | | |         0a6a: 00 00 00 00 00 00 00 00 00 03 00 00 00 04 00 00 [................]
  | | |         0a7a: 00 ff ff ff ff 02 00 00 00 ef be ad de ef be ad [................]
  | | |         0a8a: de 86 00 81 00 83 00 00 00 ff ff ff ff ff ff ff [................]
  | | |         0a9a: ff 00 00 00 00 00 00 00 00 00 00 00 00 00 00 00 [................]
  | | |         0aaa: 00 00 00 00 00 00 00 00 00 00 00 00 00 00 00 00 [................]
  | | |         0aba: 00 00 04 00 04 00 04 00 04 00 00 00 00 00 00 00 [................]
  | | |         0aca: 00 00 00 00 00 00 00 00 00 00 00 00 00 00 00 00 [................]
  | | |         0ada: 00 00 00 00 00 00 00 00 00 00 04 00 04 00 04 00 [................]
  | | |         0aea: 04 00 00 00 00 00 00 00 00 00 00 00 00 00 00 00 [................]
  | | |         0afa: 00 00 00 00 00 00 00 00 00 00 00 00 00 00 00 00 [................]
  | | |         0b0a: 00 00 04 00 04 00 04 00 04 00 00 00 00 00 00 00 [................]
  | | |         0b1a: 00 00 00 00 00 00 00 00 00 00 00 00 00 00 00 00 [................]
  | | |         0b2a: 00 00 00 00 00 00 00 00 00 00 04 00 04 00 04 00 [................]
  | | |         0b3a: 04 00 00 00 00 00 00 00 00 00 00 00 00 00 00 00 [................]
  | | |         0b4a: 00 00 00 00 00 00 00 00 00 00 00 00 00 00 00 00 [................]
  | | |         0b5a: 00 00 04 00 04 00 04 00 04 00 00 00 00 00 00 00 [................]
  | | |         0b6a: 00 40 a6 f3 5b 01 00 00 00 20 00 00 00 00 00 00 [.@..[.... ......]
  | | |         0b7a: 00 20 00 00 00 00 00 00 00 20 00 00 00 00 00 00 [. ....... ......]
  | | |         0b8a: 00 00 00 00 10 00 00 00 00 00 00 00 00 00 00 00 [................]
  | | |         0b9a: 00 60 2e 00 00 74 d7 00 00 00 00 00 00 00 00 00 [.`...t..........]
  | | |         0baa: 00 00 00 00 00 00 00 00 00 00 00 00 00 00 00 00 [................]
  | | |         0bba: 00 00 00 00 00 00 00 00 00 00 00 00 00 00 00 00 [................]
  | | |         0bca: 00 00 00 00 00 00 00 00 00 00 00 00 00 00 00 00 [................]
  | | |         0bda: 00 00 00 00 00 00 00 00 00 00 00 00 00 00 00 00 [................]
  | | |         0bea: 00 00 00 00 00 00 00 00 00 00 00 00 00 00 00 00 [................]
  | | |         0bfa: 00 00 00 00 00 00 00 00 00 00 00 00 00 00 00 00 [................]
  | | |         0c0a: 00 00 00 00 00 00 00 00 00 00 00 00 00 00 00 00 [................]
  | | |         0c1a: 00 00 00 00 00 00 00 00 00 00 00 00 00 00 00 00 [................]
  | | |         0c2a: 00 00 00 00 00 00 00 00 00 00 00 00 00 00 00 00 [................]
  | | |         0c3a: 00 00 00 00 00 00 00 00 00 00 00 00 00 00 00 00 [................]
  | | |         0c4a: 00 00 00 00 00 00 00 00 00 00 00 00 00 00 00 00 [................]
  | | |         0c5a: 00 00 00 00 00 00 00 00 00 00 00 00 00 00 00 00 [................]
  | | |         0c6a: 00 00 00 00 00 00 00 00 00 00 00 00 00 00 00 00 [................]
  | | | + [BinaryData directory, 1536 bytes, Little-endian]
  | | | | FNumber = 53
  | | | | - Tag 0x0003 (1 bytes, int8u[1]):
  | | | |     067d: 35                                              [5]
  | | | | ExposureTime = 131
  | | | | - Tag 0x0004 (1 bytes, int8u[1]):
  | | | |     067e: 83                                              [.]
  | | | | ISO = 72
  | | | | - Tag 0x0006 (1 bytes, int8u[1]):
  | | | |     0680: 48                                              [H]
  | | | | CameraTemperature = 146
  | | | | - Tag 0x0019 (1 bytes, int8u[1]):
  | | | |     0693: 92                                              [.]
  | | | | FocalLength = 155
  | | | | - Tag 0x001e (2 bytes, int16uRev[1]):
  | | | |     0698: 00 9b                                           [..]
  | | | | CameraOrientation = 0
  | | | | - Tag 0x0036 (1 bytes, int8u[1]):
  | | | |     06b0: 00                                              [.]
  | | | | FocusDistanceUpper = 20911
  | | | | - Tag 0x0055 (2 bytes, int16uRev[1]):
  | | | |     06cf: 51 af                                           [Q.]
  | | | | FocusDistanceLower = 4807
  | | | | - Tag 0x0057 (2 bytes, int16uRev[1]):
  | | | |     06d1: 12 c7                                           [..]
  | | | | ColorTemperature = 5200
  | | | | - Tag 0x007d (2 bytes, int16u[1]):
  | | | |     06f7: 50 14                                           [P.]
  | | | | LensType = 50
  | | | | - Tag 0x00e8 (2 bytes, int16uRev[1]):
  | | | |     0762: 00 32                                           [.2]
  | | | | MinFocalLength = 18
  | | | | - Tag 0x00ea (2 bytes, int16uRev[1]):
  | | | |     0764: 00 12                                           [..]
  | | | | MaxFocalLength = 200
  | | | | - Tag 0x00ec (2 bytes, int16uRev[1]):
  | | | |     0766: 00 c8                                           [..]
  | | | | FirmwareVersion = 1.1.1
  | | | | - Tag 0x0199 (6 bytes, string[6]):
  | | | |     0813: 31 2e 31 2e 31 00                               [1.1.1.]
  | | | | FileIndex = 3210
  | | | | - Tag 0x01d9 (4 bytes, int32u[1]):
  | | | |     0853: 8a 0c 00 00                                     [....]
  | | | | DirectoryIndex = 102
  | | | | - Tag 0x01e5 (4 bytes, int32u[1]):
  | | | |     085f: 66 00 00 00                                     [f...]
  | | | | PictureStyleInfo (SubDirectory) -->
  | | | | - Tag 0x0321 (735 bytes, int8u[1]):
  | | | |     099b: 00 00 00 00 03 00 00 00 00 00 00 00 00 00 00 00 [................]
  | | | |     09ab: ef be ad de ef be ad de 00 00 00 00 02 00 00 00 [................]
  | | | |     09bb: 00 00 00 00 00 00 00 00 ef be ad de ef be ad de [................]
  | | | |     09cb: 00 00 00 00 04 00 00 00 00 00 00 00 00 00 00 00 [................]
  | | | |     09db: ef be ad de ef be ad de 00 00 00 00 00 00 00 00 [................]
  | | | |     09eb: 00 00 00 00 00 00 00 00 ef be ad de ef be ad de [................]
  | | | |     09fb: 00 00 00 00 00 00 00 00 00 00 00 00 00 00 00 00 [................]
  | | | |     0a0b: ef be ad de ef be ad de 00 00 00 00 03 00 00 00 [................]
  | | | |     0a1b: ef be ad de ef be ad de 00 00 00 00 00 00 00 00 [................]
  | | | |     0a2b: 00 00 00 00 00 00 00 00 00 00 00 00 00 00 00 00 [................]
  | | | |     0a3b: 00 00 00 00 00 00 00 00 00 00 00 00 03 00 00 00 [................]
  | | | |     0a4b: ef be ad de ef be ad de 01 00 00 00 01 00 00 00 [................]
  | | | |     0a5b: 00 00 00 00 03 00 00 00 00 00 00 00 00 00 00 00 [................]
  | | | |     0a6b: 00 00 00 00 00 00 00 00 03 00 00 00 04 00 00 00 [................]
  | | | |     0a7b: ff ff ff ff 02 00 00 00 ef be ad de ef be ad de [................]
  | | | |     0a8b: 86 00 81 00 83 00 00 00 ff ff ff ff ff ff ff ff [................]
  | | | |     0a9b: 00 00 00 00 00 00 00 00 00 00 00 00 00 00 00 00 [................]
  | | | |     0aab: 00 00 00 00 00 00 00 00 00 00 00 00 00 00 00 00 [................]
  | | | |     0abb: 00 04 00 04 00 04 00 04 00 00 00 00 00 00 00 00 [................]
  | | | |     0acb: 00 00 00 00 00 00 00 00 00 00 00 00 00 00 00 00 [................]
  | | | |     0adb: 00 00 00 00 00 00 00 00 00 04 00 04 00 04 00 04 [................]
  | | | |     0aeb: 00 00 00 00 00 00 00 00 00 00 00 00 00 00 00 00 [................]
  | | | |     0afb: 00 00 00 00 00 00 00 00 00 00 00 00 00 00 00 00 [................]
  | | | |     0b0b: 00 04 00 04 00 04 00 04 00 00 00 00 00 00 00 00 [................]
  | | | |     0b1b: 00 00 00 00 00 00 00 00 00 00 00 00 00 00 00 00 [................]
  | | | |     0b2b: 00 00 00 00 00 00 00 00 00 04 00 04 00 04 00 04 [................]
  | | | |     0b3b: 00 00 00 00 00 00 00 00 00 00 00 00 00 00 00 00 [................]
  | | | |     0b4b: 00 00 00 00 00 00 00 00 00 00 00 00 00 00 00 00 [................]
  | | | |     0b5b: 00 04 00 04 00 04 00 04 00 00 00 00 00 00 00 00 [................]
  | | | |     0b6b: 40 a6 f3 5b 01 00 00 00 20 00 00 00 00 00 00 00 [@..[.... .......]
  | | | |     0b7b: 20 00 00 00 00 00 00 00 20 00 00 00 00 00 00 00 [ ....... .......]
  | | | |     0b8b: 00 00 00 10 00 00 00 00 00 00 00 00 00 00 00 00 [................]
  | | | |     0b9b: 60 2e 00 00 74 d7 00 00 00 00 00 00 00 00 00 00 [`...t...........]
  | | | |     0bab: 00 00 00 00 00 00 00 00 00 00 00 00 00 00 00 00 [................]
  | | | |     0bbb: 00 00 00 00 00 00 00 00 00 00 00 00 00 00 00 00 [................]
  | | | |     0bcb: 00 00 00 00 00 00 00 00 00 00 00 00 00 00 00 00 [................]
  | | | |     0bdb: 00 00 00 00 00 00 00 00 00 00 00 00 00 00 00 00 [................]
  | | | |     0beb: 00 00 00 00 00 00 00 00 00 00 00 00 00 00 00 00 [................]
  | | | |     0bfb: 00 00 00 00 00 00 00 00 00 00 00 00 00 00 00 00 [................]
  | | | |     0c0b: 00 00 00 00 00 00 00 00 00 00 00 00 00 00 00 00 [................]
  | | | |     0c1b: 00 00 00 00 00 00 00 00 00 00 00 00 00 00 00 00 [................]
  | | | |     0c2b: 00 00 00 00 00 00 00 00 00 00 00 00 00 00 00 00 [................]
  | | | |     0c3b: 00 00 00 00 00 00 00 00 00 00 00 00 00 00 00 00 [................]
  | | | |     0c4b: 00 00 00 00 00 00 00 00 00 00 00 00 00 00 00 00 [................]
  | | | |     0c5b: 00 00 00 00 00 00 00 00 00 00 00 00 00 00 00 00 [................]
  | | | |     0c6b: 00 00 00 00 00 00 00 00 00 00 00 00 00 00 00    [...............]
  | | | | + [BinaryData directory, 735 bytes, Little-endian]
  | | | | | ContrastStandard = 0
  | | | | | - Tag 0x0000 (4 bytes, int32s[1]):
  | | | | |     099b: 00 00 00 00                                     [....]
  | | | | | SharpnessStandard = 3
  | | | | | - Tag 0x0004 (4 bytes, int32s[1]):
  | | | | |     099f: 03 00 00 00                                     [....]
  | | | | | SaturationStandard = 0
  | | | | | - Tag 0x0008 (4 bytes, int32s[1]):
  | | | | |     09a3: 00 00 00 00                                     [....]
  | | | | | ColorToneStandard = 0
  | | | | | - Tag 0x000c (4 bytes, int32s[1]):
  | | | | |     09a7: 00 00 00 00                                     [....]
  | | | | | FilterEffectStandard = -559038737
  | | | | | - Tag 0x0010 (4 bytes, int32s[1]):
  | | | | |     09ab: ef be ad de                                     [....]
  | | | | | ToningEffectStandard = -559038737
  | | | | | - Tag 0x0014 (4 bytes, int32s[1]):
  | | | | |     09af: ef be ad de                                     [....]
  | | | | | ContrastPortrait = 0
  | | | | | - Tag 0x0018 (4 bytes, int32s[1]):
  | | | | |     09b3: 00 00 00 00                                     [....]
  | | | | | SharpnessPortrait = 2
  | | | | | - Tag 0x001c (4 bytes, int32s[1]):
  | | | | |     09b7: 02 00 00 00                                     [....]
  | | | | | SaturationPortrait = 0
  | | | | | - Tag 0x0020 (4 bytes, int32s[1]):
  | | | | |     09bb: 00 00 00 00                                     [....]
  | | | | | ColorTonePortrait = 0
  | | | | | - Tag 0x0024 (4 bytes, int32s[1]):
  | | | | |     09bf: 00 00 00 00                                     [....]
  | | | | | FilterEffectPortrait = -559038737
  | | | | | - Tag 0x0028 (4 bytes, int32s[1]):
  | | | | |     09c3: ef be ad de                                     [....]
  | | | | | ToningEffectPortrait = -559038737
  | | | | | - Tag 0x002c (4 bytes, int32s[1]):
  | | | | |     09c7: ef be ad de                                     [....]
  | | | | | ContrastLandscape = 0
  | | | | | - Tag 0x0030 (4 bytes, int32s[1]):
  | | | | |     09cb: 00 00 00 00                                     [....]
  | | | | | SharpnessLandscape = 4
  | | | | | - Tag 0x0034 (4 bytes, int32s[1]):
  | | | | |     09cf: 04 00 00 00                                     [....]
  | | | | | SaturationLandscape = 0
  | | | | | - Tag 0x0038 (4 bytes, int32s[1]):
  | | | | |     09d3: 00 00 00 00                                     [....]
  | | | | | ColorToneLandscape = 0
  | | | | | - Tag 0x003c (4 bytes, int32s[1]):
  | | | | |     09d7: 00 00 00 00                                     [....]
  | | | | | FilterEffectLandscape = -559038737
  | | | | | - Tag 0x0040 (4 bytes, int32s[1]):
  | | | | |     09db: ef be ad de                                     [....]
  | | | | | ToningEffectLandscape = -559038737
  | | | | | - Tag 0x0044 (4 bytes, int32s[1]):
  | | | | |     09df: ef be ad de                                     [....]
  | | | | | ContrastNeutral = 0
  | | | | | - Tag 0x0048 (4 bytes, int32s[1]):
  | | | | |     09e3: 00 00 00 00                                     [....]
  | | | | | SharpnessNeutral = 0
  | | | | | - Tag 0x004c (4 bytes, int32s[1]):
  | | | | |     09e7: 00 00 00 00                                     [....]
  | | | | | SaturationNeutral = 0
  | | | | | - Tag 0x0050 (4 bytes, int32s[1]):
  | | | | |     09eb: 00 00 00 00                                     [....]
  | | | | | ColorToneNeutral = 0
  | | | | | - Tag 0x0054 (4 bytes, int32s[1]):
  | | | | |     09ef: 00 00 00 00                                     [....]
  | | | | | FilterEffectNeutral = -559038737
  | | | | | - Tag 0x0058 (4 bytes, int32s[1]):
  | | | | |     09f3: ef be ad de                                     [....]
  | | | | | ToningEffectNeutral = -559038737
  | | | | | - Tag 0x005c (4 bytes, int32s[1]):
  | | | | |     09f7: ef be ad de                                     [....]
  | | | | | ContrastFaithful = 0
  | | | | | - Tag 0x0060 (4 bytes, int32s[1]):
  | | | | |     09fb: 00 00 00 00                                     [....]
  | | | | | SharpnessFaithful = 0
  | | | | | - Tag 0x0064 (4 bytes, int32s[1]):
  | | | | |     09ff: 00 00 00 00                                     [....]
  | | | | | SaturationFaithful = 0
  | | | | | - Tag 0x0068 (4 bytes, int32s[1]):
  | | | | |     0a03: 00 00 00 00                                     [....]
  | | | | | ColorToneFaithful = 0
  | | | | | - Tag 0x006c (4 bytes, int32s[1]):
  | | | | |     0a07: 00 00 00 00                                     [....]
  | | | | | FilterEffectFaithful = -559038737
  | | | | | - Tag 0x0070 (4 bytes, int32s[1]):
  | | | | |     0a0b: ef be ad de                                     [....]
  | | | | | ToningEffectFaithful = -559038737
  | | | | | - Tag 0x0074 (4 bytes, int32s[1]):
  | | | | |     0a0f: ef be ad de                                     [....]
  | | | | | ContrastMonochrome = 0
  | | | | | - Tag 0x0078 (4 bytes, int32s[1]):
  | | | | |     0a13: 00 00 00 00                                     [....]
  | | | | | SharpnessMonochrome = 3
  | | | | | - Tag 0x007c (4 bytes, int32s[1]):
  | | | | |     0a17: 03 00 00 00                                     [....]
  | | | | | SaturationMonochrome = -559038737
  | | | | | - Tag 0x0080 (4 bytes, int32s[1]):
  | | | | |     0a1b: ef be ad de                                     [....]
  | | | | | ColorToneMonochrome = -559038737
  | | | | | - Tag 0x0084 (4 bytes, int32s[1]):
  | | | | |     0a1f: ef be ad de                                     [....]
  | | | | | FilterEffectMonochrome = 0
  | | | | | - Tag 0x0088 (4 bytes, int32s[1]):
  | | | | |     0a23: 00 00 00 00                                     [....]
  | | | | | ToningEffectMonochrome = 0
  | | | | | - Tag 0x008c (4 bytes, int32s[1]):
  | | | | |     0a27: 00 00 00 00                                     [....]
  | | | | | ContrastAuto = 0
  | | | | | - Tag 0x0090 (4 bytes, int32s[1]):
  | | | | |     0a2b: 00 00 00 00                                     [....]
  | | | | | SharpnessAuto = 0
  | | | | | - Tag 0x0094 (4 bytes, int32s[1]):
  | | | | |     0a2f: 00 00 00 00                                     [....]
  | | | | | SaturationAuto = 0
  | | | | | - Tag 0x0098 (4 bytes, int32s[1]):
  | | | | |     0a33: 00 00 00 00                                     [....]
  | | | | | ColorToneAuto = 0
  | | | | | - Tag 0x009c (4 bytes, int32s[1]):
  | | | | |     0a37: 00 00 00 00                                     [....]
  | | | | | FilterEffectAuto = 0
  | | | | | - Tag 0x00a0 (4 bytes, int32s[1]):
  | | | | |     0a3b: 00 00 00 00                                     [....]
  | | | | | ToningEffectAuto = 0
  | | | | | - Tag 0x00a4 (4 bytes, int32s[1]):
  | | | | |     0a3f: 00 00 00 00                                     [....]
  | | | | | ContrastUserDef1 = 0
  | | | | | - Tag 0x00a8 (4 bytes, int32s[1]):
  | | | | |     0a43: 00 00 00 00                                     [....]
  | | | | | SharpnessUserDef1 = 3
  | | | | | - Tag 0x00ac (4 bytes, int32s[1]):
  | | | | |     0a47: 03 00 00 00                                     [....]
  | | | | | SaturationUserDef1 = -559038737
  | | | | | - Tag 0x00b0 (4 bytes, int32s[1]):
  | | | | |     0a4b: ef be ad de                                     [....]
  | | | | | ColorToneUserDef1 = -559038737
  | | | | | - Tag 0x00b4 (4 bytes, int32s[1]):
  | | | | |     0a4f: ef be ad de                                     [....]
  | | | | | FilterEffectUserDef1 = 1
  | | | | | - Tag 0x00b8 (4 bytes, int32s[1]):
  | | | | |     0a53: 01 00 00 00                                     [....]
  | | | | | ToningEffectUserDef1 = 1
  | | | | | - Tag 0x00bc (4 bytes, int32s[1]):
  | | | | |     0a57: 01 00 00 00                                     [....]
  | | | | | ContrastUserDef2 = 0
  | | | | | - Tag 0x00c0 (4 bytes, int32s[1]):
  | | | | |     0a5b: 00 00 00 00                                     [....]
  | | | | | SharpnessUserDef2 = 3
  | | | | | - Tag 0x00c4 (4 bytes, int32s[1]):
  | | | | |     0a5f: 03 00 00 00                                     [....]
  | | | | | SaturationUserDef2 = 0
  | | | | | - Tag 0x00c8 (4 bytes, int32s[1]):
  | | | | |     0a63: 00 00 00 00                                     [....]
  | | | | | ColorToneUserDef2 = 0
  | | | | | - Tag 0x00cc (4 bytes, int32s[1]):
  | | | | |     0a67: 00 00 00 00                                     [....]
  | | | | | FilterEffectUserDef2 = 0
  | | | | | - Tag 0x00d0 (4 bytes, int32s[1]):
  | | | | |     0a6b: 00 00 00 00                                     [....]
  | | | | | ToningEffectUserDef2 = 0
  | | | | | - Tag 0x00d4 (4 bytes, int32s[1]):
  | | | | |     0a6f: 00 00 00 00                                     [....]
  | | | | | ContrastUserDef3 = 3
  | | | | | - Tag 0x00d8 (4 bytes, int32s[1]):
  | | | | |     0a73: 03 00 00 00                                     [....]
  | | | | | SharpnessUserDef3 = 4
  | | | | | - Tag 0x00dc (4 bytes, int32s[1]):
  | | | | |     0a77: 04 00 00 00                                     [....]
  | | | | | SaturationUserDef3 = -1
  | | | | | - Tag 0x00e0 (4 bytes, int32s[1]):
  | | | | |     0a7b: ff ff ff ff                                     [....]
  | | | | | ColorToneUserDef3 = 2
  | | | | | - Tag 0x00e4 (4 bytes, int32s[1]):
  | | | | |     0a7f: 02 00 00 00                                     [....]
  | | | | | FilterEffectUserDef3 = -559038737
  | | | | | - Tag 0x00e8 (4 bytes, int32s[1]):
  | | | | |     0a83: ef be ad de                                     [....]
  | | | | | ToningEffectUserDef3 = -559038737
  | | | | | - Tag 0x00ec (4 bytes, int32s[1]):
  | | | | |     0a87: ef be ad de                                     [....]
  | | | | | UserDef1PictureStyle = 134
  | | | | | - Tag 0x00f0 (2 bytes, int16u[1]):
  | | | | |     0a8b: 86 00                                           [..]
  | | | | | UserDef2PictureStyle = 129
  | | | | | - Tag 0x00f2 (2 bytes, int16u[1]):
  | | | | |     0a8d: 81 00                                           [..]
  | | | | | UserDef3PictureStyle = 131
  | | | | | - Tag 0x00f4 (2 bytes, int16u[1]):
  | | | | |     0a8f: 83 00                                           [..]
  | | | 9)  CanonModelID = 2147484295
  | | |     - Tag 0x0010 (4 bytes, int32u[1]):
  | | |         0408: 87 02 00 80                                     [....]
  | | | 10) ThumbnailImageValidArea = 0 159 7 112
  | | |     - Tag 0x0013 (8 bytes, int16u[4]):
  | | |         0c7a: 00 00 9f 00 07 00 70 00                         [......p.]
  | | | 11) SerialNumberFormat = 2684354560
  | | |     - Tag 0x0015 (4 bytes, int32u[1]):
  | | |         0420: 00 00 00 a0                                     [....]
  | | | 12) Canon_0x0019 = 1
  | | |     - Tag 0x0019 (2 bytes, int16u[1]):
  | | |         042c: 01 00                                           [..]
  | | | 13) CanonAFInfo2 (SubDirectory) -->
  | | |     - Tag 0x0026 (96 bytes, int16u[48] read as undef[96]):
  | | |         0c82: 60 00 04 00 09 00 09 00 80 0d 00 09 80 0d 00 09 [`...............]
  | | |         0c92: 48 00 3a 00 3a 00 3a 00 56 00 3a 00 3a 00 3a 00 [H.:.:.:.V.:.:.:.]
  | | |         0ca2: 48 00 39 00 47 00 47 00 47 00 57 00 47 00 47 00 [H.9.G.G.G.W.G.G.]
  | | |         0cb2: 47 00 39 00 00 00 c3 fd 3d 02 70 fc 00 00 90 03 [G.9.....=.p.....]
  | | |         0cc2: c3 fd 3d 02 00 00 ef 01 06 01 06 01 00 00 00 00 [..=.............]
  | | |         0cd2: 00 00 fa fe fa fe 11 fe 80 00 ff 01 00 00 ff ff [................]
  | | | + [SerialData directory, 96 bytes]
  | | | | 0)  AFInfoSize = 96
  | | | |     - Tag 0x0000 (2 bytes, int16u[1]):
  | | | |         0c82: 60 00                                           [`.]
  | | | | 1)  AFAreaMode = 4
  | | | |     - Tag 0x0001 (2 bytes, int16u[1]):
  | | | |         0c84: 04 00                                           [..]
  | | | | 2)  NumAFPoints = 9
  | | | |     - Tag 0x0002 (2 bytes, int16u[1]):
  | | | |         0c86: 09 00                                           [..]
  | | | | 3)  ValidAFPoints = 9
  | | | |     - Tag 0x0003 (2 bytes, int16u[1]):
  | | | |         0c88: 09 00                                           [..]
  | | | | 4)  CanonImageWidth = 3456
  | | | |     - Tag 0x0004 (2 bytes, int16u[1]):
  | | | |         0c8a: 80 0d                                           [..]
  | | | | 5)  CanonImageHeight = 2304
  | | | |     - Tag 0x0005 (2 bytes, int16u[1]):
  | | | |         0c8c: 00 09                                           [..]
  | | | | 6)  AFImageWidth = 3456
  | | | |     - Tag 0x0006 (2 bytes, int16u[1]):
  | | | |         0c8e: 80 0d                                           [..]
  | | | | 7)  AFImageHeight = 2304
  | | | |     - Tag 0x0007 (2 bytes, int16u[1]):
  | | | |         0c90: 00 09                                           [..]
  | | | | 8)  AFAreaWidths = 72 58 58 58 86 58 58 58 72
  | | | |     - Tag 0x0008 (18 bytes, int16s[9]):
  | | | |         0c92: 48 00 3a 00 3a 00 3a 00 56 00 3a 00 3a 00 3a 00 [H.:.:.:.V.:.:.:.]
  | | | |         0ca2: 48 00                                           [H.]
  | | | | 9)  AFAreaHeights = 57 71 71 71 87 71 71 71 57
  | | | |     - Tag 0x0009 (18 bytes, int16s[9]):
  | | | |         0ca4: 39 00 47 00 47 00 47 00 57 00 47 00 47 00 47 00 [9.G.G.G.W.G.G.G.]
  | | | |         0cb4: 39 00                                           [9.]
  | | | | 10) AFAreaXPositions = 0 -573 573 -912 0 912 -573 573 0
  | | | |     - Tag 0x000a (18 bytes, int16s[9]):
  | | | |         0cb6: 00 00 c3 fd 3d 02 70 fc 00 00 90 03 c3 fd 3d 02 [....=.p.......=.]
  | | | |         0cc6: 00 00                                           [..]
  | | | | 11) AFAreaYPositions = 495 262 262 0 0 0 -262 -262 -495
  | | | |     - Tag 0x000b (18 bytes, int16s[9]):
  | | | |         0cc8: ef 01 06 01 06 01 00 00 00 00 00 00 fa fe fa fe [................]
  | | | |         0cd8: 11 fe                                           [..]
  | | | | 12) AFPointsInFocus = 128
  | | | |     - Tag 0x000c (2 bytes, int16s[1]):
  | | | |         0cda: 80 00                                           [..]
  | | | | 13) AFPointsSelected = 511
  | | | |     - Tag 0x000d (2 bytes, int16s[1]):
  | | | |         0cdc: ff 01                                           [..]
  | | | 14) OriginalDecisionDataOffset = 0
  | | |     - Tag 0x0083 (4 bytes, int32u[1]):
  | | |         0444: 00 00 00 00                                     [....]
  | | | 15) CanonFileInfo (SubDirectory) -->
  | | |     - Tag 0x0093 (54 bytes, int16u[27] read as undef[54]):
  | | |         0ee2: 36 00 00 00 00 00 00 00 00 00 00 00 00 00 00 00 [6...............]
  | | |         0ef2: 04 00 00 00 00 00 00 00 00 00 00 00 ff ff ff ff [................]
  | | |         0f02: 57 00 00 00 00 00 00 00 af 51 c7 12 00 00 00 00 [W........Q......]
  | | |         0f12: 00 00 00 00 ff ff                               [......]
  | | | + [BinaryData directory, 54 bytes, Little-endian]
  | | | | BracketMode = 0
  | | | | - Tag 0x0003 (2 bytes, int16s[1]):
  | | | |     0ee8: 00 00                                           [..]
  | | | | BracketValue = 0
  | | | | - Tag 0x0004 (2 bytes, int16s[1]):
  | | | |     0eea: 00 00                                           [..]
  | | | | BracketShotNumber = 0
  | | | | - Tag 0x0005 (2 bytes, int16s[1]):
  | | | |     0eec: 00 00                                           [..]
  | | | | RawJpgQuality = 0
  | | | | - Tag 0x0006 (2 bytes, int16s[1]):
  | | | |     0eee: 00 00                                           [..]
  | | | | RawJpgSize = 0
  | | | | - Tag 0x0007 (2 bytes, int16s[1]):
  | | | |     0ef0: 00 00                                           [..]
  | | | | LongExposureNoiseReduction2 = 4
  | | | | - Tag 0x0008 (2 bytes, int16s[1]):
  | | | |     0ef2: 04 00                                           [..]
  | | | | WBBracketMode = 0
  | | | | - Tag 0x0009 (2 bytes, int16s[1]):
  | | | |     0ef4: 00 00                                           [..]
  | | | | WBBracketValueAB = 0
  | | | | - Tag 0x000c (2 bytes, int16s[1]):
  | | | |     0efa: 00 00                                           [..]
  | | | | WBBracketValueGM = 0
  | | | | - Tag 0x000d (2 bytes, int16s[1]):
  | | | |     0efc: 00 00                                           [..]
  | | | | FilterEffect = -1
  | | | | - Tag 0x000e (2 bytes, int16s[1]):
  | | | |     0efe: ff ff                                           [..]
  | | | | ToningEffect = -1
  | | | | - Tag 0x000f (2 bytes, int16s[1]):
  | | | |     0f00: ff ff                                           [..]
  | | | | LiveViewShooting = 0
  | | | | - Tag 0x0013 (2 bytes, int16s[1]):
  | | | |     0f08: 00 00                                           [..]
  | | | | FocusDistanceUpper = 20911
  | | | | - Tag 0x0014 (2 bytes, int16u[1]):
  | | | |     0f0a: af 51                                           [.Q]
  | | | | FocusDistanceLower = 4807
  | | | | - Tag 0x0015 (2 bytes, int16u[1]):
  | | | |     0f0c: c7 12                                           [..]
  | | | | ShutterMode = 0
  | | | | - Tag 0x0017 (2 bytes, int16s[1]):
  | | | |     0f10: 00 00                                           [..]
  | | | | FlashExposureLock = 0
  | | | | - Tag 0x0019 (2 bytes, int16s[1]):
  | | | |     0f14: 00 00                                           [..]
  | | | 16) LensModel = EF-S18-200mm f/3.5-5.6 IS
  | | |     - Tag 0x0095 (70 bytes, string[70]):
  | | |         0f18: 45 46 2d 53 31 38 2d 32 30 30 6d 6d 20 66 2f 33 [EF-S18-200mm f/3]
  | | |         0f28: 2e 35 2d 35 2e 36 20 49 53 00 00 00 00 00 00 00 [.5-5.6 IS.......]
  | | |         0f38: 00 00 00 00 00 00 00 00 00 00 00 00 00 00 00 00 [................]
  | | |         0f48: 00 00 00 00 00 00 00 00 00 00 00 00 00 00 00 00 [................]
  | | |         0f58: 00 00 00 00 00 00                               [......]
  | | | 17) InternalSerialNumber = WB2304374
  | | |     - Tag 0x0096 (16 bytes, string[16]):
  | | |         0f5e: 57 42 32 33 30 34 33 37 34 00 00 00 00 00 00 00 [WB2304374.......]
  | | | 18) DustRemovalData = 
  | | |     - Tag 0x0097 (1024 bytes, undef[1024]):
  | | |         0f6e: 00 00 00 00 00 00 00 00 00 00 00 00 00 00 00 00 [................]
  | | |         0f7e: 00 00 00 00 00 00 00 00 00 00 00 00 00 00 00 00 [................]
  | | |         0f8e: 00 00 00 00 00 00 00 00 00 00 00 00 00 00 00 00 [................]
  | | |         0f9e: 00 00 00 00 00 00 00 00 00 00 00 00 00 00 00 00 [................]
  | | |         0fae: 00 00 00 00 00 00 00 00 00 00 00 00 00 00 00 00 [................]
  | | |         0fbe: 00 00 00 00 00 00 00 00 00 00 00 00 00 00 00 00 [................]
  | | |         0fce: 00 00 00 00 00 00 00 00 00 00 00 00 00 00 00 00 [................]
  | | |         0fde: 00 00 00 00 00 00 00 00 00 00 00 00 00 00 00 00 [................]
  | | |         0fee: 00 00 00 00 00 00 00 00 00 00 00 00 00 00 00 00 [................]
  | | |         0ffe: 00 00 00 00 00 00 00 00 00 00 00 00 00 00 00 00 [................]
  | | |         100e: 00 00 00 00 00 00 00 00 00 00 00 00 00 00 00 00 [................]
  | | |         101e: 00 00 00 00 00 00 00 00 00 00 00 00 00 00 00 00 [................]
  | | |         102e: 00 00 00 00 00 00 00 00 00 00 00 00 00 00 00 00 [................]
  | | |         103e: 00 00 00 00 00 00 00 00 00 00 00 00 00 00 00 00 [................]
  | | |         104e: 00 00 00 00 00 00 00 00 00 00 00 00 00 00 00 00 [................]
  | | |         105e: 00 00 00 00 00 00 00 00 00 00 00 00 00 00 00 00 [................]
  | | |         106e: 00 00 00 00 00 00 00 00 00 00 00 00 00 00 00 00 [................]
  | | |         107e: 00 00 00 00 00 00 00 00 00 00 00 00 00 00 00 00 [................]
  | | |         108e: 00 00 00 00 00 00 00 00 00 00 00 00 00 00 00 00 [................]
  | | |         109e: 00 00 00 00 00 00 00 00 00 00 00 00 00 00 00 00 [................]
  | | |         10ae: 00 00 00 00 00 00 00 00 00 00 00 00 00 00 00 00 [................]
  | | |         10be: 00 00 00 00 00 00 00 00 00 00 00 00 00 00 00 00 [................]
  | | |         10ce: 00 00 00 00 00 00 00 00 00 00 00 00 00 00 00 00 [................]
  | | |         10de: 00 00 00 00 00 00 00 00 00 00 00 00 00 00 00 00 [................]
  | | |         10ee: 00 00 00 00 00 00 00 00 00 00 00 00 00 00 00 00 [................]
  | | |         10fe: 00 00 00 00 00 00 00 00 00 00 00 00 00 00 00 00 [................]
  | | |         110e: 00 00 00 00 00 00 00 00 00 00 00 00 00 00 00 00 [................]
  | | |         111e: 00 00 00 00 00 00 00 00 00 00 00 00 00 00 00 00 [................]
  | | |         112e: 00 00 00 00 00 00 00 00 00 00 00 00 00 00 00 00 [................]
  | | |         113e: 00 00 00 00 00 00 00 00 00 00 00 00 00 00 00 00 [................]
  | | |         114e: 00 00 00 00 00 00 00 00 00 00 00 00 00 00 00 00 [................]
  | | |         115e: 00 00 00 00 00 00 00 00 00 00 00 00 00 00 00 00 [................]
  | | |         116e: 00 00 00 00 00 00 00 00 00 00 00 00 00 00 00 00 [................]
  | | |         117e: 00 00 00 00 00 00 00 00 00 00 00 00 00 00 00 00 [................]
  | | |         118e: 00 00 00 00 00 00 00 00 00 00 00 00 00 00 00 00 [................]
  | | |         119e: 00 00 00 00 00 00 00 00 00 00 00 00 00 00 00 00 [................]
  | | |         11ae: 00 00 00 00 00 00 00 00 00 00 00 00 00 00 00 00 [................]
  | | |         11be: 00 00 00 00 00 00 00 00 00 00 00 00 00 00 00 00 [................]
  | | |         11ce: 00 00 00 00 00 00 00 00 00 00 00 00 00 00 00 00 [................]
  | | |         11de: 00 00 00 00 00 00 00 00 00 00 00 00 00 00 00 00 [................]
  | | |         11ee: 00 00 00 00 00 00 00 00 00 00 00 00 00 00 00 00 [................]
  | | |         11fe: 00 00 00 00 00 00 00 00 00 00 00 00 00 00 00 00 [................]
  | | |         120e: 00 00 00 00 00 00 00 00 00 00 00 00 00 00 00 00 [................]
  | | |         121e: 00 00 00 00 00 00 00 00 00 00 00 00 00 00 00 00 [................]
  | | |         122e: 00 00 00 00 00 00 00 00 00 00 00 00 00 00 00 00 [................]
  | | |         123e: 00 00 00 00 00 00 00 00 00 00 00 00 00 00 00 00 [................]
  | | |         124e: 00 00 00 00 00 00 00 00 00 00 00 00 00 00 00 00 [................]
  | | |         125e: 00 00 00 00 00 00 00 00 00 00 00 00 00 00 00 00 [................]
  | | |         126e: 00 00 00 00 00 00 00 00 00 00 00 00 00 00 00 00 [................]
  | | |         127e: 00 00 00 00 00 00 00 00 00 00 00 00 00 00 00 00 [................]
  | | |         128e: 00 00 00 00 00 00 00 00 00 00 00 00 00 00 00 00 [................]
  | | |         129e: 00 00 00 00 00 00 00 00 00 00 00 00 00 00 00 00 [................]
  | | |         12ae: 00 00 00 00 00 00 00 00 00 00 00 00 00 00 00 00 [................]
  | | |         12be: 00 00 00 00 00 00 00 00 00 00 00 00 00 00 00 00 [................]
  | | |         12ce: 00 00 00 00 00 00 00 00 00 00 00 00 00 00 00 00 [................]
  | | |         12de: 00 00 00 00 00 00 00 00 00 00 00 00 00 00 00 00 [................]
  | | |         12ee: 00 00 00 00 00 00 00 00 00 00 00 00 00 00 00 00 [................]
  | | |         12fe: 00 00 00 00 00 00 00 00 00 00 00 00 00 00 00 00 [................]
  | | |         130e: 00 00 00 00 00 00 00 00 00 00 00 00 00 00 00 00 [................]
  | | |         131e: 00 00 00 00 00 00 00 00 00 00 00 00 00 00 00 00 [................]
  | | |         132e: 00 00 00 00 00 00 00 00 00 00 00 00 00 00 00 00 [................]
  | | |         133e: 00 00 00 00 00 00 00 00 00 00 00 00 00 00 00 00 [................]
  | | |         134e: 00 00 00 00 00 00 00 00 00 00 00 00 00 00 00 00 [................]
  | | |         135e: 00 00 00 00 00 00 00 00 00 00 00 00 00 00 00 00 [................]
  | | | 19) CropInfo (SubDirectory) -->
  | | |     - Tag 0x0098 (8 bytes, int16u[4] read as undef[8]):
  | | |         136e: 00 00 00 00 00 00 00 00                         [........]
  | | | + [BinaryData directory, 8 bytes, Little-endian]
  | | | | CropLeftMargin = 0
  | | | | - Tag 0x0000 (2 bytes, int16u[1]):
  | | | |     136e: 00 00                                           [..]
  | | | | CropRightMargin = 0
  | | | | - Tag 0x0001 (2 bytes, int16u[1]):
  | | | |     1370: 00 00                                           [..]
  | | | | CropTopMargin = 0
  | | | | - Tag 0x0002 (2 bytes, int16u[1]):
  | | | |     1372: 00 00                                           [..]
  | | | | CropBottomMargin = 0
  | | | | - Tag 0x0003 (2 bytes, int16u[1]):
  | | | |     1374: 00 00                                           [..]
  | | | 20) CustomFunctions2 (SubDirectory) -->
  | | |     - Tag 0x0099 (296 bytes, int32u[74] read as undef[296]):
  | | |         1376: 28 01 00 00 04 00 00 00 01 00 00 00 5c 00 00 00 [(...........\...]
  | | |         1386: 07 00 00 00 01 01 00 00 01 00 00 00 00 00 00 00 [................]
  | | |         1396: 02 01 00 00 01 00 00 00 00 00 00 00 03 01 00 00 [................]
  | | |         13a6: 01 00 00 00 00 00 00 00 04 01 00 00 01 00 00 00 [................]
  | | |         13b6: 00 00 00 00 05 01 00 00 01 00 00 00 00 00 00 00 [................]
  | | |         13c6: 08 01 00 00 01 00 00 00 00 00 00 00 0f 01 00 00 [................]
  | | |         13d6: 01 00 00 00 00 00 00 00 02 00 00 00 2c 00 00 00 [............,...]
  | | |         13e6: 03 00 00 00 01 02 00 00 01 00 00 00 01 00 00 00 [................]
  | | |         13f6: 02 02 00 00 01 00 00 00 00 00 00 00 03 02 00 00 [................]
  | | |         1406: 01 00 00 00 00 00 00 00 03 00 00 00 44 00 00 00 [............D...]
  | | |         1416: 05 00 00 00 05 05 00 00 01 00 00 00 01 00 00 00 [................]
  | | |         1426: 0f 05 00 00 01 00 00 00 00 00 00 00 10 05 00 00 [................]
  | | |         1436: 01 00 00 00 00 00 00 00 0e 05 00 00 01 00 00 00 [................]
  | | |         1446: 00 00 00 00 0f 06 00 00 01 00 00 00 00 00 00 00 [................]
  | | |         1456: 04 00 00 00 44 00 00 00 05 00 00 00 01 07 00 00 [....D...........]
  | | |         1466: 01 00 00 00 00 00 00 00 04 07 00 00 01 00 00 00 [................]
  | | |         1476: 00 00 00 00 06 07 00 00 01 00 00 00 00 00 00 00 [................]
  | | |         1486: 0b 08 00 00 01 00 00 00 00 00 00 00 0f 08 00 00 [................]
  | | |         1496: 01 00 00 00 00 00 00 00                         [........]
  | | | + [CanonCustom2 directory with 4 entries, 296 bytes]
  | | | + [CanonCustom2 group 1 directory with 7 entries, 92 bytes]
  | | | | 0)  ExposureLevelIncrements = 0
  | | | |     - Tag 0x0101 (4 bytes, int32u[1])
  | | | | 1)  ISOSpeedIncrements = 0
  | | | |     - Tag 0x0102 (4 bytes, int32u[1])
  | | | | 2)  ISOExpansion = 0
  | | | |     - Tag 0x0103 (4 bytes, int32u[1])
  | | | | 3)  AEBAutoCancel = 0
  | | | |     - Tag 0x0104 (4 bytes, int32u[1])
  | | | | 4)  AEBSequence = 0
  | | | |     - Tag 0x0105 (4 bytes, int32u[1])
  | | | | 5)  SafetyShift = 0
  | | | |     - Tag 0x0108 (4 bytes, int32u[1])
  | | | | 6)  FlashSyncSpeedAv = 0
  | | | |     - Tag 0x010f (4 bytes, int32u[1])
  | | | + [CanonCustom2 group 2 directory with 3 entries, 44 bytes]
  | | | | 0)  LongExposureNoiseReduction = 1
  | | | |     - Tag 0x0201 (4 bytes, int32u[1])
  | | | | 1)  HighISONoiseReduction = 0
  | | | |     - Tag 0x0202 (4 bytes, int32u[1])
  | | | | 2)  HighlightTonePriority = 0
  | | | |     - Tag 0x0203 (4 bytes, int32u[1])
  | | | + [CanonCustom2 group 3 directory with 5 entries, 68 bytes]
  | | | | 0)  LensDriveNoAF = 1
  | | | |     - Tag 0x0505 (4 bytes, int32u[1])
  | | | | 1)  AFPointSelectionMethod = 0
  | | | |     - Tag 0x050f (4 bytes, int32u[1])
  | | | | 2)  SuperimposedDisplay = 0
  | | | |     - Tag 0x0510 (4 bytes, int32u[1])
  | | | | 3)  AFAssistBeam = 0
  | | | |     - Tag 0x050e (4 bytes, int32u[1])
  | | | | 4)  MirrorLockup = 0
  | | | |     - Tag 0x060f (4 bytes, int32u[1])
  | | | + [CanonCustom2 group 4 directory with 5 entries, 68 bytes]
  | | | | 0)  AFAndMeteringButtons = 0
  | | | |     - Tag 0x0701 (4 bytes, int32u[1])
  | | | | 1)  SetButtonWhenShooting = 0
  | | | |     - Tag 0x0704 (4 bytes, int32u[1])
  | | | | 2)  DialDirectionTvAv = 0
  | | | |     - Tag 0x0706 (4 bytes, int32u[1])
  | | | | 3)  FocusingScreen = 0
  | | | |     - Tag 0x080b (4 bytes, int32u[1])
  | | | | 4)  AddOriginalDecisionData = 0
  | | | |     - Tag 0x080f (4 bytes, int32u[1])
  | | | 21) AspectInfo (SubDirectory) -->
  | | |     - Tag 0x009a (20 bytes, int32u[5] read as undef[20]):
  | | |         149e: 00 00 00 00 80 0d 00 00 00 09 00 00 00 00 00 00 [................]
  | | |         14ae: 00 00 00 00                                     [....]
  | | | + [BinaryData directory, 20 bytes, Little-endian]
  | | | | AspectRatio = 0
  | | | | - Tag 0x0000 (4 bytes, int32u[1]):
  | | | |     149e: 00 00 00 00                                     [....]
  | | | | CroppedImageWidth = 3456
  | | | | - Tag 0x0001 (4 bytes, int32u[1]):
  | | | |     14a2: 80 0d 00 00                                     [....]
  | | | | CroppedImageHeight = 2304
  | | | | - Tag 0x0002 (4 bytes, int32u[1]):
  | | | |     14a6: 00 09 00 00                                     [....]
  | | | | CroppedImageLeft = 0
  | | | | - Tag 0x0003 (4 bytes, int32u[1]):
  | | | |     14aa: 00 00 00 00                                     [....]
  | | | | CroppedImageTop = 0
  | | | | - Tag 0x0004 (4 bytes, int32u[1]):
  | | | |     14ae: 00 00 00 00                                     [....]
  | | | 22) ProcessingInfo (SubDirectory) -->
  | | |     - Tag 0x00a0 (28 bytes, int16u[14] read as undef[28]):
  | | |         14b2: 1c 00 00 00 04 00 00 00 00 00 00 00 00 00 00 00 [................]
  | | |         14c2: ff ff 50 14 83 00 00 00 00 00 00 00             [..P.........]
  | | | + [BinaryData directory, 28 bytes, Little-endian]
  | | | | ToneCurve = 0
  | | | | - Tag 0x0001 (2 bytes, int16s[1]):
  | | | |     14b4: 00 00                                           [..]
  | | | | Sharpness = 4
  | | | | - Tag 0x0002 (2 bytes, int16s[1]):
  | | | |     14b6: 04 00                                           [..]
  | | | | SharpnessFrequency = 0
  | | | | - Tag 0x0003 (2 bytes, int16s[1]):
  | | | |     14b8: 00 00                                           [..]
  | | | | SensorRedLevel = 0
  | | | | - Tag 0x0004 (2 bytes, int16s[1]):
  | | | |     14ba: 00 00                                           [..]
  | | | | SensorBlueLevel = 0
  | | | | - Tag 0x0005 (2 bytes, int16s[1]):
  | | | |     14bc: 00 00                                           [..]
  | | | | WhiteBalanceRed = 0
  | | | | - Tag 0x0006 (2 bytes, int16s[1]):
  | | | |     14be: 00 00                                           [..]
  | | | | WhiteBalanceBlue = 0
  | | | | - Tag 0x0007 (2 bytes, int16s[1]):
  | | | |     14c0: 00 00                                           [..]
  | | | | WhiteBalance = -1
  | | | | - Tag 0x0008 (2 bytes, int16s[1]):
  | | | |     14c2: ff ff                                           [..]
  | | | | ColorTemperature = 5200
  | | | | - Tag 0x0009 (2 bytes, int16s[1]):
  | | | |     14c4: 50 14                                           [P.]
  | | | | PictureStyle = 131
  | | | | - Tag 0x000a (2 bytes, int16s[1]):
  | | | |     14c6: 83 00                                           [..]
  | | | | DigitalGain = 0
  | | | | - Tag 0x000b (2 bytes, int16s[1]):
  | | | |     14c8: 00 00                                           [..]
  | | | | WBShiftAB = 0
  | | | | - Tag 0x000c (2 bytes, int16s[1]):
  | | | |     14ca: 00 00                                           [..]
  | | | | WBShiftGM = 0
  | | | | - Tag 0x000d (2 bytes, int16s[1]):
  | | | |     14cc: 00 00                                           [..]
  | | | 23) MeasuredColor (SubDirectory) -->
  | | |     - Tag 0x00aa (12 bytes, int16u[6] read as undef[12]):
  | | |         14ce: 0c 00 05 02 00 04 00 04 b1 02 00 00             [............]
  | | | + [BinaryData directory, 12 bytes, Little-endian]
  | | | | MeasuredRGGB = 517 1024 1024 689
  | | | | - Tag 0x0001 (8 bytes, int16u[4]):
  | | | |     14d0: 05 02 00 04 00 04 b1 02                         [........]
  | | | 24) ColorSpace = 2
  | | |     - Tag 0x00b4 (2 bytes, int16u[1]):
  | | |         04bc: 02 00                                           [..]
  | | | 25) VRDOffset = 0
  | | |     - Tag 0x00d0 (4 bytes, int32u[1]):
  | | |         04c8: 00 00 00 00                                     [....]
  | | | 26) SensorInfo (SubDirectory) -->
  | | |     - Tag 0x00e0 (34 bytes, int16u[17] read as undef[34]):
  | | |         14da: 22 00 e0 14 bc 0d 01 00 01 00 98 00 38 00 d7 14 ["...........8...]
  | | |         14ea: b7 0d 00 00 00 00 00 00 00 00 00 00 00 00 00 00 [................]
  | | |         14fa: 00 00                                           [..]
  | | | + [BinaryData directory, 34 bytes, Little-endian]
  | | | | SensorWidth = 5344
  | | | | - Tag 0x0001 (2 bytes, int16s[1]):
  | | | |     14dc: e0 14                                           [..]
  | | | | SensorHeight = 3516
  | | | | - Tag 0x0002 (2 bytes, int16s[1]):
  | | | |     14de: bc 0d                                           [..]
  | | | | SensorLeftBorder = 152
  | | | | - Tag 0x0005 (2 bytes, int16s[1]):
  | | | |     14e4: 98 00                                           [..]
  | | | | SensorTopBorder = 56
  | | | | - Tag 0x0006 (2 bytes, int16s[1]):
  | | | |     14e6: 38 00                                           [8.]
  | | | | SensorRightBorder = 5335
  | | | | - Tag 0x0007 (2 bytes, int16s[1]):
  | | | |     14e8: d7 14                                           [..]
  | | | | SensorBottomBorder = 3511
  | | | | - Tag 0x0008 (2 bytes, int16s[1]):
  | | | |     14ea: b7 0d                                           [..]
  | | | | BlackMaskLeftBorder = 0
  | | | | - Tag 0x0009 (2 bytes, int16s[1]):
  | | | |     14ec: 00 00                                           [..]
  | | | | BlackMaskTopBorder = 0
  | | | | - Tag 0x000a (2 bytes, int16s[1]):
  | | | |     14ee: 00 00                                           [..]
  | | | | BlackMaskRightBorder = 0
  | | | | - Tag 0x000b (2 bytes, int16s[1]):
  | | | |     14f0: 00 00                                           [..]
  | | | | BlackMaskBottomBorder = 0
  | | | | - Tag 0x000c (2 bytes, int16s[1]):
  | | | |     14f2: 00 00                                           [..]
  | | | 27) ColorData4 (SubDirectory) -->
  | | |     - Tag 0x4001 (2692 bytes, int16u[1346] read as undef[2692]):
  | | |         14fc: 09 00 17 03 00 04 00 04 81 01 2d 02 00 04 00 04 [..........-.....]
  | | |         150c: 06 02 91 01 00 04 00 04 cb 02 c4 04 02 06 01 06 [................]
  | | |         151c: 3f 02 57 05 85 09 86 09 cc 04 64 02 ea 05 eb 05 [?.W.......d.....]
  | | |         152c: 24 04 01 00 fd ff 01 01 00 01 01 01 00 00 b2 04 [$...............]
  | | |         153c: bd 09 b9 09 b9 05 2c 02 ba 00 b8 00 1d 00 54 00 [......,.......T.]
  | | |         154c: e2 01 e3 01 f7 02 69 04 65 07 69 07 77 01 73 04 [......i.e.i.w.s.]
  | | |         155c: e2 08 e3 08 2c 05 0e 02 b1 00 b0 00 1c 00 54 00 [....,.........T.]
  | | |         156c: c1 01 c1 01 c7 02 1f 04 e0 06 e5 06 59 01 29 08 [............Y.).]
  | | |         157c: 00 04 00 04 24 06 27 14 29 08 00 04 00 04 24 06 [....$.'.).....$.]
  | | |         158c: 27 14 0b 07 02 04 fd 03 c3 06 de 10 00 00 00 00 ['...............]
  | | |         159c: 00 00 00 00 00 00 25 08 00 04 00 04 16 06 50 14 [......%.......P.]
  | | |         15ac: 76 09 00 04 00 04 2a 05 58 1b ca 08 00 04 00 04 [v.....*.X.......]
  | | |         15bc: 97 05 70 17 c9 05 00 04 00 04 34 09 80 0c 46 07 [..p.......4...F.]
  | | |         15cc: 00 04 00 04 9b 08 df 0e 25 08 00 04 00 04 16 06 [........%.......]
  | | |         15dc: 45 14 10 09 00 04 00 04 8b 05 50 18 f4 07 00 04 [E.........P.....]
  | | |         15ec: 00 04 aa 05 5e 15 25 08 00 04 00 04 16 06 45 14 [....^.%.......E.]
  | | |         15fc: 25 08 00 04 00 04 16 06 45 14 25 08 00 04 00 04 [%.......E.%.....]
  | | |         160c: 16 06 45 14 25 08 00 04 00 04 16 06 45 14 f7 03 [..E.%.......E...]
  | | |         161c: 00 04 00 04 e6 03 ab 10 f7 03 00 04 00 04 e6 03 [................]
  | | |         162c: ab 10 f7 03 00 04 00 04 e6 03 ab 10 f7 03 00 04 [................]
  | | |         163c: 00 04 e6 03 ab 10 f7 03 00 04 00 04 e6 03 ab 10 [................]
  | | |         164c: ad fe 79 01 a4 03 94 2a c6 fe 84 01 84 03 10 27 [..y....*.......']
  | | |         165c: f2 fe 99 01 4c 03 6c 20 1e ff b1 01 19 03 58 1b [....L.l ......X.]
  | | |         166c: 58 ff d2 01 dd 02 70 17 74 ff e3 01 c0 02 e0 15 [X.....p.t.......]
  | | |         167c: 93 ff f7 01 a1 02 50 14 c4 ff 12 02 6f 02 5c 12 [......P.....o.\.]
  | | |         168c: ff ff 3a 02 3b 02 68 10 37 00 64 02 0e 02 d8 0e [..:.;.h.7.d.....]
  | | |         169c: 69 00 8d 02 e8 01 ac 0d a7 00 c4 02 bd 01 80 0c [i...............]
  | | |         16ac: da 00 ef 02 99 01 b8 0b 04 01 21 03 85 01 f0 0a [..........!.....]
  | | |         16bc: 70 01 a8 03 52 01 60 09 f4 01 11 08 21 08 00 08 [p...R.`.....!...]
  | | |         16cc: 00 08 00 08 00 08 00 00 00 00 00 00 11 00 10 00 [................]
  | | |         16dc: 12 00 00 00 12 00 13 00 16 00 19 00 19 00 1d 00 [................]
  | | |         16ec: 1f 00 1d 00 00 00 00 00 00 00 00 00 11 00 13 00 [................]
  | | |         16fc: 15 00 1e 00 1e 00 25 00 24 00 24 00 1e 00 1e 00 [......%.$.$.....]
  | | |         170c: 20 00 1f 00 00 00 00 00 00 00 0f 00 12 00 1c 00 [ ...............]
  | | |         171c: 19 00 1e 00 25 00 25 00 25 00 24 00 1e 00 1e 00 [....%.%.%.$.....]
  | | |         172c: 1b 00 1c 00 00 00 0f 00 15 00 13 00 15 00 19 00 [................]
  | | |         173c: 19 00 1d 00 20 00 21 00 22 00 23 00 21 00 1f 00 [.... .!.".#.!...]
  | | |         174c: 1e 00 1b 00 00 00 00 00 00 00 00 00 1d 00 1d 00 [................]
  | | |         175c: 1e 00 00 00 1f 00 21 00 24 00 28 00 29 00 2d 00 [......!.$.(.).-.]
  | | |         176c: 2f 00 2c 00 00 00 00 00 00 00 00 00 20 00 22 00 [/.,......... .".]
  | | |         177c: 26 00 35 00 34 00 41 00 3f 00 3c 00 31 00 31 00 [&.5.4.A.?.<.1.1.]
  | | |         178c: 35 00 34 00 00 00 00 00 00 00 1d 00 21 00 32 00 [5.4.........!.2.]
  | | |         179c: 2d 00 36 00 41 00 42 00 40 00 3c 00 33 00 31 00 [-.6.A.B.@.<.3.1.]
  | | |         17ac: 2c 00 2e 00 00 00 1e 00 2a 00 25 00 28 00 2e 00 [,.......*.%.(...]
  | | |         17bc: 2e 00 35 00 3a 00 3c 00 3b 00 3c 00 37 00 35 00 [..5.:.<.;.<.7.5.]
  | | |         17cc: 32 00 2e 00 00 00 00 00 00 00 00 00 1f 00 1d 00 [2...............]
  | | |         17dc: 1f 00 00 00 1e 00 20 00 23 00 26 00 25 00 28 00 [...... .#.&.%.(.]
  | | |         17ec: 2a 00 26 00 00 00 00 00 00 00 00 00 21 00 24 00 [*.&.........!.$.]
  | | |         17fc: 27 00 36 00 35 00 41 00 3d 00 3a 00 2e 00 2d 00 ['.6.5.A.=.:...-.]
  | | |         180c: 2e 00 2b 00 00 00 00 00 00 00 21 00 23 00 35 00 [..+.......!.#.5.]
  | | |         181c: 2f 00 37 00 42 00 42 00 3f 00 3b 00 31 00 2e 00 [/.7.B.B.?.;.1...]
  | | |         182c: 29 00 28 00 00 00 24 00 32 00 2c 00 2b 00 31 00 [).(...$.2.,.+.1.]
  | | |         183c: 30 00 36 00 3b 00 3c 00 3b 00 3b 00 35 00 32 00 [0.6.;.<.;.;.5.2.]
  | | |         184c: 2f 00 2a 00 00 00 00 00 00 00 00 00 15 00 14 00 [/.*.............]
  | | |         185c: 15 00 00 00 14 00 15 00 16 00 17 00 17 00 19 00 [................]
  | | |         186c: 1a 00 18 00 00 00 00 00 00 00 00 00 15 00 16 00 [................]
  | | |         187c: 18 00 21 00 20 00 26 00 23 00 21 00 1a 00 19 00 [..!. .&.#.!.....]
  | | |         188c: 1b 00 1a 00 00 00 00 00 00 00 16 00 16 00 20 00 [.............. .]
  | | |         189c: 1c 00 21 00 27 00 26 00 23 00 1f 00 19 00 17 00 [..!.'.&.#.......]
  | | |         18ac: 14 00 15 00 00 00 18 00 20 00 1b 00 1a 00 1d 00 [........ .......]
  | | |         18bc: 1c 00 20 00 22 00 22 00 1f 00 1e 00 1a 00 18 00 [.. .".".........]
  | | |         18cc: 16 00 14 00 00 00 00 00 00 00 00 00 00 00 00 00 [................]
  | | |         18dc: 00 00 00 00 00 00 00 00 00 00 00 00 00 00 00 00 [................]
  | | |         18ec: 00 00 00 00 00 00 00 00 00 00 00 00 00 00 00 00 [................]
  | | |         18fc: 00 00 00 00 00 00 01 00 00 00 00 00 00 00 00 00 [................]
  | | |         190c: 00 00 00 00 00 00 00 00 00 00 00 00 00 00 00 00 [................]
  | | |         191c: 00 00 00 00 00 00 00 00 00 00 00 00 00 00 00 00 [................]
  | | |         192c: 00 00 00 00 00 00 00 00 00 00 00 00 00 00 00 00 [................]
  | | |         193c: 00 00 00 00 00 00 00 00 00 00 00 00 00 00 00 00 [................]
  | | |         194c: 00 00 00 00 00 00 00 00 00 00 00 00 06 00 39 00 [..............9.]
  | | |         195c: 06 00 00 00 e3 00 23 00 3c 00 0b 00 0f 00 09 00 [......#.<.......]
  | | |         196c: 04 00 0b 00 00 00 00 00 00 00 00 00 10 03 8a 06 [................]
  | | |         197c: 38 0c 70 15 9b 48 39 67 65 35 9a 07 4a 01 51 00 [8.p..H9ge5..J.Q.]
  | | |         198c: 1f 00 33 00 00 00 00 00 00 00 05 00 d4 01 1a 01 [..3.............]
  | | |         199c: 6b 06 1c 14 0c 25 ba 8e a5 11 5c 07 36 01 26 00 [k....%....\.6.&.]
  | | |         19ac: 10 00 0d 00 00 00 03 00 09 00 1c 00 ab 03 02 03 [................]
  | | |         19bc: 7f 07 55 10 5e 14 3d 33 6d 12 68 19 de 0b d3 02 [..U.^.=3m.h.....]
  | | |         19cc: 3e 01 8a 00 00 00 00 00 00 00 00 00 00 80 00 00 [>...............]
  | | |         19dc: 00 04 00 04 00 04 c3 0a 51 0f 52 19 14 10 a8 ff [........Q.R.....]
  | | |         19ec: 56 00 97 10 ea 0f 55 00 ae ff 6c 0f 00 00 00 01 [V.....U...l.....]
  | | |         19fc: 01 00 90 0f 02 00 9b 06 02 00 e8 11 01 00 95 62 [...............b]
  | | |         1a0c: 00 04 00 04 00 00 00 04 00 00 00 00 00 00 00 00 [................]
  | | |         1a1c: 00 00 ff 1f 00 01 ff 1f 00 01 00 00 00 00 00 02 [................]
  | | |         1a2c: b0 02 bf 01 e9 01 9f 02 94 01 39 03 00 00 00 00 [..........9.....]
  | | |         1a3c: 00 00 00 00 04 00 23 00 42 00 62 00 81 00 a0 00 [......#.B.b.....]
  | | |         1a4c: c0 00 df 00 ff 00 00 00 28 00 50 00 79 00 a1 00 [........(.P.y...]
  | | |         1a5c: c1 00 d5 00 ea 00 ff 00 01 00 00 00 6e 00 00 00 [............n...]
  | | |         1a6c: 00 00 10 00 20 00 40 00 60 00 80 00 c0 00 00 00 [.... .@.`.......]
  | | |         1a7c: 00 00 00 00 00 00 00 00 00 00 00 00 e8 03 e8 03 [................]
  | | |         1a8c: e8 03 e8 03 e8 03 e8 03 e8 03 88 04 00 00 ff 07 [................]
  | | |         1a9c: ff 07 00 08 00 08 00 00 f7 2f 10 27 00 10 00 00 [........./.'....]
  | | |         1aac: 00 00 00 00 00 00 00 00 00 00 00 00 00 00 00 00 [................]
  | | |         1abc: 00 00 00 00 00 00 00 00 00 00 00 00 00 00 00 00 [................]
  | | |         1acc: 00 00 00 00 00 00 00 00 00 00 00 00 00 00 00 00 [................]
  | | |         1adc: 00 00 00 00 00 00 00 00 00 00 00 00 00 00 00 00 [................]
  | | |         1aec: 00 00 00 00 00 00 00 00 00 00 00 00 00 00 00 00 [................]
  | | |         1afc: 00 00 00 00 00 00 00 00 00 00 00 00 00 00 00 00 [................]
  | | |         1b0c: 00 00 00 00 00 00 00 00 00 00 00 00 00 00 00 00 [................]
  | | |         1b1c: 00 00 00 00 00 00 00 00 00 00 00 00 00 00 00 00 [................]
  | | |         1b2c: 00 00 00 00 00 00 00 00 00 00 00 00 00 00 00 00 [................]
  | | |         1b3c: 00 00 00 00 00 00 00 00 00 00 00 00 00 00 00 00 [................]
  | | |         1b4c: 00 00 00 00 00 00 00 00 00 00 00 00 00 00 00 00 [................]
  | | |         1b5c: 00 00 00 00 00 00 00 00 00 00 00 00 00 00 00 00 [................]
  | | |         1b6c: 00 00 00 00 00 00 00 00 00 00 00 00 00 00 00 00 [................]
  | | |         1b7c: 00 00 00 00 00 00 00 00 00 00 00 00 00 00 00 00 [................]
  | | |         1b8c: 00 00 00 00 00 00 00 00 00 00 00 00 00 00 00 00 [................]
  | | |         1b9c: 00 00 00 00 00 00 00 00 00 00 00 00 00 00 00 00 [................]
  | | |         1bac: 00 00 00 00 00 00 00 00 00 00 00 00 00 00 00 00 [................]
  | | |         1bbc: 00 00 00 00 00 00 00 00 00 00 00 00 00 00 00 00 [................]
  | | |         1bcc: 00 00 00 00 00 00 00 00 00 00 00 00 00 00 00 00 [................]
  | | |         1bdc: 00 00 00 00 00 00 00 00 00 00 00 00 00 00 00 00 [................]
  | | |         1bec: 00 00 00 00 00 00 00 00 00 00 00 00 00 00 00 00 [................]
  | | |         1bfc: 00 00 00 00 00 00 00 00 00 00 00 00 00 00 00 00 [................]
  | | |         1c0c: 00 00 00 00 00 00 00 00 00 00 00 00 00 00 00 00 [................]
  | | |         1c1c: 00 00 00 00 00 00 00 00 00 00 00 00 00 00 00 00 [................]
  | | |         1c2c: 00 00 00 00 00 00 00 00 00 00 00 00 00 00 00 00 [................]
  | | |         1c3c: 00 00 00 00 00 00 00 00 00 00 00 00 00 00 00 00 [................]
  | | |         1c4c: 00 00 00 00 00 00 00 00 00 00 00 00 00 00 00 00 [................]
  | | |         1c5c: 00 00 00 00 00 00 00 00 00 00 00 00 00 00 00 00 [................]
  | | |         1c6c: 00 00 00 00 00 00 00 00 00 00 00 00 00 00 00 00 [................]
  | | |         1c7c: 00 00 00 00 00 00 00 00 00 00 00 00 00 00 00 00 [................]
  | | |         1c8c: 00 00 00 00 00 00 00 00 00 00 00 00 00 00 00 00 [................]
  | | |         1c9c: 00 00 00 00 00 00 00 00 00 00 00 00 00 00 00 00 [................]
  | | |         1cac: 00 00 00 00 00 00 00 00 00 00 00 00 00 00 00 00 [................]
  | | |         1cbc: 00 00 00 00 00 00 00 00 00 00 00 00 00 00 00 00 [................]
  | | |         1ccc: 00 00 00 00 00 00 00 00 00 00 00 00 00 00 00 00 [................]
  | | |         1cdc: 00 00 00 00 00 00 00 00 00 00 00 00 00 00 00 00 [................]
  | | |         [snip 660 bytes]
  | | | + [BinaryData directory, 2692 bytes, Little-endian]
  | | | | ColorDataVersion = 9
  | | | | - Tag 0x0000 (2 bytes, int16s[1]):
  | | | |     14fc: 09 00                                           [..]
  | | | | ColorCoefs (SubDirectory) -->
  | | | | - Tag 0x003f (210 bytes, undef[210]):
  | | | |     157a: 29 08 00 04 00 04 24 06 27 14 29 08 00 04 00 04 [).....$.'.).....]
  | | | |     158a: 24 06 27 14 0b 07 02 04 fd 03 c3 06 de 10 00 00 [$.'.............]
  | | | |     159a: 00 00 00 00 00 00 00 00 25 08 00 04 00 04 16 06 [........%.......]
  | | | |     15aa: 50 14 76 09 00 04 00 04 2a 05 58 1b ca 08 00 04 [P.v.....*.X.....]
  | | | |     15ba: 00 04 97 05 70 17 c9 05 00 04 00 04 34 09 80 0c [....p.......4...]
  | | | |     15ca: 46 07 00 04 00 04 9b 08 df 0e 25 08 00 04 00 04 [F.........%.....]
  | | | |     15da: 16 06 45 14 10 09 00 04 00 04 8b 05 50 18 f4 07 [..E.........P...]
  | | | |     15ea: 00 04 00 04 aa 05 5e 15 25 08 00 04 00 04 16 06 [......^.%.......]
  | | | |     15fa: 45 14 25 08 00 04 00 04 16 06 45 14 25 08 00 04 [E.%.......E.%...]
  | | | |     160a: 00 04 16 06 45 14 25 08 00 04 00 04 16 06 45 14 [....E.%.......E.]
  | | | |     161a: f7 03 00 04 00 04 e6 03 ab 10 f7 03 00 04 00 04 [................]
  | | | |     162a: e6 03 ab 10 f7 03 00 04 00 04 e6 03 ab 10 f7 03 [................]
  | | | |     163a: 00 04 00 04 e6 03 ab 10 f7 03 00 04 00 04 e6 03 [................]
  | | | |     164a: ab 10                                           [..]
  | | | | + [BinaryData directory, 210 bytes, Little-endian]
  | | | | | WB_RGGBLevelsAsShot = 2089 1024 1024 1572
  | | | | | - Tag 0x0000 (8 bytes, int16s[4]):
  | | | | |     157a: 29 08 00 04 00 04 24 06                         [).....$.]
  | | | | | ColorTempAsShot = 5159
  | | | | | - Tag 0x0004 (2 bytes, int16s[1]):
  | | | | |     1582: 27 14                                           ['.]
  | | | | | WB_RGGBLevelsAuto = 2089 1024 1024 1572
  | | | | | - Tag 0x0005 (8 bytes, int16s[4]):
  | | | | |     1584: 29 08 00 04 00 04 24 06                         [).....$.]
  | | | | | ColorTempAuto = 5159
  | | | | | - Tag 0x0009 (2 bytes, int16s[1]):
  | | | | |     158c: 27 14                                           ['.]
  | | | | | WB_RGGBLevelsMeasured = 1803 1026 1021 1731
  | | | | | - Tag 0x000a (8 bytes, int16s[4]):
  | | | | |     158e: 0b 07 02 04 fd 03 c3 06                         [........]
  | | | | | ColorTempMeasured = 4318
  | | | | | - Tag 0x000e (2 bytes, int16s[1]):
  | | | | |     1596: de 10                                           [..]
  | | | | | WB_RGGBLevelsUnknown = 0 0 0 0
  | | | | | - Tag 0x000f (8 bytes, int16s[4]):
  | | | | |     1598: 00 00 00 00 00 00 00 00                         [........]
  | | | | | ColorTempUnknown = 0
  | | | | | - Tag 0x0013 (2 bytes, int16s[1]):
  | | | | |     15a0: 00 00                                           [..]
  | | | | | WB_RGGBLevelsDaylight = 2085 1024 1024 1558
  | | | | | - Tag 0x0014 (8 bytes, int16s[4]):
  | | | | |     15a2: 25 08 00 04 00 04 16 06                         [%.......]
  | | | | | ColorTempDaylight = 5200
  | | | | | - Tag 0x0018 (2 bytes, int16s[1]):
  | | | | |     15aa: 50 14                                           [P.]
  | | | | | WB_RGGBLevelsShade = 2422 1024 1024 1322
  | | | | | - Tag 0x0019 (8 bytes, int16s[4]):
  | | | | |     15ac: 76 09 00 04 00 04 2a 05                         [v.....*.]
  | | | | | ColorTempShade = 7000
  | | | | | - Tag 0x001d (2 bytes, int16s[1]):
  | | | | |     15b4: 58 1b                                           [X.]
  | | | | | WB_RGGBLevelsCloudy = 2250 1024 1024 1431
  | | | | | - Tag 0x001e (8 bytes, int16s[4]):
  | | | | |     15b6: ca 08 00 04 00 04 97 05                         [........]
  | | | | | ColorTempCloudy = 6000
  | | | | | - Tag 0x0022 (2 bytes, int16s[1]):
  | | | | |     15be: 70 17                                           [p.]
  | | | | | WB_RGGBLevelsTungsten = 1481 1024 1024 2356
  | | | | | - Tag 0x0023 (8 bytes, int16s[4]):
  | | | | |     15c0: c9 05 00 04 00 04 34 09                         [......4.]
  | | | | | ColorTempTungsten = 3200
  | | | | | - Tag 0x0027 (2 bytes, int16s[1]):
  | | | | |     15c8: 80 0c                                           [..]
  | | | | | WB_RGGBLevelsFluorescent = 1862 1024 1024 2203
  | | | | | - Tag 0x0028 (8 bytes, int16s[4]):
  | | | | |     15ca: 46 07 00 04 00 04 9b 08                         [F.......]
  | | | | | ColorTempFluorescent = 3807
  | | | | | - Tag 0x002c (2 bytes, int16s[1]):
  | | | | |     15d2: df 0e                                           [..]
  | | | | | WB_RGGBLevelsKelvin = 2085 1024 1024 1558
  | | | | | - Tag 0x002d (8 bytes, int16s[4]):
  | | | | |     15d4: 25 08 00 04 00 04 16 06                         [%.......]
  | | | | | ColorTempKelvin = 5189
  | | | | | - Tag 0x0031 (2 bytes, int16s[1]):
  | | | | |     15dc: 45 14                                           [E.]
  | | | | | WB_RGGBLevelsFlash = 2320 1024 1024 1419
  | | | | | - Tag 0x0032 (8 bytes, int16s[4]):
  | | | | |     15de: 10 09 00 04 00 04 8b 05                         [........]
  | | | | | ColorTempFlash = 6224
  | | | | | - Tag 0x0036 (2 bytes, int16s[1]):
  | | | | |     15e6: 50 18                                           [P.]
  | | | | | WB_RGGBLevelsUnknown2 = 2036 1024 1024 1450
  | | | | | - Tag 0x0037 (8 bytes, int16s[4]):
  | | | | |     15e8: f4 07 00 04 00 04 aa 05                         [........]
  | | | | | ColorTempUnknown2 = 5470
  | | | | | - Tag 0x003b (2 bytes, int16s[1]):
  | | | | |     15f0: 5e 15                                           [^.]
  | | | | | WB_RGGBLevelsUnknown3 = 2085 1024 1024 1558
  | | | | | - Tag 0x003c (8 bytes, int16s[4]):
  | | | | |     15f2: 25 08 00 04 00 04 16 06                         [%.......]
  | | | | | ColorTempUnknown3 = 5189
  | | | | | - Tag 0x0040 (2 bytes, int16s[1]):
  | | | | |     15fa: 45 14                                           [E.]
  | | | | | WB_RGGBLevelsUnknown4 = 2085 1024 1024 1558
  | | | | | - Tag 0x0041 (8 bytes, int16s[4]):
  | | | | |     15fc: 25 08 00 04 00 04 16 06                         [%.......]
  | | | | | ColorTempUnknown4 = 5189
  | | | | | - Tag 0x0045 (2 bytes, int16s[1]):
  | | | | |     1604: 45 14                                           [E.]
  | | | | | WB_RGGBLevelsUnknown5 = 2085 1024 1024 1558
  | | | | | - Tag 0x0046 (8 bytes, int16s[4]):
  | | | | |     1606: 25 08 00 04 00 04 16 06                         [%.......]
  | | | | | ColorTempUnknown5 = 5189
  | | | | | - Tag 0x004a (2 bytes, int16s[1]):
  | | | | |     160e: 45 14                                           [E.]
  | | | | | WB_RGGBLevelsUnknown6 = 2085 1024 1024 1558
  | | | | | - Tag 0x004b (8 bytes, int16s[4]):
  | | | | |     1610: 25 08 00 04 00 04 16 06                         [%.......]
  | | | | | ColorTempUnknown6 = 5189
  | | | | | - Tag 0x004f (2 bytes, int16s[1]):
  | | | | |     1618: 45 14                                           [E.]
  | | | | | WB_RGGBLevelsUnknown7 = 1015 1024 1024 998
  | | | | | - Tag 0x0050 (8 bytes, int16s[4]):
  | | | | |     161a: f7 03 00 04 00 04 e6 03                         [........]
  | | | | | ColorTempUnknown7 = 4267
  | | | | | - Tag 0x0054 (2 bytes, int16s[1]):
  | | | | |     1622: ab 10                                           [..]
  | | | | | WB_RGGBLevelsUnknown8 = 1015 1024 1024 998
  | | | | | - Tag 0x0055 (8 bytes, int16s[4]):
  | | | | |     1624: f7 03 00 04 00 04 e6 03                         [........]
  | | | | | ColorTempUnknown8 = 4267
  | | | | | - Tag 0x0059 (2 bytes, int16s[1]):
  | | | | |     162c: ab 10                                           [..]
  | | | | | WB_RGGBLevelsUnknown9 = 1015 1024 1024 998
  | | | | | - Tag 0x005a (8 bytes, int16s[4]):
  | | | | |     162e: f7 03 00 04 00 04 e6 03                         [........]
  | | | | | ColorTempUnknown9 = 4267
  | | | | | - Tag 0x005e (2 bytes, int16s[1]):
  | | | | |     1636: ab 10                                           [..]
  | | | | | WB_RGGBLevelsUnknown10 = 1015 1024 1024 998
  | | | | | - Tag 0x005f (8 bytes, int16s[4]):
  | | | | |     1638: f7 03 00 04 00 04 e6 03                         [........]
  | | | | | ColorTempUnknown10 = 4267
  | | | | | - Tag 0x0063 (2 bytes, int16s[1]):
  | | | | |     1640: ab 10                                           [..]
  | | | | | WB_RGGBLevelsUnknown11 = 1015 1024 1024 998
  | | | | | - Tag 0x0064 (8 bytes, int16s[4]):
  | | | | |     1642: f7 03 00 04 00 04 e6 03                         [........]
  | | | | | ColorTempUnknown11 = 4267
  | | | | | - Tag 0x0068 (2 bytes, int16s[1]):
  | | | | |     164a: ab 10                                           [..]
  | | | | ColorCalib (SubDirectory) -->
  | | | | - Tag 0x00a8 (120 bytes, undef[120]):
  | | | |     164c: ad fe 79 01 a4 03 94 2a c6 fe 84 01 84 03 10 27 [..y....*.......']
  | | | |     165c: f2 fe 99 01 4c 03 6c 20 1e ff b1 01 19 03 58 1b [....L.l ......X.]
  | | | |     166c: 58 ff d2 01 dd 02 70 17 74 ff e3 01 c0 02 e0 15 [X.....p.t.......]
  | | | |     167c: 93 ff f7 01 a1 02 50 14 c4 ff 12 02 6f 02 5c 12 [......P.....o.\.]
  | | | |     168c: ff ff 3a 02 3b 02 68 10 37 00 64 02 0e 02 d8 0e [..:.;.h.7.d.....]
  | | | |     169c: 69 00 8d 02 e8 01 ac 0d a7 00 c4 02 bd 01 80 0c [i...............]
  | | | |     16ac: da 00 ef 02 99 01 b8 0b 04 01 21 03 85 01 f0 0a [..........!.....]
  | | | |     16bc: 70 01 a8 03 52 01 60 09                         [p...R.`.]
  | | | | + [BinaryData directory, 120 bytes, Little-endian]
  | | | | | CameraColorCalibration01 = -339 377 932 10900
  | | | | | - Tag 0x0000 (8 bytes, int16s[4]):
  | | | | |     164c: ad fe 79 01 a4 03 94 2a                         [..y....*]
  | | | | | CameraColorCalibration02 = -314 388 900 10000
  | | | | | - Tag 0x0004 (8 bytes, int16s[4]):
  | | | | |     1654: c6 fe 84 01 84 03 10 27                         [.......']
  | | | | | CameraColorCalibration03 = -270 409 844 8300
  | | | | | - Tag 0x0008 (8 bytes, int16s[4]):
  | | | | |     165c: f2 fe 99 01 4c 03 6c 20                         [....L.l ]
  | | | | | CameraColorCalibration04 = -226 433 793 7000
  | | | | | - Tag 0x000c (8 bytes, int16s[4]):
  | | | | |     1664: 1e ff b1 01 19 03 58 1b                         [......X.]
  | | | | | CameraColorCalibration05 = -168 466 733 6000
  | | | | | - Tag 0x0010 (8 bytes, int16s[4]):
  | | | | |     166c: 58 ff d2 01 dd 02 70 17                         [X.....p.]
  | | | | | CameraColorCalibration06 = -140 483 704 5600
  | | | | | - Tag 0x0014 (8 bytes, int16s[4]):
  | | | | |     1674: 74 ff e3 01 c0 02 e0 15                         [t.......]
  | | | | | CameraColorCalibration07 = -109 503 673 5200
  | | | | | - Tag 0x0018 (8 bytes, int16s[4]):
  | | | | |     167c: 93 ff f7 01 a1 02 50 14                         [......P.]
  | | | | | CameraColorCalibration08 = -60 530 623 4700
  | | | | | - Tag 0x001c (8 bytes, int16s[4]):
  | | | | |     1684: c4 ff 12 02 6f 02 5c 12                         [....o.\.]
  | | | | | CameraColorCalibration09 = -1 570 571 4200
  | | | | | - Tag 0x0020 (8 bytes, int16s[4]):
  | | | | |     168c: ff ff 3a 02 3b 02 68 10                         [..:.;.h.]
  | | | | | CameraColorCalibration10 = 55 612 526 3800
  | | | | | - Tag 0x0024 (8 bytes, int16s[4]):
  | | | | |     1694: 37 00 64 02 0e 02 d8 0e                         [7.d.....]
  | | | | | CameraColorCalibration11 = 105 653 488 3500
  | | | | | - Tag 0x0028 (8 bytes, int16s[4]):
  | | | | |     169c: 69 00 8d 02 e8 01 ac 0d                         [i.......]
  | | | | | CameraColorCalibration12 = 167 708 445 3200
  | | | | | - Tag 0x002c (8 bytes, int16s[4]):
  | | | | |     16a4: a7 00 c4 02 bd 01 80 0c                         [........]
  | | | | | CameraColorCalibration13 = 218 751 409 3000
  | | | | | - Tag 0x0030 (8 bytes, int16s[4]):
  | | | | |     16ac: da 00 ef 02 99 01 b8 0b                         [........]
  | | | | | CameraColorCalibration14 = 260 801 389 2800
  | | | | | - Tag 0x0034 (8 bytes, int16s[4]):
  | | | | |     16b4: 04 01 21 03 85 01 f0 0a                         [..!.....]
  | | | | | CameraColorCalibration15 = 368 936 338 2400
  | | | | | - Tag 0x0038 (8 bytes, int16s[4]):
  | | | | |     16bc: 70 01 a8 03 52 01 60 09                         [p...R.`.]
  | | | | AverageBlackLevel = 2048 2048 2048 2048
  | | | | - Tag 0x00e7 (8 bytes, int16u[4]):
  | | | |     16ca: 00 08 00 08 00 08 00 08                         [........]
  | | | | FlashOutput = 0
  | | | | - Tag 0x026b (2 bytes, int16s[1]):
  | | | |     19d2: 00 00                                           [..]
  | | | | FlashBatteryLevel = 0
  | | | | - Tag 0x026c (2 bytes, int16s[1]):
  | | | |     19d4: 00 00                                           [..]
  | | | | RawMeasuredRGGB = 261095425 110821378 300417026 1653932033
  | | | | - Tag 0x0280 (16 bytes, int32u[4]):
  | | | |     19fc: 01 00 90 0f 02 00 9b 06 02 00 e8 11 01 00 95 62 [...............b]
  | | | | PerChannelBlackLevel = 2047 2047 2048 2048
  | | | | - Tag 0x02cf (8 bytes, int16u[4]):
  | | | |     1a9a: ff 07 ff 07 00 08 00 08                         [........]
  | | | | NormalWhiteLevel = 0
  | | | | - Tag 0x02d3 (2 bytes, int16u[1]):
  | | | |     1aa2: 00 00                                           [..]
  | | | | SpecularWhiteLevel = 12279
  | | | | - Tag 0x02d4 (2 bytes, int16u[1]):
  | | | |     1aa4: f7 2f                                           [./]
  | | | | LinearityUpperMargin = 10000
  | | | | - Tag 0x02d5 (2 bytes, int16u[1]):
  | | | |     1aa6: 10 27                                           [.']
  | | | 28) PictureStyleUserDef = 134 129 131
  | | |     - Tag 0x4008 (6 bytes, int16u[3]):
  | | |         1f80: 86 00 81 00 83 00                               [......]
  | | | 29) PictureStylePC = 0 0 0
  | | |     - Tag 0x4009 (6 bytes, int16u[3]):
  | | |         1f86: 00 00 00 00 00 00                               [......]
  | | | 30) CustomPictureStyleFileName = 
  | | |     - Tag 0x4010 (32 bytes, string[32]):
  | | |         1f8c: 00 00 00 00 00 00 00 00 00 00 00 00 00 00 00 00 [................]
  | | |         1f9c: 00 00 00 00 00 00 00 00 00 00 00 00 00 00 00 00 [................]
  | | | 31) Canon_0x4011 = 
  | | |     - Tag 0x4011 (252 bytes, undef[252]):
  | | |         1fac: 00 00 00 00 00 00 00 00 00 00 00 00 00 00 00 00 [................]
  | | |         1fbc: 00 00 00 00 00 00 00 00 00 00 00 00 00 00 00 00 [................]
  | | |         1fcc: 00 00 00 00 00 00 00 00 00 00 00 00 00 00 00 00 [................]
  | | |         1fdc: 00 00 00 00 00 00 00 00 00 00 00 00 00 00 00 00 [................]
  | | |         1fec: 00 00 00 00 00 00 00 00 00 00 00 00 00 00 00 00 [................]
  | | |         1ffc: 00 00 00 00 00 00 00 00 00 00 00 00 00 00 00 00 [................]
  | | |         200c: 00 00 00 00 00 00 00 00 00 00 00 00 00 00 00 00 [................]
  | | |         201c: 00 00 00 00 00 00 00 00 00 00 00 00 00 00 00 00 [................]
  | | |         202c: 00 00 00 00 00 00 00 00 00 00 00 00 00 00 00 00 [................]
  | | |         203c: 00 00 00 00 00 00 00 00 00 00 00 00 00 00 00 00 [................]
  | | |         204c: 00 00 00 00 00 00 00 00 00 00 00 00 00 00 00 00 [................]
  | | |         205c: 00 00 00 00 00 00 00 00 00 00 00 00 00 00 00 00 [................]
  | | |         206c: 00 00 00 00 00 00 00 00 00 00 00 00 00 00 00 00 [................]
  | | |         207c: 00 00 00 00 00 00 00 00 00 00 00 00 00 00 00 00 [................]
  | | |         208c: 00 00 00 00 00 00 00 00 00 00 00 00 00 00 00 00 [................]
  | | |         209c: 00 00 00 00 00 00 00 00 00 00 00 00             [............]
  | | | 32) Canon_0x4012 = 
  | | |     - Tag 0x4012 (32 bytes, string[32]):
  | | |         20a8: 00 00 00 00 00 00 00 00 00 00 00 00 00 00 00 00 [................]
  | | |         20b8: 00 00 00 00 00 00 00 00 00 00 00 00 00 00 00 00 [................]
  | | | 33) VignettingCorr (SubDirectory) -->
  | | |     - Tag 0x4015 (116 bytes, undef[116]):
  | | |         20c8: 00 10 74 00 01 00 00 00 00 00 00 00 46 00 00 00 [..t.........F...]
  | | |         20d8: 00 00 00 00 cc 10 40 14 80 0d ff 1f c0 1f 78 1f [......@.......x.]
  | | |         20e8: e3 1b 09 19 3e 14 00 00 f5 02 ea 05 22 08 df 08 [....>......."...]
  | | |         20f8: 1a 0a 00 40 ff 3e 57 3e 3e 3e c0 3e 0d 3f 00 40 [...@.>W>>>.>.?.@]
  | | |         2108: c8 3f 72 3f f1 3e 84 3e 5c 3e 00 00 b2 03 ea 05 [.?r?.>.>\>......]
  | | |         2118: 22 08 9d 09 1a 0a e8 3f 2c 40 97 40 36 41 be 41 ["......?,@.@6A.A]
  | | |         2128: ef 41 00 00 b2 03 ea 05 22 08 9d 09 1a 0a 00 00 [.A......".......]
  | | |         2138: 00 00 00 00                                     [....]
  | | | + [BinaryData directory, 116 bytes, Little-endian]
  | | | | PeripheralLighting = 1
  | | | | - Tag 0x0002 (2 bytes, int16s[1]):
  | | | |     20cc: 01 00                                           [..]
  | | | | DistortionCorrection = 0
  | | | | - Tag 0x0003 (2 bytes, int16s[1]):
  | | | |     20ce: 00 00                                           [..]
  | | | | ChromaticAberrationCorr = 0
  | | | | - Tag 0x0004 (2 bytes, int16s[1]):
  | | | |     20d0: 00 00                                           [..]
  | | | | ChromaticAberrationCorr = 0
  | | | | - Tag 0x0005 (2 bytes, int16s[1]):
  | | | |     20d2: 00 00                                           [..]
  | | | | PeripheralLightingValue = 70
  | | | | - Tag 0x0006 (2 bytes, int16s[1]):
  | | | |     20d4: 46 00                                           [F.]
  | | | | DistortionCorrectionValue = 0
  | | | | - Tag 0x0009 (2 bytes, int16s[1]):
  | | | |     20da: 00 00                                           [..]
  | | | | OriginalImageWidth = 5184
  | | | | - Tag 0x000b (2 bytes, int16s[1]):
  | | | |     20de: 40 14                                           [@.]
  | | | | OriginalImageHeight = 3456
  | | | | - Tag 0x000c (2 bytes, int16s[1]):
  | | | |     20e0: 80 0d                                           [..]
  | | | 34) VignettingCorr2 (SubDirectory) -->
  | | |     - Tag 0x4016 (24 bytes, int32u[6] read as undef[24]):
  | | |         213c: 18 00 00 00 00 00 00 00 01 00 00 00 00 00 00 00 [................]
  | | |         214c: 01 00 00 00 01 00 00 00                         [........]
  | | | + [BinaryData directory, 24 bytes, Little-endian]
  | | | | PeripheralLightingSetting = 1
  | | | | - Tag 0x0005 (4 bytes, int32s[1]):
  | | | |     2150: 01 00 00 00                                     [....]
  | | | 35) Canon_0x4017 = 197383 1811939375
  | | |     - Tag 0x4017 (8 bytes, int32u[2]):
  | | |         2154: 07 03 03 00 2f 00 00 6c                         [..../..l]
  | | | 36) LightingOpt (SubDirectory) -->
  | | |     - Tag 0x4018 (12 bytes, int32u[3] read as undef[12]):
  | | |         215c: 0c 00 00 00 00 00 00 00 00 00 00 00             [............]
  | | | + [BinaryData directory, 12 bytes, Little-endian]
  | | | | PeripheralIlluminationCorr = 0
  | | | | - Tag 0x0001 (4 bytes, int32s[1]):
  | | | |     2160: 00 00 00 00                                     [....]
  | | | | AutoLightingOptimizer = 0
  | | | | - Tag 0x0002 (4 bytes, int32s[1]):
  | | | |     2164: 00 00 00 00                                     [....]
  | | | 37) LensInfo (SubDirectory) -->
  | | |     - Tag 0x4019 (30 bytes, undef[30]):
  | | |         2168: 00 00 4d 77 bd 00 00 00 00 00 00 00 00 00 00 00 [..Mw............]
  | | |         2178: 00 00 00 00 00 00 00 00 00 00 00 00 00 00       [..............]
  | | | + [BinaryData directory, 30 bytes, Little-endian]
  | | | | LensSerialNumber = Mw.
  | | | | - Tag 0x0000 (5 bytes, undef[5]):
  | | | |     2168: 00 00 4d 77 bd                                  [..Mw.]
  | | | 38) AmbienceInfo (SubDirectory) -->
  | | |     - Tag 0x4020 (20 bytes, int32u[5] read as undef[20]):
  | | |         2186: 14 00 00 00 00 00 00 00 00 00 00 00 00 00 00 00 [................]
  | | |         2196: 00 00 00 00                                     [....]
  | | | + [BinaryData directory, 20 bytes, Little-endian]
  | | | | AmbienceSelection = 0
  | | | | - Tag 0x0001 (4 bytes, int32s[1]):
  | | | |     218a: 00 00 00 00                                     [....]
  | | 17) UserComment = 
  | |     - Tag 0x9286 (264 bytes, undef[264]):
  | |         21a2: 00 00 00 00 00 00 00 00 00 00 00 00 00 00 00 00 [................]
  | |         21b2: 00 00 00 00 00 00 00 00 00 00 00 00 00 00 00 00 [................]
  | |         21c2: 00 00 00 00 00 00 00 00 00 00 00 00 00 00 00 00 [................]
  | |         21d2: 00 00 00 00 00 00 00 00 00 00 00 00 00 00 00 00 [................]
  | |         21e2: 00 00 00 00 00 00 00 00 00 00 00 00 00 00 00 00 [................]
  | |         21f2: 00 00 00 00 00 00 00 00 00 00 00 00 00 00 00 00 [................]
  | |         2202: 00 00 00 00 00 00 00 00 00 00 00 00 00 00 00 00 [................]
  | |         2212: 00 00 00 00 00 00 00 00 00 00 00 00 00 00 00 00 [................]
  | |         2222: 00 00 00 00 00 00 00 00 00 00 00 00 00 00 00 00 [................]
  | |         2232: 00 00 00 00 00 00 00 00 00 00 00 00 00 00 00 00 [................]
  | |         2242: 00 00 00 00 00 00 00 00 00 00 00 00 00 00 00 00 [................]
  | |         2252: 00 00 00 00 00 00 00 00 00 00 00 00 00 00 00 00 [................]
  | |         2262: 00 00 00 00 00 00 00 00 00 00 00 00 00 00 00 00 [................]
  | |         2272: 00 00 00 00 00 00 00 00 00 00 00 00 00 00 00 00 [................]
  | |         2282: 00 00 00 00 00 00 00 00 00 00 00 00 00 00 00 00 [................]
  | |         2292: 00 00 00 00 00 00 00 00 00 00 00 00 00 00 00 00 [................]
  | |         22a2: 00 00 00 00 00 00 00 00                         [........]
  | | 18) SubSecTime = 00
  | |     - Tag 0x9290 (3 bytes, string[3]):
  | |         0242: 30 30 00                                        [00.]
  | | 19) SubSecTimeOriginal = 00
  | |     - Tag 0x9291 (3 bytes, string[3]):
  | |         024e: 30 30 00                                        [00.]
  | | 20) SubSecTimeDigitized = 00
  | |     - Tag 0x9292 (3 bytes, string[3]):
  | |         025a: 30 30 00                                        [00.]
  | | 21) FlashpixVersion = 0100
  | |     - Tag 0xa000 (4 bytes, undef[4]):
  | |         0266: 30 31 30 30                                     [0100]
  | | 22) ColorSpace = 65535
  | |     - Tag 0xa001 (2 bytes, int16u[1]):
  | |         0272: ff ff                                           [..]
  | | 23) ExifImageWidth = 3456
  | |     - Tag 0xa002 (2 bytes, int16u[1]):
  | |         027e: 80 0d                                           [..]
  | | 24) ExifImageHeight = 2304
  | |     - Tag 0xa003 (2 bytes, int16u[1]):
  | |         028a: 00 09                                           [..]
  | | 25) InteropOffset (SubDirectory) -->
  | |     - Tag 0xa005 (4 bytes, int32u[1]):
  | |         0296: 52 23 00 00                                     [R#..]
  | | + [InteropIFD directory with 2 entries, Little-endian]
  | | | 0)  InteropIndex = R03
  | | |     - Tag 0x0001 (4 bytes, string[4]):
  | | |         2368: 52 30 33 00                                     [R03.]
  | | | 1)  InteropVersion = 0100
  | | |     - Tag 0x0002 (4 bytes, undef[4]):
  | | |         2374: 30 31 30 30                                     [0100]
  | | 26) FocalPlaneXResolution = 3818.78453 (3456000/905)
  | |     - Tag 0xa20e (8 bytes, rational64u[1]):
  | |         22aa: 00 bc 34 00 89 03 00 00                         [..4.....]
  | | 27) FocalPlaneYResolution = 3872.268908 (2304000/595)
  | |     - Tag 0xa20f (8 bytes, rational64u[1]):
  | |         22b2: 00 28 23 00 53 02 00 00                         [.(#.S...]
  | | 28) FocalPlaneResolutionUnit = 2
  | |     - Tag 0xa210 (2 bytes, int16u[1]):
  | |         02ba: 02 00                                           [..]
  | | 29) CustomRendered = 0
  | |     - Tag 0xa401 (2 bytes, int16u[1]):
  | |         02c6: 00 00                                           [..]
  | | 30) ExposureMode = 1
  | |     - Tag 0xa402 (2 bytes, int16u[1]):
  | |         02d2: 01 00                                           [..]
  | | 31) WhiteBalance = 0
  | |     - Tag 0xa403 (2 bytes, int16u[1]):
  | |         02de: 00 00                                           [..]
  | | 32) SceneCaptureType = 0
  | |     - Tag 0xa406 (2 bytes, int16u[1]):
  | |         02ea: 00 00                                           [..]
  | | 33) OwnerName = 
  | |     - Tag 0xa430 (32 bytes, string[32]):
  | |         22ba: 00 00 00 00 00 00 00 00 00 00 00 00 00 00 00 00 [................]
  | |         22ca: 00 00 00 00 00 00 00 00 00 00 00 00 00 00 00 00 [................]
  | | 34) SerialNumber = 3511406352
  | |     - Tag 0xa431 (10 bytes, string[10]):
  | |         22da: 33 35 31 31 34 30 36 33 35 32                   [3511406352]
  | | 35) LensInfo = 18 200 undef undef (18/1 200/1 0/0 0/0)
  | |     - Tag 0xa432 (32 bytes, rational64u[4]):
  | |         22e4: 12 00 00 00 01 00 00 00 c8 00 00 00 01 00 00 00 [................]
  | |         22f4: 00 00 00 00 00 00 00 00 00 00 00 00 00 00 00 00 [................]
  | | 36) LensModel = EF-S18-200mm f/3.5-5.6 IS
  | |     - Tag 0xa434 (70 bytes, string[70]):
  | |         2304: 45 46 2d 53 31 38 2d 32 30 30 6d 6d 20 66 2f 33 [EF-S18-200mm f/3]
  | |         2314: 2e 35 2d 35 2e 36 20 49 53 00 00 00 00 00 00 00 [.5-5.6 IS.......]
  | |         2324: 00 00 00 00 00 00 00 00 00 00 00 00 00 00 00 00 [................]
  | |         2334: 00 00 00 00 00 00 00 00 00 00 00 00 00 00 00 00 [................]
  | |         2344: 00 00 00 00 00 00                               [......]
  | | 37) LensSerialNumber = 00004d77bd
  | |     - Tag 0xa435 (12 bytes, string[12]):
  | |         234a: 30 30 30 30 34 64 37 37 62 64 00 00             [00004d77bd..]
  | | 38) Gamma = 2.2 (22/10)
  | |     - Tag 0xa500 (8 bytes, rational64u[1]):
  | |         2356: 16 00 00 00 0a 00 00 00                         [........]
  + [IFD1 directory with 6 entries, Little-endian]
  | 0)  Compression = 6
  |     - Tag 0x0103 (2 bytes, int16u[1]):
  |         2386: 06 00                                           [..]
  | 1)  XResolution = 72 (72/1)
  |     - Tag 0x011a (8 bytes, rational64u[1]):
  |         23ca: 48 00 00 00 01 00 00 00                         [H.......]
  | 2)  YResolution = 72 (72/1)
  |     - Tag 0x011b (8 bytes, rational64u[1]):
  |         23d2: 48 00 00 00 01 00 00 00                         [H.......]
  | 3)  ResolutionUnit = 2
  |     - Tag 0x0128 (2 bytes, int16u[1]):
  |         23aa: 02 00                                           [..]
  | 4)  ThumbnailOffset = 9300
  |     - Tag 0x0201 (4 bytes, int32u[1]):
  |         23b6: 54 24 00 00                                     [T$..]
  | 5)  ThumbnailLength = 12432
  |     - Tag 0x0202 (4 bytes, int32u[1]):
  |         23c2: 90 30 00 00                                     [.0..]
JPEG COM (50 bytes):
      23de: 4f 70 74 69 6d 69 7a 65 64 20 62 79 20 4a 50 45 [Optimized by JPE]
      23ee: 47 6d 69 6e 69 20 33 2e 31 34 2e 31 32 2e 37 31 [Gmini 3.14.12.71]
      23fe: 39 30 31 37 30 36 20 30 78 65 63 61 32 30 65 37 [901706 0xeca20e7]
      240e: 35 00                                           [5.]
  Comment = Optimized by JPEGmini 3.14.12.71901706 0xeca20e75
JPEG DQT (65 bytes):
      2414: 00 0b 07 07 11 07 06 0b 11 08 11 0c 0b 0b 17 1d [................]
      2424: 1a 11 1d 0e 0e 1d 20 17 18 23 1a 26 22 29 28 25 [...... ..#.&")(%]
      2434: 22 25 24 2a 2f 3d 34 2a 2d 39 2d 24 25 35 48 36 ["%$*/=4*-9-$%5H6]
      2444: 39 3f 41 44 44 44 29 33 4b 51 4a 42 50 3d 43 44 [9?ADDD)3KQJBP=CD]
      2454: 41                                              [A]
JPEG DQT (65 bytes):
      2459: 01 0b 0c 0c 1d 0e 1d 1f 11 11 1f 41 2c 25 2c 41 [...........A,%,A]
      2469: 41 41 41 41 41 41 41 41 41 41 41 41 41 41 41 41 [AAAAAAAAAAAAAAAA]
      2479: 41 41 41 41 41 41 41 41 41 41 41 41 41 41 41 41 [AAAAAAAAAAAAAAAA]
      2489: 41 41 41 41 41 41 41 41 41 41 41 41 41 41 41 41 [AAAAAAAAAAAAAAAA]
      2499: 41                                              [A]
JPEG SOF0 (15 bytes):
      249e: 08 09 00 0d 80 03 01 11 00 02 11 01 03 11 01    [...............]
  ImageWidth = 3456
  ImageHeight = 2304
  EncodingProcess = 0
  BitsPerSample = 8
  ColorComponents = 3
  YCbCrSubSampling = 1 1
JPEG DHT (25 bytes):
      24b1: 00 00 02 03 01 01 01 00 00 00 00 00 00 00 00 00 [................]
      24c1: 00 01 02 00 03 04 05 06 07                      [.........]
JPEG DHT (74 bytes):
      24ce: 10 00 01 03 03 02 05 02 03 06 05 04 01 02 03 02 [................]
      24de: 0f 01 00 02 11 03 12 21 04 31 05 13 22 41 51 32 [.......!.1.."AQ2]
      24ee: 61 14 23 71 06 42 52 81 91 a1 33 62 b1 c1 d1 15 [a.#q.BR...3b....]
      24fe: 24 e1 f0 72 82 f1 25 34 43 53 92 07 16 a2 b2 35 [$..r..%4CS.....5]
      250e: 63 c2 26 d2 44 73 17 36 83 e2                   [c.&.Ds.6..]
JPEG DHT (23 bytes):
      251c: 01 01 01 01 01 01 01 00 00 00 00 00 00 00 00 00 [................]
      252c: 00 00 01 02 03 04 05                            [.......]
JPEG DHT (40 bytes):
      2537: 11 01 01 01 01 00 03 00 02 03 01 01 01 01 00 00 [................]
      2547: 07 00 01 11 02 12 21 31 03 51 13 41 61 71 22 32 [......!1.Q.Aaq"2]
      2557: 04 14 52 81 42 23 33 91                         [..R.B#3.]
JPEG SOS
JPEG EOI
