  ExifToolVersion = 13.59
  FileName = media_75.heic
  Directory = C:/Users/micro/IdeaProjects/kim/src/commonTest/resources/de/stefan_oltmann/kim/testdata/full
  FileSize = 1099349
  FileModifyDate = 1776264330.19785
  FileAccessDate = 1786601587.49531
  FileCreateDate = 1776264330.19585
  FilePermissions = 33206
  FileType = HEIC
  FileTypeExtension = HEIC
  MIMEType = image/heic
  FileType (SubDirectory) -->
  - Tag 'ftyp' (20 bytes):
      0008: 68 65 69 63 00 00 00 00 6d 69 66 31 68 65 69 63 [heic....mif1heic]
      0018: 6d 69 61 66                                     [miaf]
  + [BinaryData directory, 20 bytes, Big-endian]
  | MajorBrand = heic
  | - Tag 0x0000 (4 bytes, undef[4]):
  |     0008: 68 65 69 63                                     [heic]
  | MinorVersion = 
  | - Tag 0x0001 (4 bytes, undef[4]):
  |     000c: 00 00 00 00                                     [....]
  | CompatibleBrands = mif1heicmiaf
  | - Tag 0x0002 (12 bytes, undef[12]):
  |     0010: 6d 69 66 31 68 65 69 63 6d 69 61 66             [mif1heicmiaf]
  Meta (SubDirectory) -->
  - Tag 'meta' (455 bytes):
      0024: 00 00 00 00 00 00 00 21 68 64 6c 72 00 00 00 00 [.......!hdlr....]
      0034: 00 00 00 00 70 69 63 74 00 00 00 00 00 00 00 00 [....pict........]
      0044: 00 00 00 00 00 00 00 00 0e 70 69 74 6d 00 00 00 [.........pitm...]
      0054: 00 00 01 00 00 00 46 69 6c 6f 63 00 00 00 00 44 [......Filoc....D]
      0064: 40 00 03 00 01 00 00 00 00 01 f3 00 01 00 00 00 [@...............]
      0074: 00 00 10 73 0d 00 02 00 00 00 10 75 00 00 01 00 [...s.......u....]
      0084: 00 00 00 00 00 46 78 00 03 00 00 00 10 bb 78 00 [.....Fx.......x.]
      0094: 01 00 00 00 00 00 00 0a dd 00 00 00 62 69 69 6e [............biin]
      00a4: 66 00 00 00 00 00 03 00 00 00 15 69 6e 66 65 02 [f..........infe.]
      00b4: 00 00 00 00 01 00 00 68 76 63 31 00 00 00 00 15 [.......hvc1.....]
      00c4: 69 6e 66 65 02 00 00 01 00 02 00 00 45 78 69 66 [infe........Exif]
      00d4: 00 00 00 00 2a 69 6e 66 65 02 00 00 01 00 03 00 [....*infe.......]
      00e4: 00 6d 69 6d 65 00 61 70 70 6c 69 63 61 74 69 6f [.mime.applicatio]
      00f4: 6e 2f 72 64 66 2b 78 6d 6c 00 00 00 00 00 c4 69 [n/rdf+xml......i]
      0104: 70 72 70 00 00 00 a6 69 70 63 6f 00 00 00 7a 68 [prp....ipco...zh]
      0114: 76 63 43 01 03 70 00 00 00 00 00 00 00 00 00 b4 [vcC..p..........]
      0124: f0 00 fc fd f8 f8 00 00 0f 03 20 00 01 00 18 40 [.......... ....@]
      0134: 01 0c 01 ff ff 03 70 00 00 03 00 90 00 00 03 00 [......p.........]
      0144: 00 03 00 b4 ba 02 40 21 00 01 00 2d 42 01 01 03 [......@!...-B...]
      0154: 70 00 00 03 00 90 00 00 03 00 00 03 00 b4 a0 00 [p...............]
      0164: ab 08 00 e4 16 5b a9 24 a6 b9 b8 08 68 30 20 00 [.....[.$....h0 .]
      0174: 00 03 00 20 00 00 03 00 21 22 00 01 00 07 44 01 [... ....!"....D.]
      0184: c1 72 b0 62 40 00 00 00 14 69 73 70 65 00 00 00 [.r.b@....ispe...]
      0194: 00 00 00 15 60 00 00 0e 40 00 00 00 10 70 69 78 [....`...@....pix]
      01a4: 69 00 00 00 00 03 08 08 08 00 00 00 16 69 70 6d [i............ipm]
      01b4: 61 00 00 00 00 00 00 00 01 00 01 03 81 02 03 00 [a...............]
      01c4: 00 00 28 69 72 65 66 00 00 00 00 00 00 00 0e 63 [..(iref........c]
      01d4: 64 73 63 00 02 00 01 00 01 00 00 00 0e 63 64 73 [dsc..........cds]
      01e4: 63 00 03 00 01 00 01                            [c......]
  + [Meta directory]
  | Handler (SubDirectory) -->
  | - Tag 'hdlr' (25 bytes):
  |     0030: 00 00 00 00 00 00 00 00 70 69 63 74 00 00 00 00 [........pict....]
  |     0040: 00 00 00 00 00 00 00 00 00                      [.........]
  | + [BinaryData directory, 25 bytes, Big-endian]
  | | HandlerClass = 
  | | - Tag 0x0004 (4 bytes, undef[4]):
  | |     0034: 00 00 00 00                                     [....]
  | | HandlerType = pict
  | | - Tag 0x0008 (4 bytes, undef[4]):
  | |     0038: 70 69 63 74                                     [pict]
  | | HandlerVendorID = 
  | | - Tag 0x000c (4 bytes, undef[4]):
  | |     003c: 00 00 00 00                                     [....]
  | | HandlerDescription = 
  | | - Tag 0x0018 (1 bytes, string[1]):
  | |     0048: 00                                              [.]
  | PrimaryItemReference = .
  | - Tag 'pitm' (6 bytes):
  |     0051: 00 00 00 00 00 01                               [......]
  | ItemLocation = D@......s...u.Fx...x...
  | - Tag 'iloc' (62 bytes):
  |     005f: 00 00 00 00 44 40 00 03 00 01 00 00 00 00 01 f3 [....D@..........]
  |     006f: 00 01 00 00 00 00 00 10 73 0d 00 02 00 00 00 10 [........s.......]
  |     007f: 75 00 00 01 00 00 00 00 00 00 46 78 00 03 00 00 [u.........Fx....]
  |     008f: 00 10 bb 78 00 01 00 00 00 00 00 00 0a dd       [...x..........]
  |   Item 1: const_meth= base=0x1f3 offset=0x0 len=0x10730d
  |   Item 2: const_meth= base=0x107500 offset=0x0 len=0x4678
  |   Item 3: const_meth= base=0x10bb78 offset=0x0 len=0xadd
  | ItemInformation (SubDirectory) -->
  | - Tag 'iinf' (90 bytes):
  |     00a5: 00 00 00 00 00 03 00 00 00 15 69 6e 66 65 02 00 [..........infe..]
  |     00b5: 00 00 00 01 00 00 68 76 63 31 00 00 00 00 15 69 [......hvc1.....i]
  |     00c5: 6e 66 65 02 00 00 01 00 02 00 00 45 78 69 66 00 [nfe........Exif.]
  |     00d5: 00 00 00 2a 69 6e 66 65 02 00 00 01 00 03 00 00 [...*infe........]
  |     00e5: 6d 69 6d 65 00 61 70 70 6c 69 63 61 74 69 6f 6e [mime.application]
  |     00f5: 2f 72 64 66 2b 78 6d 6c 00 00                   [/rdf+xml..]
  | + [ItemInformation directory]
  | | ItemInfoEntry = ..hvc1
  | | - Tag 'infe' (13 bytes):
  | |     00b3: 02 00 00 00 00 01 00 00 68 76 63 31 00          [........hvc1.]
  | |   Item 1: Type=hvc1 Name= ContentType= (PrimaryItem)
  | | ItemInfoEntry = ...Exif
  | | - Tag 'infe' (13 bytes):
  | |     00c8: 02 00 00 01 00 02 00 00 45 78 69 66 00          [........Exif.]
  | |   Item 2: Type=Exif Name= ContentType=
  | | ItemInfoEntry = ...mimeapplication/rdf+xml
  | | - Tag 'infe' (34 bytes):
  | |     00dd: 02 00 00 01 00 03 00 00 6d 69 6d 65 00 61 70 70 [........mime.app]
  | |     00ed: 6c 69 63 61 74 69 6f 6e 2f 72 64 66 2b 78 6d 6c [lication/rdf+xml]
  | |     00fd: 00 00                                           [..]
  | |   Item 3: Type=mime Name= ContentType=application/rdf+xml
  | ItemProperties (SubDirectory) -->
  | - Tag 'iprp' (188 bytes):
  |     0107: 00 00 00 a6 69 70 63 6f 00 00 00 7a 68 76 63 43 [....ipco...zhvcC]
  |     0117: 01 03 70 00 00 00 00 00 00 00 00 00 b4 f0 00 fc [..p.............]
  |     0127: fd f8 f8 00 00 0f 03 20 00 01 00 18 40 01 0c 01 [....... ....@...]
  |     0137: ff ff 03 70 00 00 03 00 90 00 00 03 00 00 03 00 [...p............]
  |     0147: b4 ba 02 40 21 00 01 00 2d 42 01 01 03 70 00 00 [...@!...-B...p..]
  |     0157: 03 00 90 00 00 03 00 00 03 00 b4 a0 00 ab 08 00 [................]
  |     0167: e4 16 5b a9 24 a6 b9 b8 08 68 30 20 00 00 03 00 [..[.$....h0 ....]
  |     0177: 20 00 00 03 00 21 22 00 01 00 07 44 01 c1 72 b0 [ ....!"....D..r.]
  |     0187: 62 40 00 00 00 14 69 73 70 65 00 00 00 00 00 00 [b@....ispe......]
  |     0197: 15 60 00 00 0e 40 00 00 00 10 70 69 78 69 00 00 [.`...@....pixi..]
  |     01a7: 00 00 03 08 08 08 00 00 00 16 69 70 6d 61 00 00 [..........ipma..]
  |     01b7: 00 00 00 00 00 01 00 01 03 81 02 03             [............]
  | + [ItemProperties directory]
  | | ItemPropertyContainer (SubDirectory) -->
  | | - Tag 'ipco' (158 bytes):
  | |     010f: 00 00 00 7a 68 76 63 43 01 03 70 00 00 00 00 00 [...zhvcC..p.....]
  | |     011f: 00 00 00 00 b4 f0 00 fc fd f8 f8 00 00 0f 03 20 [............... ]
  | |     012f: 00 01 00 18 40 01 0c 01 ff ff 03 70 00 00 03 00 [....@......p....]
  | |     013f: 90 00 00 03 00 00 03 00 b4 ba 02 40 21 00 01 00 [...........@!...]
  | |     014f: 2d 42 01 01 03 70 00 00 03 00 90 00 00 03 00 00 [-B...p..........]
  | |     015f: 03 00 b4 a0 00 ab 08 00 e4 16 5b a9 24 a6 b9 b8 [..........[.$...]
  | |     016f: 08 68 30 20 00 00 03 00 20 00 00 03 00 21 22 00 [.h0 .... ....!".]
  | |     017f: 01 00 07 44 01 c1 72 b0 62 40 00 00 00 14 69 73 [...D..r.b@....is]
  | |     018f: 70 65 00 00 00 00 00 00 15 60 00 00 0e 40 00 00 [pe.......`...@..]
  | |     019f: 00 10 70 69 78 69 00 00 00 00 03 08 08 08       [..pixi........]
  | | [Process ipco box later]
  | | ItemPropertyAssociation = ......
  | | - Tag 'ipma' (14 bytes):
  | |     01b5: 00 00 00 00 00 00 00 01 00 01 03 81 02 03       [..............]
  | |   Item 1 properties: 1 2 3
  | ItemReference (SubDirectory) -->
  | - Tag 'iref' (32 bytes):
  |     01cb: 00 00 00 00 00 00 00 0e 63 64 73 63 00 02 00 01 [........cdsc....]
  |     01db: 00 01 00 00 00 0e 63 64 73 63 00 03 00 01 00 01 [......cdsc......]
  | + [ItemReference directory]
  | | ContentDescribes = ...
  | | - Tag 'cdsc' (6 bytes):
  | |     01d7: 00 02 00 01 00 01                               [......]
  | |   Item 2 refers to: 1
  | | ContentDescribes = ...
  | | - Tag 'cdsc' (6 bytes):
  | |     01e5: 00 03 00 01 00 01                               [......]
  | |   Item 3 refers to: 1
  + [Processing items from ItemInformation directory with 3 entries]
  | Item 1) 'hvc1' (1078029 bytes)
  |     01f3: 00 10 73 09 28 01 af 13 07 23 dd b8 3a 0c 75 26 [..s.(....#..:.u&]
  |     0203: ea ed e2 d3 d4 b7 bd 6f a4 9f 1a 3d c9 7c 42 f9 [.......o...=.|B.]
  |     0213: e1 ec 03 f8 a8 9a 92 a4 29 47 5a 72 c2 2d 9b 2f [........)GZr.-./]
  |     0223: 50 2e 57 ec 6f b8 f5 2f 78 dc bb c8 cb 90 0f 32 [P.W.o../x......2]
  |     0233: 36 63 5c 35 17 96 2e d2 5e 10 bc 83 7a 56 e0 45 [6c\5....^...zV.E]
  |     0243: 1e d8 b0 2f f6 1e ea bc 48 78 a6 f1 75 d3 0b 96 [.../....Hx..u...]
  |     0253: 47 22 6e 21 9c 7e 37 e0 70 b2 df 35 ba 73 5f f6 [G"n!.~7.p..5.s_.]
  |     0263: aa 4d 22 e0 77 31 81 28 93 98 f2 11 eb b6 cb b3 [.M".w1.(........]
  |     0273: ad bd 43 dd a2 36 3e 82 a2 16 32 43 0c c0 be 1c [..C..6>...2C....]
  |     0283: 06 dd 03 78 d8 2e a2 60 d9 4f 32 a6 c4 2a 55 aa [...x...`.O2..*U.]
  |     0293: a2 94 3a 41 e8 32 3d c3 52 05 c1 d5 d8 e8 5c af [..:A.2=.R.....\.]
  |     02a3: 6c 8f 97 db 78 35 29 01 dc 8b 3a 01 49 7c 48 23 [l...x5)...:.I|H#]
  |     02b3: 42 61 c7 73 76 a8 ed ff 32 f6 18 44 4d 4a 44 94 [Ba.sv...2..DMJD.]
  |     02c3: cc c4 a0 3b 16 34 f0 d3 32 5f 90 02 02 f3 f3 42 [...;.4..2_.....B]
  |     02d3: 4e 07 82 f1 ab 48 4a 3e 75 b9 43 f1 9e eb 5c 07 [N....HJ>u.C...\.]
  |     02e3: 4d de fa 0a 80 89 ef f3 a3 8c d7 b8 9e 5a 28 37 [M............Z(7]
  |     02f3: 4c 07 d3 c9 92 6a 76 83 b9 be af 6b a7 ae f7 c2 [L....jv....k....]
  |     0303: b8 4b bb 84 90 b7 c2 29 c2 cd f3 d5 12 e9 f8 20 [.K.....)....... ]
  |     0313: 83 6a 60 a9 7c 31 79 3c 59 4a 18 c1 a9 eb fa 25 [.j`.|1y<YJ.....%]
  |     0323: b7 61 82 07 e1 7b 69 61 ea 83 ac c6 33 07 6a 28 [.a...{ia....3.j(]
  |     0333: 7e 92 a9 9c 76 2d e4 9c f2 37 9c 4a 60 c9 28 47 [~...v-...7.J`.(G]
  |     0343: 70 3f e6 57 b7 e4 32 f1 0f 0e 41 a8 66 b7 a4 a2 [p?.W..2...A.f...]
  |     0353: 69 94 0f 22 9c 64 ae a1 1f 9a 8b 2e ff c0 1f cd [i..".d..........]
  |     0363: 87 00 89 d1 64 36 8f d6 c5 d9 d5 17 d5 55 d9 75 [....d6.......U.u]
  |     0373: 52 d3 3d 04 60 98 87 62 68 7e c5 ba 27 bb 90 fd [R.=.`..bh~..'...]
  |     0383: 43 53 38 2e be ae c3 2f 39 0c 06 56 a3 fb f7 de [CS8..../9..V....]
  |     0393: a0 ae 1a 11 d6 e1 58 fa 13 0c 28 7b d4 7d ad ea [......X...({.}..]
  |     03a3: 8f 57 06 ad 8e 76 16 ae 91 27 74 c7 ec b1 45 c9 [.W...v...'t...E.]
  |     03b3: 95 f7 96 d6 2e 53 2d 2a 5e d1 94 2f a7 15 ee e1 [.....S-*^../....]
  |     03c3: 35 bf 84 54 a4 09 e7 e8 45 a8 cd 39 e4 ab f8 8a [5..T....E..9....]
  |     03d3: 6e aa b0 43 32 5d 8c 03 63 36 66 ae 06 34 b0 18 [n..C2]..c6f..4..]
  |     03e3: 71 33 58 9e b9 cb d0 83 e4 56 54 9a 09 93 08 f0 [q3X......VT.....]
  |     03f3: f6 5d 76 f0 1f 27 2c 69 bd 6b 7a 03 dd 9e 28 b2 [.]v..',i.kz...(.]
  |     0403: 9a 11 89 3e df 8b 85 b2 b4 ac fe 26 2e d8 d7 47 [...>.......&...G]
  |     0413: da b9 f7 69 16 5b 6f 5e 84 72 cc de da 7b 65 11 [...i.[o^.r...{e.]
  |     0423: e4 f5 16 63 86 fd 6f 75 c0 7d e4 c6 18 16 8a b0 [...c..ou.}......]
  |     0433: 35 26 c3 90 94 5c e7 62 2e fd 46 96 75 10 39 a3 [5&...\.b..F.u.9.]
  |     0443: f9 59 05 4d 74 8b 27 0d d2 dd de e0 3e 42 12 ae [.Y.Mt.'.....>B..]
  |     0453: c1 2d 32 f4 39 d8 62 c4 82 7e 6b f8 c0 86 ad 74 [.-2.9.b..~k....t]
  |     0463: 6d dc 6a 1b f6 e3 03 76 3e af b9 fb fd ff b6 a7 [m.j....v>.......]
  |     0473: 79 b6 e9 ec b9 e6 4a 7a 65 9f 25 42 c2 75 d8 04 [y.....Jze.%B.u..]
  |     0483: 9d ef 3b 5e 5d 82 bc c7 fc b6 b1 01 f4 71 15 fe [..;^]........q..]
  |     0493: b5 b9 13 da 0a c4 c8 e6 90 ac a9 5f 97 74 61 c0 [..........._.ta.]
  |     04a3: 89 92 97 a1 07 eb e7 d8 90 be 61 9f 4a 08 0a 5d [..........a.J..]]
  |     04b3: 94 d6 fa 91 1a 12 f2 e2 34 e7 7e aa 6b 2c c5 9b [........4.~.k,..]
  |     04c3: 5b f3 fe ef d2 99 4f 7b 49 01 6f df 45 2d 3d 10 [[.....O{I.o.E-=.]
  |     04d3: fc 35 84 38 ad 85 0e 7e 79 34 4d 7d 0c 4b 1d 5d [.5.8...~y4M}.K.]]
  |     04e3: 24 d1 72 af 09 33 0f e1 ad 47 ac bc 32 4a 64 83 [$.r..3...G..2Jd.]
  |     04f3: 44 43 b5 e6 3b 5f 45 4e 76 9d 25 f9 fa 79 c9 01 [DC..;_ENv.%..y..]
  |     0503: ec 9c 0d 97 c1 4c e6 92 d7 a7 e4 74 3b 8f ca 8f [.....L.....t;...]
  |     0513: ab c1 f6 4b ff 47 0e 60 9a 0d 26 36 f9 88 5b ba [...K.G.`..&6..[.]
  |     0523: 92 02 1c 49 da be 84 59 3f 31 4f f8 36 84 bc f9 [...I...Y?1O.6...]
  |     0533: 2f 25 65 ec 2b ff 15 85 94 8b a6 ea fc 3d ca c2 [/%e.+........=..]
  |     0543: b8 20 7a 5c e5 be 75 13 c7 d3 90 8b f1 5e b7 bd [. z\..u......^..]
  |     0553: 20 50 26 ae 52 a1 a8 a0 03 66 6f 7a b6 f4 21 2f [ P&.R....foz..!/]
  |     0563: 1c 77 56 82 70 d5 a0 75 0a ca 2f 3e b5 46 55 31 [.wV.p..u../>.FU1]
  |     0573: 29 c9 d3 31 96 e0 e6 57 71 94 f2 8f d3 18 e8 30 [)..1...Wq......0]
  |     0583: f4 51 ed ec 77 4b 5b 58 ea 89 db 5a 63 c5 fa e1 [.Q..wK[X...Zc...]
  |     0593: 04 8c 8f 72 85 7f 7b 1f 3b 64 da 67 95 b7 1b 0e [...r..{.;d.g....]
  |     05a3: 83 89 ff 9c a4 2d 1e eb 6b a1 71 68 3f d1 af f8 [.....-..k.qh?...]
  |     05b3: ea 36 5b 0f a0 44 9b 72 04 c0 8d 9d 31 8f db 94 [.6[..D.r....1...]
  |     05c3: 32 fd ec da 5b 69 96 d4 c6 2d 02 48 2c 08 11 1b [2...[i...-.H,...]
  |     05d3: 17 e8 e9 4a 6b 78 b4 f5 16 cd 90 82 fe 12 c5 7c [...Jkx.........|]
  |     05e3: 72 65 53 51 9c 94 7e 9d 37 6f bb 6f 00 5c d2 77 [reSQ..~.7o.o.\.w]
  |     05f3: f0 62 3b ad ad c7 54 ea 6c 2f 5a 1d 3a e7 0f a2 [.b;...T.l/Z.:...]
  |     0603: fc 99 8b 68 40 1c 07 51 8f b6 3c ae 89 92 76 39 [...h@..Q..<...v9]
  |     0613: 11 48 00 08 88 09 c2 6d 60 00 11 19 62 f6 dc cb [.H.....m`...b...]
  |     0623: fc b3 19 a9 74 8a ca 19 9e ad 9b ab 8d 53 80 4b [....t........S.K]
  |     0633: 9f 82 96 50 ad 7d 33 3a 7b bf 40 6d 4a 0f 42 45 [...P.}3:{.@mJ.BE]
  |     0643: 78 e3 5a b5 96 bb ed cd ce ac 22 0b dc 66 37 17 [x.Z......."..f7.]
  |     0653: 50 90 d9 84 b6 98 fd 6c 2f 70 28 8e 1b 09 93 d8 [P......l/p(.....]
  |     0663: 3d ec 4c 89 31 e7 3d 26 c8 f5 66 0e ad 30 0a f7 [=.L.1.=&..f..0..]
  |     0673: 95 e3 89 0d c8 3d 99 06 33 7f e4 5d 42 19 2b b8 [.....=..3..]B.+.]
  |     0683: 01 12 7c f9 bf e9 e8 e9 37 bc c9 c8 46 87 ed 4b [..|.....7...F..K]
  |     0693: 47 cc e8 40 53 5a e2 69 aa c3 9d 13 2f d3 6a 7e [G..@SZ.i..../.j~]
  |     06a3: 82 0d f9 e3 bb eb 25 d0 a8 03 26 cf 46 6a 63 fb [......%...&.Fjc.]
  |     06b3: 0c 30 d9 dd 28 9e 75 e2 17 f1 ba ff 2d ff 9d 70 [.0..(.u.....-..p]
  |     06c3: 7f 78 ce 43 07 5e 5e 13 6b 07 90 98 fa ab c2 45 [.x.C.^^.k......E]
  |     06d3: c9 a7 23 53 d0 6e 66 d9 9f 3c 29 3d 89 6b 0b fe [..#S.nf..<)=.k..]
  |     06e3: 15 d4 d0 7e ed 0e 8f d6 bc 37 bf c8 52 bc 59 ad [...~.....7..R.Y.]
  |     06f3: d2 d5 32 80 20 1f 07 59 a3 d8 00 85 53 0d 60 46 [..2. ..Y....S.`F]
  |     0703: e3 08 e2 38 1c ba c2 0c 53 df 7b 23 f3 4b f3 b8 [...8....S.{#.K..]
  |     0713: ed 85 42 91 7d 14 0a d1 42 3f 7d 0d 3c a9 b9 af [..B.}...B?}.<...]
  |     0723: e3 e4 10 e3 fd 85 07 4e ac df 8e 1f 8d 38 6a 0e [.......N.....8j.]
  |     0733: 56 22 0d 23 dc 51 68 fb 58 1f 24 d3 58 aa 3e 02 [V".#.Qh.X.$.X.>.]
  |     0743: ca bd 0c ad 03 1c d6 41 76 b2 a5 1c a1 f0 6e db [.......Av.....n.]
  |     0753: a6 cc 58 de 6f 39 33 16 6a 4a 32 08 e6 0b 77 11 [..X.o93.jJ2...w.]
  |     0763: 57 86 e7 7b e5 61 52 70 01 f3 98 6e dc 4a 61 d2 [W..{.aRp...n.Ja.]
  |     0773: 59 3d 0d 18 76 ed 4d f8 73 a3 53 56 86 8b d7 8b [Y=..v.M.s.SV....]
  |     0783: 4f 08 bc 29 7d 1c 0b 26 f4 ac e4 79 6d 89 9e 21 [O..)}..&...ym..!]
  |     0793: c8 24 25 e4 3f f7 93 21 9b 37 6d 26 94 9b 03 08 [.$%.?..!.7m&....]
  |     07a3: 25 2f 78 5f 6c 9f 57 97 e1 f9 3f ac 54 f7 bd 19 [%/x_l.W...?.T...]
  |     07b3: 90 47 5f 43 02 e9 d7 7b ea 18 e4 00 5b 51 4d 44 [.G_C...{....[QMD]
  |     07c3: 72 da 76 b5 f1 ed ad a0 9a a2 c4 84 84 6b e3 18 [r.v..........k..]
  |     07d3: 93 7d d5 35 97 c6 d4 c0 3b c1 90 74 e2 74 c8 0b [.}.5....;..t.t..]
  |     07e3: 94 48 55 86 74 0c af b9 26 19 ec 51 47 ad f8 35 [.HU.t...&..QG..5]
  |     07f3: ca 70 bc 2d 27 9f 01 ed 9e 8c 53 51 69 92 85 58 [.p.-'.....SQi..X]
  |     0803: bd 3b e7 4f 1a 7f 2f 15 7a 65 ca b0 57 51 a9 3c [.;.O../.ze..WQ.<]
  |     0813: 1f d9 21 04 c4 8c 7f fc 7f b4 09 8f e5 6a ef a0 [..!..........j..]
  |     0823: 48 08 fd a3 16 56 b5 4e df b8 d3 81 f8 da 17 b1 [H....V.N........]
  |     0833: be 3b cc 7e a8 e0 94 5c 3c e0 8b 7f 5d 9f 52 52 [.;.~...\<...].RR]
  |     0843: 6d a6 56 53 bc 80 cd 3e b3 5b b5 3f 84 41 84 7d [m.VS...>.[.?.A.}]
  |     0853: 3e 41 5f 57 08 3b d0 49 5a 49 23 8a 8f d1 6e 57 [>A_W.;.IZI#...nW]
  |     0863: 78 2d 6a 57 f1 06 49 38 89 e1 88 01 c7 3b 00 ce [x-jW..I8.....;..]
  |     0873: 39 0c 7f f9 3f 7e 6f be e9 c6 98 af 73 fd 23 f4 [9...?~o.....s.#.]
  |     0883: 13 7f b7 1b a1 bb a9 83 57 11 4c 63 3f 59 b1 66 [........W.Lc?Y.f]
  |     0893: 63 fd 75 62 99 89 0b 99 a9 7d b5 52 9b 96 00 d9 [c.ub.....}.R....]
  |     08a3: 07 ec 0b 89 40 2f ea ab b1 25 4c cf 0b 83 a8 c3 [....@/...%L.....]
  |     08b3: be 48 1f 3d 9a 52 6d 0c e8 fe 08 1f ee f7 5a 70 [.H.=.Rm.......Zp]
  |     08c3: 36 62 f7 cc e5 e1 69 a1 37 16 a8 89 41 2f d1 a3 [6b....i.7...A/..]
  |     08d3: 21 b6 83 62 fd de 4b 1b c0 ef 05 c1 0e d9 af 94 [!..b..K.........]
  |     08e3: a7 2e 07 04 00 bc 48 a5 49 87 34 3c c4 9f 76 63 [......H.I.4<..vc]
  |     08f3: 01 4f 6a c7 2d 49 a4 a9 04 0c ca 91 4d ba 5f e0 [.Oj.-I......M._.]
  |     0903: f3 ab 10 4c 6f 51 78 7b c9 68 50 56 a0 70 25 ae [...LoQx{.hPV.p%.]
  |     0913: 60 36 4d 8b e1 9b 6b 50 db 13 01 d6 a4 91 e8 41 [`6M...kP.......A]
  |     0923: 7a 2a aa 0b 92 1e 05 64 18 67 5b ba 18 93 21 00 [z*.....d.g[...!.]
  |     0933: e9 dc 6d 8e aa bb 65 21 27 a7 5b 85 5c 0a f4 9a [..m...e!'.[.\...]
  |     0943: a3 0e dc d3 fb fb b6 3b 18 f8 f2 68 25 52 1f 2d [.......;...h%R.-]
  |     0953: f3 a7 6c be d9 a0 6d 9c b7 14 d3 99 8a be 2a b5 [..l...m.......*.]
  |     0963: 00 eb 1c f6 bc 23 02 fe fd 2b 65 88 93 9a ca 51 [.....#...+e....Q]
  |     0973: 6f d9 7b 69 1b bf b9 32 e7 5d 3c 56 f1 ea 24 ea [o.{i...2.]<V..$.]
  |     0983: 7f 4b e8 24 37 12 46 ac be a1 20 0e 46 08 eb 39 [.K.$7.F... .F..9]
  |     0993: 11 09 36 7a fd f5 de 45 fe f5 9a 02 84 f1 17 a5 [..6z...E........]
  |     09a3: 0c e2 d2 55 dd 40 0f 08 0e 24 2b 07 d7 24 e5 1d [...U.@...$+..$..]
  |     09b3: 79 50 fe 89 af 53 a8 62 db 1f e4 27 40 8c a6 79 [yP...S.b...'@..y]
  |     09c3: 71 ee ac 78 8e 18 2d 8e a2 52 b5 c1 19 bd 3c 0a [q..x..-..R....<.]
  |     09d3: b2 4b dc c7 75 f4 74 bb 94 8c 10 42 2f f7 2f 86 [.K..u.t....B/./.]
  |     09e3: 53 ce a6 19 ff 7a 71 73 dd 63 f2 87 f5 a1 c1 d1 [S....zqs.c......]
  |     [snip 1075981 bytes]
  | Item 2) 'Exif' (18040 bytes)
  |   107500: 00 00 00 06 45 78 69 66 00 00 49 49 2a 00 08 00 [....Exif..II*...]
  |   107510: 00 00 0c 00 0f 01 02 00 06 00 00 00 9e 00 00 00 [................]
  |   107520: 10 01 02 00 0e 00 00 00 a4 00 00 00 12 01 03 00 [................]
  |   107530: 01 00 00 00 01 00 00 00 1a 01 05 00 01 00 00 00 [................]
  |   107540: b2 00 00 00 1b 01 05 00 01 00 00 00 ba 00 00 00 [................]
  |   107550: 28 01 03 00 01 00 00 00 02 00 00 00 32 01 02 00 [(...........2...]
  |   107560: 14 00 00 00 c2 00 00 00 3b 01 02 00 01 00 00 00 [........;.......]
  |   107570: 00 00 00 00 13 02 03 00 01 00 00 00 02 00 00 00 [................]
  |   107580: 98 82 02 00 01 00 00 00 00 00 00 00 69 87 04 00 [............i...]
  |   107590: 01 00 00 00 d6 00 00 00 25 88 04 00 01 00 00 00 [........%.......]
  |   1075a0: 86 24 00 00 98 24 00 00 43 61 6e 6f 6e 00 43 61 [.$...$..Canon.Ca]
  |   1075b0: 6e 6f 6e 20 45 4f 53 20 37 30 44 00 48 00 00 00 [non EOS 70D.H...]
  |   1075c0: 01 00 00 00 48 00 00 00 01 00 00 00 32 30 31 35 [....H.......2015]
  |   1075d0: 3a 31 30 3a 31 31 20 31 34 3a 34 31 3a 34 34 00 [:10:11 14:41:44.]
  |   1075e0: 26 00 9a 82 05 00 01 00 00 00 a4 02 00 00 9d 82 [&...............]
  |   1075f0: 05 00 01 00 00 00 ac 02 00 00 22 88 03 00 01 00 [..........".....]
  |   107600: 00 00 02 00 00 00 27 88 03 00 01 00 00 00 90 01 [......'.........]
  |   107610: 00 00 30 88 03 00 01 00 00 00 02 00 00 00 32 88 [..0...........2.]
  |   107620: 04 00 01 00 00 00 90 01 00 00 00 90 07 00 04 00 [................]
  |   107630: 00 00 30 32 33 30 03 90 02 00 14 00 00 00 b4 02 [..0230..........]
  |   107640: 00 00 04 90 02 00 14 00 00 00 c8 02 00 00 01 91 [................]
  |   107650: 07 00 04 00 00 00 01 02 03 00 01 92 0a 00 01 00 [................]
  |   107660: 00 00 dc 02 00 00 02 92 05 00 01 00 00 00 e4 02 [................]
  |   107670: 00 00 04 92 0a 00 01 00 00 00 ec 02 00 00 07 92 [................]
  |   107680: 03 00 01 00 00 00 05 00 00 00 09 92 03 00 01 00 [................]
  |   107690: 00 00 10 00 00 00 0a 92 05 00 01 00 00 00 f4 02 [................]
  |   1076a0: 00 00 7c 92 07 00 08 20 00 00 fc 02 00 00 86 92 [..|.... ........]
  |   1076b0: 07 00 08 01 00 00 04 23 00 00 90 92 02 00 03 00 [.......#........]
  |   1076c0: 00 00 30 30 00 00 91 92 02 00 03 00 00 00 30 30 [..00..........00]
  |   1076d0: 00 00 92 92 02 00 03 00 00 00 30 30 00 00 00 a0 [..........00....]
  |   1076e0: 07 00 04 00 00 00 30 31 30 30 01 a0 03 00 01 00 [......0100......]
  |   1076f0: 00 00 01 00 00 00 02 a0 03 00 01 00 00 00 60 15 [..............`.]
  |   107700: 00 00 03 a0 03 00 01 00 00 00 40 0e 00 00 05 a0 [..........@.....]
  |   107710: 04 00 01 00 00 00 68 24 00 00 0e a2 05 00 01 00 [......h$........]
  |   107720: 00 00 0c 24 00 00 0f a2 05 00 01 00 00 00 14 24 [...$...........$]
  |   107730: 00 00 10 a2 03 00 01 00 00 00 02 00 00 00 01 a4 [................]
  |   107740: 03 00 01 00 00 00 00 00 00 00 02 a4 03 00 01 00 [................]
  |   107750: 00 00 00 00 00 00 03 a4 03 00 01 00 00 00 00 00 [................]
  |   107760: 00 00 06 a4 03 00 01 00 00 00 00 00 00 00 30 a4 [..............0.]
  |   107770: 02 00 01 00 00 00 00 00 00 00 31 a4 02 00 0d 00 [..........1.....]
  |   107780: 00 00 1c 24 00 00 32 a4 05 00 04 00 00 00 2a 24 [...$..2.......*$]
  |   107790: 00 00 34 a4 02 00 11 00 00 00 4a 24 00 00 35 a4 [..4.......J$..5.]
  |   1077a0: 02 00 0b 00 00 00 5c 24 00 00 00 00 00 00 01 00 [......\$........]
  |   1077b0: 00 00 3c 00 00 00 20 00 00 00 0a 00 00 00 32 30 [..<... .......20]
  |   1077c0: 31 35 3a 31 30 3a 31 31 20 31 34 3a 34 31 3a 34 [15:10:11 14:41:4]
  |   1077d0: 34 00 32 30 31 35 3a 31 30 3a 31 31 20 31 34 3a [4.2015:10:11 14:]
  |   1077e0: 34 31 3a 34 34 00 00 00 06 00 00 00 01 00 00 60 [41:44..........`]
  |   1077f0: 03 00 00 00 01 00 00 00 00 00 01 00 00 00 32 00 [..............2.]
  |   107800: 00 00 01 00 00 00 29 00 01 00 03 00 31 00 00 00 [......).....1...]
  |   107810: ee 04 00 00 02 00 03 00 04 00 00 00 50 05 00 00 [............P...]
  |   107820: 03 00 03 00 04 00 00 00 58 05 00 00 04 00 03 00 [........X.......]
  |   107830: 22 00 00 00 60 05 00 00 06 00 02 00 0e 00 00 00 ["...`...........]
  |   107840: a4 05 00 00 07 00 02 00 18 00 00 00 b2 05 00 00 [................]
  |   107850: 09 00 02 00 20 00 00 00 ca 05 00 00 0d 00 07 00 [.... ...........]
  |   107860: 00 06 00 00 ea 05 00 00 10 00 04 00 01 00 00 00 [................]
  |   107870: 25 03 00 80 13 00 03 00 04 00 00 00 ea 0b 00 00 [%...............]
  |   107880: 19 00 03 00 01 00 00 00 01 00 00 00 26 00 03 00 [............&...]
  |   107890: 8b 00 00 00 f2 0b 00 00 35 00 04 00 04 00 00 00 [........5.......]
  |   1078a0: 08 0d 00 00 93 00 03 00 20 00 00 00 18 0d 00 00 [........ .......]
  |   1078b0: 95 00 02 00 4a 00 00 00 58 0d 00 00 96 00 02 00 [....J...X.......]
  |   1078c0: 10 00 00 00 a2 0d 00 00 97 00 07 00 00 04 00 00 [................]
  |   1078d0: b2 0d 00 00 98 00 03 00 04 00 00 00 b2 11 00 00 [................]
  |   1078e0: 99 00 04 00 74 00 00 00 ba 11 00 00 9a 00 04 00 [....t...........]
  |   1078f0: 05 00 00 00 8a 13 00 00 a0 00 03 00 0e 00 00 00 [................]
  |   107900: 9e 13 00 00 aa 00 03 00 06 00 00 00 ba 13 00 00 [................]
  |   107910: b4 00 03 00 01 00 00 00 01 00 00 00 d0 00 04 00 [................]
  |   107920: 01 00 00 00 00 00 00 00 e0 00 03 00 11 00 00 00 [................]
  |   107930: c6 13 00 00 01 40 03 00 21 05 00 00 e8 13 00 00 [.....@..!.......]
  |   107940: 08 40 03 00 03 00 00 00 2a 1e 00 00 09 40 03 00 [.@......*....@..]
  |   107950: 03 00 00 00 30 1e 00 00 10 40 02 00 20 00 00 00 [....0....@.. ...]
  |   107960: 36 1e 00 00 11 40 07 00 fc 00 00 00 56 1e 00 00 [6....@......V...]
  |   107970: 12 40 02 00 20 00 00 00 52 1f 00 00 13 40 04 00 [.@.. ...R....@..]
  |   107980: 0b 00 00 00 72 1f 00 00 15 40 07 00 c8 01 00 00 [....r....@......]
  |   107990: 9e 1f 00 00 16 40 04 00 07 00 00 00 66 21 00 00 [.....@......f!..]
  |   1079a0: 18 40 04 00 07 00 00 00 82 21 00 00 19 40 07 00 [.@.......!...@..]
  |   1079b0: 1e 00 00 00 9e 21 00 00 20 40 04 00 07 00 00 00 [.....!.. @......]
  |   1079c0: bc 21 00 00 21 40 04 00 05 00 00 00 d8 21 00 00 [.!..!@.......!..]
  |   1079d0: 24 40 04 00 35 00 00 00 ec 21 00 00 25 40 04 00 [$@..5....!..%@..]
  |   1079e0: 09 00 00 00 c0 22 00 00 27 40 04 00 06 00 00 00 [....."..'@......]
  |   1079f0: e4 22 00 00 00 00 00 00 62 00 02 00 00 00 03 00 [."......b.......]
  |   107a00: 00 00 00 00 00 00 02 00 00 00 01 00 00 00 3b 00 [..............;.]
  |   107a10: 00 00 00 00 00 00 ff 7f 0f 00 03 00 02 00 00 00 [................]
  |   107a20: 00 00 ff ff 3c 10 32 00 32 00 01 00 38 00 20 01 [....<.2.2...8. .]
  |   107a30: 00 00 00 00 00 00 00 00 ff ff ff ff ff ff 00 00 [................]
  |   107a40: 00 00 00 00 00 00 ff ff ff ff 00 00 00 00 ff 7f [................]
  |   107a50: ff ff ff ff ff ff 00 00 ff ff 00 00 32 00 16 0b [............2...]
  |   107a60: 24 5a 00 00 00 00 00 00 00 00 44 00 00 00 e0 00 [$Z........D.....]
  |   107a70: 48 00 6c 00 c0 00 00 00 00 00 03 00 00 00 08 00 [H.l.............]
  |   107a80: 08 00 95 00 00 00 00 00 00 00 00 00 00 00 01 00 [................]
  |   107a90: 00 00 00 00 68 00 c0 00 64 00 00 00 00 00 f8 00 [....h...d.......]
  |   107aa0: ff ff ff ff ff ff ff ff 00 00 00 00 00 00 43 61 [..............Ca]
  |   107ab0: 6e 6f 6e 20 45 4f 53 20 37 30 44 00 46 69 72 6d [non EOS 70D.Firm]
  |   107ac0: 77 61 72 65 20 56 65 72 73 69 6f 6e 20 31 2e 31 [ware Version 1.1]
  |   107ad0: 2e 31 00 00 00 00 00 00 00 00 00 00 00 00 00 00 [.1..............]
  |   107ae0: 00 00 00 00 00 00 00 00 00 00 00 00 00 00 00 00 [................]
  |   107af0: 00 00 00 00 aa aa 68 22 68 23 58 00 01 2d 01 3e [......h"h#X..-.>]
  |   107b00: 00 03 00 00 00 00 00 00 01 00 00 06 00 00 00 95 [................]
  |   107b10: 92 00 a6 00 af 00 a9 00 32 00 00 20 00 00 00 00 [........2.. ....]
  |   107b20: 00 02 03 00 00 00 00 00 4a 00 32 00 73 01 bb bb [........J.2.s...]
  |   107b30: fa 50 00 24 40 90 00 00 00 00 00 00 00 00 00 00 [.P.$@...........]
  |   107b40: 00 00 00 00 00 00 ff 88 00 00 00 00 40 ff 00 6e [............@..n]
  |   107b50: 00 46 00 30 00 00 00 00 00 00 00 00 00 00 00 00 [.F.0............]
  |   107b60: 00 00 b4 8d b7 94 6e 00 00 00 00 00 00 00 00 00 [......n.........]
  |   107b70: 01 01 00 00 00 00 02 01 00 00 00 00 00 00 00 00 [................]
  |   107b80: 00 00 00 00 00 00 00 00 57 00 49 04 00 00 00 00 [........W.I.....]
  |   107b90: 00 00 00 00 ff ff ff ff 0c cc cc 16 00 00 00 03 [................]
  |   107ba0: 00 00 00 00 00 00 00 00 00 00 00 00 00 00 00 00 [................]
  |   107bb0: ff 01 00 00 00 4a 00 00 00 00 00 50 14 00 00 00 [.....J.....P....]
  |   107bc0: 00 00 00 00 00 00 00 01 00 00 00 01 00 00 00 01 [................]
  |   107bd0: 00 00 00 03 00 00 00 03 00 00 00 03 00 00 00 00 [................]
  |   107be0: 00 00 00 01 00 00 00 00 00 00 00 01 00 00 00 87 [................]
  |   107bf0: 00 00 00 01 00 00 00 01 00 00 00 01 00 00 00 07 [................]
  |   107c00: 00 00 00 00 00 00 03 05 03 55 55 00 00 00 00 0e [.........UU.....]
  |   107c10: 00 00 00 00 00 00 00 00 00 00 00 00 00 03 07 07 [................]
  |   107c20: 11 0d 00 00 00 00 00 00 00 00 00 00 00 00 00 00 [................]
  |   107c30: 00 55 55 05 00 00 03 00 14 04 00 00 00 00 00 00 [.UU.............]
  |   107c40: 00 00 00 00 00 00 00 00 00 00 00 00 03 02 02 00 [................]
  |   107c50: 00 00 00 00 00 00 00 01 16 50 10 3c 00 32 00 32 [.........P.<.2.2]
  |   107c60: 81 67 92 7f 00 ff 00 00 00 00 00 00 00 21 4e 1c [.g...........!N.]
  |   107c70: 01 00 03 07 16 00 27 02 00 00 00 00 00 00 00 00 [......'.........]
  |   107c80: 00 00 00 00 00 00 00 00 00 00 00 00 00 00 00 00 [................]
  |   107c90: 00 00 00 02 00 00 00 60 15 00 00 40 0e 00 00 9c [.......`...@....]
  |   107ca0: 09 00 00 b0 05 00 00 28 02 00 00 e0 02 00 00 d0 [.......(........]
  |   107cb0: 02 00 00 e0 01 00 00 00 00 00 00 00 00 00 00 d0 [................]
  |   107cc0: 02 00 00 e0 01 00 00 d0 02 00 00 e0 01 00 00 00 [................]
  |   107cd0: 00 00 00 00 00 00 00 d0 02 00 00 e0 01 00 00 00 [................]
  |   107ce0: 00 00 00 00 00 00 00 01 00 00 00 00 00 00 00 00 [................]
  |   107cf0: 00 00 00 00 00 00 00 06 00 00 00 00 00 00 00 00 [................]
  |     [snip 15992 bytes]
  | + [TIFF directory]
  | | ExifByteOrder = II
  | | + [IFD0 directory with 12 entries, Little-endian]
  | | | 0)  Make = Canon
  | | |     - Tag 0x010f (6 bytes, string[6]):
  | | |       1075a8: 43 61 6e 6f 6e 00                               [Canon.]
  | | | 1)  Model = Canon EOS 70D
  | | |     - Tag 0x0110 (14 bytes, string[14]):
  | | |       1075ae: 43 61 6e 6f 6e 20 45 4f 53 20 37 30 44 00       [Canon EOS 70D.]
  | | | 2)  Orientation = 1
  | | |     - Tag 0x0112 (2 bytes, int16u[1]):
  | | |       107534: 01 00                                           [..]
  | | | 3)  XResolution = 72 (72/1)
  | | |     - Tag 0x011a (8 bytes, rational64u[1]):
  | | |       1075bc: 48 00 00 00 01 00 00 00                         [H.......]
  | | | 4)  YResolution = 72 (72/1)
  | | |     - Tag 0x011b (8 bytes, rational64u[1]):
  | | |       1075c4: 48 00 00 00 01 00 00 00                         [H.......]
  | | | 5)  ResolutionUnit = 2
  | | |     - Tag 0x0128 (2 bytes, int16u[1]):
  | | |       107558: 02 00                                           [..]
  | | | 6)  ModifyDate = 2015:10:11 14:41:44
  | | |     - Tag 0x0132 (20 bytes, string[20]):
  | | |       1075cc: 32 30 31 35 3a 31 30 3a 31 31 20 31 34 3a 34 31 [2015:10:11 14:41]
  | | |       1075dc: 3a 34 34 00                                     [:44.]
  | | | 7)  Artist = 
  | | |     - Tag 0x013b (1 bytes, string[1]):
  | | |       107570: 00                                              [.]
  | | | 8)  YCbCrPositioning = 2
  | | |     - Tag 0x0213 (2 bytes, int16u[1]):
  | | |       10757c: 02 00                                           [..]
  | | | 9)  Copyright = 
  | | |     - Tag 0x8298 (1 bytes, string[1] read as undef[1]):
  | | |       107588: 00                                              [.]
  | | | 10) ExifOffset (SubDirectory) -->
  | | |     - Tag 0x8769 (4 bytes, int32u[1]):
  | | |       107594: d6 00 00 00                                     [....]
  | | | + [ExifIFD directory with 38 entries, Little-endian]
  | | | | 0)  ExposureTime = 0.01666666667 (1/60)
  | | | |     - Tag 0x829a (8 bytes, rational64u[1]):
  | | | |       1077ae: 01 00 00 00 3c 00 00 00                         [....<...]
  | | | | 1)  FNumber = 3.2 (32/10)
  | | | |     - Tag 0x829d (8 bytes, rational64u[1]):
  | | | |       1077b6: 20 00 00 00 0a 00 00 00                         [ .......]
  | | | | 2)  ExposureProgram = 2
  | | | |     - Tag 0x8822 (2 bytes, int16u[1]):
  | | | |       107602: 02 00                                           [..]
  | | | | 3)  ISO = 400
  | | | |     - Tag 0x8827 (2 bytes, int16u[1]):
  | | | |       10760e: 90 01                                           [..]
  | | | | 4)  SensitivityType = 2
  | | | |     - Tag 0x8830 (2 bytes, int16u[1]):
  | | | |       10761a: 02 00                                           [..]
  | | | | 5)  RecommendedExposureIndex = 400
  | | | |     - Tag 0x8832 (4 bytes, int32u[1]):
  | | | |       107626: 90 01 00 00                                     [....]
  | | | | 6)  ExifVersion = 0230
  | | | |     - Tag 0x9000 (4 bytes, undef[4]):
  | | | |       107632: 30 32 33 30                                     [0230]
  | | | | 7)  DateTimeOriginal = 2015:10:11 14:41:44
  | | | |     - Tag 0x9003 (20 bytes, string[20]):
  | | | |       1077be: 32 30 31 35 3a 31 30 3a 31 31 20 31 34 3a 34 31 [2015:10:11 14:41]
  | | | |       1077ce: 3a 34 34 00                                     [:44.]
  | | | | 8)  CreateDate = 2015:10:11 14:41:44
  | | | |     - Tag 0x9004 (20 bytes, string[20]):
  | | | |       1077d2: 32 30 31 35 3a 31 30 3a 31 31 20 31 34 3a 34 31 [2015:10:11 14:41]
  | | | |       1077e2: 3a 34 34 00                                     [:44.]
  | | | | 9)  ComponentsConfiguration = 1 2 3 0
  | | | |     - Tag 0x9101 (4 bytes, undef[4] read as int8u[4]):
  | | | |       107656: 01 02 03 00                                     [....]
  | | | | 10) ShutterSpeedValue = 6 (393216/65536)
  | | | |     - Tag 0x9201 (8 bytes, rational64s[1]):
  | | | |       1077e6: 00 00 06 00 00 00 01 00                         [........]
  | | | | 11) ApertureValue = 3.375 (221184/65536)
  | | | |     - Tag 0x9202 (8 bytes, rational64u[1]):
  | | | |       1077ee: 00 60 03 00 00 00 01 00                         [.`......]
  | | | | 12) ExposureCompensation = 0 (0/1)
  | | | |     - Tag 0x9204 (8 bytes, rational64s[1]):
  | | | |       1077f6: 00 00 00 00 01 00 00 00                         [........]
  | | | | 13) MeteringMode = 5
  | | | |     - Tag 0x9207 (2 bytes, int16u[1]):
  | | | |       107686: 05 00                                           [..]
  | | | | 14) Flash = 16
  | | | |     - Tag 0x9209 (2 bytes, int16u[1]):
  | | | |       107692: 10 00                                           [..]
  | | | | 15) FocalLength = 50 (50/1)
  | | | |     - Tag 0x920a (8 bytes, rational64u[1]):
  | | | |       1077fe: 32 00 00 00 01 00 00 00                         [2.......]
  | | | | 16) MakerNoteCanon (SubDirectory) -->
  | | | |     - Tag 0x927c (8200 bytes, undef[8200]):
  | | | |       107806: 29 00 01 00 03 00 31 00 00 00 ee 04 00 00 02 00 [).....1.........]
  | | | |       107816: 03 00 04 00 00 00 50 05 00 00 03 00 03 00 04 00 [......P.........]
  | | | |       107826: 00 00 58 05 00 00 04 00 03 00 22 00 00 00 60 05 [..X......."...`.]
  | | | |       107836: 00 00 06 00 02 00 0e 00 00 00 a4 05 00 00 07 00 [................]
  | | | |       107846: 02 00 18 00 00 00 b2 05 00 00 09 00 02 00 20 00 [.............. .]
  | | | |       107856: 00 00 ca 05 00 00 0d 00 07 00 00 06 00 00 ea 05 [................]
  | | | |       107866: 00 00 10 00 04 00 01 00 00 00 25 03 00 80 13 00 [..........%.....]
  | | | |       107876: 03 00 04 00 00 00 ea 0b 00 00 19 00 03 00 01 00 [................]
  | | | |       107886: 00 00 01 00 00 00 26 00 03 00 8b 00 00 00 f2 0b [......&.........]
  | | | |       107896: 00 00 35 00 04 00 04 00 00 00 08 0d 00 00 93 00 [..5.............]
  | | | |       1078a6: 03 00 20 00 00 00 18 0d 00 00 95 00 02 00 4a 00 [.. ...........J.]
  | | | |       1078b6: 00 00 58 0d 00 00 96 00 02 00 10 00 00 00 a2 0d [..X.............]
  | | | |       1078c6: 00 00 97 00 07 00 00 04 00 00 b2 0d 00 00 98 00 [................]
  | | | |       1078d6: 03 00 04 00 00 00 b2 11 00 00 99 00 04 00 74 00 [..............t.]
  | | | |       1078e6: 00 00 ba 11 00 00 9a 00 04 00 05 00 00 00 8a 13 [................]
  | | | |       1078f6: 00 00 a0 00 03 00 0e 00 00 00 9e 13 00 00 aa 00 [................]
  | | | |       107906: 03 00 06 00 00 00 ba 13 00 00 b4 00 03 00 01 00 [................]
  | | | |       107916: 00 00 01 00 00 00 d0 00 04 00 01 00 00 00 00 00 [................]
  | | | |       107926: 00 00 e0 00 03 00 11 00 00 00 c6 13 00 00 01 40 [...............@]
  | | | |       107936: 03 00 21 05 00 00 e8 13 00 00 08 40 03 00 03 00 [..!........@....]
  | | | |       107946: 00 00 2a 1e 00 00 09 40 03 00 03 00 00 00 30 1e [..*....@......0.]
  | | | |       107956: 00 00 10 40 02 00 20 00 00 00 36 1e 00 00 11 40 [...@.. ...6....@]
  | | | |       107966: 07 00 fc 00 00 00 56 1e 00 00 12 40 02 00 20 00 [......V....@.. .]
  | | | |       107976: 00 00 52 1f 00 00 13 40 04 00 0b 00 00 00 72 1f [..R....@......r.]
  | | | |       107986: 00 00 15 40 07 00 c8 01 00 00 9e 1f 00 00 16 40 [...@...........@]
  | | | |       107996: 04 00 07 00 00 00 66 21 00 00 18 40 04 00 07 00 [......f!...@....]
  | | | |       1079a6: 00 00 82 21 00 00 19 40 07 00 1e 00 00 00 9e 21 [...!...@.......!]
  | | | |       1079b6: 00 00 20 40 04 00 07 00 00 00 bc 21 00 00 21 40 [.. @.......!..!@]
  | | | |       1079c6: 04 00 05 00 00 00 d8 21 00 00 24 40 04 00 35 00 [.......!..$@..5.]
  | | | |       1079d6: 00 00 ec 21 00 00 25 40 04 00 09 00 00 00 c0 22 [...!..%@......."]
  | | | |       1079e6: 00 00 27 40 04 00 06 00 00 00 e4 22 00 00 00 00 [..'@......."....]
  | | | |       1079f6: 00 00 62 00 02 00 00 00 03 00 00 00 00 00 00 00 [..b.............]
  | | | |       107a06: 02 00 00 00 01 00 00 00 3b 00 00 00 00 00 00 00 [........;.......]
  | | | |       107a16: ff 7f 0f 00 03 00 02 00 00 00 00 00 ff ff 3c 10 [..............<.]
  | | | |       107a26: 32 00 32 00 01 00 38 00 20 01 00 00 00 00 00 00 [2.2...8. .......]
  | | | |       107a36: 00 00 ff ff ff ff ff ff 00 00 00 00 00 00 00 00 [................]
  | | | |       107a46: ff ff ff ff 00 00 00 00 ff 7f ff ff ff ff ff ff [................]
  | | | |       107a56: 00 00 ff ff 00 00 32 00 16 0b 24 5a 00 00 00 00 [......2...$Z....]
  | | | |       107a66: 00 00 00 00 44 00 00 00 e0 00 48 00 6c 00 c0 00 [....D.....H.l...]
  | | | |       107a76: 00 00 00 00 03 00 00 00 08 00 08 00 95 00 00 00 [................]
  | | | |       107a86: 00 00 00 00 00 00 00 00 01 00 00 00 00 00 68 00 [..............h.]
  | | | |       107a96: c0 00 64 00 00 00 00 00 f8 00 ff ff ff ff ff ff [..d.............]
  | | | |       107aa6: ff ff 00 00 00 00 00 00 43 61 6e 6f 6e 20 45 4f [........Canon EO]
  | | | |       107ab6: 53 20 37 30 44 00 46 69 72 6d 77 61 72 65 20 56 [S 70D.Firmware V]
  | | | |       107ac6: 65 72 73 69 6f 6e 20 31 2e 31 2e 31 00 00 00 00 [ersion 1.1.1....]
  | | | |       107ad6: 00 00 00 00 00 00 00 00 00 00 00 00 00 00 00 00 [................]
  | | | |       107ae6: 00 00 00 00 00 00 00 00 00 00 00 00 00 00 aa aa [................]
  | | | |       107af6: 68 22 68 23 58 00 01 2d 01 3e 00 03 00 00 00 00 [h"h#X..-.>......]
  | | | |       107b06: 00 00 01 00 00 06 00 00 00 95 92 00 a6 00 af 00 [................]
  | | | |       107b16: a9 00 32 00 00 20 00 00 00 00 00 02 03 00 00 00 [..2.. ..........]
  | | | |       107b26: 00 00 4a 00 32 00 73 01 bb bb fa 50 00 24 40 90 [..J.2.s....P.$@.]
  | | | |       107b36: 00 00 00 00 00 00 00 00 00 00 00 00 00 00 00 00 [................]
  | | | |       107b46: ff 88 00 00 00 00 40 ff 00 6e 00 46 00 30 00 00 [......@..n.F.0..]
  | | | |       107b56: 00 00 00 00 00 00 00 00 00 00 00 00 b4 8d b7 94 [................]
  | | | |       107b66: 6e 00 00 00 00 00 00 00 00 00 01 01 00 00 00 00 [n...............]
  | | | |       107b76: 02 01 00 00 00 00 00 00 00 00 00 00 00 00 00 00 [................]
  | | | |       107b86: 00 00 57 00 49 04 00 00 00 00 00 00 00 00 ff ff [..W.I...........]
  | | | |       107b96: ff ff 0c cc cc 16 00 00 00 03 00 00 00 00 00 00 [................]
  | | | |       107ba6: 00 00 00 00 00 00 00 00 00 00 ff 01 00 00 00 4a [...............J]
  | | | |       107bb6: 00 00 00 00 00 50 14 00 00 00 00 00 00 00 00 00 [.....P..........]
  | | | |       107bc6: 00 01 00 00 00 01 00 00 00 01 00 00 00 03 00 00 [................]
  | | | |       107bd6: 00 03 00 00 00 03 00 00 00 00 00 00 00 01 00 00 [................]
  | | | |       107be6: 00 00 00 00 00 01 00 00 00 87 00 00 00 01 00 00 [................]
  | | | |       107bf6: 00 01 00 00 00 01 00 00 00 07 00 00 00 00 00 00 [................]
  | | | |       107c06: 03 05 03 55 55 00 00 00 00 0e 00 00 00 00 00 00 [...UU...........]
  | | | |       107c16: 00 00 00 00 00 00 00 03 07 07 11 0d 00 00 00 00 [................]
  | | | |       107c26: 00 00 00 00 00 00 00 00 00 00 00 55 55 05 00 00 [...........UU...]
  | | | |       107c36: 03 00 14 04 00 00 00 00 00 00 00 00 00 00 00 00 [................]
  | | | |       107c46: 00 00 00 00 00 00 03 02 02 00 00 00 00 00 00 00 [................]
  | | | |       107c56: 00 01 16 50 10 3c 00 32 00 32 81 67 92 7f 00 ff [...P.<.2.2.g....]
  | | | |       107c66: 00 00 00 00 00 00 00 21 4e 1c 01 00 03 07 16 00 [.......!N.......]
  | | | |       107c76: 27 02 00 00 00 00 00 00 00 00 00 00 00 00 00 00 ['...............]
  | | | |       107c86: 00 00 00 00 00 00 00 00 00 00 00 00 00 02 00 00 [................]
  | | | |       107c96: 00 60 15 00 00 40 0e 00 00 9c 09 00 00 b0 05 00 [.`...@..........]
  | | | |       107ca6: 00 28 02 00 00 e0 02 00 00 d0 02 00 00 e0 01 00 [.(..............]
  | | | |       107cb6: 00 00 00 00 00 00 00 00 00 d0 02 00 00 e0 01 00 [................]
  | | | |       107cc6: 00 d0 02 00 00 e0 01 00 00 00 00 00 00 00 00 00 [................]
  | | | |       107cd6: 00 d0 02 00 00 e0 01 00 00 00 00 00 00 00 00 00 [................]
  | | | |       107ce6: 00 01 00 00 00 00 00 00 00 00 00 00 00 00 00 00 [................]
  | | | |       107cf6: 00 06 00 00 00 00 00 00 00 00 00 00 00 ff ff ff [................]
  | | | |       107d06: 7f ff ff ff 7f 00 00 00 00 00 00 00 00 00 02 00 [................]
  | | | |       107d16: 00 00 00 00 00 00 00 00 00 0a 02 00 01 00 01 00 [................]
  | | | |       107d26: 00 00 02 00 00 00 00 00 00 00 00 00 00 01 00 00 [................]
  | | | |       107d36: 00 00 00 00 00 00 00 00 00 00 00 00 00 00 00 00 [................]
  | | | |       107d46: 01 00 00 00 00 00 00 00 00 01 01 00 31 2e 31 2e [............1.1.]
  | | | |       107d56: 31 00 42 31 28 33 32 29 00 00 00 00 05 00 00 00 [1.B1(32)........]
  | | | |       107d66: 00 00 00 00 a4 cd 59 00 00 00 00 00 00 00 03 80 [......Y.........]
  | | | |       107d76: 00 00 00 00 00 00 00 00 00 00 00 00 00 00 00 00 [................]
  | | | |       107d86: 00 00 00 00 00 00 00 00 00 00 00 00 00 00 00 00 [................]
  | | | |       107d96: 00 8e 00 00 00 64 00 00 00 64 00 00 00 00 00 00 [.....d...d......]
  | | | |       107da6: 00 65 17 00 00 00 00 00 00 64 00 00 00 65 00 00 [.e.......d...e..]
  | | | |       107db6: 00 64 00 00 00 08 00 00 00 08 00 00 00 08 00 00 [.d..............]
  | | | |       107dc6: 00 08 00 00 00 01 00 00 00 00 00 00 00 00 00 00 [................]
  | | | |       107dd6: 00 00 00 00 00 00 00 00 00 00 00 00 00 00 00 00 [................]
  | | | |       107de6: 00 00 00 00 00 00 00 00 00 f4 01 00 04 00 04 74 [...............t]
  | | | |       107df6: 02 00 00 00 00 00 00 00 00 00 00 00 00 00 00 00 [................]
  | | | |       107e06: 00 00 00 00 00 00 00 00 00 00 00 00 00 00 00 00 [................]
  | | | |       107e16: 00 00 00 00 00 f4 01 00 04 00 04 74 02 00 00 00 [...........t....]
  | | | |       107e26: 00 00 00 00 00 00 00 00 00 00 00 00 00 00 00 00 [................]
  | | | |       107e36: 00 00 00 00 00 00 00 00 00 00 00 00 00 00 00 00 [................]
  | | | |       107e46: 00 f4 01 00 04 00 04 74 02 00 00 00 00 00 00 00 [.......t........]
  | | | |       107e56: 00 00 00 00 00 00 00 00 00 00 00 00 00 00 00 00 [................]
  | | | |       107e66: 00 00 00 00 00 00 00 00 00 00 00 00 00 f4 01 00 [................]
  | | | |       107e76: 04 00 04 74 02 00 00 00 00 00 00 00 00 00 00 00 [...t............]
  | | | |       107e86: 00 00 00 00 00 00 00 00 00 00 00 00 00 00 00 00 [................]
  | | | |       107e96: 00 00 00 00 00 00 00 00 00 f4 01 00 04 00 04 74 [...............t]
  | | | |       107ea6: 02 00 00 00 00 00 00 00 00 01 00 00 00 00 00 00 [................]
  | | | |       107eb6: 00 00 00 00 00 00 00 00 00 01 00 00 00 00 00 00 [................]
  | | | |       107ec6: 00 03 00 00 00 00 00 00 00 00 00 00 00 ef be ad [................]
  | | | |       107ed6: de ef be ad de 00 00 00 00 02 00 00 00 00 00 00 [................]
  | | | |       107ee6: 00 00 00 00 00 ef be ad de ef be ad de 00 00 00 [................]
  | | | |       107ef6: 00 04 00 00 00 00 00 00 00 00 00 00 00 ef be ad [................]
  | | | |       107f06: de ef be ad de 00 00 00 00 00 00 00 00 00 00 00 [................]
  | | | |       107f16: 00 00 00 00 00 ef be ad de ef be ad de 00 00 00 [................]
  | | | |       107f26: 00 00 00 00 00 00 00 00 00 00 00 00 00 ef be ad [................]
  | | | |       107f36: de ef be ad de 00 00 00 00 03 00 00 00 ef be ad [................]
  | | | |       107f46: de ef be ad de 00 00 00 00 00 00 00 00 00 00 00 [................]
  | | | |       107f56: 00 03 00 00 00 00 00 00 00 00 00 00 00 ef be ad [................]
  | | | |       107f66: de ef be ad de 00 00 00 00 03 00 00 00 00 00 00 [................]
  | | | |       107f76: 00 00 00 00 00 00 00 00 00 00 00 00 00 00 00 00 [................]
  | | | |       107f86: 00 03 00 00 00 00 00 00 00 00 00 00 00 00 00 00 [................]
  | | | |       107f96: 00 00 00 00 00 00 00 00 00 03 00 00 00 00 00 00 [................]
  | | | |       107fa6: 00 00 00 00 00 00 00 00 00 00 00 00 00 87 00 87 [................]
  | | | |       107fb6: 00 87 00 00 00 ff ff ff ff ff ff ff ff 00 00 00 [................]
  | | | |       107fc6: 00 00 00 00 00 00 00 00 00 00 00 00 00 00 00 00 [................]
  | | | |       107fd6: 00 00 00 00 00 00 00 00 00 00 00 00 00 00 04 00 [................]
  | | | |       107fe6: 04 00 04 00 04 00 00 00 00 00 00 00 00 00 00 00 [................]
  | | | |         [snip 6168 bytes]
  | | | | + [MakerNotes directory with 41 entries, Little-endian]
  | | | | | 0)  CanonCameraSettings (SubDirectory) -->
  | | | | |     - Tag 0x0001 (98 bytes, int16u[49] read as undef[98]):
  | | | | |       1079f8: 62 00 02 00 00 00 03 00 00 00 00 00 00 00 02 00 [b...............]
  | | | | |       107a08: 00 00 01 00 00 00 3b 00 00 00 00 00 00 00 ff 7f [......;.........]
  | | | | |       107a18: 0f 00 03 00 02 00 00 00 00 00 ff ff 3c 10 32 00 [............<.2.]
  | | | | |       107a28: 32 00 01 00 38 00 20 01 00 00 00 00 00 00 00 00 [2...8. .........]
  | | | | |       107a38: ff ff ff ff ff ff 00 00 00 00 00 00 00 00 ff ff [................]
  | | | | |       107a48: ff ff 00 00 00 00 ff 7f ff ff ff ff ff ff 00 00 [................]
  | | | | |       107a58: ff ff                                           [..]
  | | | | | + [BinaryData directory, 98 bytes, Little-endian]
  | | | | | | MacroMode = 2
  | | | | | | - Tag 0x0001 (2 bytes, int16s[1]):
  | | | | | |   1079fa: 02 00                                           [..]
  | | | | | | SelfTimer = 0
  | | | | | | - Tag 0x0002 (2 bytes, int16s[1]):
  | | | | | |   1079fc: 00 00                                           [..]
  | | | | | | Quality = 3
  | | | | | | - Tag 0x0003 (2 bytes, int16s[1]):
  | | | | | |   1079fe: 03 00                                           [..]
  | | | | | | CanonFlashMode = 0
  | | | | | | - Tag 0x0004 (2 bytes, int16s[1]):
  | | | | | |   107a00: 00 00                                           [..]
  | | | | | | ContinuousDrive = 0
  | | | | | | - Tag 0x0005 (2 bytes, int16s[1]):
  | | | | | |   107a02: 00 00                                           [..]
  | | | | | | FocusMode = 2
  | | | | | | - Tag 0x0007 (2 bytes, int16s[1]):
  | | | | | |   107a06: 02 00                                           [..]
  | | | | | | RecordMode = 1
  | | | | | | - Tag 0x0009 (2 bytes, int16s[1]):
  | | | | | |   107a0a: 01 00                                           [..]
  | | | | | | CanonImageSize = 0
  | | | | | | - Tag 0x000a (2 bytes, int16s[1]):
  | | | | | |   107a0c: 00 00                                           [..]
  | | | | | | EasyMode = 59
  | | | | | | - Tag 0x000b (2 bytes, int16s[1]):
  | | | | | |   107a0e: 3b 00                                           [;.]
  | | | | | | DigitalZoom = 0
  | | | | | | - Tag 0x000c (2 bytes, int16s[1]):
  | | | | | |   107a10: 00 00                                           [..]
  | | | | | | Contrast = 0
  | | | | | | - Tag 0x000d (2 bytes, int16s[1]):
  | | | | | |   107a12: 00 00                                           [..]
  | | | | | | Saturation = 0
  | | | | | | - Tag 0x000e (2 bytes, int16s[1]):
  | | | | | |   107a14: 00 00                                           [..]
  | | | | | | Sharpness = 32767
  | | | | | | - Tag 0x000f (2 bytes, int16s[1]):
  | | | | | |   107a16: ff 7f                                           [..]
  | | | | | | CameraISO = 15
  | | | | | | - Tag 0x0010 (2 bytes, int16s[1]):
  | | | | | |   107a18: 0f 00                                           [..]
  | | | | | | MeteringMode = 3
  | | | | | | - Tag 0x0011 (2 bytes, int16s[1]):
  | | | | | |   107a1a: 03 00                                           [..]
  | | | | | | FocusRange = 2
  | | | | | | - Tag 0x0012 (2 bytes, int16s[1]):
  | | | | | |   107a1c: 02 00                                           [..]
  | | | | | | AFPoint = 0
  | | | | | | - Tag 0x0013 (2 bytes, int16s[1]):
  | | | | | |   107a1e: 00 00                                           [..]
  | | | | | | CanonExposureMode = 0
  | | | | | | - Tag 0x0014 (2 bytes, int16s[1]):
  | | | | | |   107a20: 00 00                                           [..]
  | | | | | | LensType = 4156
  | | | | | | - Tag 0x0016 (2 bytes, int16u[1]):
  | | | | | |   107a24: 3c 10                                           [<.]
  | | | | | | MaxFocalLength = 50
  | | | | | | - Tag 0x0017 (2 bytes, int16u[1]):
  | | | | | |   107a26: 32 00                                           [2.]
  | | | | | | MinFocalLength = 50
  | | | | | | - Tag 0x0018 (2 bytes, int16u[1]):
  | | | | | |   107a28: 32 00                                           [2.]
  | | | | | | FocalUnits = 1
  | | | | | | - Tag 0x0019 (2 bytes, int16s[1]):
  | | | | | |   107a2a: 01 00                                           [..]
  | | | | | | MaxAperture = 56
  | | | | | | - Tag 0x001a (2 bytes, int16s[1]):
  | | | | | |   107a2c: 38 00                                           [8.]
  | | | | | | MinAperture = 288
  | | | | | | - Tag 0x001b (2 bytes, int16s[1]):
  | | | | | |   107a2e: 20 01                                           [ .]
  | | | | | | FlashModel = 0
  | | | | | | - Tag 0x001c, mask 0x7f (2 bytes, int16s[1]):
  | | | | | |   107a30: 00 00                                           [..]
  | | | | | | FlashBits = 0
  | | | | | | - Tag 0x001d (2 bytes, int16s[1]):
  | | | | | |   107a32: 00 00                                           [..]
  | | | | | | FocusContinuous = -1
  | | | | | | - Tag 0x0020 (2 bytes, int16s[1]):
  | | | | | |   107a38: ff ff                                           [..]
  | | | | | | AESetting = -1
  | | | | | | - Tag 0x0021 (2 bytes, int16s[1]):
  | | | | | |   107a3a: ff ff                                           [..]
  | | | | | | ImageStabilization = -1
  | | | | | | - Tag 0x0022 (2 bytes, int16s[1]):
  | | | | | |   107a3c: ff ff                                           [..]
  | | | | | | DisplayAperture = 0
  | | | | | | - Tag 0x0023 (2 bytes, int16s[1]):
  | | | | | |   107a3e: 00 00                                           [..]
  | | | | | | ZoomSourceWidth = 0
  | | | | | | - Tag 0x0024 (2 bytes, int16s[1]):
  | | | | | |   107a40: 00 00                                           [..]
  | | | | | | ZoomTargetWidth = 0
  | | | | | | - Tag 0x0025 (2 bytes, int16s[1]):
  | | | | | |   107a42: 00 00                                           [..]
  | | | | | | SpotMeteringMode = -1
  | | | | | | - Tag 0x0027 (2 bytes, int16s[1]):
  | | | | | |   107a46: ff ff                                           [..]
  | | | | | | PhotoEffect = -1
  | | | | | | - Tag 0x0028 (2 bytes, int16s[1]):
  | | | | | |   107a48: ff ff                                           [..]
  | | | | | | ManualFlashOutput = 0
  | | | | | | - Tag 0x0029 (2 bytes, int16s[1]):
  | | | | | |   107a4a: 00 00                                           [..]
  | | | | | | ColorTone = 0
  | | | | | | - Tag 0x002a (2 bytes, int16s[1]):
  | | | | | |   107a4c: 00 00                                           [..]
  | | | | | | SRAWQuality = -1
  | | | | | | - Tag 0x002e (2 bytes, int16s[1]):
  | | | | | |   107a54: ff ff                                           [..]
  | | | | | 1)  CanonFocalLength (SubDirectory) -->
  | | | | |     - Tag 0x0002 (8 bytes, int16u[4] read as undef[8]):
  | | | | |       107a5a: 00 00 32 00 16 0b 24 5a                         [..2...$Z]
  | | | | | + [BinaryData directory, 8 bytes, Little-endian]
  | | | | | | FocalType = 0
  | | | | | | - Tag 0x0000 (2 bytes, int16u[1]):
  | | | | | |   107a5a: 00 00                                           [..]
  | | | | | | FocalLength = 50
  | | | | | | - Tag 0x0001 (2 bytes, int16u[1]):
  | | | | | |   107a5c: 32 00                                           [2.]
  | | | | | | FocalPlaneXUnknown = 2838
  | | | | | | - Tag 0x0002 (2 bytes, int16u[1]):
  | | | | | |   107a5e: 16 0b                                           [..]
  | | | | | | FocalPlaneYUnknown = 23076
  | | | | | | - Tag 0x0003 (2 bytes, int16u[1]):
  | | | | | |   107a60: 24 5a                                           [$Z]
  | | | | | 2)  CanonFlashInfo = 0 0 0 0
  | | | | |     - Tag 0x0003 (8 bytes, int16u[4]):
  | | | | |       107a62: 00 00 00 00 00 00 00 00                         [........]
  | | | | | 3)  CanonShotInfo (SubDirectory) -->
  | | | | |     - Tag 0x0004 (68 bytes, int16u[34] read as undef[68]):
  | | | | |       107a6a: 44 00 00 00 e0 00 48 00 6c 00 c0 00 00 00 00 00 [D.....H.l.......]
  | | | | |       107a7a: 03 00 00 00 08 00 08 00 95 00 00 00 00 00 00 00 [................]
  | | | | |       107a8a: 00 00 00 00 01 00 00 00 00 00 68 00 c0 00 64 00 [..........h...d.]
  | | | | |       107a9a: 00 00 00 00 f8 00 ff ff ff ff ff ff ff ff 00 00 [................]
  | | | | |       107aaa: 00 00 00 00                                     [....]
  | | | | | + [BinaryData directory, 68 bytes, Little-endian]
  | | | | | | AutoISO = 0
  | | | | | | - Tag 0x0001 (2 bytes, int16s[1]):
  | | | | | |   107a6c: 00 00                                           [..]
  | | | | | | BaseISO = 224
  | | | | | | - Tag 0x0002 (2 bytes, int16s[1]):
  | | | | | |   107a6e: e0 00                                           [..]
  | | | | | | MeasuredEV = 72
  | | | | | | - Tag 0x0003 (2 bytes, int16s[1]):
  | | | | | |   107a70: 48 00                                           [H.]
  | | | | | | TargetAperture = 108
  | | | | | | - Tag 0x0004 (2 bytes, int16s[1]):
  | | | | | |   107a72: 6c 00                                           [l.]
  | | | | | | TargetExposureTime = 192
  | | | | | | - Tag 0x0005 (2 bytes, int16s[1]):
  | | | | | |   107a74: c0 00                                           [..]
  | | | | | | ExposureCompensation = 0
  | | | | | | - Tag 0x0006 (2 bytes, int16s[1]):
  | | | | | |   107a76: 00 00                                           [..]
  | | | | | | WhiteBalance = 0
  | | | | | | - Tag 0x0007 (2 bytes, int16s[1]):
  | | | | | |   107a78: 00 00                                           [..]
  | | | | | | SlowShutter = 3
  | | | | | | - Tag 0x0008 (2 bytes, int16s[1]):
  | | | | | |   107a7a: 03 00                                           [..]
  | | | | | | SequenceNumber = 0
  | | | | | | - Tag 0x0009 (2 bytes, int16s[1]):
  | | | | | |   107a7c: 00 00                                           [..]
  | | | | | | OpticalZoomCode = 8
  | | | | | | - Tag 0x000a (2 bytes, int16s[1]):
  | | | | | |   107a7e: 08 00                                           [..]
  | | | | | | CameraTemperature = 149
  | | | | | | - Tag 0x000c (2 bytes, int16s[1]):
  | | | | | |   107a82: 95 00                                           [..]
  | | | | | | FlashGuideNumber = 0
  | | | | | | - Tag 0x000d (2 bytes, int16s[1]):
  | | | | | |   107a84: 00 00                                           [..]
  | | | | | | AFPointsInFocus = 0
  | | | | | | - Tag 0x000e (2 bytes, int16s[1]):
  | | | | | |   107a86: 00 00                                           [..]
  | | | | | | FlashExposureComp = 0
  | | | | | | - Tag 0x000f (2 bytes, int16s[1]):
  | | | | | |   107a88: 00 00                                           [..]
  | | | | | | AutoExposureBracketing = 0
  | | | | | | - Tag 0x0010 (2 bytes, int16s[1]):
  | | | | | |   107a8a: 00 00                                           [..]
  | | | | | | AEBBracketValue = 0
  | | | | | | - Tag 0x0011 (2 bytes, int16s[1]):
  | | | | | |   107a8c: 00 00                                           [..]
  | | | | | | ControlMode = 1
  | | | | | | - Tag 0x0012 (2 bytes, int16s[1]):
  | | | | | |   107a8e: 01 00                                           [..]
  | | | | | | FocusDistanceUpper = 0
  | | | | | | - Tag 0x0013 (2 bytes, int16u[1]):
  | | | | | |   107a90: 00 00                                           [..]
  | | | | | | FNumber = 104
  | | | | | | - Tag 0x0015 (2 bytes, int16s[1]):
  | | | | | |   107a94: 68 00                                           [h.]
  | | | | | | ExposureTime = 192
  | | | | | | - Tag 0x0016 (2 bytes, int16s[1]):
  | | | | | |   107a96: c0 00                                           [..]
  | | | | | | MeasuredEV2 = 100
  | | | | | | - Tag 0x0017 (2 bytes, int16s[1]):
  | | | | | |   107a98: 64 00                                           [d.]
  | | | | | | BulbDuration = 0
  | | | | | | - Tag 0x0018 (2 bytes, int16s[1]):
  | | | | | |   107a9a: 00 00                                           [..]
  | | | | | | CameraType = 248
  | | | | | | - Tag 0x001a (2 bytes, int16s[1]):
  | | | | | |   107a9e: f8 00                                           [..]
  | | | | | | AutoRotate = -1
  | | | | | | - Tag 0x001b (2 bytes, int16s[1]):
  | | | | | |   107aa0: ff ff                                           [..]
  | | | | | | NDFilter = -1
  | | | | | | - Tag 0x001c (2 bytes, int16s[1]):
  | | | | | |   107aa2: ff ff                                           [..]
  | | | | | | SelfTimer2 = -1
  | | | | | | - Tag 0x001d (2 bytes, int16s[1]):
  | | | | | |   107aa4: ff ff                                           [..]
  | | | | | | FlashOutput = 0
  | | | | | | - Tag 0x0021 (2 bytes, int16s[1]):
  | | | | | |   107aac: 00 00                                           [..]
  | | | | | 4)  CanonImageType = Canon EOS 70D
  | | | | |     - Tag 0x0006 (14 bytes, string[14]):
  | | | | |       107aae: 43 61 6e 6f 6e 20 45 4f 53 20 37 30 44 00       [Canon EOS 70D.]
  | | | | | 5)  CanonFirmwareVersion = Firmware Version 1.1.1
  | | | | |     - Tag 0x0007 (24 bytes, string[24]):
  | | | | |       107abc: 46 69 72 6d 77 61 72 65 20 56 65 72 73 69 6f 6e [Firmware Version]
  | | | | |       107acc: 20 31 2e 31 2e 31 00 00                         [ 1.1.1..]
  | | | | | 6)  OwnerName = 
  | | | | |     - Tag 0x0009 (32 bytes, string[32]):
  | | | | |       107ad4: 00 00 00 00 00 00 00 00 00 00 00 00 00 00 00 00 [................]
  | | | | |       107ae4: 00 00 00 00 00 00 00 00 00 00 00 00 00 00 00 00 [................]
  | | | | | 7)  CanonCameraInfo70D (SubDirectory) -->
  | | | | |     - Tag 0x000d (1536 bytes, undef[1536]):
  | | | | |       107af4: aa aa 68 22 68 23 58 00 01 2d 01 3e 00 03 00 00 [..h"h#X..-.>....]
  | | | | |       107b04: 00 00 00 00 01 00 00 06 00 00 00 95 92 00 a6 00 [................]
  | | | | |       107b14: af 00 a9 00 32 00 00 20 00 00 00 00 00 02 03 00 [....2.. ........]
  | | | | |       107b24: 00 00 00 00 4a 00 32 00 73 01 bb bb fa 50 00 24 [....J.2.s....P.$]
  | | | | |       107b34: 40 90 00 00 00 00 00 00 00 00 00 00 00 00 00 00 [@...............]
  | | | | |       107b44: 00 00 ff 88 00 00 00 00 40 ff 00 6e 00 46 00 30 [........@..n.F.0]
  | | | | |       107b54: 00 00 00 00 00 00 00 00 00 00 00 00 00 00 b4 8d [................]
  | | | | |       107b64: b7 94 6e 00 00 00 00 00 00 00 00 00 01 01 00 00 [..n.............]
  | | | | |       107b74: 00 00 02 01 00 00 00 00 00 00 00 00 00 00 00 00 [................]
  | | | | |       107b84: 00 00 00 00 57 00 49 04 00 00 00 00 00 00 00 00 [....W.I.........]
  | | | | |       107b94: ff ff ff ff 0c cc cc 16 00 00 00 03 00 00 00 00 [................]
  | | | | |       107ba4: 00 00 00 00 00 00 00 00 00 00 00 00 ff 01 00 00 [................]
  | | | | |       107bb4: 00 4a 00 00 00 00 00 50 14 00 00 00 00 00 00 00 [.J.....P........]
  | | | | |       107bc4: 00 00 00 01 00 00 00 01 00 00 00 01 00 00 00 03 [................]
  | | | | |       107bd4: 00 00 00 03 00 00 00 03 00 00 00 00 00 00 00 01 [................]
  | | | | |       107be4: 00 00 00 00 00 00 00 01 00 00 00 87 00 00 00 01 [................]
  | | | | |       107bf4: 00 00 00 01 00 00 00 01 00 00 00 07 00 00 00 00 [................]
  | | | | |       107c04: 00 00 03 05 03 55 55 00 00 00 00 0e 00 00 00 00 [.....UU.........]
  | | | | |       107c14: 00 00 00 00 00 00 00 00 00 03 07 07 11 0d 00 00 [................]
  | | | | |       107c24: 00 00 00 00 00 00 00 00 00 00 00 00 00 55 55 05 [.............UU.]
  | | | | |       107c34: 00 00 03 00 14 04 00 00 00 00 00 00 00 00 00 00 [................]
  | | | | |       107c44: 00 00 00 00 00 00 00 00 03 02 02 00 00 00 00 00 [................]
  | | | | |       107c54: 00 00 00 01 16 50 10 3c 00 32 00 32 81 67 92 7f [.....P.<.2.2.g..]
  | | | | |       107c64: 00 ff 00 00 00 00 00 00 00 21 4e 1c 01 00 03 07 [.........!N.....]
  | | | | |       107c74: 16 00 27 02 00 00 00 00 00 00 00 00 00 00 00 00 [..'.............]
  | | | | |       107c84: 00 00 00 00 00 00 00 00 00 00 00 00 00 00 00 02 [................]
  | | | | |       107c94: 00 00 00 60 15 00 00 40 0e 00 00 9c 09 00 00 b0 [...`...@........]
  | | | | |       107ca4: 05 00 00 28 02 00 00 e0 02 00 00 d0 02 00 00 e0 [...(............]
  | | | | |       107cb4: 01 00 00 00 00 00 00 00 00 00 00 d0 02 00 00 e0 [................]
  | | | | |       107cc4: 01 00 00 d0 02 00 00 e0 01 00 00 00 00 00 00 00 [................]
  | | | | |       107cd4: 00 00 00 d0 02 00 00 e0 01 00 00 00 00 00 00 00 [................]
  | | | | |       107ce4: 00 00 00 01 00 00 00 00 00 00 00 00 00 00 00 00 [................]
  | | | | |       107cf4: 00 00 00 06 00 00 00 00 00 00 00 00 00 00 00 ff [................]
  | | | | |       107d04: ff ff 7f ff ff ff 7f 00 00 00 00 00 00 00 00 00 [................]
  | | | | |       107d14: 02 00 00 00 00 00 00 00 00 00 00 0a 02 00 01 00 [................]
  | | | | |       107d24: 01 00 00 00 02 00 00 00 00 00 00 00 00 00 00 01 [................]
  | | | | |       107d34: 00 00 00 00 00 00 00 00 00 00 00 00 00 00 00 00 [................]
  | | | | |       107d44: 00 00 01 00 00 00 00 00 00 00 00 01 01 00 31 2e [..............1.]
  | | | | |       107d54: 31 2e 31 00 42 31 28 33 32 29 00 00 00 00 05 00 [1.1.B1(32)......]
  | | | | |       107d64: 00 00 00 00 00 00 a4 cd 59 00 00 00 00 00 00 00 [........Y.......]
  | | | | |       107d74: 03 80 00 00 00 00 00 00 00 00 00 00 00 00 00 00 [................]
  | | | | |       107d84: 00 00 00 00 00 00 00 00 00 00 00 00 00 00 00 00 [................]
  | | | | |       107d94: 00 00 00 8e 00 00 00 64 00 00 00 64 00 00 00 00 [.......d...d....]
  | | | | |       107da4: 00 00 00 65 17 00 00 00 00 00 00 64 00 00 00 65 [...e.......d...e]
  | | | | |       107db4: 00 00 00 64 00 00 00 08 00 00 00 08 00 00 00 08 [...d............]
  | | | | |       107dc4: 00 00 00 08 00 00 00 01 00 00 00 00 00 00 00 00 [................]
  | | | | |       107dd4: 00 00 00 00 00 00 00 00 00 00 00 00 00 00 00 00 [................]
  | | | | |       107de4: 00 00 00 00 00 00 00 00 00 00 00 f4 01 00 04 00 [................]
  | | | | |       107df4: 04 74 02 00 00 00 00 00 00 00 00 00 00 00 00 00 [.t..............]
  | | | | |       107e04: 00 00 00 00 00 00 00 00 00 00 00 00 00 00 00 00 [................]
  | | | | |       107e14: 00 00 00 00 00 00 00 f4 01 00 04 00 04 74 02 00 [.............t..]
  | | | | |       107e24: 00 00 00 00 00 00 00 00 00 00 00 00 00 00 00 00 [................]
  | | | | |       107e34: 00 00 00 00 00 00 00 00 00 00 00 00 00 00 00 00 [................]
  | | | | |       107e44: 00 00 00 f4 01 00 04 00 04 74 02 00 00 00 00 00 [.........t......]
  | | | | |       107e54: 00 00 00 00 00 00 00 00 00 00 00 00 00 00 00 00 [................]
  | | | | |       107e64: 00 00 00 00 00 00 00 00 00 00 00 00 00 00 00 f4 [................]
  | | | | |       107e74: 01 00 04 00 04 74 02 00 00 00 00 00 00 00 00 00 [.....t..........]
  | | | | |       107e84: 00 00 00 00 00 00 00 00 00 00 00 00 00 00 00 00 [................]
  | | | | |       107e94: 00 00 00 00 00 00 00 00 00 00 00 f4 01 00 04 00 [................]
  | | | | |       107ea4: 04 74 02 00 00 00 00 00 00 00 00 01 00 00 00 00 [.t..............]
  | | | | |       107eb4: 00 00 00 00 00 00 00 00 00 00 00 01 00 00 00 00 [................]
  | | | | |       107ec4: 00 00 00 03 00 00 00 00 00 00 00 00 00 00 00 ef [................]
  | | | | |       107ed4: be ad de ef be ad de 00 00 00 00 02 00 00 00 00 [................]
  | | | | |       107ee4: 00 00 00 00 00 00 00 ef be ad de ef be ad de 00 [................]
  | | | | |       107ef4: 00 00 00 04 00 00 00 00 00 00 00 00 00 00 00 ef [................]
  | | | | |       107f04: be ad de ef be ad de 00 00 00 00 00 00 00 00 00 [................]
  | | | | |       107f14: 00 00 00 00 00 00 00 ef be ad de ef be ad de 00 [................]
  | | | | |       107f24: 00 00 00 00 00 00 00 00 00 00 00 00 00 00 00 ef [................]
  | | | | |       107f34: be ad de ef be ad de 00 00 00 00 03 00 00 00 ef [................]
  | | | | |       107f44: be ad de ef be ad de 00 00 00 00 00 00 00 00 00 [................]
  | | | | |       107f54: 00 00 00 03 00 00 00 00 00 00 00 00 00 00 00 ef [................]
  | | | | |       107f64: be ad de ef be ad de 00 00 00 00 03 00 00 00 00 [................]
  | | | | |       107f74: 00 00 00 00 00 00 00 00 00 00 00 00 00 00 00 00 [................]
  | | | | |       107f84: 00 00 00 03 00 00 00 00 00 00 00 00 00 00 00 00 [................]
  | | | | |       107f94: 00 00 00 00 00 00 00 00 00 00 00 03 00 00 00 00 [................]
  | | | | |       107fa4: 00 00 00 00 00 00 00 00 00 00 00 00 00 00 00 87 [................]
  | | | | |       107fb4: 00 87 00 87 00 00 00 ff ff ff ff ff ff ff ff 00 [................]
  | | | | |       107fc4: 00 00 00 00 00 00 00 00 00 00 00 00 00 00 00 00 [................]
  | | | | |       107fd4: 00 00 00 00 00 00 00 00 00 00 00 00 00 00 00 00 [................]
  | | | | |       107fe4: 04 00 04 00 04 00 04 00 00 00 00 00 00 00 00 00 [................]
  | | | | |       107ff4: 00 00 00 00 00 00 00 00 00 00 00 00 00 00 00 00 [................]
  | | | | |       108004: 00 00 00 00 00 00 00 00 04 00 04 00 04 00 04 00 [................]
  | | | | |       108014: 00 00 00 00 00 00 00 00 00 00 00 00 00 00 00 00 [................]
  | | | | |       108024: 00 00 00 00 00 00 00 00 00 00 00 00 00 00 00 00 [................]
  | | | | |       108034: 04 00 04 00 04 00 04 00 00 00 00 00 00 00 00 00 [................]
  | | | | |       108044: 00 00 00 00 00 00 00 00 00 00 00 00 00 00 00 00 [................]
  | | | | |       108054: 00 00 00 00 00 00 00 00 04 00 04 00 04 00 04 00 [................]
  | | | | |       108064: 00 00 00 00 00 00 00 00 00 00 00 00 00 00 00 00 [................]
  | | | | |       108074: 00 00 00 00 00 00 00 00 00 00 00 00 00 00 00 00 [................]
  | | | | |       108084: 04 00 04 00 04 00 04 00 00 00 00 00 00 00 00 28 [...............(]
  | | | | |       108094: 75 1a 56 02 00 00 00 04 00 00 00 00 00 00 00 04 [u.V.............]
  | | | | |       1080a4: 00 00 00 00 00 00 00 04 00 00 00 00 00 00 00 00 [................]
  | | | | |       1080b4: 00 00 10 00 00 00 00 00 00 00 00 00 00 00 00 00 [................]
  | | | | |       1080c4: 37 00 00 d8 3a 01 00 00 00 00 00 00 00 00 00 00 [7...:...........]
  | | | | |       1080d4: 00 00 00 03 00 00 00 53 00 00 00 58 00 03 80 00 [.......S...X....]
  | | | | |       1080e4: 00 00 00 03 00 00 00 4d 00 00 00 4e 00 00 00 00 [.......M...N....]
  | | | | | + [BinaryData directory, 1536 bytes, Little-endian]
  | | | | | | FNumber = 34
  | | | | | | - Tag 0x0003 (1 bytes, int8u[1]):
  | | | | | |   107af7: 22                                              ["]
  | | | | | | ExposureTime = 104
  | | | | | | - Tag 0x0004 (1 bytes, int8u[1]):
  | | | | | |   107af8: 68                                              [h]
  | | | | | | ISO = 88
  | | | | | | - Tag 0x0006 (1 bytes, int8u[1]):
  | | | | | |   107afa: 58                                              [X]
  | | | | | | CameraTemperature = 149
  | | | | | | - Tag 0x001b (1 bytes, int8u[1]):
  | | | | | |   107b0f: 95                                              [.]
  | | | | | | FocalLength = 50
  | | | | | | - Tag 0x0023 (2 bytes, int16uRev[1]):
  | | | | | |   107b17: 00 32                                           [.2]
  | | | | | | CameraOrientation = 0
  | | | | | | - Tag 0x0084 (1 bytes, int8u[1]):
  | | | | | |   107b78: 00                                              [.]
  | | | | | | FocusDistanceUpper = 87
  | | | | | | - Tag 0x0093 (2 bytes, int16uRev[1]):
  | | | | | |   107b87: 00 57                                           [.W]
  | | | | | | FocusDistanceLower = 73
  | | | | | | - Tag 0x0095 (2 bytes, int16uRev[1]):
  | | | | | |   107b89: 00 49                                           [.I]
  | | | | | | ColorTemperature = 5200
  | | | | | | - Tag 0x00c7 (2 bytes, int16u[1]):
  | | | | | |   107bbb: 50 14                                           [P.]
  | | | | | | LensType = 4156
  | | | | | | - Tag 0x0166 (2 bytes, int16uRev[1]):
  | | | | | |   107c5a: 10 3c                                           [.<]
  | | | | | | MinFocalLength = 50
  | | | | | | - Tag 0x0168 (2 bytes, int16uRev[1]):
  | | | | | |   107c5c: 00 32                                           [.2]
  | | | | | | MaxFocalLength = 50
  | | | | | | - Tag 0x016a (2 bytes, int16uRev[1]):
  | | | | | |   107c5e: 00 32                                           [.2]
  | | | | | | FirmwareVersion = 1.1.1
  | | | | | | - Tag 0x025e (6 bytes, string[6]):
  | | | | | |   107d52: 31 2e 31 2e 31 00                               [1.1.1.]
  | | | | | | FileIndex = 5989
  | | | | | | - Tag 0x02b3 (4 bytes, int32u[1]):
  | | | | | |   107da7: 65 17 00 00                                     [e...]
  | | | | | | DirectoryIndex = 101
  | | | | | | - Tag 0x02bf (4 bytes, int32u[1]):
  | | | | | |   107db3: 65 00 00 00                                     [e...]
  | | | | | | PictureStyleInfo (SubDirectory) -->
  | | | | | | - Tag 0x03cf (561 bytes, int8u[1]):
  | | | | | |   107ec3: 00 00 00 00 03 00 00 00 00 00 00 00 00 00 00 00 [................]
  | | | | | |   107ed3: ef be ad de ef be ad de 00 00 00 00 02 00 00 00 [................]
  | | | | | |   107ee3: 00 00 00 00 00 00 00 00 ef be ad de ef be ad de [................]
  | | | | | |   107ef3: 00 00 00 00 04 00 00 00 00 00 00 00 00 00 00 00 [................]
  | | | | | |   107f03: ef be ad de ef be ad de 00 00 00 00 00 00 00 00 [................]
  | | | | | |   107f13: 00 00 00 00 00 00 00 00 ef be ad de ef be ad de [................]
  | | | | | |   107f23: 00 00 00 00 00 00 00 00 00 00 00 00 00 00 00 00 [................]
  | | | | | |   107f33: ef be ad de ef be ad de 00 00 00 00 03 00 00 00 [................]
  | | | | | |   107f43: ef be ad de ef be ad de 00 00 00 00 00 00 00 00 [................]
  | | | | | |   107f53: 00 00 00 00 03 00 00 00 00 00 00 00 00 00 00 00 [................]
  | | | | | |   107f63: ef be ad de ef be ad de 00 00 00 00 03 00 00 00 [................]
  | | | | | |   107f73: 00 00 00 00 00 00 00 00 00 00 00 00 00 00 00 00 [................]
  | | | | | |   107f83: 00 00 00 00 03 00 00 00 00 00 00 00 00 00 00 00 [................]
  | | | | | |   107f93: 00 00 00 00 00 00 00 00 00 00 00 00 03 00 00 00 [................]
  | | | | | |   107fa3: 00 00 00 00 00 00 00 00 00 00 00 00 00 00 00 00 [................]
  | | | | | |   107fb3: 87 00 87 00 87 00 00 00 ff ff ff ff ff ff ff ff [................]
  | | | | | |   107fc3: 00 00 00 00 00 00 00 00 00 00 00 00 00 00 00 00 [................]
  | | | | | |   107fd3: 00 00 00 00 00 00 00 00 00 00 00 00 00 00 00 00 [................]
  | | | | | |   107fe3: 00 04 00 04 00 04 00 04 00 00 00 00 00 00 00 00 [................]
  | | | | | |   107ff3: 00 00 00 00 00 00 00 00 00 00 00 00 00 00 00 00 [................]
  | | | | | |   108003: 00 00 00 00 00 00 00 00 00 04 00 04 00 04 00 04 [................]
  | | | | | |   108013: 00 00 00 00 00 00 00 00 00 00 00 00 00 00 00 00 [................]
  | | | | | |   108023: 00 00 00 00 00 00 00 00 00 00 00 00 00 00 00 00 [................]
  | | | | | |   108033: 00 04 00 04 00 04 00 04 00 00 00 00 00 00 00 00 [................]
  | | | | | |   108043: 00 00 00 00 00 00 00 00 00 00 00 00 00 00 00 00 [................]
  | | | | | |   108053: 00 00 00 00 00 00 00 00 00 04 00 04 00 04 00 04 [................]
  | | | | | |   108063: 00 00 00 00 00 00 00 00 00 00 00 00 00 00 00 00 [................]
  | | | | | |   108073: 00 00 00 00 00 00 00 00 00 00 00 00 00 00 00 00 [................]
  | | | | | |   108083: 00 04 00 04 00 04 00 04 00 00 00 00 00 00 00 00 [................]
  | | | | | |   108093: 28 75 1a 56 02 00 00 00 04 00 00 00 00 00 00 00 [(u.V............]
  | | | | | |   1080a3: 04 00 00 00 00 00 00 00 04 00 00 00 00 00 00 00 [................]
  | | | | | |   1080b3: 00 00 00 10 00 00 00 00 00 00 00 00 00 00 00 00 [................]
  | | | | | |   1080c3: 00 37 00 00 d8 3a 01 00 00 00 00 00 00 00 00 00 [.7...:..........]
  | | | | | |   1080d3: 00 00 00 00 03 00 00 00 53 00 00 00 58 00 03 80 [........S...X...]
  | | | | | |   1080e3: 00 00 00 00 03 00 00 00 4d 00 00 00 4e 00 00 00 [........M...N...]
  | | | | | |   1080f3: 00                                              [.]
  | | | | | | + [BinaryData directory, 561 bytes, Little-endian]
  | | | | | | | ContrastStandard = 0
  | | | | | | | - Tag 0x0000 (4 bytes, int32s[1]):
  | | | | | | |   107ec3: 00 00 00 00                                     [....]
  | | | | | | | SharpnessStandard = 3
  | | | | | | | - Tag 0x0004 (4 bytes, int32s[1]):
  | | | | | | |   107ec7: 03 00 00 00                                     [....]
  | | | | | | | SaturationStandard = 0
  | | | | | | | - Tag 0x0008 (4 bytes, int32s[1]):
  | | | | | | |   107ecb: 00 00 00 00                                     [....]
  | | | | | | | ColorToneStandard = 0
  | | | | | | | - Tag 0x000c (4 bytes, int32s[1]):
  | | | | | | |   107ecf: 00 00 00 00                                     [....]
  | | | | | | | FilterEffectStandard = -559038737
  | | | | | | | - Tag 0x0010 (4 bytes, int32s[1]):
  | | | | | | |   107ed3: ef be ad de                                     [....]
  | | | | | | | ToningEffectStandard = -559038737
  | | | | | | | - Tag 0x0014 (4 bytes, int32s[1]):
  | | | | | | |   107ed7: ef be ad de                                     [....]
  | | | | | | | ContrastPortrait = 0
  | | | | | | | - Tag 0x0018 (4 bytes, int32s[1]):
  | | | | | | |   107edb: 00 00 00 00                                     [....]
  | | | | | | | SharpnessPortrait = 2
  | | | | | | | - Tag 0x001c (4 bytes, int32s[1]):
  | | | | | | |   107edf: 02 00 00 00                                     [....]
  | | | | | | | SaturationPortrait = 0
  | | | | | | | - Tag 0x0020 (4 bytes, int32s[1]):
  | | | | | | |   107ee3: 00 00 00 00                                     [....]
  | | | | | | | ColorTonePortrait = 0
  | | | | | | | - Tag 0x0024 (4 bytes, int32s[1]):
  | | | | | | |   107ee7: 00 00 00 00                                     [....]
  | | | | | | | FilterEffectPortrait = -559038737
  | | | | | | | - Tag 0x0028 (4 bytes, int32s[1]):
  | | | | | | |   107eeb: ef be ad de                                     [....]
  | | | | | | | ToningEffectPortrait = -559038737
  | | | | | | | - Tag 0x002c (4 bytes, int32s[1]):
  | | | | | | |   107eef: ef be ad de                                     [....]
  | | | | | | | ContrastLandscape = 0
  | | | | | | | - Tag 0x0030 (4 bytes, int32s[1]):
  | | | | | | |   107ef3: 00 00 00 00                                     [....]
  | | | | | | | SharpnessLandscape = 4
  | | | | | | | - Tag 0x0034 (4 bytes, int32s[1]):
  | | | | | | |   107ef7: 04 00 00 00                                     [....]
  | | | | | | | SaturationLandscape = 0
  | | | | | | | - Tag 0x0038 (4 bytes, int32s[1]):
  | | | | | | |   107efb: 00 00 00 00                                     [....]
  | | | | | | | ColorToneLandscape = 0
  | | | | | | | - Tag 0x003c (4 bytes, int32s[1]):
  | | | | | | |   107eff: 00 00 00 00                                     [....]
  | | | | | | | FilterEffectLandscape = -559038737
  | | | | | | | - Tag 0x0040 (4 bytes, int32s[1]):
  | | | | | | |   107f03: ef be ad de                                     [....]
  | | | | | | | ToningEffectLandscape = -559038737
  | | | | | | | - Tag 0x0044 (4 bytes, int32s[1]):
  | | | | | | |   107f07: ef be ad de                                     [....]
  | | | | | | | ContrastNeutral = 0
  | | | | | | | - Tag 0x0048 (4 bytes, int32s[1]):
  | | | | | | |   107f0b: 00 00 00 00                                     [....]
  | | | | | | | SharpnessNeutral = 0
  | | | | | | | - Tag 0x004c (4 bytes, int32s[1]):
  | | | | | | |   107f0f: 00 00 00 00                                     [....]
  | | | | | | | SaturationNeutral = 0
  | | | | | | | - Tag 0x0050 (4 bytes, int32s[1]):
  | | | | | | |   107f13: 00 00 00 00                                     [....]
  | | | | | | | ColorToneNeutral = 0
  | | | | | | | - Tag 0x0054 (4 bytes, int32s[1]):
  | | | | | | |   107f17: 00 00 00 00                                     [....]
  | | | | | | | FilterEffectNeutral = -559038737
  | | | | | | | - Tag 0x0058 (4 bytes, int32s[1]):
  | | | | | | |   107f1b: ef be ad de                                     [....]
  | | | | | | | ToningEffectNeutral = -559038737
  | | | | | | | - Tag 0x005c (4 bytes, int32s[1]):
  | | | | | | |   107f1f: ef be ad de                                     [....]
  | | | | | | | ContrastFaithful = 0
  | | | | | | | - Tag 0x0060 (4 bytes, int32s[1]):
  | | | | | | |   107f23: 00 00 00 00                                     [....]
  | | | | | | | SharpnessFaithful = 0
  | | | | | | | - Tag 0x0064 (4 bytes, int32s[1]):
  | | | | | | |   107f27: 00 00 00 00                                     [....]
  | | | | | | | SaturationFaithful = 0
  | | | | | | | - Tag 0x0068 (4 bytes, int32s[1]):
  | | | | | | |   107f2b: 00 00 00 00                                     [....]
  | | | | | | | ColorToneFaithful = 0
  | | | | | | | - Tag 0x006c (4 bytes, int32s[1]):
  | | | | | | |   107f2f: 00 00 00 00                                     [....]
  | | | | | | | FilterEffectFaithful = -559038737
  | | | | | | | - Tag 0x0070 (4 bytes, int32s[1]):
  | | | | | | |   107f33: ef be ad de                                     [....]
  | | | | | | | ToningEffectFaithful = -559038737
  | | | | | | | - Tag 0x0074 (4 bytes, int32s[1]):
  | | | | | | |   107f37: ef be ad de                                     [....]
  | | | | | | | ContrastMonochrome = 0
  | | | | | | | - Tag 0x0078 (4 bytes, int32s[1]):
  | | | | | | |   107f3b: 00 00 00 00                                     [....]
  | | | | | | | SharpnessMonochrome = 3
  | | | | | | | - Tag 0x007c (4 bytes, int32s[1]):
  | | | | | | |   107f3f: 03 00 00 00                                     [....]
  | | | | | | | SaturationMonochrome = -559038737
  | | | | | | | - Tag 0x0080 (4 bytes, int32s[1]):
  | | | | | | |   107f43: ef be ad de                                     [....]
  | | | | | | | ColorToneMonochrome = -559038737
  | | | | | | | - Tag 0x0084 (4 bytes, int32s[1]):
  | | | | | | |   107f47: ef be ad de                                     [....]
  | | | | | | | FilterEffectMonochrome = 0
  | | | | | | | - Tag 0x0088 (4 bytes, int32s[1]):
  | | | | | | |   107f4b: 00 00 00 00                                     [....]
  | | | | | | | ToningEffectMonochrome = 0
  | | | | | | | - Tag 0x008c (4 bytes, int32s[1]):
  | | | | | | |   107f4f: 00 00 00 00                                     [....]
  | | | | | | | ContrastAuto = 0
  | | | | | | | - Tag 0x0090 (4 bytes, int32s[1]):
  | | | | | | |   107f53: 00 00 00 00                                     [....]
  | | | | | | | SharpnessAuto = 3
  | | | | | | | - Tag 0x0094 (4 bytes, int32s[1]):
  | | | | | | |   107f57: 03 00 00 00                                     [....]
  | | | | | | | SaturationAuto = 0
  | | | | | | | - Tag 0x0098 (4 bytes, int32s[1]):
  | | | | | | |   107f5b: 00 00 00 00                                     [....]
  | | | | | | | ColorToneAuto = 0
  | | | | | | | - Tag 0x009c (4 bytes, int32s[1]):
  | | | | | | |   107f5f: 00 00 00 00                                     [....]
  | | | | | | | FilterEffectAuto = -559038737
  | | | | | | | - Tag 0x00a0 (4 bytes, int32s[1]):
  | | | | | | |   107f63: ef be ad de                                     [....]
  | | | | | | | ToningEffectAuto = -559038737
  | | | | | | | - Tag 0x00a4 (4 bytes, int32s[1]):
  | | | | | | |   107f67: ef be ad de                                     [....]
  | | | | | | | ContrastUserDef1 = 0
  | | | | | | | - Tag 0x00a8 (4 bytes, int32s[1]):
  | | | | | | |   107f6b: 00 00 00 00                                     [....]
  | | | | | | | SharpnessUserDef1 = 3
  | | | | | | | - Tag 0x00ac (4 bytes, int32s[1]):
  | | | | | | |   107f6f: 03 00 00 00                                     [....]
  | | | | | | | SaturationUserDef1 = 0
  | | | | | | | - Tag 0x00b0 (4 bytes, int32s[1]):
  | | | | | | |   107f73: 00 00 00 00                                     [....]
  | | | | | | | ColorToneUserDef1 = 0
  | | | | | | | - Tag 0x00b4 (4 bytes, int32s[1]):
  | | | | | | |   107f77: 00 00 00 00                                     [....]
  | | | | | | | FilterEffectUserDef1 = 0
  | | | | | | | - Tag 0x00b8 (4 bytes, int32s[1]):
  | | | | | | |   107f7b: 00 00 00 00                                     [....]
  | | | | | | | ToningEffectUserDef1 = 0
  | | | | | | | - Tag 0x00bc (4 bytes, int32s[1]):
  | | | | | | |   107f7f: 00 00 00 00                                     [....]
  | | | | | | | ContrastUserDef2 = 0
  | | | | | | | - Tag 0x00c0 (4 bytes, int32s[1]):
  | | | | | | |   107f83: 00 00 00 00                                     [....]
  | | | | | | | SharpnessUserDef2 = 3
  | | | | | | | - Tag 0x00c4 (4 bytes, int32s[1]):
  | | | | | | |   107f87: 03 00 00 00                                     [....]
  | | | | | | | SaturationUserDef2 = 0
  | | | | | | | - Tag 0x00c8 (4 bytes, int32s[1]):
  | | | | | | |   107f8b: 00 00 00 00                                     [....]
  | | | | | | | ColorToneUserDef2 = 0
  | | | | | | | - Tag 0x00cc (4 bytes, int32s[1]):
  | | | | | | |   107f8f: 00 00 00 00                                     [....]
  | | | | | | | FilterEffectUserDef2 = 0
  | | | | | | | - Tag 0x00d0 (4 bytes, int32s[1]):
  | | | | | | |   107f93: 00 00 00 00                                     [....]
  | | | | | | | ToningEffectUserDef2 = 0
  | | | | | | | - Tag 0x00d4 (4 bytes, int32s[1]):
  | | | | | | |   107f97: 00 00 00 00                                     [....]
  | | | | | | | ContrastUserDef3 = 0
  | | | | | | | - Tag 0x00d8 (4 bytes, int32s[1]):
  | | | | | | |   107f9b: 00 00 00 00                                     [....]
  | | | | | | | SharpnessUserDef3 = 3
  | | | | | | | - Tag 0x00dc (4 bytes, int32s[1]):
  | | | | | | |   107f9f: 03 00 00 00                                     [....]
  | | | | | | | SaturationUserDef3 = 0
  | | | | | | | - Tag 0x00e0 (4 bytes, int32s[1]):
  | | | | | | |   107fa3: 00 00 00 00                                     [....]
  | | | | | | | ColorToneUserDef3 = 0
  | | | | | | | - Tag 0x00e4 (4 bytes, int32s[1]):
  | | | | | | |   107fa7: 00 00 00 00                                     [....]
  | | | | | | | FilterEffectUserDef3 = 0
  | | | | | | | - Tag 0x00e8 (4 bytes, int32s[1]):
  | | | | | | |   107fab: 00 00 00 00                                     [....]
  | | | | | | | ToningEffectUserDef3 = 0
  | | | | | | | - Tag 0x00ec (4 bytes, int32s[1]):
  | | | | | | |   107faf: 00 00 00 00                                     [....]
  | | | | | | | UserDef1PictureStyle = 135
  | | | | | | | - Tag 0x00f0 (2 bytes, int16u[1]):
  | | | | | | |   107fb3: 87 00                                           [..]
  | | | | | | | UserDef2PictureStyle = 135
  | | | | | | | - Tag 0x00f2 (2 bytes, int16u[1]):
  | | | | | | |   107fb5: 87 00                                           [..]
  | | | | | | | UserDef3PictureStyle = 135
  | | | | | | | - Tag 0x00f4 (2 bytes, int16u[1]):
  | | | | | | |   107fb7: 87 00                                           [..]
  | | | | | 8)  CanonModelID = 2147484453
  | | | | |     - Tag 0x0010 (4 bytes, int32u[1]):
  | | | | |       107870: 25 03 00 80                                     [%...]
  | | | | | 9)  ThumbnailImageValidArea = 0 159 7 112
  | | | | |     - Tag 0x0013 (8 bytes, int16u[4]):
  | | | | |       1080f4: 00 00 9f 00 07 00 70 00                         [......p.]
  | | | | | 10) Canon_0x0019 = 1
  | | | | |     - Tag 0x0019 (2 bytes, int16u[1]):
  | | | | |       107888: 01 00                                           [..]
  | | | | | 11) CanonAFInfo2 (SubDirectory) -->
  | | | | |     - Tag 0x0026 (278 bytes, int16u[139] read as undef[278]):
  | | | | |       1080fc: 16 01 04 00 1f 00 13 00 60 15 40 0e 60 15 40 0e [........`.@.`.@.]
  | | | | |       10810c: e5 00 e5 00 e5 00 e5 00 e5 00 e5 00 e5 00 e5 00 [................]
  | | | | |       10811c: e5 00 e5 00 e5 00 e5 00 e5 00 e5 00 e5 00 e5 00 [................]
  | | | | |       10812c: e5 00 e5 00 e5 00 00 00 00 00 00 00 00 00 00 00 [................]
  | | | | |       10813c: 00 00 00 00 00 00 00 00 00 00 00 00 00 00 15 01 [................]
  | | | | |       10814c: 15 01 15 01 15 01 15 01 15 01 15 01 15 01 15 01 [................]
  | | | | |       10815c: 15 01 15 01 15 01 15 01 15 01 15 01 15 01 15 01 [................]
  | | | | |       10816c: 15 01 15 01 00 00 00 00 00 00 00 00 00 00 00 00 [................]
  | | | | |       10817c: 00 00 00 00 00 00 00 00 00 00 00 00 8d fa 7f fc [................]
  | | | | |       10818c: 7f fc 7f fc 71 fe 71 fe 71 fe 00 00 00 00 00 00 [....q.q.q.......]
  | | | | |       10819c: 00 00 00 00 8f 01 8f 01 8f 01 81 03 81 03 81 03 [................]
  | | | | |       1081ac: 73 05 00 00 00 00 00 00 00 00 00 00 00 00 00 00 [s...............]
  | | | | |       1081bc: 00 00 00 00 00 00 00 00 00 00 00 00 91 01 00 00 [................]
  | | | | |       1081cc: 6f fe 91 01 00 00 6f fe f3 02 91 01 00 00 6f fe [o.....o.......o.]
  | | | | |       1081dc: 0d fd 91 01 00 00 6f fe 91 01 00 00 6f fe 00 00 [......o.....o...]
  | | | | |       1081ec: 00 00 00 00 00 00 00 00 00 00 00 00 00 00 00 00 [................]
  | | | | |       1081fc: 00 00 00 00 00 00 00 00 00 00 04 00 ff ff 07 00 [................]
  | | | | |       10820c: 00 00 00 00 ff ff                               [......]
  | | | | | + [SerialData directory, 278 bytes]
  | | | | | | 0)  AFInfoSize = 278
  | | | | | |     - Tag 0x0000 (2 bytes, int16u[1]):
  | | | | | |       1080fc: 16 01                                           [..]
  | | | | | | 1)  AFAreaMode = 4
  | | | | | |     - Tag 0x0001 (2 bytes, int16u[1]):
  | | | | | |       1080fe: 04 00                                           [..]
  | | | | | | 2)  NumAFPoints = 31
  | | | | | |     - Tag 0x0002 (2 bytes, int16u[1]):
  | | | | | |       108100: 1f 00                                           [..]
  | | | | | | 3)  ValidAFPoints = 19
  | | | | | |     - Tag 0x0003 (2 bytes, int16u[1]):
  | | | | | |       108102: 13 00                                           [..]
  | | | | | | 4)  CanonImageWidth = 5472
  | | | | | |     - Tag 0x0004 (2 bytes, int16u[1]):
  | | | | | |       108104: 60 15                                           [`.]
  | | | | | | 5)  CanonImageHeight = 3648
  | | | | | |     - Tag 0x0005 (2 bytes, int16u[1]):
  | | | | | |       108106: 40 0e                                           [@.]
  | | | | | | 6)  AFImageWidth = 5472
  | | | | | |     - Tag 0x0006 (2 bytes, int16u[1]):
  | | | | | |       108108: 60 15                                           [`.]
  | | | | | | 7)  AFImageHeight = 3648
  | | | | | |     - Tag 0x0007 (2 bytes, int16u[1]):
  | | | | | |       10810a: 40 0e                                           [@.]
  | | | | | | 8)  AFAreaWidths = 229 229 229 229 229 229 229 229 229 229 229 229 229 229 229 229 229 229 229 0 0 0 0 0 0 0 0 0 0 0 0
  | | | | | |     - Tag 0x0008 (62 bytes, int16s[31]):
  | | | | | |       10810c: e5 00 e5 00 e5 00 e5 00 e5 00 e5 00 e5 00 e5 00 [................]
  | | | | | |       10811c: e5 00 e5 00 e5 00 e5 00 e5 00 e5 00 e5 00 e5 00 [................]
  | | | | | |       10812c: e5 00 e5 00 e5 00 00 00 00 00 00 00 00 00 00 00 [................]
  | | | | | |       10813c: 00 00 00 00 00 00 00 00 00 00 00 00 00 00       [..............]
  | | | | | | 9)  AFAreaHeights = 277 277 277 277 277 277 277 277 277 277 277 277 277 277 277 277 277 277 277 0 0 0 0 0 0 0 0 0 0 0 0
  | | | | | |     - Tag 0x0009 (62 bytes, int16s[31]):
  | | | | | |       10814a: 15 01 15 01 15 01 15 01 15 01 15 01 15 01 15 01 [................]
  | | | | | |       10815a: 15 01 15 01 15 01 15 01 15 01 15 01 15 01 15 01 [................]
  | | | | | |       10816a: 15 01 15 01 15 01 00 00 00 00 00 00 00 00 00 00 [................]
  | | | | | |       10817a: 00 00 00 00 00 00 00 00 00 00 00 00 00 00       [..............]
  | | | | | | 10) AFAreaXPositions = -1395 -897 -897 -897 -399 -399 -399 0 0 0 0 0 399 399 399 897 897 897 1395 0 0 0 0 0 0 0 0 0 0 0 0
  | | | | | |     - Tag 0x000a (62 bytes, int16s[31]):
  | | | | | |       108188: 8d fa 7f fc 7f fc 7f fc 71 fe 71 fe 71 fe 00 00 [........q.q.q...]
  | | | | | |       108198: 00 00 00 00 00 00 00 00 8f 01 8f 01 8f 01 81 03 [................]
  | | | | | |       1081a8: 81 03 81 03 73 05 00 00 00 00 00 00 00 00 00 00 [....s...........]
  | | | | | |       1081b8: 00 00 00 00 00 00 00 00 00 00 00 00 00 00       [..............]
  | | | | | | 11) AFAreaYPositions = 0 401 0 -401 401 0 -401 755 401 0 -401 -755 401 0 -401 401 0 -401 0 0 0 0 0 0 0 0 0 0 0 0 0
  | | | | | |     - Tag 0x000b (62 bytes, int16s[31]):
  | | | | | |       1081c6: 00 00 91 01 00 00 6f fe 91 01 00 00 6f fe f3 02 [......o.....o...]
  | | | | | |       1081d6: 91 01 00 00 6f fe 0d fd 91 01 00 00 6f fe 91 01 [....o.......o...]
  | | | | | |       1081e6: 00 00 6f fe 00 00 00 00 00 00 00 00 00 00 00 00 [..o.............]
  | | | | | |       1081f6: 00 00 00 00 00 00 00 00 00 00 00 00 00 00       [..............]
  | | | | | | 12) AFPointsInFocus = 0 4
  | | | | | |     - Tag 0x000c (4 bytes, int16s[2]):
  | | | | | |       108204: 00 00 04 00                                     [....]
  | | | | | | 13) AFPointsSelected = -1 7
  | | | | | |     - Tag 0x000d (4 bytes, int16s[2]):
  | | | | | |       108208: ff ff 07 00                                     [....]
  | | | | | 12) TimeInfo (SubDirectory) -->
  | | | | |     - Tag 0x0035 (16 bytes, int32u[4] read as undef[16]):
  | | | | |       108212: 10 00 00 00 00 00 00 00 14 00 00 00 00 00 00 00 [................]
  | | | | | + [BinaryData directory, 16 bytes, Little-endian]
  | | | | | | TimeZone = 0
  | | | | | | - Tag 0x0001 (4 bytes, int32s[1]):
  | | | | | |   108216: 00 00 00 00                                     [....]
  | | | | | | TimeZoneCity = 20
  | | | | | | - Tag 0x0002 (4 bytes, int32s[1]):
  | | | | | |   10821a: 14 00 00 00                                     [....]
  | | | | | | DaylightSavings = 0
  | | | | | | - Tag 0x0003 (4 bytes, int32s[1]):
  | | | | | |   10821e: 00 00 00 00                                     [....]
  | | | | | 13) CanonFileInfo (SubDirectory) -->
  | | | | |     - Tag 0x0093 (64 bytes, int16u[32] read as undef[64]):
  | | | | |       108222: 40 00 00 00 00 00 00 00 00 00 00 00 00 00 00 00 [@...............]
  | | | | |       108232: ff ff 00 00 00 00 00 00 00 00 00 00 ff ff ff ff [................]
  | | | | |       108242: a6 00 ff ff 00 00 00 00 57 00 49 00 00 00 00 00 [........W.I.....]
  | | | | |       108252: 00 00 00 00 ff ff 00 00 00 00 00 00 ff ff ff ff [................]
  | | | | | + [BinaryData directory, 64 bytes, Little-endian]
  | | | | | | BracketMode = 0
  | | | | | | - Tag 0x0003 (2 bytes, int16s[1]):
  | | | | | |   108228: 00 00                                           [..]
  | | | | | | BracketValue = 0
  | | | | | | - Tag 0x0004 (2 bytes, int16s[1]):
  | | | | | |   10822a: 00 00                                           [..]
  | | | | | | BracketShotNumber = 0
  | | | | | | - Tag 0x0005 (2 bytes, int16s[1]):
  | | | | | |   10822c: 00 00                                           [..]
  | | | | | | RawJpgQuality = 0
  | | | | | | - Tag 0x0006 (2 bytes, int16s[1]):
  | | | | | |   10822e: 00 00                                           [..]
  | | | | | | RawJpgSize = 0
  | | | | | | - Tag 0x0007 (2 bytes, int16s[1]):
  | | | | | |   108230: 00 00                                           [..]
  | | | | | | LongExposureNoiseReduction2 = -1
  | | | | | | - Tag 0x0008 (2 bytes, int16s[1]):
  | | | | | |   108232: ff ff                                           [..]
  | | | | | | WBBracketMode = 0
  | | | | | | - Tag 0x0009 (2 bytes, int16s[1]):
  | | | | | |   108234: 00 00                                           [..]
  | | | | | | WBBracketValueAB = 0
  | | | | | | - Tag 0x000c (2 bytes, int16s[1]):
  | | | | | |   10823a: 00 00                                           [..]
  | | | | | | WBBracketValueGM = 0
  | | | | | | - Tag 0x000d (2 bytes, int16s[1]):
  | | | | | |   10823c: 00 00                                           [..]
  | | | | | | FilterEffect = -1
  | | | | | | - Tag 0x000e (2 bytes, int16s[1]):
  | | | | | |   10823e: ff ff                                           [..]
  | | | | | | ToningEffect = -1
  | | | | | | - Tag 0x000f (2 bytes, int16s[1]):
  | | | | | |   108240: ff ff                                           [..]
  | | | | | | LiveViewShooting = 0
  | | | | | | - Tag 0x0013 (2 bytes, int16s[1]):
  | | | | | |   108248: 00 00                                           [..]
  | | | | | | FocusDistanceUpper = 87
  | | | | | | - Tag 0x0014 (2 bytes, int16u[1]):
  | | | | | |   10824a: 57 00                                           [W.]
  | | | | | | FocusDistanceLower = 73
  | | | | | | - Tag 0x0015 (2 bytes, int16u[1]):
  | | | | | |   10824c: 49 00                                           [I.]
  | | | | | | ShutterMode = 0
  | | | | | | - Tag 0x0017 (2 bytes, int16s[1]):
  | | | | | |   108250: 00 00                                           [..]
  | | | | | | FlashExposureLock = 0
  | | | | | | - Tag 0x0019 (2 bytes, int16s[1]):
  | | | | | |   108254: 00 00                                           [..]
  | | | | | 14) LensModel = EF50mm f/1.8 STM
  | | | | |     - Tag 0x0095 (74 bytes, string[74]):
  | | | | |       108262: 45 46 35 30 6d 6d 20 66 2f 31 2e 38 20 53 54 4d [EF50mm f/1.8 STM]
  | | | | |       108272: 00 2d 35 2e 36 20 49 53 20 53 54 4d 00 00 00 00 [.-5.6 IS STM....]
  | | | | |       108282: 00 00 00 00 00 00 00 00 00 00 00 00 00 00 00 00 [................]
  | | | | |       108292: 00 00 00 00 00 00 00 00 00 00 00 00 00 00 00 00 [................]
  | | | | |       1082a2: 00 00 00 00 00 00 55 55 64 17                   [......UUd.]
  | | | | | 15) InternalSerialNumber = FA0381304
  | | | | |     - Tag 0x0096 (16 bytes, string[16]):
  | | | | |       1082ac: 46 41 30 33 38 31 33 30 34 00 00 00 00 00 00 00 [FA0381304.......]
  | | | | | 16) DustRemovalData = 
  | | | | |     - Tag 0x0097 (1024 bytes, undef[1024]):
  | | | | |       1082bc: 00 00 00 00 00 00 00 00 00 00 00 00 00 00 00 00 [................]
  | | | | |       1082cc: 00 00 00 00 00 00 00 00 00 00 00 00 00 00 00 00 [................]
  | | | | |       1082dc: 00 00 00 00 00 00 00 00 00 00 00 00 00 00 00 00 [................]
  | | | | |       1082ec: 00 00 00 00 00 00 00 00 00 00 00 00 00 00 00 00 [................]
  | | | | |       1082fc: 00 00 00 00 00 00 00 00 00 00 00 00 00 00 00 00 [................]
  | | | | |       10830c: 00 00 00 00 00 00 00 00 00 00 00 00 00 00 00 00 [................]
  | | | | |       10831c: 00 00 00 00 00 00 00 00 00 00 00 00 00 00 00 00 [................]
  | | | | |       10832c: 00 00 00 00 00 00 00 00 00 00 00 00 00 00 00 00 [................]
  | | | | |       10833c: 00 00 00 00 00 00 00 00 00 00 00 00 00 00 00 00 [................]
  | | | | |       10834c: 00 00 00 00 00 00 00 00 00 00 00 00 00 00 00 00 [................]
  | | | | |       10835c: 00 00 00 00 00 00 00 00 00 00 00 00 00 00 00 00 [................]
  | | | | |       10836c: 00 00 00 00 00 00 00 00 00 00 00 00 00 00 00 00 [................]
  | | | | |       10837c: 00 00 00 00 00 00 00 00 00 00 00 00 00 00 00 00 [................]
  | | | | |       10838c: 00 00 00 00 00 00 00 00 00 00 00 00 00 00 00 00 [................]
  | | | | |       10839c: 00 00 00 00 00 00 00 00 00 00 00 00 00 00 00 00 [................]
  | | | | |       1083ac: 00 00 00 00 00 00 00 00 00 00 00 00 00 00 00 00 [................]
  | | | | |       1083bc: 00 00 00 00 00 00 00 00 00 00 00 00 00 00 00 00 [................]
  | | | | |       1083cc: 00 00 00 00 00 00 00 00 00 00 00 00 00 00 00 00 [................]
  | | | | |       1083dc: 00 00 00 00 00 00 00 00 00 00 00 00 00 00 00 00 [................]
  | | | | |       1083ec: 00 00 00 00 00 00 00 00 00 00 00 00 00 00 00 00 [................]
  | | | | |       1083fc: 00 00 00 00 00 00 00 00 00 00 00 00 00 00 00 00 [................]
  | | | | |       10840c: 00 00 00 00 00 00 00 00 00 00 00 00 00 00 00 00 [................]
  | | | | |       10841c: 00 00 00 00 00 00 00 00 00 00 00 00 00 00 00 00 [................]
  | | | | |       10842c: 00 00 00 00 00 00 00 00 00 00 00 00 00 00 00 00 [................]
  | | | | |       10843c: 00 00 00 00 00 00 00 00 00 00 00 00 00 00 00 00 [................]
  | | | | |       10844c: 00 00 00 00 00 00 00 00 00 00 00 00 00 00 00 00 [................]
  | | | | |       10845c: 00 00 00 00 00 00 00 00 00 00 00 00 00 00 00 00 [................]
  | | | | |       10846c: 00 00 00 00 00 00 00 00 00 00 00 00 00 00 00 00 [................]
  | | | | |       10847c: 00 00 00 00 00 00 00 00 00 00 00 00 00 00 00 00 [................]
  | | | | |       10848c: 00 00 00 00 00 00 00 00 00 00 00 00 00 00 00 00 [................]
  | | | | |       10849c: 00 00 00 00 00 00 00 00 00 00 00 00 00 00 00 00 [................]
  | | | | |       1084ac: 00 00 00 00 00 00 00 00 00 00 00 00 00 00 00 00 [................]
  | | | | |       1084bc: 00 00 00 00 00 00 00 00 00 00 00 00 00 00 00 00 [................]
  | | | | |       1084cc: 00 00 00 00 00 00 00 00 00 00 00 00 00 00 00 00 [................]
  | | | | |       1084dc: 00 00 00 00 00 00 00 00 00 00 00 00 00 00 00 00 [................]
  | | | | |       1084ec: 00 00 00 00 00 00 00 00 00 00 00 00 00 00 00 00 [................]
  | | | | |       1084fc: 00 00 00 00 00 00 00 00 00 00 00 00 00 00 00 00 [................]
  | | | | |       10850c: 00 00 00 00 00 00 00 00 00 00 00 00 00 00 00 00 [................]
  | | | | |       10851c: 00 00 00 00 00 00 00 00 00 00 00 00 00 00 00 00 [................]
  | | | | |       10852c: 00 00 00 00 00 00 00 00 00 00 00 00 00 00 00 00 [................]
  | | | | |       10853c: 00 00 00 00 00 00 00 00 00 00 00 00 00 00 00 00 [................]
  | | | | |       10854c: 00 00 00 00 00 00 00 00 00 00 00 00 00 00 00 00 [................]
  | | | | |       10855c: 00 00 00 00 00 00 00 00 00 00 00 00 00 00 00 00 [................]
  | | | | |       10856c: 00 00 00 00 00 00 00 00 00 00 00 00 00 00 00 00 [................]
  | | | | |       10857c: 00 00 00 00 00 00 00 00 00 00 00 00 00 00 00 00 [................]
  | | | | |       10858c: 00 00 00 00 00 00 00 00 00 00 00 00 00 00 00 00 [................]
  | | | | |       10859c: 00 00 00 00 00 00 00 00 00 00 00 00 00 00 00 00 [................]
  | | | | |       1085ac: 00 00 00 00 00 00 00 00 00 00 00 00 00 00 00 00 [................]
  | | | | |       1085bc: 00 00 00 00 00 00 00 00 00 00 00 00 00 00 00 00 [................]
  | | | | |       1085cc: 00 00 00 00 00 00 00 00 00 00 00 00 00 00 00 00 [................]
  | | | | |       1085dc: 00 00 00 00 00 00 00 00 00 00 00 00 00 00 00 00 [................]
  | | | | |       1085ec: 00 00 00 00 00 00 00 00 00 00 00 00 00 00 00 00 [................]
  | | | | |       1085fc: 00 00 00 00 00 00 00 00 00 00 00 00 00 00 00 00 [................]
  | | | | |       10860c: 00 00 00 00 00 00 00 00 00 00 00 00 00 00 00 00 [................]
  | | | | |       10861c: 00 00 00 00 00 00 00 00 00 00 00 00 00 00 00 00 [................]
  | | | | |       10862c: 00 00 00 00 00 00 00 00 00 00 00 00 00 00 00 00 [................]
  | | | | |       10863c: 00 00 00 00 00 00 00 00 00 00 00 00 00 00 00 00 [................]
  | | | | |       10864c: 00 00 00 00 00 00 00 00 00 00 00 00 00 00 00 00 [................]
  | | | | |       10865c: 00 00 00 00 00 00 00 00 00 00 00 00 00 00 00 00 [................]
  | | | | |       10866c: 00 00 00 00 00 00 00 00 00 00 00 00 00 00 00 00 [................]
  | | | | |       10867c: 00 00 00 00 00 00 00 00 00 00 00 00 00 00 00 00 [................]
  | | | | |       10868c: 00 00 00 00 00 00 00 00 00 00 00 00 00 00 00 00 [................]
  | | | | |       10869c: 00 00 00 00 00 00 00 00 00 00 00 00 00 00 00 00 [................]
  | | | | |       1086ac: 00 00 00 00 00 00 00 00 00 00 00 00 00 00 00 00 [................]
  | | | | | 17) CropInfo (SubDirectory) -->
  | | | | |     - Tag 0x0098 (8 bytes, int16u[4] read as undef[8]):
  | | | | |       1086bc: 00 00 00 00 00 00 00 00                         [........]
  | | | | | + [BinaryData directory, 8 bytes, Little-endian]
  | | | | | | CropLeftMargin = 0
  | | | | | | - Tag 0x0000 (2 bytes, int16u[1]):
  | | | | | |   1086bc: 00 00                                           [..]
  | | | | | | CropRightMargin = 0
  | | | | | | - Tag 0x0001 (2 bytes, int16u[1]):
  | | | | | |   1086be: 00 00                                           [..]
  | | | | | | CropTopMargin = 0
  | | | | | | - Tag 0x0002 (2 bytes, int16u[1]):
  | | | | | |   1086c0: 00 00                                           [..]
  | | | | | | CropBottomMargin = 0
  | | | | | | - Tag 0x0003 (2 bytes, int16u[1]):
  | | | | | |   1086c2: 00 00                                           [..]
  | | | | | 18) CustomFunctions2 (SubDirectory) -->
  | | | | |     - Tag 0x0099 (464 bytes, int32u[116] read as undef[464]):
  | | | | |       1086c4: d0 01 00 00 03 00 00 00 01 00 00 00 54 00 00 00 [............T...]
  | | | | |       1086d4: 06 00 00 00 01 01 00 00 01 00 00 00 00 00 00 00 [................]
  | | | | |       1086e4: 02 01 00 00 01 00 00 00 00 00 00 00 04 01 00 00 [................]
  | | | | |       1086f4: 01 00 00 00 00 00 00 00 05 01 00 00 01 00 00 00 [................]
  | | | | |       108704: 00 00 00 00 06 01 00 00 02 00 00 00 03 00 00 00 [................]
  | | | | |       108714: 00 00 00 00 08 01 00 00 01 00 00 00 00 00 00 00 [................]
  | | | | |       108724: 03 00 00 00 e4 00 00 00 0d 00 00 00 02 05 00 00 [................]
  | | | | |       108734: 01 00 00 00 00 00 00 00 18 05 00 00 01 00 00 00 [................]
  | | | | |       108744: 00 00 00 00 19 05 00 00 01 00 00 00 00 00 00 00 [................]
  | | | | |       108754: 1a 05 00 00 01 00 00 00 00 00 00 00 0e 05 00 00 [................]
  | | | | |       108764: 01 00 00 00 00 00 00 00 05 05 00 00 01 00 00 00 [................]
  | | | | |       108774: 00 00 00 00 12 05 00 00 02 00 00 00 00 00 00 00 [................]
  | | | | |       108784: 07 00 00 00 1b 05 00 00 01 00 00 00 00 00 00 00 [................]
  | | | | |       108794: 16 05 00 00 01 00 00 00 00 00 00 00 13 05 00 00 [................]
  | | | | |       1087a4: 01 00 00 00 00 00 00 00 0c 05 00 00 01 00 00 00 [................]
  | | | | |       1087b4: 00 00 00 00 10 05 00 00 01 00 00 00 00 00 00 00 [................]
  | | | | |       1087c4: 07 05 00 00 10 00 00 00 00 00 00 00 00 00 00 00 [................]
  | | | | |       1087d4: 00 00 00 00 00 00 00 00 00 00 00 00 00 00 00 00 [................]
  | | | | |       1087e4: 00 00 00 00 00 00 00 00 00 00 00 00 00 00 00 00 [................]
  | | | | |       1087f4: 00 00 00 00 00 00 00 00 00 00 00 00 00 00 00 00 [................]
  | | | | |       108804: 00 00 00 00 00 00 00 00 04 00 00 00 84 00 00 00 [................]
  | | | | |       108814: 04 00 00 00 06 07 00 00 01 00 00 00 00 00 00 00 [................]
  | | | | |       108824: 0f 07 00 00 02 00 00 00 00 00 00 00 02 00 00 00 [................]
  | | | | |       108834: 0a 04 00 00 01 00 00 00 03 00 00 00 0c 07 00 00 [................]
  | | | | |       108844: 13 00 00 00 00 00 00 00 00 00 00 00 00 00 00 00 [................]
  | | | | |       108854: 00 00 00 00 00 00 00 00 00 00 00 00 00 00 00 00 [................]
  | | | | |       108864: 00 00 00 00 00 00 00 00 00 00 00 00 00 00 00 00 [................]
  | | | | |       108874: 00 00 00 00 00 00 00 00 00 00 00 00 00 00 00 00 [................]
  | | | | |       108884: 00 00 00 00 00 00 00 00 00 00 00 00 00 00 00 00 [................]
  | | | | | + [CanonCustom2 directory with 3 entries, 464 bytes]
  | | | | | + [CanonCustom2 group 1 directory with 6 entries, 84 bytes]
  | | | | | | 0)  ExposureLevelIncrements = 0
  | | | | | |     - Tag 0x0101 (4 bytes, int32u[1])
  | | | | | | 1)  ISOSpeedIncrements = 0
  | | | | | |     - Tag 0x0102 (4 bytes, int32u[1])
  | | | | | | 2)  AEBAutoCancel = 0
  | | | | | |     - Tag 0x0104 (4 bytes, int32u[1])
  | | | | | | 3)  AEBSequence = 0
  | | | | | |     - Tag 0x0105 (4 bytes, int32u[1])
  | | | | | | 4)  AEBShotCount = 3 0
  | | | | | |     - Tag 0x0106 (8 bytes, int32u[2])
  | | | | | | 5)  SafetyShift = 0
  | | | | | |     - Tag 0x0108 (4 bytes, int32u[1])
  | | | | | + [CanonCustom2 group 3 directory with 13 entries, 228 bytes]
  | | | | | | 0)  AIServoTrackingSensitivity = 0
  | | | | | |     - Tag 0x0502 (4 bytes, int32u[1])
  | | | | | | 1)  AccelerationTracking = 0
  | | | | | |     - Tag 0x0518 (4 bytes, int32u[1])
  | | | | | | 2)  AIServoFirstImagePriority = 0
  | | | | | |     - Tag 0x0519 (4 bytes, int32u[1])
  | | | | | | 3)  AIServoSecondImagePriority = 0
  | | | | | |     - Tag 0x051a (4 bytes, int32u[1])
  | | | | | | 4)  AFAssistBeam = 0
  | | | | | |     - Tag 0x050e (4 bytes, int32u[1])
  | | | | | | 5)  LensDriveNoAF = 0
  | | | | | |     - Tag 0x0505 (4 bytes, int32u[1])
  | | | | | | 6)  SelectAFAreaSelectMode = 0 7
  | | | | | |     - Tag 0x0512 (8 bytes, int32u[2])
  | | | | | | 7)  AFAreaSelectMethod = 0
  | | | | | |     - Tag 0x051b (4 bytes, int32u[1])
  | | | | | | 8)  OrientationLinkedAFPoint = 0
  | | | | | |     - Tag 0x0516 (4 bytes, int32u[1])
  | | | | | | 9)  ManualAFPointSelectPattern = 0
  | | | | | |     - Tag 0x0513 (4 bytes, int32u[1])
  | | | | | | 10) AFPointDisplayDuringFocus = 0
  | | | | | |     - Tag 0x050c (4 bytes, int32u[1])
  | | | | | | 11) SuperimposedDisplay = 0
  | | | | | |     - Tag 0x0510 (4 bytes, int32u[1])
  | | | | | | 12) AFMicroadjustment = 0 0 0 0 0 0 0 0 0 0 0 0 0 0 0 0
  | | | | | |     - Tag 0x0507 (64 bytes, int32u[16])
  | | | | | + [CanonCustom2 group 4 directory with 4 entries, 132 bytes]
  | | | | | | 0)  DialDirectionTvAv = 0
  | | | | | |     - Tag 0x0706 (4 bytes, int32u[1])
  | | | | | | 1)  MultiFunctionLock = 0 2
  | | | | | |     - Tag 0x070f (8 bytes, int32u[2])
  | | | | | | 2)  ViewfinderWarnings = 3
  | | | | | |     - Tag 0x040a (4 bytes, int32u[1])
  | | | | | | 3)  CustomControls = 0 0 0 0 0 0 0 0 0 0 0 0 0 0 0 0 0 0 0
  | | | | | |     - Tag 0x070c (76 bytes, int32u[19])
  | | | | | 19) AspectInfo (SubDirectory) -->
  | | | | |     - Tag 0x009a (20 bytes, int32u[5] read as undef[20]):
  | | | | |       108894: 00 00 00 00 60 15 00 00 40 0e 00 00 00 00 00 00 [....`...@.......]
  | | | | |       1088a4: 00 00 00 00                                     [....]
  | | | | | + [BinaryData directory, 20 bytes, Little-endian]
  | | | | | | AspectRatio = 0
  | | | | | | - Tag 0x0000 (4 bytes, int32u[1]):
  | | | | | |   108894: 00 00 00 00                                     [....]
  | | | | | | CroppedImageWidth = 5472
  | | | | | | - Tag 0x0001 (4 bytes, int32u[1]):
  | | | | | |   108898: 60 15 00 00                                     [`...]
  | | | | | | CroppedImageHeight = 3648
  | | | | | | - Tag 0x0002 (4 bytes, int32u[1]):
  | | | | | |   10889c: 40 0e 00 00                                     [@...]
  | | | | | | CroppedImageLeft = 0
  | | | | | | - Tag 0x0003 (4 bytes, int32u[1]):
  | | | | | |   1088a0: 00 00 00 00                                     [....]
  | | | | | | CroppedImageTop = 0
  | | | | | | - Tag 0x0004 (4 bytes, int32u[1]):
  | | | | | |   1088a4: 00 00 00 00                                     [....]
  | | | | | 20) ProcessingInfo (SubDirectory) -->
  | | | | |     - Tag 0x00a0 (28 bytes, int16u[14] read as undef[28]):
  | | | | |       1088a8: 1c 00 00 00 03 00 00 00 00 00 00 00 00 00 00 00 [................]
  | | | | |       1088b8: ff ff 50 14 87 00 00 00 00 00 00 00             [..P.........]
  | | | | | + [BinaryData directory, 28 bytes, Little-endian]
  | | | | | | ToneCurve = 0
  | | | | | | - Tag 0x0001 (2 bytes, int16s[1]):
  | | | | | |   1088aa: 00 00                                           [..]
  | | | | | | Sharpness = 3
  | | | | | | - Tag 0x0002 (2 bytes, int16s[1]):
  | | | | | |   1088ac: 03 00                                           [..]
  | | | | | | SharpnessFrequency = 0
  | | | | | | - Tag 0x0003 (2 bytes, int16s[1]):
  | | | | | |   1088ae: 00 00                                           [..]
  | | | | | | SensorRedLevel = 0
  | | | | | | - Tag 0x0004 (2 bytes, int16s[1]):
  | | | | | |   1088b0: 00 00                                           [..]
  | | | | | | SensorBlueLevel = 0
  | | | | | | - Tag 0x0005 (2 bytes, int16s[1]):
  | | | | | |   1088b2: 00 00                                           [..]
  | | | | | | WhiteBalanceRed = 0
  | | | | | | - Tag 0x0006 (2 bytes, int16s[1]):
  | | | | | |   1088b4: 00 00                                           [..]
  | | | | | | WhiteBalanceBlue = 0
  | | | | | | - Tag 0x0007 (2 bytes, int16s[1]):
  | | | | | |   1088b6: 00 00                                           [..]
  | | | | | | WhiteBalance = -1
  | | | | | | - Tag 0x0008 (2 bytes, int16s[1]):
  | | | | | |   1088b8: ff ff                                           [..]
  | | | | | | ColorTemperature = 5200
  | | | | | | - Tag 0x0009 (2 bytes, int16s[1]):
  | | | | | |   1088ba: 50 14                                           [P.]
  | | | | | | PictureStyle = 135
  | | | | | | - Tag 0x000a (2 bytes, int16s[1]):
  | | | | | |   1088bc: 87 00                                           [..]
  | | | | | | DigitalGain = 0
  | | | | | | - Tag 0x000b (2 bytes, int16s[1]):
  | | | | | |   1088be: 00 00                                           [..]
  | | | | | | WBShiftAB = 0
  | | | | | | - Tag 0x000c (2 bytes, int16s[1]):
  | | | | | |   1088c0: 00 00                                           [..]
  | | | | | | WBShiftGM = 0
  | | | | | | - Tag 0x000d (2 bytes, int16s[1]):
  | | | | | |   1088c2: 00 00                                           [..]
  | | | | | 21) MeasuredColor (SubDirectory) -->
  | | | | |     - Tag 0x00aa (12 bytes, int16u[6] read as undef[12]):
  | | | | |       1088c4: 0c 00 53 02 00 04 00 04 03 02 00 00             [..S.........]
  | | | | | + [BinaryData directory, 12 bytes, Little-endian]
  | | | | | | MeasuredRGGB = 595 1024 1024 515
  | | | | | | - Tag 0x0001 (8 bytes, int16u[4]):
  | | | | | |   1088c6: 53 02 00 04 00 04 03 02                         [S.......]
  | | | | | 22) ColorSpace = 1
  | | | | |     - Tag 0x00b4 (2 bytes, int16u[1]):
  | | | | |       107918: 01 00                                           [..]
  | | | | | 23) VRDOffset = 0
  | | | | |     - Tag 0x00d0 (4 bytes, int32u[1]):
  | | | | |       107924: 00 00 00 00                                     [....]
  | | | | | 24) SensorInfo (SubDirectory) -->
  | | | | |     - Tag 0x00e0 (34 bytes, int16u[17] read as undef[34]):
  | | | | |       1088d0: 22 00 c0 15 7c 0e 01 00 01 00 54 00 32 00 b3 15 ["...|.....T.2...]
  | | | | |       1088e0: 71 0e 00 00 00 00 00 00 00 00 00 00 00 00 00 00 [q...............]
  | | | | |       1088f0: 00 00                                           [..]
  | | | | | + [BinaryData directory, 34 bytes, Little-endian]
  | | | | | | SensorWidth = 5568
  | | | | | | - Tag 0x0001 (2 bytes, int16s[1]):
  | | | | | |   1088d2: c0 15                                           [..]
  | | | | | | SensorHeight = 3708
  | | | | | | - Tag 0x0002 (2 bytes, int16s[1]):
  | | | | | |   1088d4: 7c 0e                                           [|.]
  | | | | | | SensorLeftBorder = 84
  | | | | | | - Tag 0x0005 (2 bytes, int16s[1]):
  | | | | | |   1088da: 54 00                                           [T.]
  | | | | | | SensorTopBorder = 50
  | | | | | | - Tag 0x0006 (2 bytes, int16s[1]):
  | | | | | |   1088dc: 32 00                                           [2.]
  | | | | | | SensorRightBorder = 5555
  | | | | | | - Tag 0x0007 (2 bytes, int16s[1]):
  | | | | | |   1088de: b3 15                                           [..]
  | | | | | | SensorBottomBorder = 3697
  | | | | | | - Tag 0x0008 (2 bytes, int16s[1]):
  | | | | | |   1088e0: 71 0e                                           [q.]
  | | | | | | BlackMaskLeftBorder = 0
  | | | | | | - Tag 0x0009 (2 bytes, int16s[1]):
  | | | | | |   1088e2: 00 00                                           [..]
  | | | | | | BlackMaskTopBorder = 0
  | | | | | | - Tag 0x000a (2 bytes, int16s[1]):
  | | | | | |   1088e4: 00 00                                           [..]
  | | | | | | BlackMaskRightBorder = 0
  | | | | | | - Tag 0x000b (2 bytes, int16s[1]):
  | | | | | |   1088e6: 00 00                                           [..]
  | | | | | | BlackMaskBottomBorder = 0
  | | | | | | - Tag 0x000c (2 bytes, int16s[1]):
  | | | | | |   1088e8: 00 00                                           [..]
  | | | | | 25) ColorData7 (SubDirectory) -->
  | | | | |     - Tag 0x4001 (2626 bytes, int16u[1313] read as undef[2626]):
  | | | | |       1088f2: 0a 00 1d 03 00 04 00 04 89 01 2e 02 00 04 00 04 [................]
  | | | | |       108902: 04 02 8f 01 00 04 00 04 aa 02 5d 07 78 09 75 09 [..........].x.u.]
  | | | | |       108912: 9f 03 04 07 e9 0c ec 0c 7d 06 63 03 ab 08 b2 08 [........}.c.....]
  | | | | |       108922: c5 05 ff ff 00 00 fd 00 fd 00 fd 00 00 00 6f 06 [..............o.]
  | | | | |       108932: 51 0d 46 0d a2 07 d9 02 e0 00 e6 00 26 00 77 00 [Q.F.........&.w.]
  | | | | |       108942: f3 02 f3 02 50 04 37 06 6d 0a 64 0a 32 02 c1 06 [....P.7.m.d.2...]
  | | | | |       108952: df 0d e4 0d cc 07 00 03 e8 00 e5 00 27 00 82 00 [............'...]
  | | | | |       108962: fe 02 07 03 4d 04 77 06 b4 0a b6 0a 30 02 c2 07 [....M.w.....0...]
  | | | | |       108972: 00 04 00 04 6c 07 9d 11 c2 07 00 04 00 04 6c 07 [....l.........l.]
  | | | | |       108982: 9d 11 c2 07 00 04 00 04 6c 07 9d 11 c2 07 00 04 [........l.......]
  | | | | |       108992: 00 04 6c 07 9d 11 00 04 00 04 00 04 00 04 0b 11 [..l.............]
  | | | | |       1089a2: 00 04 00 04 00 04 00 04 0b 11 c2 07 00 04 00 04 [................]
  | | | | |       1089b2: 6c 07 9d 11 c2 07 00 04 00 04 6c 07 9d 11 c2 07 [l.........l.....]
  | | | | |       1089c2: 00 04 00 04 6c 07 9d 11 c6 07 00 04 00 04 6c 07 [....l.........l.]
  | | | | |       1089d2: 9d 11 0d 07 00 04 00 04 b3 07 fc 0f 0b 07 04 04 [................]
  | | | | |       1089e2: fb 03 b1 07 fc 0f 00 00 00 00 00 00 00 00 00 00 [................]
  | | | | |       1089f2: 2d 08 00 04 00 04 88 06 50 14 76 09 00 04 00 04 [-.......P.v.....]
  | | | | |       108a02: a2 05 58 1b ca 08 00 04 00 04 0d 06 70 17 c1 05 [..X.........p...]
  | | | | |       108a12: 00 04 00 04 76 09 80 0c 20 07 00 04 00 04 f6 08 [....v... .......]
  | | | | |       108a22: 95 0e 2d 08 00 04 00 04 88 06 44 14 06 09 00 04 [..-.......D.....]
  | | | | |       108a32: 00 04 0b 06 1c 18 2d 08 00 04 00 04 88 06 44 14 [......-.......D.]
  | | | | |       108a42: 2d 08 00 04 00 04 88 06 44 14 2d 08 00 04 00 04 [-.......D.-.....]
  | | | | |       108a52: 88 06 44 14 2d 08 00 04 00 04 88 06 44 14 2d 08 [..D.-.......D.-.]
  | | | | |       108a62: 00 04 00 04 88 06 44 14 e1 03 00 04 00 04 01 04 [......D.........]
  | | | | |       108a72: 71 10 e1 03 00 04 00 04 01 04 71 10 e1 03 00 04 [q.........q.....]
  | | | | |       108a82: 00 04 01 04 71 10 e1 03 00 04 00 04 01 04 71 10 [....q.........q.]
  | | | | |       108a92: e1 03 00 04 00 04 01 04 71 10 e1 fe 7d 01 48 03 [........q...}.H.]
  | | | | |       108aa2: 94 2a f4 fe 86 01 30 03 10 27 1c ff 9a 01 03 03 [.*....0..'......]
  | | | | |       108ab2: 6c 20 45 ff b1 01 d7 02 58 1b 79 ff d2 01 a5 02 [l E.....X.y.....]
  | | | | |       108ac2: 70 17 92 ff e2 01 8d 02 e0 15 ae ff f5 01 73 02 [p.............s.]
  | | | | |       108ad2: 50 14 db ff 10 02 4a 02 5c 12 12 00 39 02 1e 02 [P.....J.\...9...]
  | | | | |       108ae2: 68 10 46 00 63 02 f8 01 d8 0e 78 00 8f 02 d7 01 [h.F.c.....x.....]
  | | | | |       108af2: ac 0d b3 00 c8 02 b1 01 80 0c e2 00 f4 02 92 01 [................]
  | | | | |       108b02: b8 0b 0f 01 29 03 7d 01 f0 0a 80 01 b8 03 48 01 [....).}.......H.]
  | | | | |       108b12: 60 09 f4 01 10 08 1d 08 01 08 01 08 01 08 01 08 [`...............]
  | | | | |       108b22: 00 00 00 00 00 00 00 00 00 00 00 00 00 00 00 00 [................]
  | | | | |       108b32: 00 00 00 00 00 00 00 00 00 00 00 00 00 00 00 00 [................]
  | | | | |       108b42: 00 00 00 00 00 00 00 00 00 00 00 00 00 00 00 00 [................]
  | | | | |       108b52: 00 00 00 00 00 00 00 00 00 00 00 00 00 00 00 00 [................]
  | | | | |       108b62: 00 00 00 00 00 00 00 00 00 00 00 00 00 00 00 00 [................]
  | | | | |       108b72: 00 00 00 00 00 00 00 00 00 00 00 00 00 00 00 00 [................]
  | | | | |       108b82: 00 00 00 00 00 00 00 00 00 00 00 00 00 00 00 00 [................]
  | | | | |       108b92: 00 00 00 00 00 00 00 00 00 00 00 00 00 00 00 00 [................]
  | | | | |       108ba2: 00 00 00 00 00 00 01 00 00 00 01 00 03 00 01 00 [................]
  | | | | |       108bb2: 06 00 09 00 07 00 02 00 05 00 04 00 18 00 00 00 [................]
  | | | | |       108bc2: 00 00 00 00 04 00 45 00 2c 00 43 00 e1 00 66 01 [......E.,.C...f.]
  | | | | |       108bd2: a1 18 de 19 9b 13 7c 06 34 03 9d 02 49 07 0d 00 [......|.4...I...]
  | | | | |       108be2: 00 00 00 00 02 00 2b 00 25 00 52 00 30 01 b9 01 [......+.%.R.0...]
  | | | | |       108bf2: bd 0f 7e 05 f4 13 c4 03 66 01 17 01 9c 02 02 00 [..~.....f.......]
  | | | | |       108c02: 15 00 10 00 37 00 21 03 1b 02 25 04 86 0b e3 0d [....7.!...%.....]
  | | | | |       108c12: f4 4f f2 2b 98 49 bd 10 5e 05 e0 03 6a 0d 4e 00 [.O.+.I..^...j.N.]
  | | | | |       108c22: 00 00 00 00 00 00 00 80 00 00 00 04 00 04 00 04 [................]
  | | | | |       108c32: 2e 0b 22 10 44 1b 76 10 a2 00 00 00 00 10 8e 0f [..".D.v.........]
  | | | | |       108c42: 62 ff 00 00 00 10 00 00 00 01 01 00 3c 68 02 00 [b...........<h..]
  | | | | |       108c52: 7e 6b 02 00 7b 6d 01 00 68 37 00 04 00 04 00 04 [~k..{m..h7......]
  | | | | |       108c62: 00 00 00 00 00 00 fd ff 00 00 ff 1f 00 01 00 00 [................]
  | | | | |       108c72: 00 00 00 04 c8 02 b2 01 f4 01 74 02 9b 01 f9 02 [..........t.....]
  | | | | |       108c82: 00 00 00 00 00 00 00 00 00 00 1f 00 3f 00 5f 00 [............?._.]
  | | | | |       108c92: 7f 00 9f 00 bf 00 df 00 ff 00 00 00 1f 00 41 00 [..............A.]
  | | | | |       108ca2: 62 00 82 00 a1 00 c0 00 df 00 ff 00 01 00 00 00 [b...............]
  | | | | |       108cb2: 66 00 00 00 10 00 20 00 40 00 60 00 80 00 c0 00 [f..... .@.`.....]
  | | | | |       108cc2: 00 00 00 00 00 00 00 00 00 00 00 00 00 00 e8 03 [................]
  | | | | |       108cd2: e8 03 e8 03 e8 03 e8 03 e8 03 e8 03 88 04 00 00 [................]
  | | | | |       108ce2: 01 08 01 08 01 08 01 08 f4 38 f4 3a 10 27 00 00 [.........8.:.'..]
  | | | | |       108cf2: dd 00 83 00 71 00 02 00 00 00 c6 07 40 08 70 10 [....q.......@.p.]
  | | | | |       108d02: f8 10 c6 07 40 08 38 0d c0 0d c6 07 40 08 d0 0e [....@.8.....@...]
  | | | | |       108d12: 58 0f 7c 00 b6 00 ce 00 00 00 00 00 00 00 00 00 [X.|.............]
  | | | | |       108d22: 00 00 00 00 00 00 00 00 00 00 00 00 00 00 00 00 [................]
  | | | | |       108d32: 00 00 00 00 00 00 00 00 00 00 00 00 00 00 00 00 [................]
  | | | | |       108d42: 00 00 00 00 00 00 00 00 00 00 00 00 00 00 00 00 [................]
  | | | | |       108d52: 00 00 00 00 00 00 00 00 00 00 00 00 00 00 00 00 [................]
  | | | | |       108d62: 00 00 00 00 00 00 00 00 00 00 00 00 00 00 00 00 [................]
  | | | | |       108d72: 00 00 00 00 00 00 00 00 00 00 00 00 00 00 00 00 [................]
  | | | | |       108d82: 00 00 00 00 00 00 00 00 00 00 00 00 00 00 00 00 [................]
  | | | | |       108d92: 00 00 00 00 00 00 00 00 00 00 00 00 00 00 00 00 [................]
  | | | | |       108da2: 00 00 00 00 00 00 00 00 00 00 00 00 00 00 00 00 [................]
  | | | | |       108db2: 00 00 00 00 00 00 00 00 00 00 00 00 00 00 00 00 [................]
  | | | | |       108dc2: 00 00 00 00 00 00 00 00 00 00 00 00 00 00 00 00 [................]
  | | | | |       108dd2: 00 00 00 00 00 00 00 00 00 00 00 00 00 00 00 00 [................]
  | | | | |       108de2: 00 00 00 00 00 00 00 00 00 00 00 00 00 00 00 00 [................]
  | | | | |       108df2: 00 00 00 00 00 00 00 00 00 00 00 00 00 00 00 00 [................]
  | | | | |       108e02: 00 00 00 00 00 00 00 00 00 00 00 00 00 00 00 00 [................]
  | | | | |       108e12: 00 00 00 00 00 00 00 00 00 00 00 00 00 00 00 00 [................]
  | | | | |       108e22: 00 00 00 00 00 00 00 00 00 00 00 00 00 00 00 00 [................]
  | | | | |       108e32: 00 00 00 00 00 00 00 00 00 00 00 00 00 00 00 00 [................]
  | | | | |       108e42: 00 00 00 00 00 00 00 00 00 00 00 00 00 00 00 00 [................]
  | | | | |       108e52: 00 00 00 00 00 00 00 00 00 00 00 00 00 00 00 00 [................]
  | | | | |       108e62: 00 00 00 00 00 00 00 00 00 00 00 00 00 00 00 00 [................]
  | | | | |       108e72: 00 00 00 00 00 00 00 00 00 00 00 00 00 00 00 00 [................]
  | | | | |       108e82: 00 00 00 00 00 00 00 00 00 00 00 00 00 00 00 00 [................]
  | | | | |       108e92: 00 00 00 00 00 00 00 00 00 00 00 00 00 00 00 00 [................]
  | | | | |       108ea2: 00 00 00 00 00 00 00 00 00 00 00 00 00 00 00 00 [................]
  | | | | |       108eb2: 00 00 00 00 00 00 00 00 00 00 00 00 00 00 00 00 [................]
  | | | | |       108ec2: 00 00 00 00 00 00 00 00 00 00 00 00 00 00 00 00 [................]
  | | | | |       108ed2: 00 00 00 00 00 00 00 00 00 00 00 00 00 00 00 00 [................]
  | | | | |       108ee2: 00 00 00 00 00 00 00 00 00 00 00 00 00 00 00 00 [................]
  | | | | |       108ef2: 00 00 00 00 00 00 00 00 00 00 00 00 00 00 00 00 [................]
  | | | | |       108f02: 00 00 00 00 00 00 00 00 00 00 00 00 00 00 00 00 [................]
  | | | | |       108f12: 00 00 00 00 00 00 00 00 00 00 00 00 00 00 00 00 [................]
  | | | | |       108f22: 00 00 00 00 00 00 00 00 00 00 00 00 00 00 00 00 [................]
  | | | | |       108f32: 00 00 00 00 00 00 00 00 00 00 00 00 00 00 00 00 [................]
  | | | | |       108f42: 00 00 00 00 00 00 00 00 00 00 00 00 00 00 00 00 [................]
  | | | | |       108f52: 00 00 00 00 00 00 00 00 00 00 00 00 00 00 00 00 [................]
  | | | | |       108f62: 00 00 00 00 00 00 00 00 00 00 00 00 00 00 00 00 [................]
  | | | | |       108f72: 00 00 00 00 00 00 00 00 00 00 00 00 00 00 00 00 [................]
  | | | | |       108f82: 00 00 00 00 00 00 00 00 00 00 00 00 00 00 00 00 [................]
  | | | | |       108f92: 00 00 00 00 00 00 00 00 00 00 00 00 00 00 00 00 [................]
  | | | | |       108fa2: 00 00 00 00 00 00 00 00 00 00 00 00 00 00 00 00 [................]
  | | | | |       108fb2: 00 00 00 00 00 00 00 00 00 00 00 00 00 00 00 00 [................]
  | | | | |       108fc2: 00 00 00 00 00 00 00 00 00 00 00 00 00 00 00 00 [................]
  | | | | |       108fd2: 00 00 00 00 00 00 00 00 00 00 00 00 00 00 00 00 [................]
  | | | | |       108fe2: 00 00 00 00 00 00 00 00 00 00 00 00 00 00 00 00 [................]
  | | | | |       108ff2: 00 00 00 00 00 00 00 00 00 00 00 00 00 00 00 00 [................]
  | | | | |       109002: 00 00 00 00 00 00 00 00 00 00 00 00 00 00 00 00 [................]
  | | | | |       109012: aa aa 00 00 20 00 40 00 80 00 e0 00 00 01 00 01 [.... .@.........]
  | | | | |       109022: 00 01 00 01 00 00 20 00 40 00 80 00 e0 00 00 01 [...... .@.......]
  | | | | |       109032: 00 01 00 01 00 01 51 00 6f 00 76 00 1a 00 18 00 [......Q.o.v.....]
  | | | | |       109042: d7 00 d7 00 04 00 47 00 a8 00 b5 00 ff 00 00 00 [......G.........]
  | | | | |       109052: 00 00 00 00 00 00 00 00 00 00 00 00 00 00 00 00 [................]
  | | | | |       109062: 00 00 00 00 00 00 00 00 00 00 00 00 00 00 00 00 [................]
  | | | | |       109072: 00 00 00 00 00 00 00 00 00 00 00 00 00 00 00 00 [................]
  | | | | |       109082: 00 00 00 00 8f 00 a9 00 f3 00 00 00 00 00 00 00 [................]
  | | | | |       109092: 00 00 00 00 00 00 00 00 00 00 00 00 00 00 00 00 [................]
  | | | | |       1090a2: 00 00 00 00 00 00 00 00 00 00 00 00 00 00 00 00 [................]
  | | | | |       1090b2: 00 00 00 00 00 00 00 00 00 00 00 00 00 00 00 00 [................]
  | | | | |       1090c2: 00 00 00 00 00 00 00 00 00 00 64 00 00 00 00 00 [..........d.....]
  | | | | |       1090d2: 00 00 a6 13 ca 05 00 04 3e 03 a7 02 00 04 d6 01 [........>.......]
  | | | | |         [snip 594 bytes]
  | | | | | + [BinaryData directory, 2626 bytes, Little-endian]
  | | | | | | ColorDataVersion = 10
  | | | | | | - Tag 0x0000 (2 bytes, int16s[1]):
  | | | | | |   1088f2: 0a 00                                           [..]
  | | | | | | WB_RGGBLevelsAsShot = 1986 1024 1024 1900
  | | | | | | - Tag 0x003f (8 bytes, int16s[4]):
  | | | | | |   108970: c2 07 00 04 00 04 6c 07                         [......l.]
  | | | | | | ColorTempAsShot = 4509
  | | | | | | - Tag 0x0043 (2 bytes, int16s[1]):
  | | | | | |   108978: 9d 11                                           [..]
  | | | | | | WB_RGGBLevelsAuto = 1986 1024 1024 1900
  | | | | | | - Tag 0x0044 (8 bytes, int16s[4]):
  | | | | | |   10897a: c2 07 00 04 00 04 6c 07                         [......l.]
  | | | | | | ColorTempAuto = 4509
  | | | | | | - Tag 0x0048 (2 bytes, int16s[1]):
  | | | | | |   108982: 9d 11                                           [..]
  | | | | | | WB_RGGBLevelsMeasured = 1986 1024 1024 1900
  | | | | | | - Tag 0x0049 (8 bytes, int16s[4]):
  | | | | | |   108984: c2 07 00 04 00 04 6c 07                         [......l.]
  | | | | | | ColorTempMeasured = 4509
  | | | | | | - Tag 0x004d (2 bytes, int16s[1]):
  | | | | | |   10898c: 9d 11                                           [..]
  | | | | | | WB_RGGBLevelsUnknown = 1986 1024 1024 1900
  | | | | | | - Tag 0x004e (8 bytes, int16s[4]):
  | | | | | |   10898e: c2 07 00 04 00 04 6c 07                         [......l.]
  | | | | | | ColorTempUnknown = 4509
  | | | | | | - Tag 0x0052 (2 bytes, int16s[1]):
  | | | | | |   108996: 9d 11                                           [..]
  | | | | | | WB_RGGBLevelsUnknown2 = 1024 1024 1024 1024
  | | | | | | - Tag 0x0053 (8 bytes, int16s[4]):
  | | | | | |   108998: 00 04 00 04 00 04 00 04                         [........]
  | | | | | | ColorTempUnknown2 = 4363
  | | | | | | - Tag 0x0057 (2 bytes, int16s[1]):
  | | | | | |   1089a0: 0b 11                                           [..]
  | | | | | | WB_RGGBLevelsUnknown3 = 1024 1024 1024 1024
  | | | | | | - Tag 0x0058 (8 bytes, int16s[4]):
  | | | | | |   1089a2: 00 04 00 04 00 04 00 04                         [........]
  | | | | | | ColorTempUnknown3 = 4363
  | | | | | | - Tag 0x005c (2 bytes, int16s[1]):
  | | | | | |   1089aa: 0b 11                                           [..]
  | | | | | | WB_RGGBLevelsUnknown4 = 1986 1024 1024 1900
  | | | | | | - Tag 0x005d (8 bytes, int16s[4]):
  | | | | | |   1089ac: c2 07 00 04 00 04 6c 07                         [......l.]
  | | | | | | ColorTempUnknown4 = 4509
  | | | | | | - Tag 0x0061 (2 bytes, int16s[1]):
  | | | | | |   1089b4: 9d 11                                           [..]
  | | | | | | WB_RGGBLevelsUnknown5 = 1986 1024 1024 1900
  | | | | | | - Tag 0x0062 (8 bytes, int16s[4]):
  | | | | | |   1089b6: c2 07 00 04 00 04 6c 07                         [......l.]
  | | | | | | ColorTempUnknown5 = 4509
  | | | | | | - Tag 0x0066 (2 bytes, int16s[1]):
  | | | | | |   1089be: 9d 11                                           [..]
  | | | | | | WB_RGGBLevelsUnknown6 = 1986 1024 1024 1900
  | | | | | | - Tag 0x0067 (8 bytes, int16s[4]):
  | | | | | |   1089c0: c2 07 00 04 00 04 6c 07                         [......l.]
  | | | | | | ColorTempUnknown6 = 4509
  | | | | | | - Tag 0x006b (2 bytes, int16s[1]):
  | | | | | |   1089c8: 9d 11                                           [..]
  | | | | | | WB_RGGBLevelsUnknown7 = 1990 1024 1024 1900
  | | | | | | - Tag 0x006c (8 bytes, int16s[4]):
  | | | | | |   1089ca: c6 07 00 04 00 04 6c 07                         [......l.]
  | | | | | | ColorTempUnknown7 = 4509
  | | | | | | - Tag 0x0070 (2 bytes, int16s[1]):
  | | | | | |   1089d2: 9d 11                                           [..]
  | | | | | | WB_RGGBLevelsUnknown8 = 1805 1024 1024 1971
  | | | | | | - Tag 0x0071 (8 bytes, int16s[4]):
  | | | | | |   1089d4: 0d 07 00 04 00 04 b3 07                         [........]
  | | | | | | ColorTempUnknown8 = 4092
  | | | | | | - Tag 0x0075 (2 bytes, int16s[1]):
  | | | | | |   1089dc: fc 0f                                           [..]
  | | | | | | WB_RGGBLevelsUnknown9 = 1803 1028 1019 1969
  | | | | | | - Tag 0x0076 (8 bytes, int16s[4]):
  | | | | | |   1089de: 0b 07 04 04 fb 03 b1 07                         [........]
  | | | | | | ColorTempUnknown9 = 4092
  | | | | | | - Tag 0x007a (2 bytes, int16s[1]):
  | | | | | |   1089e6: fc 0f                                           [..]
  | | | | | | WB_RGGBLevelsUnknown10 = 0 0 0 0
  | | | | | | - Tag 0x007b (8 bytes, int16s[4]):
  | | | | | |   1089e8: 00 00 00 00 00 00 00 00                         [........]
  | | | | | | ColorTempUnknown10 = 0
  | | | | | | - Tag 0x007f (2 bytes, int16s[1]):
  | | | | | |   1089f0: 00 00                                           [..]
  | | | | | | WB_RGGBLevelsDaylight = 2093 1024 1024 1672
  | | | | | | - Tag 0x0080 (8 bytes, int16s[4]):
  | | | | | |   1089f2: 2d 08 00 04 00 04 88 06                         [-.......]
  | | | | | | ColorTempDaylight = 5200
  | | | | | | - Tag 0x0084 (2 bytes, int16s[1]):
  | | | | | |   1089fa: 50 14                                           [P.]
  | | | | | | WB_RGGBLevelsShade = 2422 1024 1024 1442
  | | | | | | - Tag 0x0085 (8 bytes, int16s[4]):
  | | | | | |   1089fc: 76 09 00 04 00 04 a2 05                         [v.......]
  | | | | | | ColorTempShade = 7000
  | | | | | | - Tag 0x0089 (2 bytes, int16s[1]):
  | | | | | |   108a04: 58 1b                                           [X.]
  | | | | | | WB_RGGBLevelsCloudy = 2250 1024 1024 1549
  | | | | | | - Tag 0x008a (8 bytes, int16s[4]):
  | | | | | |   108a06: ca 08 00 04 00 04 0d 06                         [........]
  | | | | | | ColorTempCloudy = 6000
  | | | | | | - Tag 0x008e (2 bytes, int16s[1]):
  | | | | | |   108a0e: 70 17                                           [p.]
  | | | | | | WB_RGGBLevelsTungsten = 1473 1024 1024 2422
  | | | | | | - Tag 0x008f (8 bytes, int16s[4]):
  | | | | | |   108a10: c1 05 00 04 00 04 76 09                         [......v.]
  | | | | | | ColorTempTungsten = 3200
  | | | | | | - Tag 0x0093 (2 bytes, int16s[1]):
  | | | | | |   108a18: 80 0c                                           [..]
  | | | | | | WB_RGGBLevelsFluorescent = 1824 1024 1024 2294
  | | | | | | - Tag 0x0094 (8 bytes, int16s[4]):
  | | | | | |   108a1a: 20 07 00 04 00 04 f6 08                         [ .......]
  | | | | | | ColorTempFluorescent = 3733
  | | | | | | - Tag 0x0098 (2 bytes, int16s[1]):
  | | | | | |   108a22: 95 0e                                           [..]
  | | | | | | WB_RGGBLevelsKelvin = 2093 1024 1024 1672
  | | | | | | - Tag 0x0099 (8 bytes, int16s[4]):
  | | | | | |   108a24: 2d 08 00 04 00 04 88 06                         [-.......]
  | | | | | | ColorTempKelvin = 5188
  | | | | | | - Tag 0x009d (2 bytes, int16s[1]):
  | | | | | |   108a2c: 44 14                                           [D.]
  | | | | | | WB_RGGBLevelsFlash = 2310 1024 1024 1547
  | | | | | | - Tag 0x009e (8 bytes, int16s[4]):
  | | | | | |   108a2e: 06 09 00 04 00 04 0b 06                         [........]
  | | | | | | ColorTempFlash = 6172
  | | | | | | - Tag 0x00a2 (2 bytes, int16s[1]):
  | | | | | |   108a36: 1c 18                                           [..]
  | | | | | | WB_RGGBLevelsUnknown11 = 2093 1024 1024 1672
  | | | | | | - Tag 0x00a3 (8 bytes, int16s[4]):
  | | | | | |   108a38: 2d 08 00 04 00 04 88 06                         [-.......]
  | | | | | | ColorTempUnknown11 = 5188
  | | | | | | - Tag 0x00a7 (2 bytes, int16s[1]):
  | | | | | |   108a40: 44 14                                           [D.]
  | | | | | | WB_RGGBLevelsUnknown12 = 2093 1024 1024 1672
  | | | | | | - Tag 0x00a8 (8 bytes, int16s[4]):
  | | | | | |   108a42: 2d 08 00 04 00 04 88 06                         [-.......]
  | | | | | | ColorTempUnknown12 = 5188
  | | | | | | - Tag 0x00ac (2 bytes, int16s[1]):
  | | | | | |   108a4a: 44 14                                           [D.]
  | | | | | | WB_RGGBLevelsUnknown13 = 2093 1024 1024 1672
  | | | | | | - Tag 0x00ad (8 bytes, int16s[4]):
  | | | | | |   108a4c: 2d 08 00 04 00 04 88 06                         [-.......]
  | | | | | | ColorTempUnknown13 = 5188
  | | | | | | - Tag 0x00b1 (2 bytes, int16s[1]):
  | | | | | |   108a54: 44 14                                           [D.]
  | | | | | | WB_RGGBLevelsUnknown14 = 2093 1024 1024 1672
  | | | | | | - Tag 0x00b2 (8 bytes, int16s[4]):
  | | | | | |   108a56: 2d 08 00 04 00 04 88 06                         [-.......]
  | | | | | | ColorTempUnknown14 = 5188
  | | | | | | - Tag 0x00b6 (2 bytes, int16s[1]):
  | | | | | |   108a5e: 44 14                                           [D.]
  | | | | | | WB_RGGBLevelsUnknown15 = 2093 1024 1024 1672
  | | | | | | - Tag 0x00b7 (8 bytes, int16s[4]):
  | | | | | |   108a60: 2d 08 00 04 00 04 88 06                         [-.......]
  | | | | | | ColorTempUnknown15 = 5188
  | | | | | | - Tag 0x00bb (2 bytes, int16s[1]):
  | | | | | |   108a68: 44 14                                           [D.]
  | | | | | | WB_RGGBLevelsUnknown16 = 993 1024 1024 1025
  | | | | | | - Tag 0x00bc (8 bytes, int16s[4]):
  | | | | | |   108a6a: e1 03 00 04 00 04 01 04                         [........]
  | | | | | | ColorTempUnknown16 = 4209
  | | | | | | - Tag 0x00c0 (2 bytes, int16s[1]):
  | | | | | |   108a72: 71 10                                           [q.]
  | | | | | | WB_RGGBLevelsUnknown17 = 993 1024 1024 1025
  | | | | | | - Tag 0x00c1 (8 bytes, int16s[4]):
  | | | | | |   108a74: e1 03 00 04 00 04 01 04                         [........]
  | | | | | | ColorTempUnknown17 = 4209
  | | | | | | - Tag 0x00c5 (2 bytes, int16s[1]):
  | | | | | |   108a7c: 71 10                                           [q.]
  | | | | | | WB_RGGBLevelsUnknown18 = 993 1024 1024 1025
  | | | | | | - Tag 0x00c6 (8 bytes, int16s[4]):
  | | | | | |   108a7e: e1 03 00 04 00 04 01 04                         [........]
  | | | | | | ColorTempUnknown18 = 4209
  | | | | | | - Tag 0x00ca (2 bytes, int16s[1]):
  | | | | | |   108a86: 71 10                                           [q.]
  | | | | | | WB_RGGBLevelsUnknown19 = 993 1024 1024 1025
  | | | | | | - Tag 0x00cb (8 bytes, int16s[4]):
  | | | | | |   108a88: e1 03 00 04 00 04 01 04                         [........]
  | | | | | | ColorTempUnknown19 = 4209
  | | | | | | - Tag 0x00cf (2 bytes, int16s[1]):
  | | | | | |   108a90: 71 10                                           [q.]
  | | | | | | WB_RGGBLevelsUnknown20 = 993 1024 1024 1025
  | | | | | | - Tag 0x00d0 (8 bytes, int16s[4]):
  | | | | | |   108a92: e1 03 00 04 00 04 01 04                         [........]
  | | | | | | ColorTempUnknown20 = 4209
  | | | | | | - Tag 0x00d4 (2 bytes, int16s[1]):
  | | | | | |   108a9a: 71 10                                           [q.]
  | | | | | | ColorCalib (SubDirectory) -->
  | | | | | | - Tag 0x00d5 (120 bytes, undef[120]):
  | | | | | |   108a9c: e1 fe 7d 01 48 03 94 2a f4 fe 86 01 30 03 10 27 [..}.H..*....0..']
  | | | | | |   108aac: 1c ff 9a 01 03 03 6c 20 45 ff b1 01 d7 02 58 1b [......l E.....X.]
  | | | | | |   108abc: 79 ff d2 01 a5 02 70 17 92 ff e2 01 8d 02 e0 15 [y.....p.........]
  | | | | | |   108acc: ae ff f5 01 73 02 50 14 db ff 10 02 4a 02 5c 12 [....s.P.....J.\.]
  | | | | | |   108adc: 12 00 39 02 1e 02 68 10 46 00 63 02 f8 01 d8 0e [..9...h.F.c.....]
  | | | | | |   108aec: 78 00 8f 02 d7 01 ac 0d b3 00 c8 02 b1 01 80 0c [x...............]
  | | | | | |   108afc: e2 00 f4 02 92 01 b8 0b 0f 01 29 03 7d 01 f0 0a [..........).}...]
  | | | | | |   108b0c: 80 01 b8 03 48 01 60 09                         [....H.`.]
  | | | | | | + [BinaryData directory, 120 bytes, Little-endian]
  | | | | | | | CameraColorCalibration01 = -287 381 840 10900
  | | | | | | | - Tag 0x0000 (8 bytes, int16s[4]):
  | | | | | | |   108a9c: e1 fe 7d 01 48 03 94 2a                         [..}.H..*]
  | | | | | | | CameraColorCalibration02 = -268 390 816 10000
  | | | | | | | - Tag 0x0004 (8 bytes, int16s[4]):
  | | | | | | |   108aa4: f4 fe 86 01 30 03 10 27                         [....0..']
  | | | | | | | CameraColorCalibration03 = -228 410 771 8300
  | | | | | | | - Tag 0x0008 (8 bytes, int16s[4]):
  | | | | | | |   108aac: 1c ff 9a 01 03 03 6c 20                         [......l ]
  | | | | | | | CameraColorCalibration04 = -187 433 727 7000
  | | | | | | | - Tag 0x000c (8 bytes, int16s[4]):
  | | | | | | |   108ab4: 45 ff b1 01 d7 02 58 1b                         [E.....X.]
  | | | | | | | CameraColorCalibration05 = -135 466 677 6000
  | | | | | | | - Tag 0x0010 (8 bytes, int16s[4]):
  | | | | | | |   108abc: 79 ff d2 01 a5 02 70 17                         [y.....p.]
  | | | | | | | CameraColorCalibration06 = -110 482 653 5600
  | | | | | | | - Tag 0x0014 (8 bytes, int16s[4]):
  | | | | | | |   108ac4: 92 ff e2 01 8d 02 e0 15                         [........]
  | | | | | | | CameraColorCalibration07 = -82 501 627 5200
  | | | | | | | - Tag 0x0018 (8 bytes, int16s[4]):
  | | | | | | |   108acc: ae ff f5 01 73 02 50 14                         [....s.P.]
  | | | | | | | CameraColorCalibration08 = -37 528 586 4700
  | | | | | | | - Tag 0x001c (8 bytes, int16s[4]):
  | | | | | | |   108ad4: db ff 10 02 4a 02 5c 12                         [....J.\.]
  | | | | | | | CameraColorCalibration09 = 18 569 542 4200
  | | | | | | | - Tag 0x0020 (8 bytes, int16s[4]):
  | | | | | | |   108adc: 12 00 39 02 1e 02 68 10                         [..9...h.]
  | | | | | | | CameraColorCalibration10 = 70 611 504 3800
  | | | | | | | - Tag 0x0024 (8 bytes, int16s[4]):
  | | | | | | |   108ae4: 46 00 63 02 f8 01 d8 0e                         [F.c.....]
  | | | | | | | CameraColorCalibration11 = 120 655 471 3500
  | | | | | | | - Tag 0x0028 (8 bytes, int16s[4]):
  | | | | | | |   108aec: 78 00 8f 02 d7 01 ac 0d                         [x.......]
  | | | | | | | CameraColorCalibration12 = 179 712 433 3200
  | | | | | | | - Tag 0x002c (8 bytes, int16s[4]):
  | | | | | | |   108af4: b3 00 c8 02 b1 01 80 0c                         [........]
  | | | | | | | CameraColorCalibration13 = 226 756 402 3000
  | | | | | | | - Tag 0x0030 (8 bytes, int16s[4]):
  | | | | | | |   108afc: e2 00 f4 02 92 01 b8 0b                         [........]
  | | | | | | | CameraColorCalibration14 = 271 809 381 2800
  | | | | | | | - Tag 0x0034 (8 bytes, int16s[4]):
  | | | | | | |   108b04: 0f 01 29 03 7d 01 f0 0a                         [..).}...]
  | | | | | | | CameraColorCalibration15 = 384 952 328 2400
  | | | | | | | - Tag 0x0038 (8 bytes, int16s[4]):
  | | | | | | |   108b0c: 80 01 b8 03 48 01 60 09                         [....H.`.]
  | | | | | | AverageBlackLevel = 2049 2049 2049 2049
  | | | | | | - Tag 0x0114 (8 bytes, int16u[4]):
  | | | | | |   108b1a: 01 08 01 08 01 08 01 08                         [........]
  | | | | | | FlashOutput = 0
  | | | | | | - Tag 0x0198 (2 bytes, int16s[1]):
  | | | | | |   108c22: 00 00                                           [..]
  | | | | | | FlashBatteryLevel = 0
  | | | | | | - Tag 0x0199 (2 bytes, int16s[1]):
  | | | | | |   108c24: 00 00                                           [..]
  | | | | | | RawMeasuredRGGB = 1748762625 1803419650 1836777474 929562625
  | | | | | | - Tag 0x01ad (16 bytes, int32u[4]):
  | | | | | |   108c4c: 01 00 3c 68 02 00 7e 6b 02 00 7b 6d 01 00 68 37 [..<h..~k..{m..h7]
  | | | | | | PerChannelBlackLevel = 2049 2049 2049 2049
  | | | | | | - Tag 0x01f8 (8 bytes, int16u[4]):
  | | | | | |   108ce2: 01 08 01 08 01 08 01 08                         [........]
  | | | | | | NormalWhiteLevel = 14580
  | | | | | | - Tag 0x01fc (2 bytes, int16u[1]):
  | | | | | |   108cea: f4 38                                           [.8]
  | | | | | | SpecularWhiteLevel = 15092
  | | | | | | - Tag 0x01fd (2 bytes, int16u[1]):
  | | | | | |   108cec: f4 3a                                           [.:]
  | | | | | | LinearityUpperMargin = 10000
  | | | | | | - Tag 0x01fe (2 bytes, int16u[1]):
  | | | | | |   108cee: 10 27                                           [.']
  | | | | | 26) PictureStyleUserDef = 135 135 135
  | | | | |     - Tag 0x4008 (6 bytes, int16u[3]):
  | | | | |       109334: 87 00 87 00 87 00                               [......]
  | | | | | 27) PictureStylePC = 0 0 0
  | | | | |     - Tag 0x4009 (6 bytes, int16u[3]):
  | | | | |       10933a: 00 00 00 00 00 00                               [......]
  | | | | | 28) CustomPictureStyleFileName = 
  | | | | |     - Tag 0x4010 (32 bytes, string[32]):
  | | | | |       109340: 00 00 00 00 00 00 00 00 00 00 00 00 00 00 00 00 [................]
  | | | | |       109350: 00 00 00 00 00 00 00 00 00 00 00 00 00 00 00 00 [................]
  | | | | | 29) Canon_0x4011 = 
  | | | | |     - Tag 0x4011 (252 bytes, undef[252]):
  | | | | |       109360: 00 00 00 00 00 00 00 00 00 00 00 00 00 00 00 00 [................]
  | | | | |       109370: 00 00 00 00 00 00 00 00 00 00 00 00 00 00 00 00 [................]
  | | | | |       109380: 00 00 00 00 00 00 00 00 00 00 00 00 00 00 00 00 [................]
  | | | | |       109390: 00 00 00 00 00 00 00 00 00 00 00 00 00 00 00 00 [................]
  | | | | |       1093a0: 00 00 00 00 00 00 00 00 00 00 00 00 00 00 00 00 [................]
  | | | | |       1093b0: 00 00 00 00 00 00 00 00 00 00 00 00 00 00 00 00 [................]
  | | | | |       1093c0: 00 00 00 00 00 00 00 00 00 00 00 00 00 00 00 00 [................]
  | | | | |       1093d0: 00 00 00 00 00 00 00 00 00 00 00 00 00 00 00 00 [................]
  | | | | |       1093e0: 00 00 00 00 00 00 00 00 00 00 00 00 00 00 00 00 [................]
  | | | | |       1093f0: 00 00 00 00 00 00 00 00 00 00 00 00 00 00 00 00 [................]
  | | | | |       109400: 00 00 00 00 00 00 00 00 00 00 00 00 00 00 00 00 [................]
  | | | | |       109410: 00 00 00 00 00 00 00 00 00 00 00 00 00 00 00 00 [................]
  | | | | |       109420: 00 00 00 00 00 00 00 00 00 00 00 00 00 00 00 00 [................]
  | | | | |       109430: 00 00 00 00 00 00 00 00 00 00 00 00 00 00 00 00 [................]
  | | | | |       109440: 00 00 00 00 00 00 00 00 00 00 00 00 00 00 00 00 [................]
  | | | | |       109450: 00 00 00 00 00 00 00 00 00 00 00 00             [............]
  | | | | | 30) Canon_0x4012 = 
  | | | | |     - Tag 0x4012 (32 bytes, string[32]):
  | | | | |       10945c: 00 00 00 00 00 00 00 00 00 00 00 00 00 00 00 00 [................]
  | | | | |       10946c: 00 00 00 00 00 00 00 00 00 00 00 00 00 00 00 00 [................]
  | | | | | 31) AFMicroAdj (SubDirectory) -->
  | | | | |     - Tag 0x4013 (44 bytes, int32u[11] read as undef[44]):
  | | | | |       10947c: 2c 00 00 00 00 00 00 00 00 00 00 00 0a 00 00 00 [,...............]
  | | | | |       10948c: ff ff ff ff 00 00 00 00 0a 00 00 00 00 00 00 00 [................]
  | | | | |       10949c: 0a 00 00 00 00 00 00 00 0a 00 00 00             [............]
  | | | | | + [BinaryData directory, 44 bytes, Little-endian]
  | | | | | | AFMicroAdjMode = 0
  | | | | | | - Tag 0x0001 (4 bytes, int32s[1]):
  | | | | | |   109480: 00 00 00 00                                     [....]
  | | | | | | AFMicroAdjValue = 0
  | | | | | | - Tag 0x0002 (8 bytes, rational64s[1]):
  | | | | | |   109484: 00 00 00 00 0a 00 00 00                         [........]
  | | | | | 32) VignettingCorr (SubDirectory) -->
  | | | | |     - Tag 0x4015 (456 bytes, undef[456]):
  | | | | |       1094a8: 00 21 c8 01 00 00 00 00 00 00 00 00 00 00 00 00 [.!..............]
  | | | | |       1094b8: 00 00 00 00 04 10 60 15 40 0e ff 1f d1 1e 3f 1d [......`.@.....?.]
  | | | | |       1094c8: f9 1b 8f 1a 5c 18 00 00 b2 03 ea 05 65 07 df 08 [....\.......e...]
  | | | | |       1094d8: 1a 0a 00 40 81 40 be 40 dc 40 d6 40 cf 40 00 40 [...@.@.@.@.@.@.@]
  | | | | |       1094e8: ea 3f fc 3f 47 40 a6 40 cf 40 00 00 b2 03 ea 05 [.?.?G@.@.@......]
  | | | | |       1094f8: 22 08 9d 09 1a 0a e4 3f cf 3f b2 3f 93 3f 84 3f ["......?.?.?.?.?]
  | | | | |       109508: 81 3f 00 00 b2 03 ea 05 22 08 9d 09 1a 0a 00 00 [.?......".......]
  | | | | |       109518: 00 00 00 00 00 00 00 00 00 00 00 00 00 00 00 00 [................]
  | | | | |       109528: 00 00 00 00 00 00 00 00 00 00 00 00 00 00 00 00 [................]
  | | | | |       109538: 00 00 00 00 00 00 00 00 00 00 00 00 00 00 00 00 [................]
  | | | | |       109548: 00 00 00 00 00 00 00 00 00 00 00 00 00 00 00 00 [................]
  | | | | |       109558: 00 00 00 00 00 00 00 00 00 00 00 00 00 00 00 00 [................]
  | | | | |       109568: 00 00 00 00 00 00 00 00 00 00 00 00 00 00 00 00 [................]
  | | | | |       109578: 00 00 00 00 00 00 00 00 00 00 00 00 00 00 00 00 [................]
  | | | | |       109588: 00 00 00 00 00 00 00 00 00 00 00 00 00 00 00 00 [................]
  | | | | |       109598: 00 00 00 00 00 00 00 00 00 00 00 00 00 00 00 00 [................]
  | | | | |       1095a8: 00 00 00 00 00 00 00 00 00 00 00 00 00 00 00 00 [................]
  | | | | |       1095b8: 00 00 00 00 00 00 00 00 00 00 00 00 00 00 00 00 [................]
  | | | | |       1095c8: 00 00 00 00 00 00 00 00 00 00 00 00 00 00 00 00 [................]
  | | | | |       1095d8: 00 00 00 00 00 00 00 00 00 00 00 00 00 00 00 00 [................]
  | | | | |       1095e8: 00 00 00 00 00 00 00 00 00 00 00 00 00 00 00 00 [................]
  | | | | |       1095f8: 00 00 00 00 00 00 00 00 00 00 00 00 00 00 00 00 [................]
  | | | | |       109608: 00 00 00 00 00 00 00 00 00 00 00 00 00 00 00 00 [................]
  | | | | |       109618: 00 00 00 00 00 00 00 00 00 00 00 00 00 00 00 00 [................]
  | | | | |       109628: 00 00 00 00 00 00 00 00 00 00 00 00 00 00 00 00 [................]
  | | | | |       109638: 00 00 00 00 00 00 00 00 00 00 00 00 00 00 00 00 [................]
  | | | | |       109648: 00 00 00 00 00 00 00 00 00 00 00 00 00 00 00 00 [................]
  | | | | |       109658: 00 00 00 00 00 00 00 00 00 00 00 00 00 00 00 00 [................]
  | | | | |       109668: 00 00 00 00 32 00 00 00                         [....2...]
  | | | | | + [BinaryData directory, 456 bytes, Little-endian]
  | | | | | | PeripheralLighting = 0
  | | | | | | - Tag 0x0002 (2 bytes, int16s[1]):
  | | | | | |   1094ac: 00 00                                           [..]
  | | | | | | DistortionCorrection = 0
  | | | | | | - Tag 0x0003 (2 bytes, int16s[1]):
  | | | | | |   1094ae: 00 00                                           [..]
  | | | | | | ChromaticAberrationCorr = 0
  | | | | | | - Tag 0x0004 (2 bytes, int16s[1]):
  | | | | | |   1094b0: 00 00                                           [..]
  | | | | | | ChromaticAberrationCorr = 0
  | | | | | | - Tag 0x0005 (2 bytes, int16s[1]):
  | | | | | |   1094b2: 00 00                                           [..]
  | | | | | | PeripheralLightingValue = 0
  | | | | | | - Tag 0x0006 (2 bytes, int16s[1]):
  | | | | | |   1094b4: 00 00                                           [..]
  | | | | | | DistortionCorrectionValue = 0
  | | | | | | - Tag 0x0009 (2 bytes, int16s[1]):
  | | | | | |   1094ba: 00 00                                           [..]
  | | | | | | OriginalImageWidth = 5472
  | | | | | | - Tag 0x000b (2 bytes, int16s[1]):
  | | | | | |   1094be: 60 15                                           [`.]
  | | | | | | OriginalImageHeight = 3648
  | | | | | | - Tag 0x000c (2 bytes, int16s[1]):
  | | | | | |   1094c0: 40 0e                                           [@.]
  | | | | | 33) VignettingCorr2 (SubDirectory) -->
  | | | | |     - Tag 0x4016 (28 bytes, int32u[7] read as undef[28]):
  | | | | |       109670: 1c 00 00 00 00 00 00 00 01 00 00 00 00 00 00 00 [................]
  | | | | |       109680: 01 00 00 00 00 00 00 00 00 00 00 00             [............]
  | | | | | + [BinaryData directory, 28 bytes, Little-endian]
  | | | | | | PeripheralLightingSetting = 0
  | | | | | | - Tag 0x0005 (4 bytes, int32s[1]):
  | | | | | |   109684: 00 00 00 00                                     [....]
  | | | | | | ChromaticAberrationSetting = 0
  | | | | | | - Tag 0x0006 (4 bytes, int32s[1]):
  | | | | | |   109688: 00 00 00 00                                     [....]
  | | | | | 34) LightingOpt (SubDirectory) -->
  | | | | |     - Tag 0x4018 (28 bytes, int32u[7] read as undef[28]):
  | | | | |       10968c: 1c 00 00 00 00 00 00 00 00 00 00 00 00 00 00 00 [................]
  | | | | |       10969c: 00 00 00 00 00 00 00 00 01 00 00 00             [............]
  | | | | | + [BinaryData directory, 28 bytes, Little-endian]
  | | | | | | PeripheralIlluminationCorr = 0
  | | | | | | - Tag 0x0001 (4 bytes, int32s[1]):
  | | | | | |   109690: 00 00 00 00                                     [....]
  | | | | | | AutoLightingOptimizer = 0
  | | | | | | - Tag 0x0002 (4 bytes, int32s[1]):
  | | | | | |   109694: 00 00 00 00                                     [....]
  | | | | | | HighlightTonePriority = 0
  | | | | | | - Tag 0x0003 (4 bytes, int32s[1]):
  | | | | | |   109698: 00 00 00 00                                     [....]
  | | | | | | LongExposureNoiseReduction = 0
  | | | | | | - Tag 0x0004 (4 bytes, int32s[1]):
  | | | | | |   10969c: 00 00 00 00                                     [....]
  | | | | | | HighISONoiseReduction = 0
  | | | | | | - Tag 0x0005 (4 bytes, int32s[1]):
  | | | | | |   1096a0: 00 00 00 00                                     [....]
  | | | | | 35) LensInfo (SubDirectory) -->
  | | | | |     - Tag 0x4019 (30 bytes, undef[30]):
  | | | | |       1096a8: 00 00 21 4e 1c 00 00 00 00 00 00 00 00 00 00 00 [..!N............]
  | | | | |       1096b8: 00 00 00 00 00 00 00 00 00 00 00 00 00 00       [..............]
  | | | | | + [BinaryData directory, 30 bytes, Little-endian]
  | | | | | | LensSerialNumber = !N.
  | | | | | | - Tag 0x0000 (5 bytes, undef[5]):
  | | | | | |   1096a8: 00 00 21 4e 1c                                  [..!N.]
  | | | | | 36) AmbienceInfo (SubDirectory) -->
  | | | | |     - Tag 0x4020 (28 bytes, int32u[7] read as undef[28]):
  | | | | |       1096c6: 1c 00 00 00 00 00 00 00 00 00 00 00 00 00 00 00 [................]
  | | | | |       1096d6: 00 00 00 00 ff ff ff 7f 00 00 00 00             [............]
  | | | | | + [BinaryData directory, 28 bytes, Little-endian]
  | | | | | | AmbienceSelection = 0
  | | | | | | - Tag 0x0001 (4 bytes, int32s[1]):
  | | | | | |   1096ca: 00 00 00 00                                     [....]
  | | | | | 37) MultiExp (SubDirectory) -->
  | | | | |     - Tag 0x4021 (20 bytes, int32u[5] read as undef[20]):
  | | | | |       1096e2: 14 00 00 00 00 00 00 00 00 00 00 00 00 00 00 00 [................]
  | | | | |       1096f2: 01 00 00 00                                     [....]
  | | | | | + [BinaryData directory, 20 bytes, Little-endian]
  | | | | | | MultiExposure = 0
  | | | | | | - Tag 0x0001 (4 bytes, int32s[1]):
  | | | | | |   1096e6: 00 00 00 00                                     [....]
  | | | | | | MultiExposureControl = 0
  | | | | | | - Tag 0x0002 (4 bytes, int32s[1]):
  | | | | | |   1096ea: 00 00 00 00                                     [....]
  | | | | | | MultiExposureShots = 0
  | | | | | | - Tag 0x0003 (4 bytes, int32s[1]):
  | | | | | |   1096ee: 00 00 00 00                                     [....]
  | | | | | 38) FilterInfo (SubDirectory) -->
  | | | | |     - Tag 0x4024 (212 bytes, int32u[53] read as undef[212]):
  | | | | |       1096f6: d4 00 00 00 07 00 00 00 01 00 00 00 14 00 00 00 [................]
  | | | | |       109706: 01 00 00 00 01 01 00 00 01 00 00 00 ff ff ff ff [................]
  | | | | |       109716: 02 00 00 00 14 00 00 00 01 00 00 00 01 02 00 00 [................]
  | | | | |       109726: 01 00 00 00 ff ff ff ff 03 00 00 00 14 00 00 00 [................]
  | | | | |       109736: 01 00 00 00 01 03 00 00 01 00 00 00 ff ff ff ff [................]
  | | | | |       109746: 04 00 00 00 38 00 00 00 04 00 00 00 01 04 00 00 [....8...........]
  | | | | |       109756: 01 00 00 00 ff ff ff ff 02 04 00 00 01 00 00 00 [................]
  | | | | |       109766: 00 00 00 00 03 04 00 00 01 00 00 00 00 00 00 00 [................]
  | | | | |       109776: 04 04 00 00 01 00 00 00 00 00 00 00 05 00 00 00 [................]
  | | | | |       109786: 14 00 00 00 01 00 00 00 01 05 00 00 01 00 00 00 [................]
  | | | | |       109796: ff ff ff ff 06 00 00 00 14 00 00 00 01 00 00 00 [................]
  | | | | |       1097a6: 01 06 00 00 01 00 00 00 ff ff ff ff 07 00 00 00 [................]
  | | | | |       1097b6: 14 00 00 00 01 00 00 00 01 07 00 00 01 00 00 00 [................]
  | | | | |       1097c6: ff ff ff ff                                     [....]
  | | | | | + [Creative Filter directory with 7 entries]
  | | | | | + [Filter 1 directory with 1 entries, 20 bytes]
  | | | | | | GrainyBWFilter = -1
  | | | | | | - Tag 0x0101 (4 bytes):
  | | | | | |     2208: ff ff ff ff                                     [....]
  | | | | | + [Filter 2 directory with 1 entries, 20 bytes]
  | | | | | | SoftFocusFilter = -1
  | | | | | | - Tag 0x0201 (4 bytes):
  | | | | | |     2220: ff ff ff ff                                     [....]
  | | | | | + [Filter 3 directory with 1 entries, 20 bytes]
  | | | | | | ToyCameraFilter = -1
  | | | | | | - Tag 0x0301 (4 bytes):
  | | | | | |     2238: ff ff ff ff                                     [....]
  | | | | | + [Filter 4 directory with 4 entries, 56 bytes]
  | | | | | | MiniatureFilter = -1
  | | | | | | - Tag 0x0401 (4 bytes):
  | | | | | |     2250: ff ff ff ff                                     [....]
  | | | | | | MiniatureFilterOrientation = 0
  | | | | | | - Tag 0x0402 (4 bytes):
  | | | | | |     225c: 00 00 00 00                                     [....]
  | | | | | | MiniatureFilterPosition = 0
  | | | | | | - Tag 0x0403 (4 bytes):
  | | | | | |     2268: 00 00 00 00                                     [....]
  | | | | | | MiniatureFilterParameter = 0
  | | | | | | - Tag 0x0404 (4 bytes):
  | | | | | |     2274: 00 00 00 00                                     [....]
  | | | | | + [Filter 5 directory with 1 entries, 20 bytes]
  | | | | | | FisheyeFilter = -1
  | | | | | | - Tag 0x0501 (4 bytes):
  | | | | | |     228c: ff ff ff ff                                     [....]
  | | | | | + [Filter 6 directory with 1 entries, 20 bytes]
  | | | | | | PaintingFilter = -1
  | | | | | | - Tag 0x0601 (4 bytes):
  | | | | | |     22a4: ff ff ff ff                                     [....]
  | | | | | + [Filter 7 directory with 1 entries, 20 bytes]
  | | | | | | WatercolorFilter = -1
  | | | | | | - Tag 0x0701 (4 bytes):
  | | | | | |     22bc: ff ff ff ff                                     [....]
  | | | | | 39) HDRInfo (SubDirectory) -->
  | | | | |     - Tag 0x4025 (36 bytes, int32u[9] read as undef[36]):
  | | | | |       1097ca: 24 00 00 00 00 00 00 00 00 00 00 00 00 00 00 00 [$...............]
  | | | | |       1097da: 00 00 00 00 00 00 00 00 00 00 00 00 00 00 00 00 [................]
  | | | | |       1097ea: 00 00 00 00                                     [....]
  | | | | | + [BinaryData directory, 36 bytes, Little-endian]
  | | | | | | HDR = 0
  | | | | | | - Tag 0x0001 (4 bytes, int32s[1]):
  | | | | | |   1097ce: 00 00 00 00                                     [....]
  | | | | | | HDREffect = 0
  | | | | | | - Tag 0x0002 (4 bytes, int32s[1]):
  | | | | | |   1097d2: 00 00 00 00                                     [....]
  | | | | | 40) Canon_0x4027 = 24 524546 2969567282 134217728 13684944 65539
  | | | | |     - Tag 0x4027 (24 bytes, int32u[6]):
  | | | | |       1097ee: 18 00 00 00 02 01 08 00 32 00 00 b1 00 00 00 08 [........2.......]
  | | | | |       1097fe: d0 d0 d0 00 03 00 01 00                         [........]
  | | | | 17) UserComment = 
  | | | |     - Tag 0x9286 (264 bytes, undef[264]):
  | | | |       10980e: 00 00 00 00 00 00 00 00 00 00 00 00 00 00 00 00 [................]
  | | | |       10981e: 00 00 00 00 00 00 00 00 00 00 00 00 00 00 00 00 [................]
  | | | |       10982e: 00 00 00 00 00 00 00 00 00 00 00 00 00 00 00 00 [................]
  | | | |       10983e: 00 00 00 00 00 00 00 00 00 00 00 00 00 00 00 00 [................]
  | | | |       10984e: 00 00 00 00 00 00 00 00 00 00 00 00 00 00 00 00 [................]
  | | | |       10985e: 00 00 00 00 00 00 00 00 00 00 00 00 00 00 00 00 [................]
  | | | |       10986e: 00 00 00 00 00 00 00 00 00 00 00 00 00 00 00 00 [................]
  | | | |       10987e: 00 00 00 00 00 00 00 00 00 00 00 00 00 00 00 00 [................]
  | | | |       10988e: 00 00 00 00 00 00 00 00 00 00 00 00 00 00 00 00 [................]
  | | | |       10989e: 00 00 00 00 00 00 00 00 00 00 00 00 00 00 00 00 [................]
  | | | |       1098ae: 00 00 00 00 00 00 00 00 00 00 00 00 00 00 00 00 [................]
  | | | |       1098be: 00 00 00 00 00 00 00 00 00 00 00 00 00 00 00 00 [................]
  | | | |       1098ce: 00 00 00 00 00 00 00 00 00 00 00 00 00 00 00 00 [................]
  | | | |       1098de: 00 00 00 00 00 00 00 00 00 00 00 00 00 00 00 00 [................]
  | | | |       1098ee: 00 00 00 00 00 00 00 00 00 00 00 00 00 00 00 00 [................]
  | | | |       1098fe: 00 00 00 00 00 00 00 00 00 00 00 00 00 00 00 00 [................]
  | | | |       10990e: 00 00 00 00 00 00 00 00                         [........]
  | | | | 18) SubSecTime = 00
  | | | |     - Tag 0x9290 (3 bytes, string[3]):
  | | | |       1076c2: 30 30 00                                        [00.]
  | | | | 19) SubSecTimeOriginal = 00
  | | | |     - Tag 0x9291 (3 bytes, string[3]):
  | | | |       1076ce: 30 30 00                                        [00.]
  | | | | 20) SubSecTimeDigitized = 00
  | | | |     - Tag 0x9292 (3 bytes, string[3]):
  | | | |       1076da: 30 30 00                                        [00.]
  | | | | 21) FlashpixVersion = 0100
  | | | |     - Tag 0xa000 (4 bytes, undef[4]):
  | | | |       1076e6: 30 31 30 30                                     [0100]
  | | | | 22) ColorSpace = 1
  | | | |     - Tag 0xa001 (2 bytes, int16u[1]):
  | | | |       1076f2: 01 00                                           [..]
  | | | | 23) ExifImageWidth = 5472
  | | | |     - Tag 0xa002 (2 bytes, int16u[1]):
  | | | |       1076fe: 60 15                                           [`.]
  | | | | 24) ExifImageHeight = 3648
  | | | |     - Tag 0xa003 (2 bytes, int16u[1]):
  | | | |       10770a: 40 0e                                           [@.]
  | | | | 25) InteropOffset (SubDirectory) -->
  | | | |     - Tag 0xa005 (4 bytes, int32u[1]):
  | | | |       107716: 68 24 00 00                                     [h$..]
  | | | | + [InteropIFD directory with 2 entries, Little-endian]
  | | | | | 0)  InteropIndex = R98
  | | | | |     - Tag 0x0001 (4 bytes, string[4]):
  | | | | |       10997c: 52 39 38 00                                     [R98.]
  | | | | | 1)  InteropVersion = 0100
  | | | | |     - Tag 0x0002 (4 bytes, undef[4]):
  | | | | |       109988: 30 31 30 30                                     [0100]
  | | | | 26) FocalPlaneXResolution = 6086.76307 (5472000/899)
  | | | |     - Tag 0xa20e (8 bytes, rational64u[1]):
  | | | |       109916: 00 7f 53 00 83 03 00 00                         [..S.....]
  | | | | 27) FocalPlaneYResolution = 6090.15025 (3648000/599)
  | | | |     - Tag 0xa20f (8 bytes, rational64u[1]):
  | | | |       10991e: 00 aa 37 00 57 02 00 00                         [..7.W...]
  | | | | 28) FocalPlaneResolutionUnit = 2
  | | | |     - Tag 0xa210 (2 bytes, int16u[1]):
  | | | |       10773a: 02 00                                           [..]
  | | | | 29) CustomRendered = 0
  | | | |     - Tag 0xa401 (2 bytes, int16u[1]):
  | | | |       107746: 00 00                                           [..]
  | | | | 30) ExposureMode = 0
  | | | |     - Tag 0xa402 (2 bytes, int16u[1]):
  | | | |       107752: 00 00                                           [..]
  | | | | 31) WhiteBalance = 0
  | | | |     - Tag 0xa403 (2 bytes, int16u[1]):
  | | | |       10775e: 00 00                                           [..]
  | | | | 32) SceneCaptureType = 0
  | | | |     - Tag 0xa406 (2 bytes, int16u[1]):
  | | | |       10776a: 00 00                                           [..]
  | | | | 33) OwnerName = 
  | | | |     - Tag 0xa430 (1 bytes, string[1]):
  | | | |       107776: 00                                              [.]
  | | | | 34) SerialNumber = 053022005903
  | | | |     - Tag 0xa431 (13 bytes, string[13]):
  | | | |       109926: 30 35 33 30 32 32 30 30 35 39 30 33 00          [053022005903.]
  | | | | 35) LensInfo = 50 50 0 0 (50/1 50/1 0/1 0/1)
  | | | |     - Tag 0xa432 (32 bytes, rational64u[4]):
  | | | |       109934: 32 00 00 00 01 00 00 00 32 00 00 00 01 00 00 00 [2.......2.......]
  | | | |       109944: 00 00 00 00 01 00 00 00 00 00 00 00 01 00 00 00 [................]
  | | | | 36) LensModel = EF50mm f/1.8 STM
  | | | |     - Tag 0xa434 (17 bytes, string[17]):
  | | | |       109954: 45 46 35 30 6d 6d 20 66 2f 31 2e 38 20 53 54 4d [EF50mm f/1.8 STM]
  | | | |       109964: 00                                              [.]
  | | | | 37) LensSerialNumber = 0000214e1c
  | | | |     - Tag 0xa435 (11 bytes, string[11]):
  | | | |       109966: 30 30 30 30 32 31 34 65 31 63 00                [0000214e1c.]
  | | | 11) GPSInfo (SubDirectory) -->
  | | |     - Tag 0x8825 (4 bytes, int32u[1]):
  | | |       1075a0: 86 24 00 00                                     [.$..]
  | | | + [GPS directory with 1 entries, Little-endian]
  | | | | 0)  GPSVersionID = 2 3 0 0
  | | | |     - Tag 0x0000 (4 bytes, int8u[4]):
  | | | |       10999a: 02 03 00 00                                     [....]
  | | + [IFD1 directory with 6 entries, Little-endian]
  | | | 0)  Compression = 6
  | | |     - Tag 0x0103 (2 bytes, int16u[1]):
  | | |       1099ac: 06 00                                           [..]
  | | | 1)  XResolution = 72 (72/1)
  | | |     - Tag 0x011a (8 bytes, rational64u[1]):
  | | |       1099f0: 48 00 00 00 01 00 00 00                         [H.......]
  | | | 2)  YResolution = 72 (72/1)
  | | |     - Tag 0x011b (8 bytes, rational64u[1]):
  | | |       1099f8: 48 00 00 00 01 00 00 00                         [H.......]
  | | | 3)  ResolutionUnit = 2
  | | |     - Tag 0x0128 (2 bytes, int16u[1]):
  | | |       1099d0: 02 00                                           [..]
  | | | 4)  ThumbnailOffset = 9462
  | | |     - Tag 0x0201 (4 bytes, int32u[1]):
  | | |       1099dc: f6 24 00 00                                     [.$..]
  | | | 5)  ThumbnailLength = 8567
  | | |     - Tag 0x0202 (4 bytes, int32u[1]):
  | | |       1099e8: 77 21 00 00                                     [w!..]
  | Item 3) 'application/rdf+xml' (2781 bytes)
  |   10bb78: 3c 3f 78 70 61 63 6b 65 74 20 62 65 67 69 6e 3d [<?xpacket begin=]
  |   10bb88: 27 ef bb bf 27 20 69 64 3d 27 57 35 4d 30 4d 70 ['...' id='W5M0Mp]
  |   10bb98: 43 65 68 69 48 7a 72 65 53 7a 4e 54 63 7a 6b 63 [CehiHzreSzNTczkc]
  |   10bba8: 39 64 27 3f 3e 0a 3c 78 3a 78 6d 70 6d 65 74 61 [9d'?>.<x:xmpmeta]
  |   10bbb8: 20 78 6d 6c 6e 73 3a 78 3d 27 61 64 6f 62 65 3a [ xmlns:x='adobe:]
  |   10bbc8: 6e 73 3a 6d 65 74 61 2f 27 20 78 3a 78 6d 70 74 [ns:meta/' x:xmpt]
  |   10bbd8: 6b 3d 27 49 6d 61 67 65 3a 3a 45 78 69 66 54 6f [k='Image::ExifTo]
  |   10bbe8: 6f 6c 20 31 32 2e 32 37 27 3e 0a 3c 72 64 66 3a [ol 12.27'>.<rdf:]
  |   10bbf8: 52 44 46 20 78 6d 6c 6e 73 3a 72 64 66 3d 27 68 [RDF xmlns:rdf='h]
  |   10bc08: 74 74 70 3a 2f 2f 77 77 77 2e 77 33 2e 6f 72 67 [ttp://www.w3.org]
  |   10bc18: 2f 31 39 39 39 2f 30 32 2f 32 32 2d 72 64 66 2d [/1999/02/22-rdf-]
  |   10bc28: 73 79 6e 74 61 78 2d 6e 73 23 27 3e 0a 0a 20 3c [syntax-ns#'>.. <]
  |   10bc38: 72 64 66 3a 44 65 73 63 72 69 70 74 69 6f 6e 20 [rdf:Description ]
  |   10bc48: 72 64 66 3a 61 62 6f 75 74 3d 27 27 0a 20 20 78 [rdf:about=''.  x]
  |   10bc58: 6d 6c 6e 73 3a 78 6d 70 3d 27 68 74 74 70 3a 2f [mlns:xmp='http:/]
  |   10bc68: 2f 6e 73 2e 61 64 6f 62 65 2e 63 6f 6d 2f 78 61 [/ns.adobe.com/xa]
  |   10bc78: 70 2f 31 2e 30 2f 27 3e 0a 20 20 3c 78 6d 70 3a [p/1.0/'>.  <xmp:]
  |   10bc88: 52 61 74 69 6e 67 3e 30 3c 2f 78 6d 70 3a 52 61 [Rating>0</xmp:Ra]
  |   10bc98: 74 69 6e 67 3e 0a 20 3c 2f 72 64 66 3a 44 65 73 [ting>. </rdf:Des]
  |   10bca8: 63 72 69 70 74 69 6f 6e 3e 0a 3c 2f 72 64 66 3a [cription>.</rdf:]
  |   10bcb8: 52 44 46 3e 0a 3c 2f 78 3a 78 6d 70 6d 65 74 61 [RDF>.</x:xmpmeta]
  |   10bcc8: 3e 0a 20 20 20 20 20 20 20 20 20 20 20 20 20 20 [>.              ]
  |   10bcd8: 20 20 20 20 20 20 20 20 20 20 20 20 20 20 20 20 [                ]
  |   10bce8: 20 20 20 20 20 20 20 20 20 20 20 20 20 20 20 20 [                ]
  |   10bcf8: 20 20 20 20 20 20 20 20 20 20 20 20 20 20 20 20 [                ]
  |   10bd08: 20 20 20 20 20 20 20 20 20 20 20 20 20 20 20 20 [                ]
  |   10bd18: 20 20 20 20 20 20 20 20 20 20 20 20 20 20 20 20 [                ]
  |   10bd28: 20 20 20 20 20 20 0a 20 20 20 20 20 20 20 20 20 [      .         ]
  |   10bd38: 20 20 20 20 20 20 20 20 20 20 20 20 20 20 20 20 [                ]
  |   10bd48: 20 20 20 20 20 20 20 20 20 20 20 20 20 20 20 20 [                ]
  |   10bd58: 20 20 20 20 20 20 20 20 20 20 20 20 20 20 20 20 [                ]
  |   10bd68: 20 20 20 20 20 20 20 20 20 20 20 20 20 20 20 20 [                ]
  |   10bd78: 20 20 20 20 20 20 20 20 20 20 20 20 20 20 20 20 [                ]
  |   10bd88: 20 20 20 20 20 20 20 20 20 20 20 0a 20 20 20 20 [           .    ]
  |   10bd98: 20 20 20 20 20 20 20 20 20 20 20 20 20 20 20 20 [                ]
  |   10bda8: 20 20 20 20 20 20 20 20 20 20 20 20 20 20 20 20 [                ]
  |   10bdb8: 20 20 20 20 20 20 20 20 20 20 20 20 20 20 20 20 [                ]
  |   10bdc8: 20 20 20 20 20 20 20 20 20 20 20 20 20 20 20 20 [                ]
  |   10bdd8: 20 20 20 20 20 20 20 20 20 20 20 20 20 20 20 20 [                ]
  |   10bde8: 20 20 20 20 20 20 20 20 20 20 20 20 20 20 20 20 [                ]
  |   10bdf8: 0a 20 20 20 20 20 20 20 20 20 20 20 20 20 20 20 [.               ]
  |   10be08: 20 20 20 20 20 20 20 20 20 20 20 20 20 20 20 20 [                ]
  |   10be18: 20 20 20 20 20 20 20 20 20 20 20 20 20 20 20 20 [                ]
  |   10be28: 20 20 20 20 20 20 20 20 20 20 20 20 20 20 20 20 [                ]
  |   10be38: 20 20 20 20 20 20 20 20 20 20 20 20 20 20 20 20 [                ]
  |   10be48: 20 20 20 20 20 20 20 20 20 20 20 20 20 20 20 20 [                ]
  |   10be58: 20 20 20 20 20 0a 20 20 20 20 20 20 20 20 20 20 [     .          ]
  |   10be68: 20 20 20 20 20 20 20 20 20 20 20 20 20 20 20 20 [                ]
  |   10be78: 20 20 20 20 20 20 20 20 20 20 20 20 20 20 20 20 [                ]
  |   10be88: 20 20 20 20 20 20 20 20 20 20 20 20 20 20 20 20 [                ]
  |   10be98: 20 20 20 20 20 20 20 20 20 20 20 20 20 20 20 20 [                ]
  |   10bea8: 20 20 20 20 20 20 20 20 20 20 20 20 20 20 20 20 [                ]
  |   10beb8: 20 20 20 20 20 20 20 20 20 20 0a 20 20 20 20 20 [          .     ]
  |   10bec8: 20 20 20 20 20 20 20 20 20 20 20 20 20 20 20 20 [                ]
  |   10bed8: 20 20 20 20 20 20 20 20 20 20 20 20 20 20 20 20 [                ]
  |   10bee8: 20 20 20 20 20 20 20 20 20 20 20 20 20 20 20 20 [                ]
  |   10bef8: 20 20 20 20 20 20 20 20 20 20 20 20 20 20 20 20 [                ]
  |   10bf08: 20 20 20 20 20 20 20 20 20 20 20 20 20 20 20 20 [                ]
  |   10bf18: 20 20 20 20 20 20 20 20 20 20 20 20 20 20 20 0a [               .]
  |   10bf28: 20 20 20 20 20 20 20 20 20 20 20 20 20 20 20 20 [                ]
  |   10bf38: 20 20 20 20 20 20 20 20 20 20 20 20 20 20 20 20 [                ]
  |   10bf48: 20 20 20 20 20 20 20 20 20 20 20 20 20 20 20 20 [                ]
  |   10bf58: 20 20 20 20 20 20 20 20 20 20 20 20 20 20 20 20 [                ]
  |   10bf68: 20 20 20 20 20 20 20 20 20 20 20 20 20 20 20 20 [                ]
  |   10bf78: 20 20 20 20 20 20 20 20 20 20 20 20 20 20 20 20 [                ]
  |   10bf88: 20 20 20 20 0a 20 20 20 20 20 20 20 20 20 20 20 [    .           ]
  |   10bf98: 20 20 20 20 20 20 20 20 20 20 20 20 20 20 20 20 [                ]
  |   10bfa8: 20 20 20 20 20 20 20 20 20 20 20 20 20 20 20 20 [                ]
  |   10bfb8: 20 20 20 20 20 20 20 20 20 20 20 20 20 20 20 20 [                ]
  |   10bfc8: 20 20 20 20 20 20 20 20 20 20 20 20 20 20 20 20 [                ]
  |   10bfd8: 20 20 20 20 20 20 20 20 20 20 20 20 20 20 20 20 [                ]
  |   10bfe8: 20 20 20 20 20 20 20 20 20 0a 20 20 20 20 20 20 [         .      ]
  |   10bff8: 20 20 20 20 20 20 20 20 20 20 20 20 20 20 20 20 [                ]
  |   10c008: 20 20 20 20 20 20 20 20 20 20 20 20 20 20 20 20 [                ]
  |   10c018: 20 20 20 20 20 20 20 20 20 20 20 20 20 20 20 20 [                ]
  |   10c028: 20 20 20 20 20 20 20 20 20 20 20 20 20 20 20 20 [                ]
  |   10c038: 20 20 20 20 20 20 20 20 20 20 20 20 20 20 20 20 [                ]
  |   10c048: 20 20 20 20 20 20 20 20 20 20 20 20 20 20 0a 20 [              . ]
  |   10c058: 20 20 20 20 20 20 20 20 20 20 20 20 20 20 20 20 [                ]
  |   10c068: 20 20 20 20 20 20 20 20 20 20 20 20 20 20 20 20 [                ]
  |   10c078: 20 20 20 20 20 20 20 20 20 20 20 20 20 20 20 20 [                ]
  |   10c088: 20 20 20 20 20 20 20 20 20 20 20 20 20 20 20 20 [                ]
  |   10c098: 20 20 20 20 20 20 20 20 20 20 20 20 20 20 20 20 [                ]
  |   10c0a8: 20 20 20 20 20 20 20 20 20 20 20 20 20 20 20 20 [                ]
  |   10c0b8: 20 20 20 0a 20 20 20 20 20 20 20 20 20 20 20 20 [   .            ]
  |   10c0c8: 20 20 20 20 20 20 20 20 20 20 20 20 20 20 20 20 [                ]
  |   10c0d8: 20 20 20 20 20 20 20 20 20 20 20 20 20 20 20 20 [                ]
  |   10c0e8: 20 20 20 20 20 20 20 20 20 20 20 20 20 20 20 20 [                ]
  |   10c0f8: 20 20 20 20 20 20 20 20 20 20 20 20 20 20 20 20 [                ]
  |   10c108: 20 20 20 20 20 20 20 20 20 20 20 20 20 20 20 20 [                ]
  |   10c118: 20 20 20 20 20 20 20 20 0a 20 20 20 20 20 20 20 [        .       ]
  |   10c128: 20 20 20 20 20 20 20 20 20 20 20 20 20 20 20 20 [                ]
  |   10c138: 20 20 20 20 20 20 20 20 20 20 20 20 20 20 20 20 [                ]
  |   10c148: 20 20 20 20 20 20 20 20 20 20 20 20 20 20 20 20 [                ]
  |   10c158: 20 20 20 20 20 20 20 20 20 20 20 20 20 20 20 20 [                ]
  |   10c168: 20 20 20 20 20 20 20 20 20 20 20 20 20 20 20 20 [                ]
  |   10c178: 20 20 20 20 20 20 20 20 20 20 20 20 20 0a 20 20 [             .  ]
  |   10c188: 20 20 20 20 20 20 20 20 20 20 20 20 20 20 20 20 [                ]
  |   10c198: 20 20 20 20 20 20 20 20 20 20 20 20 20 20 20 20 [                ]
  |   10c1a8: 20 20 20 20 20 20 20 20 20 20 20 20 20 20 20 20 [                ]
  |   10c1b8: 20 20 20 20 20 20 20 20 20 20 20 20 20 20 20 20 [                ]
  |   10c1c8: 20 20 20 20 20 20 20 20 20 20 20 20 20 20 20 20 [                ]
  |   10c1d8: 20 20 20 20 20 20 20 20 20 20 20 20 20 20 20 20 [                ]
  |   10c1e8: 20 20 0a 20 20 20 20 20 20 20 20 20 20 20 20 20 [  .             ]
  |   10c1f8: 20 20 20 20 20 20 20 20 20 20 20 20 20 20 20 20 [                ]
  |   10c208: 20 20 20 20 20 20 20 20 20 20 20 20 20 20 20 20 [                ]
  |   10c218: 20 20 20 20 20 20 20 20 20 20 20 20 20 20 20 20 [                ]
  |   10c228: 20 20 20 20 20 20 20 20 20 20 20 20 20 20 20 20 [                ]
  |   10c238: 20 20 20 20 20 20 20 20 20 20 20 20 20 20 20 20 [                ]
  |   10c248: 20 20 20 20 20 20 20 0a 20 20 20 20 20 20 20 20 [       .        ]
  |   10c258: 20 20 20 20 20 20 20 20 20 20 20 20 20 20 20 20 [                ]
  |   10c268: 20 20 20 20 20 20 20 20 20 20 20 20 20 20 20 20 [                ]
  |   10c278: 20 20 20 20 20 20 20 20 20 20 20 20 20 20 20 20 [                ]
  |   10c288: 20 20 20 20 20 20 20 20 20 20 20 20 20 20 20 20 [                ]
  |   10c298: 20 20 20 20 20 20 20 20 20 20 20 20 20 20 20 20 [                ]
  |   10c2a8: 20 20 20 20 20 20 20 20 20 20 20 20 0a 20 20 20 [            .   ]
  |   10c2b8: 20 20 20 20 20 20 20 20 20 20 20 20 20 20 20 20 [                ]
  |   10c2c8: 20 20 20 20 20 20 20 20 20 20 20 20 20 20 20 20 [                ]
  |   10c2d8: 20 20 20 20 20 20 20 20 20 20 20 20 20 20 20 20 [                ]
  |   10c2e8: 20 20 20 20 20 20 20 20 20 20 20 20 20 20 20 20 [                ]
  |   10c2f8: 20 20 20 20 20 20 20 20 20 20 20 20 20 20 20 20 [                ]
  |   10c308: 20 20 20 20 20 20 20 20 20 20 20 20 20 20 20 20 [                ]
  |   10c318: 20 0a 20 20 20 20 20 20 20 20 20 20 20 20 20 20 [ .              ]
  |   10c328: 20 20 20 20 20 20 20 20 20 20 20 20 20 20 20 20 [                ]
  |   10c338: 20 20 20 20 20 20 20 20 20 20 20 20 20 20 20 20 [                ]
  |   10c348: 20 20 20 20 20 20 20 20 20 20 20 20 20 20 20 20 [                ]
  |   10c358: 20 20 20 20 20 20 20 20 20 20 20 20 20 20 20 20 [                ]
  |   10c368: 20 20 20 20 20 20 20 20 20 20 20 20 20 20 20 20 [                ]
  |     [snip 733 bytes]
  | + [XMP directory, 2781 bytes]
  | | XMPToolkit = Image::ExifTool 12.27
  | | Rating = 0
  | | - Tag 'x:xmpmeta/rdf:RDF/rdf:Description/xmp:Rating'
  | + [ItemPropertyContainer directory]
  | | 1)  HEVCConfiguration (SubDirectory) -->
  | |     - Tag 'hvcC' (114 bytes):
  | |         0117: 01 03 70 00 00 00 00 00 00 00 00 00 b4 f0 00 fc [..p.............]
  | |         0127: fd f8 f8 00 00 0f 03 20 00 01 00 18 40 01 0c 01 [....... ....@...]
  | |         0137: ff ff 03 70 00 00 03 00 90 00 00 03 00 00 03 00 [...p............]
  | |         0147: b4 ba 02 40 21 00 01 00 2d 42 01 01 03 70 00 00 [...@!...-B...p..]
  | |         0157: 03 00 90 00 00 03 00 00 03 00 b4 a0 00 ab 08 00 [................]
  | |         0167: e4 16 5b a9 24 a6 b9 b8 08 68 30 20 00 00 03 00 [..[.$....h0 ....]
  | |         0177: 20 00 00 03 00 21 22 00 01 00 07 44 01 c1 72 b0 [ ....!"....D..r.]
  | |         0187: 62 40                                           [b@]
  | | + [BinaryData directory, 114 bytes, Big-endian]
  | | | HEVCConfigurationVersion = 1
  | | | - Tag 0x0000 (1 bytes, int8u[1]):
  | | |     0117: 01                                              [.]
  | | | GeneralProfileSpace = 0
  | | | - Tag 0x0001, mask 0xc0 (1 bytes, int8u[1]):
  | | |     0118: 03                                              [.]
  | | | GeneralTierFlag = 0
  | | | - Tag '1.1', mask 0x20 (1 bytes, int8u[1]):
  | | |     0118: 03                                              [.]
  | | | GeneralProfileIDC = 3
  | | | - Tag '1.2', mask 0x1f (1 bytes, int8u[1]):
  | | |     0118: 03                                              [.]
  | | | GenProfileCompatibilityFlags = 1879048192
  | | | - Tag 0x0002 (4 bytes, int32u[1]):
  | | |     0119: 70 00 00 00                                     [p...]
  | | | ConstraintIndicatorFlags = 0 0 0 0 0 0
  | | | - Tag 0x0006 (6 bytes, int8u[6]):
  | | |     011d: 00 00 00 00 00 00                               [......]
  | | | GeneralLevelIDC = 180
  | | | - Tag 0x000c (1 bytes, int8u[1]):
  | | |     0123: b4                                              [.]
  | | | MinSpatialSegmentationIDC = 0
  | | | - Tag 0x000d, mask 0xfff (2 bytes, int16u[1]):
  | | |     0124: f0 00                                           [..]
  | | | ParallelismType = 0
  | | | - Tag 0x000f, mask 0x03 (1 bytes, int8u[1]):
  | | |     0126: fc                                              [.]
  | | | ChromaFormat = 1
  | | | - Tag 0x0010, mask 0x03 (1 bytes, int8u[1]):
  | | |     0127: fd                                              [.]
  | | | BitDepthLuma = 0
  | | | - Tag 0x0011, mask 0x07 (1 bytes, int8u[1]):
  | | |     0128: f8                                              [.]
  | | | BitDepthChroma = 0
  | | | - Tag 0x0012, mask 0x07 (1 bytes, int8u[1]):
  | | |     0129: f8                                              [.]
  | | | AverageFrameRate = 0
  | | | - Tag 0x0013 (2 bytes, int16u[1]):
  | | |     012a: 00 00                                           [..]
  | | | ConstantFrameRate = 0
  | | | - Tag 0x0015, mask 0xc0 (1 bytes, int8u[1]):
  | | |     012c: 0f                                              [.]
  | | | NumTemporalLayers = 1
  | | | - Tag '21.1', mask 0x38 (1 bytes, int8u[1]):
  | | |     012c: 0f                                              [.]
  | | | TemporalIDNested = 1
  | | | - Tag '21.2', mask 0x04 (1 bytes, int8u[1]):
  | | |     012c: 0f                                              [.]
  | | 2)  ImageSpatialExtent = .`.@
  | |     - Tag 'ispe' (12 bytes):
  | |         0191: 00 00 00 00 00 00 15 60 00 00 0e 40             [.......`...@]
  | | ImageWidth = 5472
  | | ImageHeight = 3648
  | | 3)  ImagePixelDepth = ....
  | |     - Tag 'pixi' (8 bytes):
  | |         01a5: 00 00 00 00 03 08 08 08                         [........]
  MediaDataSize = 1098850
  MediaDataOffset = 499
  MediaData = .s.(....#..:.u&.......o...=.|B.........)GZr.-./P.W.o../x......26c\5....^...zV.E.../....Hx..u...G"n!.~7.p..5.s_..M".w1.(..........C..6>...2C.......x...`.O2..*U...:A.2=.R.....\.l...x5)...:.I|H#Ba.sv...2..DMJD....;.4..2_.....BN....HJ>u.C...\.M............Z(7L....jv....k.....K.....)....... .j`.|1y<YJ.....%.a...{ia....3.j(~...v-...7.J`.(Gp?.W..2...A.f...i..".d.............d6.......U.uR.=.`..bh~..'...CS8..../9..V..........X...({.}...W...v...'t...E......S-*^../....5..T....E..9....n..C2]..c6f..4..q3X......VT......]v..',i.kz...(....>.......&...G...i.[o^.r...{e....c..ou.}......5&...\.b..F.u.9..Y.Mt.'.....>B...-2.9.b..~k....tm.j....v>.......y.....Jze.%B.u....;^]........q............._.ta...........a.J..]........4.~.k,..[.....O{I.o.E-=..5.8...~y4M}.K.]$.r..3...G..2Jd.DC..;_ENv.%..y.......L.....t;......K.G.`..&6..[....I...Y?1O.6.../%e.+........=... z\..u......^.. P&.R....foz..!/.wV.p..u../>.FU1)..1...Wq......0.Q..wK[X...Zc......r..{.;d.g.........-..k.qh?....6[..D.r....1...2...[i...-.H,......Jkx.........|reSQ..~.7o.o\.w.b;...T.l/Z.:......h@..Q..<...v9.H....m`..b.......t........S.K...P.}3:{.@mJ.BEx.Z......."..f7.P......l/p(.....=.L.1.=&..f..0.......=..3..]B.+...|.....7...F..KG..@SZ.i..../.j~......%...&.Fjc..0..(.u.....-..p.x.C.^^.k......E..#S.nf..<)=.k.....~.....7..R.Y...2. ..Y...S.`F...8....S.{#.K....B.}...B?}.<..........N.....8j.V".#.Qh.X.$.X.>........Av.....n...X.o93.jJ2...w.W..{.aRp...n.Ja.Y=..v.M.s.SV....O..)}..&...ym..!.$%.?..!.7m&....%/x_l.W...?.T....G_C...{...[QMDr.v..........k...}.5....;..t.t...HU.t...&..QG..5.p.-'.....SQi..X.;.O../.ze..WQ.<..!..........j..H....V.N.........;.~...\<...].RRm.VS...>.[.?.A.}>A_W.;.IZI#...nWx-jW..I8.....;.9...?~o.....s.#.........W.Lc?Y.fc.ub.....}.R.......@/...%L......H.=.Rm.......Zp6b....i.7...A/..!..b..K..............H.I.4<..vc.Oj.-I......M._....LoQx{.hPV.p%.`6M...kP.......Az*.....d.g[...!..m...e!'.[.\..........;...h%R.-..l...m.......*.....#...+e....Qo.{i...2.]<V..$..K.$7.F... .F..9..6z...E...........U.@...$+..$..yP...S.b...'@..yq..x..-..R....<..K..u.t....B/./.S....zqs.c.......h...)[snip]
  - Tag 'mdat' (1098850 bytes):
      01f3: 00 10 73 09 28 01 af 13 07 23 dd b8 3a 0c 75 26 [..s.(....#..:.u&]
      0203: ea ed e2 d3 d4 b7 bd 6f a4 9f 1a 3d c9 7c 42 f9 [.......o...=.|B.]
      0213: e1 ec 03 f8 a8 9a 92 a4 29 47 5a 72 c2 2d 9b 2f [........)GZr.-./]
      0223: 50 2e 57 ec 6f b8 f5 2f 78 dc bb c8 cb 90 0f 32 [P.W.o../x......2]
      0233: 36 63 5c 35 17 96 2e d2 5e 10 bc 83 7a 56 e0 45 [6c\5....^...zV.E]
      0243: 1e d8 b0 2f f6 1e ea bc 48 78 a6 f1 75 d3 0b 96 [.../....Hx..u...]
      0253: 47 22 6e 21 9c 7e 37 e0 70 b2 df 35 ba 73 5f f6 [G"n!.~7.p..5.s_.]
      0263: aa 4d 22 e0 77 31 81 28 93 98 f2 11 eb b6 cb b3 [.M".w1.(........]
      0273: ad bd 43 dd a2 36 3e 82 a2 16 32 43 0c c0 be 1c [..C..6>...2C....]
      0283: 06 dd 03 78 d8 2e a2 60 d9 4f 32 a6 c4 2a 55 aa [...x...`.O2..*U.]
      0293: a2 94 3a 41 e8 32 3d c3 52 05 c1 d5 d8 e8 5c af [..:A.2=.R.....\.]
      02a3: 6c 8f 97 db 78 35 29 01 dc 8b 3a 01 49 7c 48 23 [l...x5)...:.I|H#]
      02b3: 42 61 c7 73 76 a8 ed ff 32 f6 18 44 4d 4a 44 94 [Ba.sv...2..DMJD.]
      02c3: cc c4 a0 3b 16 34 f0 d3 32 5f 90 02 02 f3 f3 42 [...;.4..2_.....B]
      02d3: 4e 07 82 f1 ab 48 4a 3e 75 b9 43 f1 9e eb 5c 07 [N....HJ>u.C...\.]
      02e3: 4d de fa 0a 80 89 ef f3 a3 8c d7 b8 9e 5a 28 37 [M............Z(7]
      02f3: 4c 07 d3 c9 92 6a 76 83 b9 be af 6b a7 ae f7 c2 [L....jv....k....]
      0303: b8 4b bb 84 90 b7 c2 29 c2 cd f3 d5 12 e9 f8 20 [.K.....)....... ]
      0313: 83 6a 60 a9 7c 31 79 3c 59 4a 18 c1 a9 eb fa 25 [.j`.|1y<YJ.....%]
      0323: b7 61 82 07 e1 7b 69 61 ea 83 ac c6 33 07 6a 28 [.a...{ia....3.j(]
      0333: 7e 92 a9 9c 76 2d e4 9c f2 37 9c 4a 60 c9 28 47 [~...v-...7.J`.(G]
      0343: 70 3f e6 57 b7 e4 32 f1 0f 0e 41 a8 66 b7 a4 a2 [p?.W..2...A.f...]
      0353: 69 94 0f 22 9c 64 ae a1 1f 9a 8b 2e ff c0 1f cd [i..".d..........]
      0363: 87 00 89 d1 64 36 8f d6 c5 d9 d5 17 d5 55 d9 75 [....d6.......U.u]
      0373: 52 d3 3d 04 60 98 87 62 68 7e c5 ba 27 bb 90 fd [R.=.`..bh~..'...]
      0383: 43 53 38 2e be ae c3 2f 39 0c 06 56 a3 fb f7 de [CS8..../9..V....]
      0393: a0 ae 1a 11 d6 e1 58 fa 13 0c 28 7b d4 7d ad ea [......X...({.}..]
      03a3: 8f 57 06 ad 8e 76 16 ae 91 27 74 c7 ec b1 45 c9 [.W...v...'t...E.]
      03b3: 95 f7 96 d6 2e 53 2d 2a 5e d1 94 2f a7 15 ee e1 [.....S-*^../....]
      03c3: 35 bf 84 54 a4 09 e7 e8 45 a8 cd 39 e4 ab f8 8a [5..T....E..9....]
      03d3: 6e aa b0 43 32 5d 8c 03 63 36 66 ae 06 34 b0 18 [n..C2]..c6f..4..]
      03e3: 71 33 58 9e b9 cb d0 83 e4 56 54 9a 09 93 08 f0 [q3X......VT.....]
      03f3: f6 5d 76 f0 1f 27 2c 69 bd 6b 7a 03 dd 9e 28 b2 [.]v..',i.kz...(.]
      0403: 9a 11 89 3e df 8b 85 b2 b4 ac fe 26 2e d8 d7 47 [...>.......&...G]
      0413: da b9 f7 69 16 5b 6f 5e 84 72 cc de da 7b 65 11 [...i.[o^.r...{e.]
      0423: e4 f5 16 63 86 fd 6f 75 c0 7d e4 c6 18 16 8a b0 [...c..ou.}......]
      0433: 35 26 c3 90 94 5c e7 62 2e fd 46 96 75 10 39 a3 [5&...\.b..F.u.9.]
      0443: f9 59 05 4d 74 8b 27 0d d2 dd de e0 3e 42 12 ae [.Y.Mt.'.....>B..]
      0453: c1 2d 32 f4 39 d8 62 c4 82 7e 6b f8 c0 86 ad 74 [.-2.9.b..~k....t]
      0463: 6d dc 6a 1b f6 e3 03 76 3e af b9 fb fd ff b6 a7 [m.j....v>.......]
      0473: 79 b6 e9 ec b9 e6 4a 7a 65 9f 25 42 c2 75 d8 04 [y.....Jze.%B.u..]
      0483: 9d ef 3b 5e 5d 82 bc c7 fc b6 b1 01 f4 71 15 fe [..;^]........q..]
      0493: b5 b9 13 da 0a c4 c8 e6 90 ac a9 5f 97 74 61 c0 [..........._.ta.]
      04a3: 89 92 97 a1 07 eb e7 d8 90 be 61 9f 4a 08 0a 5d [..........a.J..]]
      04b3: 94 d6 fa 91 1a 12 f2 e2 34 e7 7e aa 6b 2c c5 9b [........4.~.k,..]
      04c3: 5b f3 fe ef d2 99 4f 7b 49 01 6f df 45 2d 3d 10 [[.....O{I.o.E-=.]
      04d3: fc 35 84 38 ad 85 0e 7e 79 34 4d 7d 0c 4b 1d 5d [.5.8...~y4M}.K.]]
      04e3: 24 d1 72 af 09 33 0f e1 ad 47 ac bc 32 4a 64 83 [$.r..3...G..2Jd.]
      04f3: 44 43 b5 e6 3b 5f 45 4e 76 9d 25 f9 fa 79 c9 01 [DC..;_ENv.%..y..]
      0503: ec 9c 0d 97 c1 4c e6 92 d7 a7 e4 74 3b 8f ca 8f [.....L.....t;...]
      0513: ab c1 f6 4b ff 47 0e 60 9a 0d 26 36 f9 88 5b ba [...K.G.`..&6..[.]
      0523: 92 02 1c 49 da be 84 59 3f 31 4f f8 36 84 bc f9 [...I...Y?1O.6...]
      0533: 2f 25 65 ec 2b ff 15 85 94 8b a6 ea fc 3d ca c2 [/%e.+........=..]
      0543: b8 20 7a 5c e5 be 75 13 c7 d3 90 8b f1 5e b7 bd [. z\..u......^..]
      0553: 20 50 26 ae 52 a1 a8 a0 03 66 6f 7a b6 f4 21 2f [ P&.R....foz..!/]
      0563: 1c 77 56 82 70 d5 a0 75 0a ca 2f 3e b5 46 55 31 [.wV.p..u../>.FU1]
      0573: 29 c9 d3 31 96 e0 e6 57 71 94 f2 8f d3 18 e8 30 [)..1...Wq......0]
      0583: f4 51 ed ec 77 4b 5b 58 ea 89 db 5a 63 c5 fa e1 [.Q..wK[X...Zc...]
      0593: 04 8c 8f 72 85 7f 7b 1f 3b 64 da 67 95 b7 1b 0e [...r..{.;d.g....]
      05a3: 83 89 ff 9c a4 2d 1e eb 6b a1 71 68 3f d1 af f8 [.....-..k.qh?...]
      05b3: ea 36 5b 0f a0 44 9b 72 04 c0 8d 9d 31 8f db 94 [.6[..D.r....1...]
      05c3: 32 fd ec da 5b 69 96 d4 c6 2d 02 48 2c 08 11 1b [2...[i...-.H,...]
      05d3: 17 e8 e9 4a 6b 78 b4 f5 16 cd 90 82 fe 12 c5 7c [...Jkx.........|]
      05e3: 72 65 53 51 9c 94 7e 9d 37 6f bb 6f 00 5c d2 77 [reSQ..~.7o.o.\.w]
      05f3: f0 62 3b ad ad c7 54 ea 6c 2f 5a 1d 3a e7 0f a2 [.b;...T.l/Z.:...]
      0603: fc 99 8b 68 40 1c 07 51 8f b6 3c ae 89 92 76 39 [...h@..Q..<...v9]
      0613: 11 48 00 08 88 09 c2 6d 60 00 11 19 62 f6 dc cb [.H.....m`...b...]
      0623: fc b3 19 a9 74 8a ca 19 9e ad 9b ab 8d 53 80 4b [....t........S.K]
      0633: 9f 82 96 50 ad 7d 33 3a 7b bf 40 6d 4a 0f 42 45 [...P.}3:{.@mJ.BE]
      0643: 78 e3 5a b5 96 bb ed cd ce ac 22 0b dc 66 37 17 [x.Z......."..f7.]
      0653: 50 90 d9 84 b6 98 fd 6c 2f 70 28 8e 1b 09 93 d8 [P......l/p(.....]
      0663: 3d ec 4c 89 31 e7 3d 26 c8 f5 66 0e ad 30 0a f7 [=.L.1.=&..f..0..]
      0673: 95 e3 89 0d c8 3d 99 06 33 7f e4 5d 42 19 2b b8 [.....=..3..]B.+.]
      0683: 01 12 7c f9 bf e9 e8 e9 37 bc c9 c8 46 87 ed 4b [..|.....7...F..K]
      0693: 47 cc e8 40 53 5a e2 69 aa c3 9d 13 2f d3 6a 7e [G..@SZ.i..../.j~]
      06a3: 82 0d f9 e3 bb eb 25 d0 a8 03 26 cf 46 6a 63 fb [......%...&.Fjc.]
      06b3: 0c 30 d9 dd 28 9e 75 e2 17 f1 ba ff 2d ff 9d 70 [.0..(.u.....-..p]
      06c3: 7f 78 ce 43 07 5e 5e 13 6b 07 90 98 fa ab c2 45 [.x.C.^^.k......E]
      06d3: c9 a7 23 53 d0 6e 66 d9 9f 3c 29 3d 89 6b 0b fe [..#S.nf..<)=.k..]
      06e3: 15 d4 d0 7e ed 0e 8f d6 bc 37 bf c8 52 bc 59 ad [...~.....7..R.Y.]
      06f3: d2 d5 32 80 20 1f 07 59 a3 d8 00 85 53 0d 60 46 [..2. ..Y....S.`F]
      0703: e3 08 e2 38 1c ba c2 0c 53 df 7b 23 f3 4b f3 b8 [...8....S.{#.K..]
      0713: ed 85 42 91 7d 14 0a d1 42 3f 7d 0d 3c a9 b9 af [..B.}...B?}.<...]
      0723: e3 e4 10 e3 fd 85 07 4e ac df 8e 1f 8d 38 6a 0e [.......N.....8j.]
      0733: 56 22 0d 23 dc 51 68 fb 58 1f 24 d3 58 aa 3e 02 [V".#.Qh.X.$.X.>.]
      0743: ca bd 0c ad 03 1c d6 41 76 b2 a5 1c a1 f0 6e db [.......Av.....n.]
      0753: a6 cc 58 de 6f 39 33 16 6a 4a 32 08 e6 0b 77 11 [..X.o93.jJ2...w.]
      0763: 57 86 e7 7b e5 61 52 70 01 f3 98 6e dc 4a 61 d2 [W..{.aRp...n.Ja.]
      0773: 59 3d 0d 18 76 ed 4d f8 73 a3 53 56 86 8b d7 8b [Y=..v.M.s.SV....]
      0783: 4f 08 bc 29 7d 1c 0b 26 f4 ac e4 79 6d 89 9e 21 [O..)}..&...ym..!]
      0793: c8 24 25 e4 3f f7 93 21 9b 37 6d 26 94 9b 03 08 [.$%.?..!.7m&....]
      07a3: 25 2f 78 5f 6c 9f 57 97 e1 f9 3f ac 54 f7 bd 19 [%/x_l.W...?.T...]
      07b3: 90 47 5f 43 02 e9 d7 7b ea 18 e4 00 5b 51 4d 44 [.G_C...{....[QMD]
      07c3: 72 da 76 b5 f1 ed ad a0 9a a2 c4 84 84 6b e3 18 [r.v..........k..]
      07d3: 93 7d d5 35 97 c6 d4 c0 3b c1 90 74 e2 74 c8 0b [.}.5....;..t.t..]
      07e3: 94 48 55 86 74 0c af b9 26 19 ec 51 47 ad f8 35 [.HU.t...&..QG..5]
      07f3: ca 70 bc 2d 27 9f 01 ed 9e 8c 53 51 69 92 85 58 [.p.-'.....SQi..X]
      0803: bd 3b e7 4f 1a 7f 2f 15 7a 65 ca b0 57 51 a9 3c [.;.O../.ze..WQ.<]
      0813: 1f d9 21 04 c4 8c 7f fc 7f b4 09 8f e5 6a ef a0 [..!..........j..]
      0823: 48 08 fd a3 16 56 b5 4e df b8 d3 81 f8 da 17 b1 [H....V.N........]
      0833: be 3b cc 7e a8 e0 94 5c 3c e0 8b 7f 5d 9f 52 52 [.;.~...\<...].RR]
      0843: 6d a6 56 53 bc 80 cd 3e b3 5b b5 3f 84 41 84 7d [m.VS...>.[.?.A.}]
      0853: 3e 41 5f 57 08 3b d0 49 5a 49 23 8a 8f d1 6e 57 [>A_W.;.IZI#...nW]
      0863: 78 2d 6a 57 f1 06 49 38 89 e1 88 01 c7 3b 00 ce [x-jW..I8.....;..]
      0873: 39 0c 7f f9 3f 7e 6f be e9 c6 98 af 73 fd 23 f4 [9...?~o.....s.#.]
      0883: 13 7f b7 1b a1 bb a9 83 57 11 4c 63 3f 59 b1 66 [........W.Lc?Y.f]
      0893: 63 fd 75 62 99 89 0b 99 a9 7d b5 52 9b 96 00 d9 [c.ub.....}.R....]
      08a3: 07 ec 0b 89 40 2f ea ab b1 25 4c cf 0b 83 a8 c3 [....@/...%L.....]
      08b3: be 48 1f 3d 9a 52 6d 0c e8 fe 08 1f ee f7 5a 70 [.H.=.Rm.......Zp]
      08c3: 36 62 f7 cc e5 e1 69 a1 37 16 a8 89 41 2f d1 a3 [6b....i.7...A/..]
      08d3: 21 b6 83 62 fd de 4b 1b c0 ef 05 c1 0e d9 af 94 [!..b..K.........]
      08e3: a7 2e 07 04 00 bc 48 a5 49 87 34 3c c4 9f 76 63 [......H.I.4<..vc]
      08f3: 01 4f 6a c7 2d 49 a4 a9 04 0c ca 91 4d ba 5f e0 [.Oj.-I......M._.]
      0903: f3 ab 10 4c 6f 51 78 7b c9 68 50 56 a0 70 25 ae [...LoQx{.hPV.p%.]
      0913: 60 36 4d 8b e1 9b 6b 50 db 13 01 d6 a4 91 e8 41 [`6M...kP.......A]
      0923: 7a 2a aa 0b 92 1e 05 64 18 67 5b ba 18 93 21 00 [z*.....d.g[...!.]
      0933: e9 dc 6d 8e aa bb 65 21 27 a7 5b 85 5c 0a f4 9a [..m...e!'.[.\...]
      0943: a3 0e dc d3 fb fb b6 3b 18 f8 f2 68 25 52 1f 2d [.......;...h%R.-]
      0953: f3 a7 6c be d9 a0 6d 9c b7 14 d3 99 8a be 2a b5 [..l...m.......*.]
      0963: 00 eb 1c f6 bc 23 02 fe fd 2b 65 88 93 9a ca 51 [.....#...+e....Q]
      0973: 6f d9 7b 69 1b bf b9 32 e7 5d 3c 56 f1 ea 24 ea [o.{i...2.]<V..$.]
      0983: 7f 4b e8 24 37 12 46 ac be a1 20 0e 46 08 eb 39 [.K.$7.F... .F..9]
      0993: 11 09 36 7a fd f5 de 45 fe f5 9a 02 84 f1 17 a5 [..6z...E........]
      09a3: 0c e2 d2 55 dd 40 0f 08 0e 24 2b 07 d7 24 e5 1d [...U.@...$+..$..]
      09b3: 79 50 fe 89 af 53 a8 62 db 1f e4 27 40 8c a6 79 [yP...S.b...'@..y]
      09c3: 71 ee ac 78 8e 18 2d 8e a2 52 b5 c1 19 bd 3c 0a [q..x..-..R....<.]
      09d3: b2 4b dc c7 75 f4 74 bb 94 8c 10 42 2f f7 2f 86 [.K..u.t....B/./.]
      [snip 1096818 bytes]
