  ExifToolVersion = 13.59
  FileName = media_70.dng
  Directory = C:/Users/micro/IdeaProjects/kim/src/commonTest/resources/de/stefan_oltmann/kim/testdata/full
  FileSize = 12802944
  FileModifyDate = 1776264337.78077
  FileAccessDate = 1786601586.16221
  FileCreateDate = 1776264337.74177
  FilePermissions = 33206
  FileType = DNG
  FileTypeExtension = DNG
  MIMEType = image/x-adobe-dng
  ExifByteOrder = II
  + [IFD0 directory with 55 entries, Little-endian]
  | 0)  SubfileType = 1
  |     - Tag 0x00fe (4 bytes, int32u[1]):
  |         0012: 01 00 00 00                                     [....]
  | 1)  ImageWidth = 256
  |     - Tag 0x0100 (4 bytes, int32u[1]):
  |         001e: 00 01 00 00                                     [....]
  | 2)  ImageHeight = 192
  |     - Tag 0x0101 (4 bytes, int32u[1]):
  |         002a: c0 00 00 00                                     [....]
  | 3)  BitsPerSample = 8 8 8
  |     - Tag 0x0102 (6 bytes, int16u[3]):
  |         02a2: 08 00 08 00 08 00                               [......]
  | 4)  Compression = 1
  |     - Tag 0x0103 (2 bytes, int16u[1]):
  |         0042: 01 00                                           [..]
  | 5)  PhotometricInterpretation = 2
  |     - Tag 0x0106 (2 bytes, int16u[1]):
  |         004e: 02 00                                           [..]
  | 6)  Make = Panasonic
  |     - Tag 0x010f (10 bytes, string[10]):
  |         02a8: 50 61 6e 61 73 6f 6e 69 63 00                   [Panasonic.]
  | 7)  Model = DMC-LX7
  |     - Tag 0x0110 (8 bytes, string[8]):
  |         02b2: 44 4d 43 2d 4c 58 37 00                         [DMC-LX7.]
  | 8)  StripOffsets = 749166
  |     - Tag 0x0111 (4 bytes, int32u[1]):
  |         0072: 6e 6e 0b 00                                     [nn..]
  | 9)  Orientation = 1
  |     - Tag 0x0112 (2 bytes, int16u[1]):
  |         007e: 01 00                                           [..]
  | 10) SamplesPerPixel = 3
  |     - Tag 0x0115 (2 bytes, int16u[1]):
  |         008a: 03 00                                           [..]
  | 11) RowsPerStrip = 192
  |     - Tag 0x0116 (4 bytes, int32u[1]):
  |         0096: c0 00 00 00                                     [....]
  | 12) StripByteCounts = 147456
  |     - Tag 0x0117 (4 bytes, int32u[1]):
  |         00a2: 00 40 02 00                                     [.@..]
  | 13) PlanarConfiguration = 1
  |     - Tag 0x011c (2 bytes, int16u[1]):
  |         00ae: 01 00                                           [..]
  | 14) Software = Adobe DNG Converter 15.4 (Macintosh)
  |     - Tag 0x0131 (37 bytes, string[37]):
  |         02ba: 41 64 6f 62 65 20 44 4e 47 20 43 6f 6e 76 65 72 [Adobe DNG Conver]
  |         02ca: 74 65 72 20 31 35 2e 34 20 28 4d 61 63 69 6e 74 [ter 15.4 (Macint]
  |         02da: 6f 73 68 29 00                                  [osh).]
  | 15) ModifyDate = 2023:07:26 06:11:34
  |     - Tag 0x0132 (20 bytes, string[20]):
  |         02e0: 32 30 32 33 3a 30 37 3a 32 36 20 30 36 3a 31 31 [2023:07:26 06:11]
  |         02f0: 3a 33 34 00                                     [:34.]
  | 16) SubIFD (SubDirectory) -->
  |     - Tag 0x014a (20 bytes, int32u[5]):
  |         02f4: d6 5e 0b 00 8c 66 0b 00 14 68 0b 00 5a 6a 0b 00 [.^...f...h..Zj..]
  |         0304: 64 6c 0b 00                                     [dl..]
  | + [SubIFD directory with 28 entries, Little-endian]
  | | 0)  SubfileType = 0
  | |     - Tag 0x00fe (4 bytes, int32u[1]):
  | |        b5ee0: 00 00 00 00                                     [....]
  | | 1)  ImageWidth = 3664
  | |     - Tag 0x0100 (4 bytes, int32u[1]):
  | |        b5eec: 50 0e 00 00                                     [P...]
  | | 2)  ImageHeight = 2752
  | |     - Tag 0x0101 (4 bytes, int32u[1]):
  | |        b5ef8: c0 0a 00 00                                     [....]
  | | 3)  BitsPerSample = 16
  | |     - Tag 0x0102 (2 bytes, int16u[1]):
  | |        b5f04: 10 00                                           [..]
  | | 4)  Compression = 7
  | |     - Tag 0x0103 (2 bytes, int16u[1]):
  | |        b5f10: 07 00                                           [..]
  | | 5)  PhotometricInterpretation = 32803
  | |     - Tag 0x0106 (2 bytes, int16u[1]):
  | |        b5f1c: 23 80                                           [#.]
  | | 6)  SamplesPerPixel = 1
  | |     - Tag 0x0115 (2 bytes, int16u[1]):
  | |        b5f28: 01 00                                           [..]
  | | 7)  PlanarConfiguration = 1
  | |     - Tag 0x011c (2 bytes, int16u[1]):
  | |        b5f34: 01 00                                           [..]
  | | 8)  TileWidth = 256
  | |     - Tag 0x0142 (4 bytes, int32u[1]):
  | |        b5f40: 00 01 00 00                                     [....]
  | | 9)  TileLength = 256
  | |     - Tag 0x0143 (4 bytes, int32u[1]):
  | |        b5f4c: 00 01 00 00                                     [....]
  | | 10) TileOffsets = 2139246 2210670 2283640 2361528 2435474 2510788 2585390 2659164 2728208 2801842 2874770 2928458 2981412 3036086 3089848 3114128 3188564 3262850 3342580 3416232 3494370 3575050 3651974 3727924 3803988 3862256 3914902 3965676 4018396 4072144 4097202 4172486 4245870 4321584 4390412 4465140 4540560 4613260 4682484 4753556 4830158 4897828 4957932 5008214 5059908 5084820 5161630 5235902 5313746 5383722 5461600 5542946 5619884 5693578 5766264 5842174 5915248 5981072 6029754 6079136 6103460 6176230 6245766 6318756 6384330 6457476 6533574 6606088 6677498 6753154 6821038 6874958 6924194 6972536 7020900 7045014 7118778 7191904 7269266 7337298 7414644 7494374 7568610 7643152 7717550 7784110 7848338 7901808 7950106 7998674 8022752 8098818 8170974 8245270 8310592 8383786 8462008 8535874 8612274 8689758 8759380 8822572 8875598 8924442 8974382 8999026 9073958 9145616 9221312 9290650 9368532 9448564 9523380 9597874 9675160 9739190 9792850 9843898 9894596 9947160 9972590 10046370 10119142 10197190 10267240 10341918 10419968 10495498 10570208 10649068 10719442 10774028 10826122 10879788 10934410 10960168 11029888 11100754 11176112 11246978 11322208 11400346 11475144 11553120 11629066 11700910 11768732 11825008 11879878 11934808 11959866 12014022 12072288 12132940 12192616 12255428 12319392 12381744 12446062 12508412 12568604 12631168 12691116 12738214 12783652
  | |     - Tag 0x0144 (660 bytes, int32u[165]):
  | |        b602c: 6e a4 20 00 6e bb 21 00 78 d8 22 00 b8 08 24 00 [n. .n.!.x."...$.]
  | |        b603c: 92 29 25 00 c4 4f 26 00 2e 73 27 00 5c 93 28 00 [.)%..O&..s'.\.(.]
  | |        b604c: 10 a1 29 00 b2 c0 2a 00 92 dd 2b 00 4a af 2c 00 [..)...*...+.J.,.]
  | |        b605c: 24 7e 2d 00 b6 53 2e 00 b8 25 2f 00 90 84 2f 00 [$~-..S...%/.../.]
  | |        b606c: 54 a7 30 00 82 c9 31 00 f4 00 33 00 a8 20 34 00 [T.0...1...3.. 4.]
  | |        b607c: e2 51 35 00 0a 8d 36 00 86 b9 37 00 34 e2 38 00 [.Q5...6...7.4.8.]
  | |        b608c: 54 0b 3a 00 f0 ee 3a 00 96 bc 3b 00 ec 82 3c 00 [T.:...:...;...<.]
  | |        b609c: dc 50 3d 00 d0 22 3e 00 b2 84 3e 00 c6 aa 3f 00 [.P=..">...>...?.]
  | |        b60ac: 6e c9 40 00 30 f1 41 00 0c fe 42 00 f4 21 44 00 [n.@.0.A...B..!D.]
  | |        b60bc: 90 48 45 00 8c 64 46 00 f4 72 47 00 94 88 48 00 [.HE..dF..rG...H.]
  | |        b60cc: ce b3 49 00 24 bc 4a 00 ec a6 4b 00 56 6b 4c 00 [..I.$.J...K.VkL.]
  | |        b60dc: 44 35 4d 00 94 96 4d 00 9e c2 4e 00 be e4 4f 00 [D5M...M...N...O.]
  | |        b60ec: d2 14 51 00 2a 26 52 00 60 56 53 00 22 94 54 00 [..Q.*&R.`VS.".T.]
  | |        b60fc: ac c0 55 00 8a e0 56 00 78 fc 57 00 fe 24 59 00 [..U...V.x.W..$Y.]
  | |        b610c: 70 42 5a 00 90 43 5b 00 ba 01 5c 00 a0 c2 5c 00 [pBZ..C[...\...\.]
  | |        b611c: a4 21 5d 00 e6 3d 5e 00 86 4d 5f 00 a4 6a 60 00 [.!]..=^..M_..j`.]
  | |        b612c: ca 6a 61 00 84 88 62 00 c6 b1 63 00 08 cd 64 00 [.ja...b...c...d.]
  | |        b613c: fa e3 65 00 82 0b 67 00 ae 14 68 00 4e e7 68 00 [..e...g...h.N.h.]
  | |        b614c: a2 a7 69 00 78 64 6a 00 64 21 6b 00 96 7f 6b 00 [..i.xdj.d!k...k.]
  | |        b615c: ba 9f 6c 00 60 bd 6d 00 92 eb 6e 00 52 f5 6f 00 [..l.`.m...n.R.o.]
  | |        b616c: 74 23 71 00 e6 5a 72 00 e2 7c 73 00 10 a0 74 00 [t#q..Zr..|s...t.]
  | |        b617c: ae c2 75 00 ae c6 76 00 92 c1 77 00 70 92 78 00 [..u...v...w.p.x.]
  | |        b618c: 1a 4f 79 00 d2 0c 7a 00 e0 6a 7a 00 02 94 7b 00 [.Oy...z..jz...{.]
  | |        b619c: de ad 7c 00 16 d0 7d 00 40 cf 7e 00 2a ed 7f 00 [..|...}.@.~.*...]
  | |        b61ac: b8 1e 81 00 42 3f 82 00 b2 69 83 00 5e 98 84 00 [....B?...i..^...]
  | |        b61bc: 54 a8 85 00 2c 9f 86 00 4e 6e 87 00 1a 2d 88 00 [T...,...Nn...-..]
  | |        b61cc: 2e f0 88 00 72 50 89 00 26 75 8a 00 10 8d 8b 00 [....rP..&u......]
  | |        b61dc: c0 b4 8c 00 9a c3 8d 00 d4 f3 8e 00 74 2c 90 00 [............t,..]
  | |        b61ec: b4 50 91 00 b2 73 92 00 98 a1 93 00 b6 9b 94 00 [.P...s..........]
  | |        b61fc: 52 6d 95 00 ba 34 96 00 c4 fa 96 00 18 c8 97 00 [Rm...4..........]
  | |        b620c: 6e 2b 98 00 a2 4b 99 00 e6 67 9a 00 c6 98 9b 00 [n+...K...g......]
  | |        b621c: 68 aa 9c 00 1e ce 9d 00 00 ff 9e 00 0a 26 a0 00 [h............&..]
  | |        b622c: e0 49 a1 00 ec 7d a2 00 d2 90 a3 00 0c 66 a4 00 [.I...}.......f..]
  | |        b623c: 8a 31 a5 00 2c 03 a6 00 8a d8 a6 00 28 3d a7 00 [.1..,.......(=..]
  | |        b624c: 80 4d a8 00 52 62 a9 00 b0 88 aa 00 82 9d ab 00 [.M..Rb..........]
  | |        b625c: 60 c3 ac 00 9a f4 ad 00 c8 18 af 00 60 49 b0 00 [`...........`I..]
  | |        b626c: 0a 72 b1 00 ae 8a b2 00 9c 93 b3 00 70 6f b4 00 [.r..........po..]
  | |        b627c: c6 45 b5 00 58 1c b6 00 3a 7e b6 00 c6 51 b7 00 [.E..X...:~...Q..]
  | |        b628c: 60 35 b8 00 4c 22 b9 00 68 0b ba 00 c4 00 bb 00 [`5..L"..h.......]
  | |        b629c: a0 fa bb 00 30 ee bc 00 6e e9 bd 00 fc dc be 00 [....0...n.......]
  | |        b62ac: 1c c8 bf 00 80 bc c0 00 ac a6 c1 00 a6 5e c2 00 [.............^..]
  | |        b62bc: 24 10 c3 00                                     [$...]
  | | 11) TileByteCounts = 71423 72969 77888 73945 75314 74602 73774 69044 73634 72927 53688 52954 54674 53762 24279 74436 74285 79729 73651 78137 80680 76924 75949 76064 58267 52646 50774 52719 53748 25057 75284 73383 75713 68827 74728 75420 72699 69223 71072 76602 67670 60104 50282 51693 24912 76809 74272 77843 69976 77877 81345 76937 73694 72686 75910 73073 65824 48681 49381 24323 72770 69536 72989 65573 73146 76098 72514 71409 75656 67883 53919 49235 48342 48363 24114 73763 73125 77361 68031 77346 79730 74235 74541 74398 66560 64227 53470 48297 48567 24077 76066 72155 74296 65321 73194 78221 73866 76399 77483 69622 63191 53025 48843 49940 24643 74931 71657 75696 69337 77881 80031 74815 74494 77286 64029 53659 51048 50697 52564 25429 73780 72772 78047 70050 74678 78049 75530 74710 78859 70374 54586 52093 53665 54622 25758 69719 70865 75358 70865 75230 78138 74797 77976 75945 71843 67822 56276 54870 54929 25057 54156 58266 60652 59676 62812 63963 62352 64318 62349 60192 62563 59947 47097 45438 19291
  | |     - Tag 0x0145 (660 bytes, int32u[165]):
  | |        b62c0: ff 16 01 00 09 1d 01 00 40 30 01 00 d9 20 01 00 [........@0... ..]
  | |        b62d0: 32 26 01 00 6a 23 01 00 2e 20 01 00 b4 0d 01 00 [2&..j#... ......]
  | |        b62e0: a2 1f 01 00 df 1c 01 00 b8 d1 00 00 da ce 00 00 [................]
  | |        b62f0: 92 d5 00 00 02 d2 00 00 d7 5e 00 00 c4 22 01 00 [.........^..."..]
  | |        b6300: 2d 22 01 00 71 37 01 00 b3 1f 01 00 39 31 01 00 [-"..q7......91..]
  | |        b6310: 28 3b 01 00 7c 2c 01 00 ad 28 01 00 20 29 01 00 [(;..|,...(.. )..]
  | |        b6320: 9b e3 00 00 a6 cd 00 00 56 c6 00 00 ef cd 00 00 [........V.......]
  | |        b6330: f4 d1 00 00 e1 61 00 00 14 26 01 00 a7 1e 01 00 [.....a...&......]
  | |        b6340: c1 27 01 00 db 0c 01 00 e8 23 01 00 9c 26 01 00 [.'.......#...&..]
  | |        b6350: fb 1b 01 00 67 0e 01 00 a0 15 01 00 3a 2b 01 00 [....g.......:+..]
  | |        b6360: 56 08 01 00 c8 ea 00 00 6a c4 00 00 ed c9 00 00 [V.......j.......]
  | |        b6370: 50 61 00 00 09 2c 01 00 20 22 01 00 13 30 01 00 [Pa...,.. "...0..]
  | |        b6380: 58 11 01 00 35 30 01 00 c1 3d 01 00 89 2c 01 00 [X...50...=...,..]
  | |        b6390: de 1f 01 00 ee 1b 01 00 86 28 01 00 71 1d 01 00 [.........(..q...]
  | |        b63a0: 20 01 01 00 29 be 00 00 e5 c0 00 00 03 5f 00 00 [ ...)........_..]
  | |        b63b0: 42 1c 01 00 a0 0f 01 00 1d 1d 01 00 25 00 01 00 [B...........%...]
  | |        b63c0: ba 1d 01 00 42 29 01 00 42 1b 01 00 f1 16 01 00 [....B)..B.......]
  | |        b63d0: 88 27 01 00 2b 09 01 00 9f d2 00 00 53 c0 00 00 [.'..+.......S...]
  | |        b63e0: d6 bc 00 00 eb bc 00 00 32 5e 00 00 23 20 01 00 [........2^..# ..]
  | |        b63f0: a5 1d 01 00 31 2e 01 00 bf 09 01 00 22 2e 01 00 [....1......."...]
  | |        b6400: 72 37 01 00 fb 21 01 00 2d 23 01 00 9e 22 01 00 [r7...!..-#..."..]
  | |        b6410: 00 04 01 00 e3 fa 00 00 de d0 00 00 a9 bc 00 00 [................]
  | |        b6420: b7 bd 00 00 0d 5e 00 00 22 29 01 00 db 19 01 00 [.....^..")......]
  | |        b6430: 38 22 01 00 29 ff 00 00 ea 1d 01 00 8d 31 01 00 [8"..)........1..]
  | |        b6440: 8a 20 01 00 6f 2a 01 00 ab 2e 01 00 f6 0f 01 00 [. ..o*..........]
  | |        b6450: d7 f6 00 00 21 cf 00 00 cb be 00 00 14 c3 00 00 [....!...........]
  | |        b6460: 43 60 00 00 b3 24 01 00 e9 17 01 00 b0 27 01 00 [C`...$.......'..]
  | |        b6470: d9 0e 01 00 39 30 01 00 9f 38 01 00 3f 24 01 00 [....90...8..?$..]
  | |        b6480: fe 22 01 00 e6 2d 01 00 1d fa 00 00 9b d1 00 00 [."...-..........]
  | |        b6490: 68 c7 00 00 09 c6 00 00 54 cd 00 00 55 63 00 00 [h.......T...Uc..]
  | |        b64a0: 34 20 01 00 44 1c 01 00 df 30 01 00 a2 11 01 00 [4 ..D....0......]
  | |        b64b0: b6 23 01 00 e1 30 01 00 0a 27 01 00 d6 23 01 00 [.#...0...'...#..]
  | |        b64c0: 0b 34 01 00 e6 12 01 00 3a d5 00 00 7d cb 00 00 [.4......:...}...]
  | |        b64d0: a1 d1 00 00 5e d5 00 00 9e 64 00 00 57 10 01 00 [....^....d..W...]
  | |        b64e0: d1 14 01 00 5e 26 01 00 d1 14 01 00 de 25 01 00 [....^&.......%..]
  | |        b64f0: 3a 31 01 00 2d 24 01 00 98 30 01 00 a9 28 01 00 [:1..-$...0...(..]
  | |        b6500: a3 18 01 00 ee 08 01 00 d4 db 00 00 56 d6 00 00 [............V...]
  | |        b6510: 91 d6 00 00 e1 61 00 00 8c d3 00 00 9a e3 00 00 [.....a..........]
  | |        b6520: ec ec 00 00 1c e9 00 00 5c f5 00 00 db f9 00 00 [........\.......]
  | |        b6530: 90 f3 00 00 3e fb 00 00 8d f3 00 00 20 eb 00 00 [....>....... ...]
  | |        b6540: 63 f4 00 00 2b ea 00 00 f9 b7 00 00 7e b1 00 00 [c...+.......~...]
  | |        b6550: 5b 4b 00 00                                     [[K..]
  | | 12) CFARepeatPatternDim = 2 2
  | |     - Tag 0x828d (4 bytes, int16u[2]):
  | |        b5f70: 02 00 02 00                                     [....]
  | | 13) CFAPattern2 = 1 0 2 1
  | |     - Tag 0x828e (4 bytes, int8u[4]):
  | |        b5f7c: 01 00 02 01                                     [....]
  | | 14) CFAPlaneColor = 0 1 2
  | |     - Tag 0xc616 (3 bytes, int8u[3]):
  | |        b5f88: 00 01 02                                        [...]
  | | 15) CFALayout = 1
  | |     - Tag 0xc617 (2 bytes, int16u[1]):
  | |        b5f94: 01 00                                           [..]
  | | 16) BlackLevelRepeatDim = 2 2
  | |     - Tag 0xc619 (4 bytes, int16u[2]):
  | |        b5fa0: 02 00 02 00                                     [....]
  | | 17) BlackLevel = 143 143 143 143 (36608/256 36608/256 36608/256 36608/256)
  | |     - Tag 0xc61a (32 bytes, rational64u[4]):
  | |        b6554: 00 8f 00 00 00 01 00 00 00 8f 00 00 00 01 00 00 [................]
  | |        b6564: 00 8f 00 00 00 01 00 00 00 8f 00 00 00 01 00 00 [................]
  | | 18) WhiteLevel = 3956
  | |     - Tag 0xc61d (2 bytes, int16u[1]):
  | |        b5fb8: 74 0f                                           [t.]
  | | 19) DefaultScale = 1 1 (1/1 1/1)
  | |     - Tag 0xc61e (16 bytes, rational64u[2]):
  | |        b6574: 01 00 00 00 01 00 00 00 01 00 00 00 01 00 00 00 [................]
  | | 20) DefaultCropOrigin = 8 8 (8/1 8/1)
  | |     - Tag 0xc61f (16 bytes, rational64u[2]):
  | |        b6584: 08 00 00 00 01 00 00 00 08 00 00 00 01 00 00 00 [................]
  | | 21) DefaultCropSize = 3648 2736 (3648/1 2736/1)
  | |     - Tag 0xc620 (16 bytes, rational64u[2]):
  | |        b6594: 40 0e 00 00 01 00 00 00 b0 0a 00 00 01 00 00 00 [@...............]
  | | 22) BayerGreenSplit = 250
  | |     - Tag 0xc62d (4 bytes, int32u[1]):
  | |        b5fe8: fa 00 00 00                                     [....]
  | | 23) AntiAliasStrength = 1 (100/100)
  | |     - Tag 0xc632 (8 bytes, rational64u[1]):
  | |        b65a4: 64 00 00 00 64 00 00 00                         [d...d...]
  | | 24) BestQualityScale = 1 (1/1)
  | |     - Tag 0xc65c (8 bytes, rational64u[1]):
  | |        b65ac: 01 00 00 00 01 00 00 00                         [........]
  | | 25) ActiveArea = 0 0 2752 3664
  | |     - Tag 0xc68d (16 bytes, int32u[4]):
  | |        b65b4: 00 00 00 00 00 00 00 00 c0 0a 00 00 50 0e 00 00 [............P...]
  | | 26) OpcodeList3 = ......?.....ht......m ..~..F.?.M.....?...t.....t.........&...?.c.;..?..r.F....t........?....?.l..cC?.?.
  | |     - Tag 0xc74e (184 bytes, undef[184]):
  | |        b65c4: 00 00 00 01 00 00 00 01 01 03 00 00 00 00 00 00 [................]
  | |        b65d4: 00 00 00 a4 00 00 00 03 3f f0 0d b7 93 a4 68 74 [........?.....ht]
  | |        b65e4: bf b6 9d e4 96 05 6d 20 bf a7 7e 91 df 46 1c 00 [......m ..~..F..]
  | |        b65f4: 3f 97 4d 9a e5 88 e1 80 00 00 00 00 00 00 00 00 [?.M.............]
  | |        b6604: 00 00 00 00 00 00 00 00 3f f0 0b 1e 74 c9 a6 c7 [........?...t...]
  | |        b6614: bf b6 74 ce c8 8d 17 e0 bf a7 c9 e3 26 c6 e0 80 [..t.........&...]
  | |        b6624: 3f 97 63 e8 3b 8e f9 00 00 00 00 00 00 00 00 00 [?.c.;...........]
  | |        b6634: 00 00 00 00 00 00 00 00 3f f0 0c 72 f5 46 86 d2 [........?..r.F..]
  | |        b6644: bf b6 74 95 d4 ea c5 a0 bf a7 c4 3f e2 1a b7 80 [..t........?....]
  | |        b6654: 3f 97 6c 83 e3 63 43 00 00 00 00 00 00 00 00 00 [?.l..cC.........]
  | |        b6664: 00 00 00 00 00 00 00 00 3f e0 00 00 00 00 00 00 [........?.......]
  | |        b6674: 3f e0 00 00 00 00 00 00                         [?.......]
  | | 27) NoiseProfile = 0.000206411535820554 3.04830497207869e-07
  | |     - Tag 0xc761 (16 bytes, double[2]):
  | |        b667c: 62 cd 7b 97 05 0e 2b 3f be bc 68 b4 f2 74 94 3e [b.{...+?..h..t.>]
  | + [SubIFD1 directory with 20 entries, Little-endian]
  | | 0)  SubfileType = 1
  | |     - Tag 0x00fe (4 bytes, int32u[1]):
  | |        b6696: 01 00 00 00                                     [....]
  | | 1)  ImageWidth = 1024
  | |     - Tag 0x0100 (4 bytes, int32u[1]):
  | |        b66a2: 00 04 00 00                                     [....]
  | | 2)  ImageHeight = 768
  | |     - Tag 0x0101 (4 bytes, int32u[1]):
  | |        b66ae: 00 03 00 00                                     [....]
  | | 3)  BitsPerSample = 8 8 8
  | |     - Tag 0x0102 (6 bytes, int16u[3]):
  | |        b6782: 08 00 08 00 08 00                               [......]
  | | 4)  Compression = 7
  | |     - Tag 0x0103 (2 bytes, int16u[1]):
  | |        b66c6: 07 00                                           [..]
  | | 5)  PhotometricInterpretation = 6
  | |     - Tag 0x0106 (2 bytes, int16u[1]):
  | |        b66d2: 06 00                                           [..]
  | | 6)  PreviewImageStart = 896622
  | |     - Tag 0x0111 (4 bytes, int32u[1]):
  | |        b66de: 6e ae 0d 00                                     [n...]
  | | 7)  SamplesPerPixel = 3
  | |     - Tag 0x0115 (2 bytes, int16u[1]):
  | |        b66ea: 03 00                                           [..]
  | | 8)  RowsPerStrip = 768
  | |     - Tag 0x0116 (4 bytes, int32u[1]):
  | |        b66f6: 00 03 00 00                                     [....]
  | | 9)  PreviewImageLength = 167003
  | |     - Tag 0x0117 (4 bytes, int32u[1]):
  | |        b6702: 5b 8c 02 00                                     [[...]
  | | 10) PlanarConfiguration = 1
  | |     - Tag 0x011c (2 bytes, int16u[1]):
  | |        b670e: 01 00                                           [..]
  | | 11) YCbCrCoefficients = 0.299 0.587 0.114 (299/1000 587/1000 114/1000)
  | |     - Tag 0x0211 (24 bytes, rational64u[3]):
  | |        b6788: 2b 01 00 00 e8 03 00 00 4b 02 00 00 e8 03 00 00 [+.......K.......]
  | |        b6798: 72 00 00 00 e8 03 00 00                         [r.......]
  | | 12) YCbCrSubSampling = 2 2
  | |     - Tag 0x0212 (4 bytes, int16u[2]):
  | |        b6726: 02 00 02 00                                     [....]
  | | 13) YCbCrPositioning = 0
  | |     - Tag 0x0213 (2 bytes, int16u[1]):
  | |        b6732: 00 00                                           [..]
  | | 14) ReferenceBlackWhite = 0 255 128 255 128 255 (0/1 255/1 128/1 255/1 128/1 255/1)
  | |     - Tag 0x0214 (48 bytes, rational64u[6]):
  | |        b67a0: 00 00 00 00 01 00 00 00 ff 00 00 00 01 00 00 00 [................]
  | |        b67b0: 80 00 00 00 01 00 00 00 ff 00 00 00 01 00 00 00 [................]
  | |        b67c0: 80 00 00 00 01 00 00 00 ff 00 00 00 01 00 00 00 [................]
  | | 15) PreviewApplicationName = Adobe DNG Converter
  | |     - Tag 0xc716 (20 bytes, string[20]):
  | |        b67d0: 41 64 6f 62 65 20 44 4e 47 20 43 6f 6e 76 65 72 [Adobe DNG Conver]
  | |        b67e0: 74 65 72 00                                     [ter.]
  | | 16) PreviewApplicationVersion = 15.4
  | |     - Tag 0xc717 (5 bytes, string[5]):
  | |        b67e4: 31 35 2e 34 00                                  [15.4.]
  | | 17) PreviewSettingsDigest = .O.C.k....Jh....
  | |     - Tag 0xc719 (16 bytes, int8u[16] read as undef[16]):
  | |        b67ea: cd 4f 12 43 c9 6b ae 12 0d e6 4a 68 8f 03 bb f1 [.O.C.k....Jh....]
  | | 18) PreviewColorSpace = 2
  | |     - Tag 0xc71a (4 bytes, int32u[1]):
  | |        b676e: 02 00 00 00                                     [....]
  | | 19) PreviewDateTime = 2023-07-26T06:11:34+02:00
  | |     - Tag 0xc71b (26 bytes, string[26]):
  | |        b67fa: 32 30 32 33 2d 30 37 2d 32 36 54 30 36 3a 31 31 [2023-07-26T06:11]
  | |        b680a: 3a 33 34 2b 30 32 3a 30 30 00                   [:34+02:00.]
  | + [SubIFD2 directory with 16 entries, Little-endian]
  | | 0)  SubfileType = 1
  | |     - Tag 0x00fe (4 bytes, int32u[1]):
  | |        b681e: 01 00 00 00                                     [....]
  | | 1)  ImageWidth = 2048
  | |     - Tag 0x0100 (4 bytes, int32u[1]):
  | |        b682a: 00 08 00 00                                     [....]
  | | 2)  ImageHeight = 1536
  | |     - Tag 0x0101 (4 bytes, int32u[1]):
  | |        b6836: 00 06 00 00                                     [....]
  | | 3)  BitsPerSample = 8 8 8
  | |     - Tag 0x0102 (6 bytes, int16u[3]):
  | |        b68da: 08 00 08 00 08 00                               [......]
  | | 4)  Compression = 34892
  | |     - Tag 0x0103 (2 bytes, int16u[1]):
  | |        b684e: 4c 88                                           [L.]
  | | 5)  PhotometricInterpretation = 34892
  | |     - Tag 0x0106 (2 bytes, int16u[1]):
  | |        b685a: 4c 88                                           [L.]
  | | 6)  SamplesPerPixel = 3
  | |     - Tag 0x0115 (2 bytes, int16u[1]):
  | |        b6866: 03 00                                           [..]
  | | 7)  PlanarConfiguration = 1
  | |     - Tag 0x011c (2 bytes, int16u[1]):
  | |        b6872: 01 00                                           [..]
  | | 8)  TileWidth = 512
  | |     - Tag 0x0142 (4 bytes, int32u[1]):
  | |        b687e: 00 02 00 00                                     [....]
  | | 9)  TileLength = 512
  | |     - Tag 0x0143 (4 bytes, int32u[1]):
  | |        b688a: 00 02 00 00                                     [....]
  | | 10) TileOffsets = 1063626 1152024 1239494 1319338 1372880 1464272 1552292 1632972 1685810 1770122 1866434 1958686
  | |     - Tag 0x0144 (48 bytes, int32u[12]):
  | |        b68e0: ca 3a 10 00 18 94 11 00 c6 e9 12 00 aa 21 14 00 [.:...........!..]
  | |        b68f0: d0 f2 14 00 d0 57 16 00 a4 af 17 00 cc ea 18 00 [.....W..........]
  | |        b6900: 32 b9 19 00 8a 02 1b 00 c2 7a 1c 00 1e e3 1d 00 [2........z......]
  | | 11) TileByteCounts = 88397 87470 79844 53542 91391 88020 80679 52838 84311 96312 92252 55016
  | |     - Tag 0x0145 (48 bytes, int32u[12]):
  | |        b6910: 4d 59 01 00 ae 55 01 00 e4 37 01 00 26 d1 00 00 [MY...U...7..&...]
  | |        b6920: ff 64 01 00 d4 57 01 00 27 3b 01 00 66 ce 00 00 [.d...W..';..f...]
  | |        b6930: 57 49 01 00 38 78 01 00 5c 68 01 00 e8 d6 00 00 [WI..8x..\h......]
  | | 12) PreviewApplicationName = Adobe DNG Converter
  | |     - Tag 0xc716 (20 bytes, string[20]):
  | |        b6940: 41 64 6f 62 65 20 44 4e 47 20 43 6f 6e 76 65 72 [Adobe DNG Conver]
  | |        b6950: 74 65 72 00                                     [ter.]
  | | 13) PreviewApplicationVersion = 15.4
  | |     - Tag 0xc717 (5 bytes, string[5]):
  | |        b6954: 31 35 2e 34 00                                  [15.4.]
  | | 14) OpcodeList2 = ....D......?.C..0..?.....<<?.o..u.....D.......?|.W.O.o?...P.`A?.....Y....D.......?w..9...?..F)..-?....9..
  | |     - Tag 0xc741 (256 bytes, undef[256]):
  | |        b695a: 00 00 00 03 00 00 00 08 01 03 00 00 00 00 00 00 [................]
  | |        b696a: 00 00 00 44 00 00 00 00 00 00 00 00 00 00 06 00 [...D............]
  | |        b697a: 00 00 08 00 00 00 00 00 00 00 00 01 00 00 00 01 [................]
  | |        b698a: 00 00 00 01 00 00 00 03 3f 84 43 99 d6 30 f1 14 [........?.C..0..]
  | |        b699a: 3f 7f ae f1 98 a7 3c 3c 00 00 00 00 00 00 00 00 [?.....<<........]
  | |        b69aa: 3f ef 6f 93 b5 75 ed c4 00 00 00 08 01 03 00 00 [?.o..u..........]
  | |        b69ba: 00 00 00 00 00 00 00 44 00 00 00 00 00 00 00 00 [.......D........]
  | |        b69ca: 00 00 06 00 00 00 08 00 00 00 00 01 00 00 00 01 [................]
  | |        b69da: 00 00 00 01 00 00 00 01 00 00 00 03 3f 7c a9 57 [............?|.W]
  | |        b69ea: be 4f df 6f 3f 7f c6 ad 50 83 60 41 00 00 00 00 [.O.o?...P.`A....]
  | |        b69fa: 00 00 00 00 3f ef 87 1f f5 e2 59 80 00 00 00 08 [....?.....Y.....]
  | |        b6a0a: 01 03 00 00 00 00 00 00 00 00 00 44 00 00 00 00 [...........D....]
  | |        b6a1a: 00 00 00 00 00 00 06 00 00 00 08 00 00 00 00 02 [................]
  | |        b6a2a: 00 00 00 01 00 00 00 01 00 00 00 01 00 00 00 03 [................]
  | |        b6a3a: 3f 77 dc eb 39 ab e9 81 3f 7f d0 46 29 8c a8 2d [?w..9...?..F)..-]
  | |        b6a4a: 00 00 00 00 00 00 00 00 3f ef 90 a5 9d 39 8e dd [........?....9..]
  | | 15) CacheVersion = 0 1 0 0
  | |     - Tag 0xc7aa (4 bytes, int32u[1] read as int8u[4]):
  | |        b68d2: 00 01 00 00                                     [....]
  | + [SubIFD3 directory with 17 entries, Little-endian]
  | | 0)  SubfileType = 1
  | |     - Tag 0x00fe (4 bytes, int32u[1]):
  | |        b6a64: 01 00 00 00                                     [....]
  | | 1)  ImageWidth = 512
  | |     - Tag 0x0100 (4 bytes, int32u[1]):
  | |        b6a70: 00 02 00 00                                     [....]
  | | 2)  ImageHeight = 384
  | |     - Tag 0x0101 (4 bytes, int32u[1]):
  | |        b6a7c: 80 01 00 00                                     [....]
  | | 3)  BitsPerSample = 8 8 8
  | |     - Tag 0x0102 (6 bytes, int16u[3]):
  | |        b6b2c: 08 00 08 00 08 00                               [......]
  | | 4)  Compression = 34892
  | |     - Tag 0x0103 (2 bytes, int16u[1]):
  | |        b6a94: 4c 88                                           [L.]
  | | 5)  PhotometricInterpretation = 34892
  | |     - Tag 0x0106 (2 bytes, int16u[1]):
  | |        b6aa0: 4c 88                                           [L.]
  | | 6)  SamplesPerPixel = 3
  | |     - Tag 0x0115 (2 bytes, int16u[1]):
  | |        b6aac: 03 00                                           [..]
  | | 7)  PlanarConfiguration = 1
  | |     - Tag 0x011c (2 bytes, int16u[1]):
  | |        b6ab8: 01 00                                           [..]
  | | 8)  TileWidth = 512
  | |     - Tag 0x0142 (4 bytes, int32u[1]):
  | |        b6ac4: 00 02 00 00                                     [....]
  | | 9)  TileLength = 384
  | |     - Tag 0x0143 (4 bytes, int32u[1]):
  | |        b6ad0: 80 01 00 00                                     [....]
  | | 10) TileOffsets = 2013702
  | |     - Tag 0x0144 (4 bytes, int32u[1]):
  | |        b6adc: 06 ba 1e 00                                     [....]
  | | 11) TileByteCounts = 94766
  | |     - Tag 0x0145 (4 bytes, int32u[1]):
  | |        b6ae8: 2e 72 01 00                                     [.r..]
  | | 12) BlackLevel = 47 51 51 (47/1 51/1 51/1)
  | |     - Tag 0xc61a (24 bytes, rational64u[3]):
  | |        b6b32: 2f 00 00 00 01 00 00 00 33 00 00 00 01 00 00 00 [/.......3.......]
  | |        b6b42: 33 00 00 00 01 00 00 00                         [3.......]
  | | 13) PreviewApplicationName = Adobe DNG Converter
  | |     - Tag 0xc716 (20 bytes, string[20]):
  | |        b6b4a: 41 64 6f 62 65 20 44 4e 47 20 43 6f 6e 76 65 72 [Adobe DNG Conver]
  | |        b6b5a: 74 65 72 00                                     [ter.]
  | | 14) PreviewApplicationVersion = 15.4
  | |     - Tag 0xc717 (5 bytes, string[5]):
  | |        b6b5e: 31 35 2e 34 00                                  [15.4.]
  | | 15) OpcodeList2 = ....D.......?~..Fe..?..1...N...D........?.?.....D........?}..y.nV?.yY...y
  | |     - Tag 0xc741 (256 bytes, undef[256]):
  | |        b6b64: 00 00 00 03 00 00 00 08 01 03 00 00 00 00 00 00 [................]
  | |        b6b74: 00 00 00 44 00 00 00 00 00 00 00 00 00 00 01 80 [...D............]
  | |        b6b84: 00 00 02 00 00 00 00 00 00 00 00 01 00 00 00 01 [................]
  | |        b6b94: 00 00 00 01 00 00 00 03 00 00 00 00 00 00 00 00 [................]
  | |        b6ba4: 3f 7e cd cd 46 65 b9 c2 00 00 00 00 00 00 00 00 [?~..Fe..........]
  | |        b6bb4: 3f ee 90 31 ab d8 ee 4e 00 00 00 08 01 03 00 00 [?..1...N........]
  | |        b6bc4: 00 00 00 00 00 00 00 44 00 00 00 00 00 00 00 00 [.......D........]
  | |        b6bd4: 00 00 01 80 00 00 02 00 00 00 00 01 00 00 00 01 [................]
  | |        b6be4: 00 00 00 01 00 00 00 01 00 00 00 03 00 00 00 00 [................]
  | |        b6bf4: 00 00 00 00 3f 80 00 00 00 00 00 00 00 00 00 00 [....?...........]
  | |        b6c04: 00 00 00 00 3f ef c0 00 00 00 00 00 00 00 00 08 [....?...........]
  | |        b6c14: 01 03 00 00 00 00 00 00 00 00 00 44 00 00 00 00 [...........D....]
  | |        b6c24: 00 00 00 00 00 00 01 80 00 00 02 00 00 00 00 02 [................]
  | |        b6c34: 00 00 00 01 00 00 00 01 00 00 00 01 00 00 00 03 [................]
  | |        b6c44: 00 00 00 00 00 00 00 00 3f 7d b4 c3 79 ac 6e 56 [........?}..y.nV]
  | |        b6c54: 00 00 00 00 00 00 00 00 3f ed 79 59 f2 b9 15 79 [........?.yY...y]
  | | 16) CacheVersion = 0 1 0 0
  | |     - Tag 0xc7aa (4 bytes, int32u[1] read as int8u[4]):
  | |        b6b24: 00 01 00 00                                     [....]
  | + [SubIFD4 directory with 17 entries, Little-endian]
  | | 0)  SubfileType = 1
  | |     - Tag 0x00fe (4 bytes, int32u[1]):
  | |        b6c6e: 01 00 00 00                                     [....]
  | | 1)  ImageWidth = 256
  | |     - Tag 0x0100 (4 bytes, int32u[1]):
  | |        b6c7a: 00 01 00 00                                     [....]
  | | 2)  ImageHeight = 192
  | |     - Tag 0x0101 (4 bytes, int32u[1]):
  | |        b6c86: c0 00 00 00                                     [....]
  | | 3)  BitsPerSample = 8 8 8
  | |     - Tag 0x0102 (6 bytes, int16u[3]):
  | |        b6d36: 08 00 08 00 08 00                               [......]
  | | 4)  Compression = 34892
  | |     - Tag 0x0103 (2 bytes, int16u[1]):
  | |        b6c9e: 4c 88                                           [L.]
  | | 5)  PhotometricInterpretation = 34892
  | |     - Tag 0x0106 (2 bytes, int16u[1]):
  | |        b6caa: 4c 88                                           [L.]
  | | 6)  SamplesPerPixel = 3
  | |     - Tag 0x0115 (2 bytes, int16u[1]):
  | |        b6cb6: 03 00                                           [..]
  | | 7)  PlanarConfiguration = 1
  | |     - Tag 0x011c (2 bytes, int16u[1]):
  | |        b6cc2: 01 00                                           [..]
  | | 8)  TileWidth = 256
  | |     - Tag 0x0142 (4 bytes, int32u[1]):
  | |        b6cce: 00 01 00 00                                     [....]
  | | 9)  TileLength = 192
  | |     - Tag 0x0143 (4 bytes, int32u[1]):
  | |        b6cda: c0 00 00 00                                     [....]
  | | 10) TileOffsets = 2108468
  | |     - Tag 0x0144 (4 bytes, int32u[1]):
  | |        b6ce6: 34 2c 20 00                                     [4, .]
  | | 11) TileByteCounts = 30778
  | |     - Tag 0x0145 (4 bytes, int32u[1]):
  | |        b6cf2: 3a 78 00 00                                     [:x..]
  | | 12) BlackLevel = 51 51 51 (51/1 51/1 51/1)
  | |     - Tag 0xc61a (24 bytes, rational64u[3]):
  | |        b6d3c: 33 00 00 00 01 00 00 00 33 00 00 00 01 00 00 00 [3.......3.......]
  | |        b6d4c: 33 00 00 00 01 00 00 00                         [3.......]
  | | 13) PreviewApplicationName = Adobe DNG Converter
  | |     - Tag 0xc716 (20 bytes, string[20]):
  | |        b6d54: 41 64 6f 62 65 20 44 4e 47 20 43 6f 6e 76 65 72 [Adobe DNG Conver]
  | |        b6d64: 74 65 72 00                                     [ter.]
  | | 14) PreviewApplicationVersion = 15.4
  | |     - Tag 0xc717 (5 bytes, string[5]):
  | |        b6d68: 31 35 2e 34 00                                  [15.4.]
  | | 15) OpcodeList2 = ....D......?y..I.C.?.on.z+....D.......?}....FU?...k......D.......?x..X...?..g.I.w
  | |     - Tag 0xc741 (256 bytes, undef[256]):
  | |        b6d6e: 00 00 00 03 00 00 00 08 01 03 00 00 00 00 00 00 [................]
  | |        b6d7e: 00 00 00 44 00 00 00 00 00 00 00 00 00 00 00 c0 [...D............]
  | |        b6d8e: 00 00 01 00 00 00 00 00 00 00 00 01 00 00 00 01 [................]
  | |        b6d9e: 00 00 00 01 00 00 00 03 00 00 00 00 00 00 00 00 [................]
  | |        b6dae: 3f 79 a2 b4 49 0c 43 89 00 00 00 00 00 00 00 00 [?y..I.C.........]
  | |        b6dbe: 3f e9 6f 6e e0 7a 2b 02 00 00 00 08 01 03 00 00 [?.on.z+.........]
  | |        b6dce: 00 00 00 00 00 00 00 44 00 00 00 00 00 00 00 00 [.......D........]
  | |        b6dde: 00 00 00 c0 00 00 01 00 00 00 00 01 00 00 00 01 [................]
  | |        b6dee: 00 00 00 01 00 00 00 01 00 00 00 03 00 00 00 00 [................]
  | |        b6dfe: 00 00 00 00 3f 7d 09 b3 d2 c5 46 55 00 00 00 00 [....?}....FU....]
  | |        b6e0e: 00 00 00 00 3f ec cf a0 6b 1f bb c8 00 00 00 08 [....?...k.......]
  | |        b6e1e: 01 03 00 00 00 00 00 00 00 00 00 44 00 00 00 00 [...........D....]
  | |        b6e2e: 00 00 00 00 00 00 00 c0 00 00 01 00 00 00 00 02 [................]
  | |        b6e3e: 00 00 00 01 00 00 00 01 00 00 00 01 00 00 00 03 [................]
  | |        b6e4e: 00 00 00 00 00 00 00 00 3f 78 1d a2 58 fb cb 0d [........?x..X...]
  | |        b6e5e: 00 00 00 00 00 00 00 00 3f e7 ed 67 14 49 d3 77 [........?..g.I.w]
  | | 16) CacheVersion = 0 1 0 0
  | |     - Tag 0xc7aa (4 bytes, int32u[1] read as int8u[4]):
  | |        b6d2e: 00 01 00 00                                     [....]
  | 17) ApplicationNotes (SubDirectory) -->
  |     - Tag 0x02bc (6163 bytes, int8u[6163] read as undef[6163]):
  |         0308: 3c 3f 78 70 61 63 6b 65 74 20 62 65 67 69 6e 3d [<?xpacket begin=]
  |         0318: 22 ef bb bf 22 20 69 64 3d 22 57 35 4d 30 4d 70 ["..." id="W5M0Mp]
  |         0328: 43 65 68 69 48 7a 72 65 53 7a 4e 54 63 7a 6b 63 [CehiHzreSzNTczkc]
  |         0338: 39 64 22 3f 3e 0a 3c 78 3a 78 6d 70 6d 65 74 61 [9d"?>.<x:xmpmeta]
  |         0348: 20 78 6d 6c 6e 73 3a 78 3d 22 61 64 6f 62 65 3a [ xmlns:x="adobe:]
  |         0358: 6e 73 3a 6d 65 74 61 2f 22 20 78 3a 78 6d 70 74 [ns:meta/" x:xmpt]
  |         0368: 6b 3d 22 41 64 6f 62 65 20 58 4d 50 20 43 6f 72 [k="Adobe XMP Cor]
  |         0378: 65 20 37 2e 30 2d 63 30 30 30 20 31 2e 30 30 30 [e 7.0-c000 1.000]
  |         0388: 30 30 30 2c 20 30 30 30 30 2f 30 30 2f 30 30 2d [000, 0000/00/00-]
  |         0398: 30 30 3a 30 30 3a 30 30 20 20 20 20 20 20 20 20 [00:00:00        ]
  |         03a8: 22 3e 0a 20 3c 72 64 66 3a 52 44 46 20 78 6d 6c [">. <rdf:RDF xml]
  |         03b8: 6e 73 3a 72 64 66 3d 22 68 74 74 70 3a 2f 2f 77 [ns:rdf="http://w]
  |         03c8: 77 77 2e 77 33 2e 6f 72 67 2f 31 39 39 39 2f 30 [ww.w3.org/1999/0]
  |         03d8: 32 2f 32 32 2d 72 64 66 2d 73 79 6e 74 61 78 2d [2/22-rdf-syntax-]
  |         03e8: 6e 73 23 22 3e 0a 20 20 3c 72 64 66 3a 44 65 73 [ns#">.  <rdf:Des]
  |         03f8: 63 72 69 70 74 69 6f 6e 20 72 64 66 3a 61 62 6f [cription rdf:abo]
  |         0408: 75 74 3d 22 22 0a 20 20 20 20 78 6d 6c 6e 73 3a [ut="".    xmlns:]
  |         0418: 61 75 78 3d 22 68 74 74 70 3a 2f 2f 6e 73 2e 61 [aux="http://ns.a]
  |         0428: 64 6f 62 65 2e 63 6f 6d 2f 65 78 69 66 2f 31 2e [dobe.com/exif/1.]
  |         0438: 30 2f 61 75 78 2f 22 0a 20 20 20 20 78 6d 6c 6e [0/aux/".    xmln]
  |         0448: 73 3a 78 6d 70 3d 22 68 74 74 70 3a 2f 2f 6e 73 [s:xmp="http://ns]
  |         0458: 2e 61 64 6f 62 65 2e 63 6f 6d 2f 78 61 70 2f 31 [.adobe.com/xap/1]
  |         0468: 2e 30 2f 22 0a 20 20 20 20 78 6d 6c 6e 73 3a 70 [.0/".    xmlns:p]
  |         0478: 68 6f 74 6f 73 68 6f 70 3d 22 68 74 74 70 3a 2f [hotoshop="http:/]
  |         0488: 2f 6e 73 2e 61 64 6f 62 65 2e 63 6f 6d 2f 70 68 [/ns.adobe.com/ph]
  |         0498: 6f 74 6f 73 68 6f 70 2f 31 2e 30 2f 22 0a 20 20 [otoshop/1.0/".  ]
  |         04a8: 20 20 78 6d 6c 6e 73 3a 78 6d 70 4d 4d 3d 22 68 [  xmlns:xmpMM="h]
  |         04b8: 74 74 70 3a 2f 2f 6e 73 2e 61 64 6f 62 65 2e 63 [ttp://ns.adobe.c]
  |         04c8: 6f 6d 2f 78 61 70 2f 31 2e 30 2f 6d 6d 2f 22 0a [om/xap/1.0/mm/".]
  |         04d8: 20 20 20 20 78 6d 6c 6e 73 3a 73 74 45 76 74 3d [    xmlns:stEvt=]
  |         04e8: 22 68 74 74 70 3a 2f 2f 6e 73 2e 61 64 6f 62 65 ["http://ns.adobe]
  |         04f8: 2e 63 6f 6d 2f 78 61 70 2f 31 2e 30 2f 73 54 79 [.com/xap/1.0/sTy]
  |         0508: 70 65 2f 52 65 73 6f 75 72 63 65 45 76 65 6e 74 [pe/ResourceEvent]
  |         0518: 23 22 0a 20 20 20 20 78 6d 6c 6e 73 3a 73 74 52 [#".    xmlns:stR]
  |         0528: 65 66 3d 22 68 74 74 70 3a 2f 2f 6e 73 2e 61 64 [ef="http://ns.ad]
  |         0538: 6f 62 65 2e 63 6f 6d 2f 78 61 70 2f 31 2e 30 2f [obe.com/xap/1.0/]
  |         0548: 73 54 79 70 65 2f 52 65 73 6f 75 72 63 65 52 65 [sType/ResourceRe]
  |         0558: 66 23 22 0a 20 20 20 20 78 6d 6c 6e 73 3a 64 63 [f#".    xmlns:dc]
  |         0568: 3d 22 68 74 74 70 3a 2f 2f 70 75 72 6c 2e 6f 72 [="http://purl.or]
  |         0578: 67 2f 64 63 2f 65 6c 65 6d 65 6e 74 73 2f 31 2e [g/dc/elements/1.]
  |         0588: 31 2f 22 0a 20 20 20 20 78 6d 6c 6e 73 3a 63 72 [1/".    xmlns:cr]
  |         0598: 64 3d 22 68 74 74 70 3a 2f 2f 6e 73 2e 61 64 6f [d="http://ns.ado]
  |         05a8: 62 65 2e 63 6f 6d 2f 63 61 6d 65 72 61 2d 72 61 [be.com/camera-ra]
  |         05b8: 77 2d 64 65 66 61 75 6c 74 73 2f 31 2e 30 2f 22 [w-defaults/1.0/"]
  |         05c8: 0a 20 20 20 20 78 6d 6c 6e 73 3a 63 72 73 3d 22 [.    xmlns:crs="]
  |         05d8: 68 74 74 70 3a 2f 2f 6e 73 2e 61 64 6f 62 65 2e [http://ns.adobe.]
  |         05e8: 63 6f 6d 2f 63 61 6d 65 72 61 2d 72 61 77 2d 73 [com/camera-raw-s]
  |         05f8: 65 74 74 69 6e 67 73 2f 31 2e 30 2f 22 0a 20 20 [ettings/1.0/".  ]
  |         0608: 20 61 75 78 3a 53 65 72 69 61 6c 4e 75 6d 62 65 [ aux:SerialNumbe]
  |         0618: 72 3d 22 46 31 31 31 33 31 31 30 39 30 31 35 38 [r="F111311090158]
  |         0628: 22 0a 20 20 20 78 6d 70 3a 4d 6f 64 69 66 79 44 [".   xmp:ModifyD]
  |         0638: 61 74 65 3d 22 32 30 32 33 2d 30 37 2d 32 36 54 [ate="2023-07-26T]
  |         0648: 30 36 3a 31 31 3a 33 34 2b 30 32 3a 30 30 22 0a [06:11:34+02:00".]
  |         0658: 20 20 20 78 6d 70 3a 43 72 65 61 74 65 44 61 74 [   xmp:CreateDat]
  |         0668: 65 3d 22 32 30 31 34 2d 31 31 2d 31 39 54 32 33 [e="2014-11-19T23]
  |         0678: 3a 30 37 3a 34 34 22 0a 20 20 20 78 6d 70 3a 43 [:07:44".   xmp:C]
  |         0688: 72 65 61 74 6f 72 54 6f 6f 6c 3d 22 41 64 6f 62 [reatorTool="Adob]
  |         0698: 65 20 44 4e 47 20 43 6f 6e 76 65 72 74 65 72 20 [e DNG Converter ]
  |         06a8: 31 35 2e 34 20 28 4d 61 63 69 6e 74 6f 73 68 29 [15.4 (Macintosh)]
  |         06b8: 22 0a 20 20 20 78 6d 70 3a 4d 65 74 61 64 61 74 [".   xmp:Metadat]
  |         06c8: 61 44 61 74 65 3d 22 32 30 32 33 2d 30 37 2d 32 [aDate="2023-07-2]
  |         06d8: 36 54 30 36 3a 31 31 3a 33 34 2b 30 32 3a 30 30 [6T06:11:34+02:00]
  |         06e8: 22 0a 20 20 20 70 68 6f 74 6f 73 68 6f 70 3a 44 [".   photoshop:D]
  |         06f8: 61 74 65 43 72 65 61 74 65 64 3d 22 32 30 31 34 [ateCreated="2014]
  |         0708: 2d 31 31 2d 31 39 54 32 33 3a 30 37 3a 34 34 22 [-11-19T23:07:44"]
  |         0718: 0a 20 20 20 78 6d 70 4d 4d 3a 44 6f 63 75 6d 65 [.   xmpMM:Docume]
  |         0728: 6e 74 49 44 3d 22 78 6d 70 2e 64 69 64 3a 61 34 [ntID="xmp.did:a4]
  |         0738: 66 61 35 32 30 36 2d 39 62 61 32 2d 34 30 38 62 [fa5206-9ba2-408b]
  |         0748: 2d 39 63 31 65 2d 30 31 62 30 63 61 62 62 66 39 [-9c1e-01b0cabbf9]
  |         0758: 62 31 22 0a 20 20 20 78 6d 70 4d 4d 3a 4f 72 69 [b1".   xmpMM:Ori]
  |         0768: 67 69 6e 61 6c 44 6f 63 75 6d 65 6e 74 49 44 3d [ginalDocumentID=]
  |         0778: 22 39 38 38 38 43 37 35 45 30 39 37 45 33 45 30 ["9888C75E097E3E0]
  |         0788: 42 33 43 37 45 39 46 32 33 43 45 33 35 33 36 42 [B3C7E9F23CE3536B]
  |         0798: 36 22 0a 20 20 20 78 6d 70 4d 4d 3a 49 6e 73 74 [6".   xmpMM:Inst]
  |         07a8: 61 6e 63 65 49 44 3d 22 78 6d 70 2e 69 69 64 3a [anceID="xmp.iid:]
  |         07b8: 61 34 66 61 35 32 30 36 2d 39 62 61 32 2d 34 30 [a4fa5206-9ba2-40]
  |         07c8: 38 62 2d 39 63 31 65 2d 30 31 62 30 63 61 62 62 [8b-9c1e-01b0cabb]
  |         07d8: 66 39 62 31 22 0a 20 20 20 64 63 3a 66 6f 72 6d [f9b1".   dc:form]
  |         07e8: 61 74 3d 22 69 6d 61 67 65 2f 64 6e 67 22 0a 20 [at="image/dng". ]
  |         07f8: 20 20 63 72 64 3a 43 61 6d 65 72 61 50 72 6f 66 [  crd:CameraProf]
  |         0808: 69 6c 65 3d 22 43 61 6d 65 72 61 20 53 74 61 6e [ile="Camera Stan]
  |         0818: 64 61 72 64 22 0a 20 20 20 63 72 64 3a 4c 6f 6f [dard".   crd:Loo]
  |         0828: 6b 4e 61 6d 65 3d 22 22 0a 20 20 20 63 72 73 3a [kName="".   crs:]
  |         0838: 48 61 73 53 65 74 74 69 6e 67 73 3d 22 46 61 6c [HasSettings="Fal]
  |         0848: 73 65 22 0a 20 20 20 63 72 73 3a 48 61 73 43 72 [se".   crs:HasCr]
  |         0858: 6f 70 3d 22 46 61 6c 73 65 22 0a 20 20 20 63 72 [op="False".   cr]
  |         0868: 73 3a 41 6c 72 65 61 64 79 41 70 70 6c 69 65 64 [s:AlreadyApplied]
  |         0878: 3d 22 46 61 6c 73 65 22 3e 0a 20 20 20 3c 78 6d [="False">.   <xm]
  |         0888: 70 4d 4d 3a 48 69 73 74 6f 72 79 3e 0a 20 20 20 [pMM:History>.   ]
  |         0898: 20 3c 72 64 66 3a 53 65 71 3e 0a 20 20 20 20 20 [ <rdf:Seq>.     ]
  |         08a8: 3c 72 64 66 3a 6c 69 0a 20 20 20 20 20 20 73 74 [<rdf:li.      st]
  |         08b8: 45 76 74 3a 61 63 74 69 6f 6e 3d 22 64 65 72 69 [Evt:action="deri]
  |         08c8: 76 65 64 22 0a 20 20 20 20 20 20 73 74 45 76 74 [ved".      stEvt]
  |         08d8: 3a 70 61 72 61 6d 65 74 65 72 73 3d 22 63 6f 6e [:parameters="con]
  |         08e8: 76 65 72 74 65 64 20 66 72 6f 6d 20 69 6d 61 67 [verted from imag]
  |         08f8: 65 2f 78 2d 70 61 6e 61 73 6f 6e 69 63 2d 72 61 [e/x-panasonic-ra]
  |         0908: 77 20 74 6f 20 69 6d 61 67 65 2f 64 6e 67 2c 20 [w to image/dng, ]
  |         0918: 73 61 76 65 64 20 74 6f 20 6e 65 77 20 6c 6f 63 [saved to new loc]
  |         0928: 61 74 69 6f 6e 22 2f 3e 0a 20 20 20 20 20 3c 72 [ation"/>.     <r]
  |         0938: 64 66 3a 6c 69 0a 20 20 20 20 20 20 73 74 45 76 [df:li.      stEv]
  |         0948: 74 3a 61 63 74 69 6f 6e 3d 22 73 61 76 65 64 22 [t:action="saved"]
  |         0958: 0a 20 20 20 20 20 20 73 74 45 76 74 3a 69 6e 73 [.      stEvt:ins]
  |         0968: 74 61 6e 63 65 49 44 3d 22 78 6d 70 2e 69 69 64 [tanceID="xmp.iid]
  |         0978: 3a 61 34 66 61 35 32 30 36 2d 39 62 61 32 2d 34 [:a4fa5206-9ba2-4]
  |         0988: 30 38 62 2d 39 63 31 65 2d 30 31 62 30 63 61 62 [08b-9c1e-01b0cab]
  |         0998: 62 66 39 62 31 22 0a 20 20 20 20 20 20 73 74 45 [bf9b1".      stE]
  |         09a8: 76 74 3a 77 68 65 6e 3d 22 32 30 32 33 2d 30 37 [vt:when="2023-07]
  |         09b8: 2d 32 36 54 30 36 3a 31 31 3a 33 34 2b 30 32 3a [-26T06:11:34+02:]
  |         09c8: 30 30 22 0a 20 20 20 20 20 20 73 74 45 76 74 3a [00".      stEvt:]
  |         09d8: 73 6f 66 74 77 61 72 65 41 67 65 6e 74 3d 22 41 [softwareAgent="A]
  |         09e8: 64 6f 62 65 20 44 4e 47 20 43 6f 6e 76 65 72 74 [dobe DNG Convert]
  |         09f8: 65 72 20 31 35 2e 34 20 28 4d 61 63 69 6e 74 6f [er 15.4 (Macinto]
  |         0a08: 73 68 29 22 0a 20 20 20 20 20 20 73 74 45 76 74 [sh)".      stEvt]
  |         0a18: 3a 63 68 61 6e 67 65 64 3d 22 2f 22 2f 3e 0a 20 [:changed="/"/>. ]
  |         0a28: 20 20 20 3c 2f 72 64 66 3a 53 65 71 3e 0a 20 20 [   </rdf:Seq>.  ]
  |         0a38: 20 3c 2f 78 6d 70 4d 4d 3a 48 69 73 74 6f 72 79 [ </xmpMM:History]
  |         0a48: 3e 0a 20 20 20 3c 78 6d 70 4d 4d 3a 44 65 72 69 [>.   <xmpMM:Deri]
  |         0a58: 76 65 64 46 72 6f 6d 0a 20 20 20 20 73 74 52 65 [vedFrom.    stRe]
  |         0a68: 66 3a 64 6f 63 75 6d 65 6e 74 49 44 3d 22 39 38 [f:documentID="98]
  |         0a78: 38 38 43 37 35 45 30 39 37 45 33 45 30 42 33 43 [88C75E097E3E0B3C]
  |         0a88: 37 45 39 46 32 33 43 45 33 35 33 36 42 36 22 0a [7E9F23CE3536B6".]
  |         0a98: 20 20 20 20 73 74 52 65 66 3a 6f 72 69 67 69 6e [    stRef:origin]
  |         0aa8: 61 6c 44 6f 63 75 6d 65 6e 74 49 44 3d 22 39 38 [alDocumentID="98]
  |         0ab8: 38 38 43 37 35 45 30 39 37 45 33 45 30 42 33 43 [88C75E097E3E0B3C]
  |         0ac8: 37 45 39 46 32 33 43 45 33 35 33 36 42 36 22 2f [7E9F23CE3536B6"/]
  |         0ad8: 3e 0a 20 20 3c 2f 72 64 66 3a 44 65 73 63 72 69 [>.  </rdf:Descri]
  |         0ae8: 70 74 69 6f 6e 3e 0a 20 3c 2f 72 64 66 3a 52 44 [ption>. </rdf:RD]
  |         [snip 4131 bytes]
  | + [XMP directory, 6163 bytes]
  | | XMPToolkit = Adobe XMP Core 7.0-c000 1.000000, 0000/00/00-00:00:00        
  | | SerialNumber = F111311090158
  | | - Tag 'x:xmpmeta/rdf:RDF/rdf:Description/aux:SerialNumber'
  | | ModifyDate = 2023-07-26T06:11:34+02:00
  | | - Tag 'x:xmpmeta/rdf:RDF/rdf:Description/xmp:ModifyDate'
  | | CreateDate = 2014-11-19T23:07:44
  | | - Tag 'x:xmpmeta/rdf:RDF/rdf:Description/xmp:CreateDate'
  | | CreatorTool = Adobe DNG Converter 15.4 (Macintosh)
  | | - Tag 'x:xmpmeta/rdf:RDF/rdf:Description/xmp:CreatorTool'
  | | MetadataDate = 2023-07-26T06:11:34+02:00
  | | - Tag 'x:xmpmeta/rdf:RDF/rdf:Description/xmp:MetadataDate'
  | | DateCreated = 2014-11-19T23:07:44
  | | - Tag 'x:xmpmeta/rdf:RDF/rdf:Description/photoshop:DateCreated'
  | | DocumentID = xmp.did:a4fa5206-9ba2-408b-9c1e-01b0cabbf9b1
  | | - Tag 'x:xmpmeta/rdf:RDF/rdf:Description/xmpMM:DocumentID'
  | | OriginalDocumentID = 9888C75E097E3E0B3C7E9F23CE3536B6
  | | - Tag 'x:xmpmeta/rdf:RDF/rdf:Description/xmpMM:OriginalDocumentID'
  | | InstanceID = xmp.iid:a4fa5206-9ba2-408b-9c1e-01b0cabbf9b1
  | | - Tag 'x:xmpmeta/rdf:RDF/rdf:Description/xmpMM:InstanceID'
  | | Format = image/dng
  | | - Tag 'x:xmpmeta/rdf:RDF/rdf:Description/dc:format'
  | | CameraProfile = Camera Standard
  | | - Tag 'x:xmpmeta/rdf:RDF/rdf:Description/crd:CameraProfile'
  | | LookName = 
  | | - Tag 'x:xmpmeta/rdf:RDF/rdf:Description/crd:LookName'
  | | HasSettings = False
  | | - Tag 'x:xmpmeta/rdf:RDF/rdf:Description/crs:HasSettings'
  | | HasCrop = False
  | | - Tag 'x:xmpmeta/rdf:RDF/rdf:Description/crs:HasCrop'
  | | AlreadyApplied = False
  | | - Tag 'x:xmpmeta/rdf:RDF/rdf:Description/crs:AlreadyApplied'
  | | HistoryAction = derived
  | | - Tag 'x:xmpmeta/rdf:RDF/rdf:Description/xmpMM:History/rdf:Seq/rdf:li 10/stEvt:action'
  | | HistoryParameters = converted from image/x-panasonic-raw to image/dng, saved to new location
  | | - Tag 'x:xmpmeta/rdf:RDF/rdf:Description/xmpMM:History/rdf:Seq/rdf:li 10/stEvt:parameters'
  | | HistoryAction = saved
  | | - Tag 'x:xmpmeta/rdf:RDF/rdf:Description/xmpMM:History/rdf:Seq/rdf:li 11/stEvt:action'
  | | HistoryInstanceID = xmp.iid:a4fa5206-9ba2-408b-9c1e-01b0cabbf9b1
  | | - Tag 'x:xmpmeta/rdf:RDF/rdf:Description/xmpMM:History/rdf:Seq/rdf:li 11/stEvt:instanceID'
  | | HistoryWhen = 2023-07-26T06:11:34+02:00
  | | - Tag 'x:xmpmeta/rdf:RDF/rdf:Description/xmpMM:History/rdf:Seq/rdf:li 11/stEvt:when'
  | | HistorySoftwareAgent = Adobe DNG Converter 15.4 (Macintosh)
  | | - Tag 'x:xmpmeta/rdf:RDF/rdf:Description/xmpMM:History/rdf:Seq/rdf:li 11/stEvt:softwareAgent'
  | | HistoryChanged = /
  | | - Tag 'x:xmpmeta/rdf:RDF/rdf:Description/xmpMM:History/rdf:Seq/rdf:li 11/stEvt:changed'
  | | DerivedFromDocumentID = 9888C75E097E3E0B3C7E9F23CE3536B6
  | | - Tag 'x:xmpmeta/rdf:RDF/rdf:Description/xmpMM:DerivedFrom/stRef:documentID'
  | | DerivedFromOriginalDocumentID = 9888C75E097E3E0B3C7E9F23CE3536B6
  | | - Tag 'x:xmpmeta/rdf:RDF/rdf:Description/xmpMM:DerivedFrom/stRef:originalDocumentID'
  | 18) ExifOffset (SubDirectory) -->
  |     - Tag 0x8769 (4 bytes, int32u[1]):
  |         00ea: b6 5c 0b 00                                     [.\..]
  | + [ExifIFD directory with 33 entries, Little-endian]
  | | 0)  ExposureTime = 0.01666666667 (1/60)
  | |     - Tag 0x829a (8 bytes, rational64u[1]):
  | |        b5e48: 01 00 00 00 3c 00 00 00                         [....<...]
  | | 1)  FNumber = 1.4 (14/10)
  | |     - Tag 0x829d (8 bytes, rational64u[1]):
  | |        b5e50: 0e 00 00 00 0a 00 00 00                         [........]
  | | 2)  ExposureProgram = 2
  | |     - Tag 0x8822 (2 bytes, int16u[1]):
  | |        b5cd8: 02 00                                           [..]
  | | 3)  ISO = 160
  | |     - Tag 0x8827 (2 bytes, int16u[1]):
  | |        b5ce4: a0 00                                           [..]
  | | 4)  ExifVersion = 0231
  | |     - Tag 0x9000 (4 bytes, undef[4]):
  | |        b5cf0: 30 32 33 31                                     [0231]
  | | 5)  DateTimeOriginal = 2014:11:19 23:07:44
  | |     - Tag 0x9003 (20 bytes, string[20]):
  | |        b5e58: 32 30 31 34 3a 31 31 3a 31 39 20 32 33 3a 30 37 [2014:11:19 23:07]
  | |        b5e68: 3a 34 34 00                                     [:44.]
  | | 6)  CreateDate = 2014:11:19 23:07:44
  | |     - Tag 0x9004 (20 bytes, string[20]):
  | |        b5e6c: 32 30 31 34 3a 31 31 3a 31 39 20 32 33 3a 30 37 [2014:11:19 23:07]
  | |        b5e7c: 3a 34 34 00                                     [:44.]
  | | 7)  OffsetTime = +02:00
  | |     - Tag 0x9010 (7 bytes, string[7]):
  | |        b5e80: 2b 30 32 3a 30 30 00                            [+02:00.]
  | | 8)  ShutterSpeedValue = 5.906891 (5906891/1000000)
  | |     - Tag 0x9201 (8 bytes, rational64s[1]):
  | |        b5e88: cb 21 5a 00 40 42 0f 00                         [.!Z.@B..]
  | | 9)  ApertureValue = 0.970854 (970854/1000000)
  | |     - Tag 0x9202 (8 bytes, rational64u[1]):
  | |        b5e90: 66 d0 0e 00 40 42 0f 00                         [f...@B..]
  | | 10) ExposureCompensation = 0 (0/100)
  | |     - Tag 0x9204 (8 bytes, rational64s[1]):
  | |        b5e98: 00 00 00 00 64 00 00 00                         [....d...]
  | | 11) MaxApertureValue = 0.96875 (124/128)
  | |     - Tag 0x9205 (8 bytes, rational64u[1]):
  | |        b5ea0: 7c 00 00 00 80 00 00 00                         [|.......]
  | | 12) MeteringMode = 5
  | |     - Tag 0x9207 (2 bytes, int16u[1]):
  | |        b5d50: 05 00                                           [..]
  | | 13) LightSource = 0
  | |     - Tag 0x9208 (2 bytes, int16u[1]):
  | |        b5d5c: 00 00                                           [..]
  | | 14) Flash = 16
  | |     - Tag 0x9209 (2 bytes, int16u[1]):
  | |        b5d68: 10 00                                           [..]
  | | 15) FocalLength = 4.7 (47/10)
  | |     - Tag 0x920a (8 bytes, rational64u[1]):
  | |        b5ea8: 2f 00 00 00 0a 00 00 00                         [/.......]
  | | 16) FocalPlaneXResolution = 4903.2258 (160668903/32768)
  | |     - Tag 0xa20e (8 bytes, rational64u[1]):
  | |        b5eb0: e7 9c 93 09 00 80 00 00                         [........]
  | | 17) FocalPlaneYResolution = 4903.2258 (160668903/32768)
  | |     - Tag 0xa20f (8 bytes, rational64u[1]):
  | |        b5eb8: e7 9c 93 09 00 80 00 00                         [........]
  | | 18) FocalPlaneResolutionUnit = 3
  | |     - Tag 0xa210 (2 bytes, int16u[1]):
  | |        b5d98: 03 00                                           [..]
  | | 19) SensingMethod = 2
  | |     - Tag 0xa217 (2 bytes, int16u[1]):
  | |        b5da4: 02 00                                           [..]
  | | 20) FileSource = 3
  | |     - Tag 0xa300 (1 bytes, undef[1]):
  | |        b5db0: 03                                              [.]
  | | 21) SceneType = 1
  | |     - Tag 0xa301 (1 bytes, undef[1]):
  | |        b5dbc: 01                                              [.]
  | | 22) CustomRendered = 0
  | |     - Tag 0xa401 (2 bytes, int16u[1]):
  | |        b5dc8: 00 00                                           [..]
  | | 23) ExposureMode = 0
  | |     - Tag 0xa402 (2 bytes, int16u[1]):
  | |        b5dd4: 00 00                                           [..]
  | | 24) WhiteBalance = 0
  | |     - Tag 0xa403 (2 bytes, int16u[1]):
  | |        b5de0: 00 00                                           [..]
  | | 25) DigitalZoomRatio = 0 (0/10)
  | |     - Tag 0xa404 (8 bytes, rational64u[1]):
  | |        b5ec0: 00 00 00 00 0a 00 00 00                         [........]
  | | 26) FocalLengthIn35mmFormat = 24
  | |     - Tag 0xa405 (2 bytes, int16u[1]):
  | |        b5df8: 18 00                                           [..]
  | | 27) SceneCaptureType = 0
  | |     - Tag 0xa406 (2 bytes, int16u[1]):
  | |        b5e04: 00 00                                           [..]
  | | 28) GainControl = 1
  | |     - Tag 0xa407 (2 bytes, int16u[1]):
  | |        b5e10: 01 00                                           [..]
  | | 29) Contrast = 0
  | |     - Tag 0xa408 (2 bytes, int16u[1]):
  | |        b5e1c: 00 00                                           [..]
  | | 30) Saturation = 0
  | |     - Tag 0xa409 (2 bytes, int16u[1]):
  | |        b5e28: 00 00                                           [..]
  | | 31) Sharpness = 0
  | |     - Tag 0xa40a (2 bytes, int16u[1]):
  | |        b5e34: 00 00                                           [..]
  | | 32) SerialNumber = F111311090158
  | |     - Tag 0xa431 (14 bytes, string[14]):
  | |        b5ec8: 46 31 31 31 33 31 31 30 39 30 31 35 38 00       [F111311090158.]
  | 19) DNGVersion = 1 4 0 0
  |     - Tag 0xc612 (4 bytes, int8u[4]):
  |         00f6: 01 04 00 00                                     [....]
  | 20) DNGBackwardVersion = 1 3 0 0
  |     - Tag 0xc613 (4 bytes, int8u[4]):
  |         0102: 01 03 00 00                                     [....]
  | 21) UniqueCameraModel = Panasonic DMC-LX7
  |     - Tag 0xc614 (18 bytes, string[18]):
  |         1b1c: 50 61 6e 61 73 6f 6e 69 63 20 44 4d 43 2d 4c 58 [Panasonic DMC-LX]
  |         1b2c: 37 00                                           [7.]
  | 22) ColorMatrix1 = 1.1127 -0.5386 0.041 -0.1849 0.9339 0.2962 0.0066 0.0807 0.5378 (11127/10000 -5386/10000 410/10000 -1849/10000 9339/10000 2962/10000 66/10000 807/10000 5378/10000)
  |     - Tag 0xc621 (72 bytes, rational64s[9]):
  |         1b2e: 77 2b 00 00 10 27 00 00 f6 ea ff ff 10 27 00 00 [w+...'.......'..]
  |         1b3e: 9a 01 00 00 10 27 00 00 c7 f8 ff ff 10 27 00 00 [.....'.......'..]
  |         1b4e: 7b 24 00 00 10 27 00 00 92 0b 00 00 10 27 00 00 [{$...'.......'..]
  |         1b5e: 42 00 00 00 10 27 00 00 27 03 00 00 10 27 00 00 [B....'..'....'..]
  |         1b6e: 02 15 00 00 10 27 00 00                         [.....'..]
  | 23) ColorMatrix2 = 1.0148 -0.3743 -0.0991 -0.2837 1.1366 0.1659 -0.0701 0.1893 0.4899 (10148/10000 -3743/10000 -991/10000 -2837/10000 11366/10000 1659/10000 -701/10000 1893/10000 4899/10000)
  |     - Tag 0xc622 (72 bytes, rational64s[9]):
  |         1b76: a4 27 00 00 10 27 00 00 61 f1 ff ff 10 27 00 00 [.'...'..a....'..]
  |         1b86: 21 fc ff ff 10 27 00 00 eb f4 ff ff 10 27 00 00 [!....'.......'..]
  |         1b96: 66 2c 00 00 10 27 00 00 7b 06 00 00 10 27 00 00 [f,...'..{....'..]
  |         1ba6: 43 fd ff ff 10 27 00 00 65 07 00 00 10 27 00 00 [C....'..e....'..]
  |         1bb6: 23 13 00 00 10 27 00 00                         [#....'..]
  | 24) AnalogBalance = 1 1 1 (1000000/1000000 1000000/1000000 1000000/1000000)
  |     - Tag 0xc627 (24 bytes, rational64u[3]):
  |         1bbe: 40 42 0f 00 40 42 0f 00 40 42 0f 00 40 42 0f 00 [@B..@B..@B..@B..]
  |         1bce: 40 42 0f 00 40 42 0f 00                         [@B..@B..]
  | 25) AsShotNeutral = 0.574837 1 0.549793 (574837/1000000 1000000/1000000 549793/1000000)
  |     - Tag 0xc628 (24 bytes, rational64u[3]):
  |         1bd6: 75 c5 08 00 40 42 0f 00 40 42 0f 00 40 42 0f 00 [u...@B..@B..@B..]
  |         1be6: a1 63 08 00 40 42 0f 00                         [.c..@B..]
  | 26) BaselineExposure = -0.25 (-25/100)
  |     - Tag 0xc62a (8 bytes, rational64s[1]):
  |         1bee: e7 ff ff ff 64 00 00 00                         [....d...]
  | 27) BaselineNoise = 3 (300/100)
  |     - Tag 0xc62b (8 bytes, rational64u[1]):
  |         1bf6: 2c 01 00 00 64 00 00 00                         [,...d...]
  | 28) BaselineSharpness = 1.33 (133/100)
  |     - Tag 0xc62c (8 bytes, rational64u[1]):
  |         1bfe: 85 00 00 00 64 00 00 00                         [....d...]
  | 29) LinearResponseLimit = 1 (100/100)
  |     - Tag 0xc62e (8 bytes, rational64u[1]):
  |         1c06: 64 00 00 00 64 00 00 00                         [d...d...]
  | 30) CameraSerialNumber = F111311090158
  |     - Tag 0xc62f (14 bytes, string[14]):
  |         1c0e: 46 31 31 31 33 31 31 30 39 30 31 35 38 00       [F111311090158.]
  | 31) ShadowScale = 1 (1/1)
  |     - Tag 0xc633 (8 bytes, rational64u[1]):
  |         1c1c: 01 00 00 00 01 00 00 00                         [........]
  | 32) DNGAdobeData (SubDirectory) -->
  |     - Tag 0xc634 (616970 bytes, int8u[616970] read as undef[616970]):
  |         1c24: 41 64 6f 62 65 00 50 61 6e 6f 00 09 69 fc 49 49 [Adobe.Pano..i.II]
  |         1c34: 00 21 00 01 00 07 00 00 00 04 30 33 31 30 00 02 [.!........0310..]
  |         1c44: 00 03 00 00 00 01 70 0e 00 03 00 03 00 00 00 01 [......p.........]
  |         1c54: c0 0a 00 04 00 03 00 00 00 01 08 00 00 05 00 03 [................]
  |         1c64: 00 00 00 01 08 00 00 06 00 03 00 00 00 01 b8 0a [................]
  |         1c74: 00 07 00 03 00 00 00 01 48 0e 00 08 00 03 00 00 [........H.......]
  |         1c84: 00 01 01 00 00 09 00 03 00 00 00 01 02 00 00 0a [................]
  |         1c94: 00 03 00 00 00 01 0c 00 00 0b 00 03 00 00 00 01 [................]
  |         1ca4: 0c 86 00 0d 00 03 00 00 00 01 01 00 00 0e 00 03 [................]
  |         1cb4: 00 00 00 01 ff 0f 00 0f 00 03 00 00 00 01 ff 0f [................]
  |         1cc4: 00 10 00 03 00 00 00 01 ff 0f 00 17 00 03 00 00 [................]
  |         1cd4: 00 01 a0 00 00 18 00 03 00 00 00 01 00 00 00 19 [................]
  |         1ce4: 00 03 00 00 00 01 00 00 00 1a 00 03 00 00 00 01 [................]
  |         1cf4: 00 00 00 1b 00 07 00 00 00 1a 03 00 64 00 01 00 [............d...]
  |         1d04: 01 00 01 00 c8 00 02 00 02 00 02 00 90 01 04 00 [................]
  |         1d14: 04 00 04 00 00 1c 00 03 00 00 00 01 80 00 00 1d [................]
  |         1d24: 00 03 00 00 00 01 80 00 00 1e 00 03 00 00 00 01 [................]
  |         1d34: 80 00 00 24 00 03 00 00 00 01 cd 01 00 25 00 03 [...$.........%..]
  |         1d44: 00 00 00 01 09 01 00 26 00 03 00 00 00 01 e2 01 [.......&........]
  |         1d54: 00 27 00 07 00 00 00 3a 07 00 09 00 fb 01 00 01 [.'.....:........]
  |         1d64: b5 01 0a 00 20 02 00 01 91 01 0b 00 43 02 00 01 [.... .......C...]
  |         1d74: 77 01 03 00 5b 01 00 01 ad 02 04 00 31 02 00 01 [w...[.......1...]
  |         1d84: 9d 01 14 00 fb 01 00 01 c0 01 18 00 5e 01 00 01 [............^...]
  |         1d94: 90 02 00 2d 00 03 00 00 00 01 04 00 00 2e 00 07 [...-............]
  |         1da4: 00 09 68 00 ff d8 ff e1 7d fe 45 78 69 66 00 00 [..h.....}.Exif..]
  |         1db4: 49 49 2a 00 08 00 00 00 0e 00 0f 01 02 00 0a 00 [II*.............]
  |         1dc4: 00 00 b6 00 00 00 10 01 02 00 08 00 00 00 c0 00 [................]
  |         1dd4: 00 00 12 01 03 00 01 00 00 00 01 00 00 00 1a 01 [................]
  |         1de4: 05 00 01 00 00 00 c8 00 00 00 1b 01 05 00 01 00 [................]
  |         1df4: 00 00 d0 00 00 00 28 01 03 00 01 00 00 00 02 00 [......(.........]
  |         1e04: 00 00 31 01 02 00 0a 00 00 00 d8 00 00 00 32 01 [..1...........2.]
  |         1e14: 02 00 14 00 00 00 e2 00 00 00 3b 01 02 00 0c 00 [..........;.....]
  |         1e24: 00 00 f6 00 00 00 13 02 03 00 01 00 00 00 02 00 [................]
  |         1e34: 00 00 69 87 04 00 01 00 00 00 ca 02 00 00 a5 c4 [..i.............]
  |         1e44: 07 00 d0 00 00 00 3a 01 00 00 d2 c6 07 00 40 00 [......:.......@.]
  |         1e54: 00 00 0a 02 00 00 d3 c6 07 00 80 00 00 00 4a 02 [..............J.]
  |         1e64: 00 00 e2 2b 00 00 50 61 6e 61 73 6f 6e 69 63 00 [...+..Panasonic.]
  |         1e74: 44 4d 43 2d 4c 58 37 00 b4 00 00 00 01 00 00 00 [DMC-LX7.........]
  |         1e84: b4 00 00 00 01 00 00 00 56 65 72 2e 31 2e 30 20 [........Ver.1.0 ]
  |         1e94: 20 00 32 30 31 34 3a 31 31 3a 31 39 20 32 33 3a [ .2014:11:19 23:]
  |         1ea4: 30 37 3a 34 34 00 44 72 65 77 20 4e 6f 61 6b 65 [07:44.Drew Noake]
  |         1eb4: 73 00 00 00 00 00 00 00 00 00 00 00 00 00 00 00 [s...............]
  |         1ec4: 00 00 00 00 00 00 00 00 00 00 00 00 00 00 00 00 [................]
  |         1ed4: 00 00 00 00 00 00 00 00 00 00 00 00 00 00 00 00 [................]
  |         1ee4: 00 00 00 00 00 00 00 00 00 00 50 72 69 6e 74 49 [..........PrintI]
  |         1ef4: 4d 00 30 32 35 30 00 00 0e 00 01 00 16 00 16 00 [M.0250..........]
  |         1f04: 02 00 00 00 00 00 03 00 64 00 00 00 07 00 00 00 [........d.......]
  |         1f14: 00 00 08 00 00 00 00 00 09 00 00 00 00 00 0a 00 [................]
  |         1f24: 00 00 00 00 0b 00 ac 00 00 00 0c 00 00 00 00 00 [................]
  |         1f34: 0d 00 00 00 00 00 0e 00 c4 00 00 00 00 01 05 00 [................]
  |         1f44: 00 00 01 01 01 00 00 00 10 01 80 00 00 00 09 11 [................]
  |         1f54: 00 00 10 27 00 00 0b 0f 00 00 10 27 00 00 97 05 [...'.......'....]
  |         1f64: 00 00 10 27 00 00 b0 08 00 00 10 27 00 00 01 1c [...'.......'....]
  |         1f74: 00 00 10 27 00 00 5e 02 00 00 10 27 00 00 8b 00 [...'..^....'....]
  |         1f84: 00 00 10 27 00 00 cb 03 00 00 10 27 00 00 e5 1b [...'.......'....]
  |         1f94: 00 00 10 27 00 00 00 00 00 00 00 00 00 00 00 00 [...'............]
  |         1fa4: 00 00 00 00 00 00 00 00 00 00 00 00 00 00 00 00 [................]
  |         1fb4: 00 00 00 00 00 00 00 00 00 00 00 00 00 00 00 00 [................]
  |         1fc4: 00 00 00 00 00 00 00 00 00 00 00 00 00 00 00 00 [................]
  |         1fd4: 00 00 00 00 00 00 00 00 00 00 00 00 00 00 00 00 [................]
  |         1fe4: 00 00 00 00 00 00 00 00 00 00 00 00 00 00 00 00 [................]
  |         1ff4: 00 00 00 00 00 00 00 00 00 00 00 00 00 00 00 00 [................]
  |         2004: 00 00 00 00 00 00 00 00 00 00 00 00 00 00 00 00 [................]
  |         2014: 00 00 00 00 00 00 00 00 00 00 00 00 00 00 00 00 [................]
  |         2024: 00 00 00 00 00 00 00 00 00 00 00 00 00 00 00 00 [................]
  |         2034: 00 00 00 00 00 00 00 00 00 00 00 00 00 00 00 00 [................]
  |         2044: 00 00 00 00 00 00 00 00 00 00 00 00 00 00 00 00 [................]
  |         2054: 00 00 00 00 00 00 00 00 00 00 00 00 00 00 00 00 [................]
  |         2064: 00 00 00 00 00 00 00 00 00 00 00 00 00 00 00 00 [................]
  |         2074: 00 00 00 00 00 00 00 00 00 00 23 00 9a 82 05 00 [..........#.....]
  |         2084: 01 00 00 00 74 04 00 00 9d 82 05 00 01 00 00 00 [....t...........]
  |         2094: 7c 04 00 00 22 88 03 00 01 00 00 00 02 00 00 00 [|..."...........]
  |         20a4: 27 88 03 00 01 00 00 00 a0 00 00 00 30 88 03 00 ['...........0...]
  |         20b4: 01 00 00 00 01 00 00 00 00 90 07 00 04 00 00 00 [................]
  |         20c4: 30 32 33 30 03 90 02 00 14 00 00 00 84 04 00 00 [0230............]
  |         20d4: 04 90 02 00 14 00 00 00 98 04 00 00 01 91 07 00 [................]
  |         20e4: 04 00 00 00 01 02 03 00 02 91 05 00 01 00 00 00 [................]
  |         20f4: ac 04 00 00 04 92 0a 00 01 00 00 00 b4 04 00 00 [................]
  |         2104: 05 92 05 00 01 00 00 00 bc 04 00 00 07 92 03 00 [................]
  |         2114: 01 00 00 00 05 00 00 00 08 92 03 00 01 00 00 00 [................]
  |         2124: 00 00 00 00 09 92 03 00 01 00 00 00 10 00 00 00 [................]
  |         2134: 0a 92 05 00 01 00 00 00 c4 04 00 00 7c 92 07 00 [............|...]
  |         2144: f0 26 00 00 cc 04 00 00 00 a0 07 00 04 00 00 00 [.&..............]
  |         2154: 30 31 30 30 01 a0 03 00 01 00 00 00 01 00 00 00 [0100............]
  |         2164: 02 a0 04 00 01 00 00 00 80 07 00 00 03 a0 04 00 [................]
  |         2174: 01 00 00 00 a0 05 00 00 05 a0 04 00 01 00 00 00 [................]
  |         2184: c4 2b 00 00 17 a2 03 00 01 00 00 00 02 00 00 00 [.+..............]
  |         2194: 00 a3 07 00 01 00 00 00 03 00 00 00 01 a3 07 00 [................]
  |         21a4: 01 00 00 00 01 00 00 00 01 a4 03 00 01 00 00 00 [................]
  |         21b4: 00 00 00 00 02 a4 03 00 01 00 00 00 00 00 00 00 [................]
  |         21c4: 03 a4 03 00 01 00 00 00 00 00 00 00 04 a4 05 00 [................]
  |         21d4: 01 00 00 00 bc 2b 00 00 05 a4 03 00 01 00 00 00 [.....+..........]
  |         21e4: 18 00 00 00 06 a4 03 00 01 00 00 00 00 00 00 00 [................]
  |         21f4: 07 a4 03 00 01 00 00 00 01 00 00 00 08 a4 03 00 [................]
  |         2204: 01 00 00 00 00 00 00 00 09 a4 03 00 01 00 00 00 [................]
  |         2214: 00 00 00 00 0a a4 03 00 01 00 00 00 00 00 00 00 [................]
  |         2224: 00 00 00 00 0a 00 00 00 58 02 00 00 0e 00 00 00 [........X.......]
  |         2234: 0a 00 00 00 32 30 31 34 3a 31 31 3a 31 39 20 32 [....2014:11:19 2]
  |         2244: 33 3a 30 37 3a 34 34 00 32 30 31 34 3a 31 31 3a [3:07:44.2014:11:]
  |         2254: 31 39 20 32 33 3a 30 37 3a 34 34 00 02 00 00 00 [19 23:07:44.....]
  |         2264: 01 00 00 00 00 00 00 00 64 00 00 00 7c 00 00 00 [........d...|...]
  |         2274: 80 00 00 00 2f 00 00 00 0a 00 00 00 50 61 6e 61 [..../.......Pana]
  |         2284: 73 6f 6e 69 63 00 00 00 6a 00 01 00 03 00 01 00 [sonic...j.......]
  |         2294: 00 00 07 00 00 00 02 00 07 00 04 00 00 00 00 01 [................]
  |         22a4: 00 00 03 00 03 00 01 00 00 00 01 00 00 00 07 00 [................]
  |         22b4: 03 00 01 00 00 00 01 00 00 00 0f 00 01 00 02 00 [................]
  |         22c4: 00 00 10 00 00 00 1a 00 03 00 01 00 00 00 02 00 [................]
  |         22d4: 00 00 1c 00 03 00 01 00 00 00 01 00 00 00 1f 00 [................]
  |         22e4: 03 00 01 00 00 00 06 00 00 00 20 00 03 00 01 00 [.......... .....]
  |         22f4: 00 00 02 00 00 00 21 00 07 00 08 20 00 00 d2 09 [......!.... ....]
  |         2304: 00 00 22 00 03 00 01 00 00 00 00 00 00 00 24 00 [.."...........$.]
  |         2314: 03 00 01 00 00 00 00 00 00 00 25 00 07 00 10 00 [..........%.....]
  |         2324: 00 00 da 29 00 00 26 00 07 00 04 00 00 00 30 34 [...)..&.......04]
  |         2334: 30 31 27 00 03 00 01 00 00 00 00 00 00 00 28 00 [01'...........(.]
  |         2344: 03 00 01 00 00 00 01 00 00 00 29 00 04 00 01 00 [..........).....]
  |         2354: 00 00 d7 20 00 00 2a 00 03 00 01 00 00 00 00 00 [... ..*.........]
  |         2364: 00 00 2b 00 04 00 01 00 00 00 00 00 00 00 2c 00 [..+...........,.]
  |         2374: 03 00 01 00 00 00 00 00 00 00 2d 00 03 00 01 00 [..........-.....]
  |         2384: 00 00 00 00 00 00 2e 00 03 00 01 00 00 00 01 00 [................]
  |         2394: 00 00 2f 00 03 00 01 00 00 00 01 00 00 00 30 00 [../...........0.]
  |         23a4: 03 00 01 00 00 00 01 00 00 00 31 00 03 00 01 00 [..........1.....]
  |         23b4: 00 00 02 00 00 00 32 00 03 00 01 00 00 00 00 00 [......2.........]
  |         23c4: 00 00 33 00 02 00 14 00 00 00 ea 29 00 00 34 00 [..3........)..4.]
  |         23d4: 03 00 01 00 00 00 01 00 00 00 35 00 03 00 01 00 [..........5.....]
  |         23e4: 00 00 01 00 00 00 36 00 03 00 01 00 00 00 ff ff [......6.........]
  |         23f4: 00 00 37 00 03 00 01 00 00 00 01 01 00 00 38 00 [..7...........8.]
  |         2404: 03 00 01 00 00 00 02 00 00 00 39 00 03 00 01 00 [..........9.....]
  |         [snip 614938 bytes]
  | + [DNGAdobeData directory, 616970 bytes]
  | | AdobePano (SubDirectory) -->
  | | - Tag 'Pano' (616956 bytes):
  | |     1c32: 49 49 00 21 00 01 00 07 00 00 00 04 30 33 31 30 [II.!........0310]
  | |     1c42: 00 02 00 03 00 00 00 01 70 0e 00 03 00 03 00 00 [........p.......]
  | |     1c52: 00 01 c0 0a 00 04 00 03 00 00 00 01 08 00 00 05 [................]
  | |     1c62: 00 03 00 00 00 01 08 00 00 06 00 03 00 00 00 01 [................]
  | |     1c72: b8 0a 00 07 00 03 00 00 00 01 48 0e 00 08 00 03 [..........H.....]
  | |     1c82: 00 00 00 01 01 00 00 09 00 03 00 00 00 01 02 00 [................]
  | |     1c92: 00 0a 00 03 00 00 00 01 0c 00 00 0b 00 03 00 00 [................]
  | |     1ca2: 00 01 0c 86 00 0d 00 03 00 00 00 01 01 00 00 0e [................]
  | |     1cb2: 00 03 00 00 00 01 ff 0f 00 0f 00 03 00 00 00 01 [................]
  | |     1cc2: ff 0f 00 10 00 03 00 00 00 01 ff 0f 00 17 00 03 [................]
  | |     1cd2: 00 00 00 01 a0 00 00 18 00 03 00 00 00 01 00 00 [................]
  | |     1ce2: 00 19 00 03 00 00 00 01 00 00 00 1a 00 03 00 00 [................]
  | |     1cf2: 00 01 00 00 00 1b 00 07 00 00 00 1a 03 00 64 00 [..............d.]
  | |     1d02: 01 00 01 00 01 00 c8 00 02 00 02 00 02 00 90 01 [................]
  | |     1d12: 04 00 04 00 04 00 00 1c 00 03 00 00 00 01 80 00 [................]
  | |     1d22: 00 1d 00 03 00 00 00 01 80 00 00 1e 00 03 00 00 [................]
  | |     1d32: 00 01 80 00 00 24 00 03 00 00 00 01 cd 01 00 25 [.....$.........%]
  | |     1d42: 00 03 00 00 00 01 09 01 00 26 00 03 00 00 00 01 [.........&......]
  | |     1d52: e2 01 00 27 00 07 00 00 00 3a 07 00 09 00 fb 01 [...'.....:......]
  | |     1d62: 00 01 b5 01 0a 00 20 02 00 01 91 01 0b 00 43 02 [...... .......C.]
  | |     1d72: 00 01 77 01 03 00 5b 01 00 01 ad 02 04 00 31 02 [..w...[.......1.]
  | |     1d82: 00 01 9d 01 14 00 fb 01 00 01 c0 01 18 00 5e 01 [..............^.]
  | |     1d92: 00 01 90 02 00 2d 00 03 00 00 00 01 04 00 00 2e [.....-..........]
  | |     1da2: 00 07 00 09 68 00 ff d8 ff e1 7d fe 45 78 69 66 [....h.....}.Exif]
  | |     1db2: 00 00 49 49 2a 00 08 00 00 00 0e 00 0f 01 02 00 [..II*...........]
  | |     1dc2: 0a 00 00 00 b6 00 00 00 10 01 02 00 08 00 00 00 [................]
  | |     1dd2: c0 00 00 00 12 01 03 00 01 00 00 00 01 00 00 00 [................]
  | |     1de2: 1a 01 05 00 01 00 00 00 c8 00 00 00 1b 01 05 00 [................]
  | |     1df2: 01 00 00 00 d0 00 00 00 28 01 03 00 01 00 00 00 [........(.......]
  | |     1e02: 02 00 00 00 31 01 02 00 0a 00 00 00 d8 00 00 00 [....1...........]
  | |     1e12: 32 01 02 00 14 00 00 00 e2 00 00 00 3b 01 02 00 [2...........;...]
  | |     1e22: 0c 00 00 00 f6 00 00 00 13 02 03 00 01 00 00 00 [................]
  | |     1e32: 02 00 00 00 69 87 04 00 01 00 00 00 ca 02 00 00 [....i...........]
  | |     1e42: a5 c4 07 00 d0 00 00 00 3a 01 00 00 d2 c6 07 00 [........:.......]
  | |     1e52: 40 00 00 00 0a 02 00 00 d3 c6 07 00 80 00 00 00 [@...............]
  | |     1e62: 4a 02 00 00 e2 2b 00 00 50 61 6e 61 73 6f 6e 69 [J....+..Panasoni]
  | |     1e72: 63 00 44 4d 43 2d 4c 58 37 00 b4 00 00 00 01 00 [c.DMC-LX7.......]
  | |     1e82: 00 00 b4 00 00 00 01 00 00 00 56 65 72 2e 31 2e [..........Ver.1.]
  | |     1e92: 30 20 20 00 32 30 31 34 3a 31 31 3a 31 39 20 32 [0  .2014:11:19 2]
  | |     1ea2: 33 3a 30 37 3a 34 34 00 44 72 65 77 20 4e 6f 61 [3:07:44.Drew Noa]
  | |     1eb2: 6b 65 73 00 00 00 00 00 00 00 00 00 00 00 00 00 [kes.............]
  | |     1ec2: 00 00 00 00 00 00 00 00 00 00 00 00 00 00 00 00 [................]
  | |     1ed2: 00 00 00 00 00 00 00 00 00 00 00 00 00 00 00 00 [................]
  | |     1ee2: 00 00 00 00 00 00 00 00 00 00 00 00 50 72 69 6e [............Prin]
  | |     1ef2: 74 49 4d 00 30 32 35 30 00 00 0e 00 01 00 16 00 [tIM.0250........]
  | |     1f02: 16 00 02 00 00 00 00 00 03 00 64 00 00 00 07 00 [..........d.....]
  | |     1f12: 00 00 00 00 08 00 00 00 00 00 09 00 00 00 00 00 [................]
  | |     1f22: 0a 00 00 00 00 00 0b 00 ac 00 00 00 0c 00 00 00 [................]
  | |     1f32: 00 00 0d 00 00 00 00 00 0e 00 c4 00 00 00 00 01 [................]
  | |     1f42: 05 00 00 00 01 01 01 00 00 00 10 01 80 00 00 00 [................]
  | |     1f52: 09 11 00 00 10 27 00 00 0b 0f 00 00 10 27 00 00 [.....'.......'..]
  | |     1f62: 97 05 00 00 10 27 00 00 b0 08 00 00 10 27 00 00 [.....'.......'..]
  | |     1f72: 01 1c 00 00 10 27 00 00 5e 02 00 00 10 27 00 00 [.....'..^....'..]
  | |     1f82: 8b 00 00 00 10 27 00 00 cb 03 00 00 10 27 00 00 [.....'.......'..]
  | |     1f92: e5 1b 00 00 10 27 00 00 00 00 00 00 00 00 00 00 [.....'..........]
  | |     1fa2: 00 00 00 00 00 00 00 00 00 00 00 00 00 00 00 00 [................]
  | |     1fb2: 00 00 00 00 00 00 00 00 00 00 00 00 00 00 00 00 [................]
  | |     1fc2: 00 00 00 00 00 00 00 00 00 00 00 00 00 00 00 00 [................]
  | |     1fd2: 00 00 00 00 00 00 00 00 00 00 00 00 00 00 00 00 [................]
  | |     1fe2: 00 00 00 00 00 00 00 00 00 00 00 00 00 00 00 00 [................]
  | |     1ff2: 00 00 00 00 00 00 00 00 00 00 00 00 00 00 00 00 [................]
  | |     2002: 00 00 00 00 00 00 00 00 00 00 00 00 00 00 00 00 [................]
  | |     2012: 00 00 00 00 00 00 00 00 00 00 00 00 00 00 00 00 [................]
  | |     2022: 00 00 00 00 00 00 00 00 00 00 00 00 00 00 00 00 [................]
  | |     2032: 00 00 00 00 00 00 00 00 00 00 00 00 00 00 00 00 [................]
  | |     2042: 00 00 00 00 00 00 00 00 00 00 00 00 00 00 00 00 [................]
  | |     2052: 00 00 00 00 00 00 00 00 00 00 00 00 00 00 00 00 [................]
  | |     2062: 00 00 00 00 00 00 00 00 00 00 00 00 00 00 00 00 [................]
  | |     2072: 00 00 00 00 00 00 00 00 00 00 00 00 23 00 9a 82 [............#...]
  | |     2082: 05 00 01 00 00 00 74 04 00 00 9d 82 05 00 01 00 [......t.........]
  | |     2092: 00 00 7c 04 00 00 22 88 03 00 01 00 00 00 02 00 [..|...".........]
  | |     20a2: 00 00 27 88 03 00 01 00 00 00 a0 00 00 00 30 88 [..'...........0.]
  | |     20b2: 03 00 01 00 00 00 01 00 00 00 00 90 07 00 04 00 [................]
  | |     20c2: 00 00 30 32 33 30 03 90 02 00 14 00 00 00 84 04 [..0230..........]
  | |     20d2: 00 00 04 90 02 00 14 00 00 00 98 04 00 00 01 91 [................]
  | |     20e2: 07 00 04 00 00 00 01 02 03 00 02 91 05 00 01 00 [................]
  | |     20f2: 00 00 ac 04 00 00 04 92 0a 00 01 00 00 00 b4 04 [................]
  | |     2102: 00 00 05 92 05 00 01 00 00 00 bc 04 00 00 07 92 [................]
  | |     2112: 03 00 01 00 00 00 05 00 00 00 08 92 03 00 01 00 [................]
  | |     2122: 00 00 00 00 00 00 09 92 03 00 01 00 00 00 10 00 [................]
  | |     2132: 00 00 0a 92 05 00 01 00 00 00 c4 04 00 00 7c 92 [..............|.]
  | |     2142: 07 00 f0 26 00 00 cc 04 00 00 00 a0 07 00 04 00 [...&............]
  | |     2152: 00 00 30 31 30 30 01 a0 03 00 01 00 00 00 01 00 [..0100..........]
  | |     2162: 00 00 02 a0 04 00 01 00 00 00 80 07 00 00 03 a0 [................]
  | |     2172: 04 00 01 00 00 00 a0 05 00 00 05 a0 04 00 01 00 [................]
  | |     2182: 00 00 c4 2b 00 00 17 a2 03 00 01 00 00 00 02 00 [...+............]
  | |     2192: 00 00 00 a3 07 00 01 00 00 00 03 00 00 00 01 a3 [................]
  | |     21a2: 07 00 01 00 00 00 01 00 00 00 01 a4 03 00 01 00 [................]
  | |     21b2: 00 00 00 00 00 00 02 a4 03 00 01 00 00 00 00 00 [................]
  | |     21c2: 00 00 03 a4 03 00 01 00 00 00 00 00 00 00 04 a4 [................]
  | |     21d2: 05 00 01 00 00 00 bc 2b 00 00 05 a4 03 00 01 00 [.......+........]
  | |     21e2: 00 00 18 00 00 00 06 a4 03 00 01 00 00 00 00 00 [................]
  | |     21f2: 00 00 07 a4 03 00 01 00 00 00 01 00 00 00 08 a4 [................]
  | |     2202: 03 00 01 00 00 00 00 00 00 00 09 a4 03 00 01 00 [................]
  | |     2212: 00 00 00 00 00 00 0a a4 03 00 01 00 00 00 00 00 [................]
  | |     2222: 00 00 00 00 00 00 0a 00 00 00 58 02 00 00 0e 00 [..........X.....]
  | |     2232: 00 00 0a 00 00 00 32 30 31 34 3a 31 31 3a 31 39 [......2014:11:19]
  | |     2242: 20 32 33 3a 30 37 3a 34 34 00 32 30 31 34 3a 31 [ 23:07:44.2014:1]
  | |     2252: 31 3a 31 39 20 32 33 3a 30 37 3a 34 34 00 02 00 [1:19 23:07:44...]
  | |     2262: 00 00 01 00 00 00 00 00 00 00 64 00 00 00 7c 00 [..........d...|.]
  | |     2272: 00 00 80 00 00 00 2f 00 00 00 0a 00 00 00 50 61 [....../.......Pa]
  | |     2282: 6e 61 73 6f 6e 69 63 00 00 00 6a 00 01 00 03 00 [nasonic...j.....]
  | |     2292: 01 00 00 00 07 00 00 00 02 00 07 00 04 00 00 00 [................]
  | |     22a2: 00 01 00 00 03 00 03 00 01 00 00 00 01 00 00 00 [................]
  | |     22b2: 07 00 03 00 01 00 00 00 01 00 00 00 0f 00 01 00 [................]
  | |     22c2: 02 00 00 00 10 00 00 00 1a 00 03 00 01 00 00 00 [................]
  | |     22d2: 02 00 00 00 1c 00 03 00 01 00 00 00 01 00 00 00 [................]
  | |     22e2: 1f 00 03 00 01 00 00 00 06 00 00 00 20 00 03 00 [............ ...]
  | |     22f2: 01 00 00 00 02 00 00 00 21 00 07 00 08 20 00 00 [........!.... ..]
  | |     2302: d2 09 00 00 22 00 03 00 01 00 00 00 00 00 00 00 [...."...........]
  | |     2312: 24 00 03 00 01 00 00 00 00 00 00 00 25 00 07 00 [$...........%...]
  | |     2322: 10 00 00 00 da 29 00 00 26 00 07 00 04 00 00 00 [.....)..&.......]
  | |     2332: 30 34 30 31 27 00 03 00 01 00 00 00 00 00 00 00 [0401'...........]
  | |     2342: 28 00 03 00 01 00 00 00 01 00 00 00 29 00 04 00 [(...........)...]
  | |     2352: 01 00 00 00 d7 20 00 00 2a 00 03 00 01 00 00 00 [..... ..*.......]
  | |     2362: 00 00 00 00 2b 00 04 00 01 00 00 00 00 00 00 00 [....+...........]
  | |     2372: 2c 00 03 00 01 00 00 00 00 00 00 00 2d 00 03 00 [,...........-...]
  | |     2382: 01 00 00 00 00 00 00 00 2e 00 03 00 01 00 00 00 [................]
  | |     2392: 01 00 00 00 2f 00 03 00 01 00 00 00 01 00 00 00 [..../...........]
  | |     23a2: 30 00 03 00 01 00 00 00 01 00 00 00 31 00 03 00 [0...........1...]
  | |     23b2: 01 00 00 00 02 00 00 00 32 00 03 00 01 00 00 00 [........2.......]
  | |     23c2: 00 00 00 00 33 00 02 00 14 00 00 00 ea 29 00 00 [....3........)..]
  | |     23d2: 34 00 03 00 01 00 00 00 01 00 00 00 35 00 03 00 [4...........5...]
  | |     23e2: 01 00 00 00 01 00 00 00 36 00 03 00 01 00 00 00 [........6.......]
  | |     23f2: ff ff 00 00 37 00 03 00 01 00 00 00 01 01 00 00 [....7...........]
  | |     2402: 38 00 03 00 01 00 00 00 02 00 00 00 39 00 03 00 [8...........9...]
  | |     2412: 01 00 00 00 00 00 00 00 3a 00 03 00 01 00 00 00 [........:.......]
  | |     [snip 614924 bytes]
  | | + [AdobePano directory with 33 entries, 616956 bytes]
  | | | 0)  PanasonicRawVersion = 0310
  | | |     - Tag 0x0001 (4 bytes):
  | | |         1c3e: 30 33 31 30                                     [0310]
  | | | 1)  SensorWidth = 3696
  | | |     - Tag 0x0002 (2 bytes):
  | | |         1c4a: 70 0e                                           [p.]
  | | | 2)  SensorHeight = 2752
  | | |     - Tag 0x0003 (2 bytes):
  | | |         1c54: c0 0a                                           [..]
  | | | 3)  SensorTopBorder = 8
  | | |     - Tag 0x0004 (2 bytes):
  | | |         1c5e: 08 00                                           [..]
  | | | 4)  SensorLeftBorder = 8
  | | |     - Tag 0x0005 (2 bytes):
  | | |         1c68: 08 00                                           [..]
  | | | 5)  SensorBottomBorder = 2744
  | | |     - Tag 0x0006 (2 bytes):
  | | |         1c72: b8 0a                                           [..]
  | | | 6)  SensorRightBorder = 3656
  | | |     - Tag 0x0007 (2 bytes):
  | | |         1c7c: 48 0e                                           [H.]
  | | | 7)  SamplesPerPixel = 1
  | | |     - Tag 0x0008 (2 bytes):
  | | |         1c86: 01 00                                           [..]
  | | | 8)  CFAPattern = 2
  | | |     - Tag 0x0009 (2 bytes):
  | | |         1c90: 02 00                                           [..]
  | | | 9)  BitsPerSample = 12
  | | |     - Tag 0x000a (2 bytes):
  | | |         1c9a: 0c 00                                           [..]
  | | | 10) Compression = 34316
  | | |     - Tag 0x000b (2 bytes):
  | | |         1ca4: 0c 86                                           [..]
  | | | 11) PanasonicRaw_0x000d = 1
  | | |     - Tag 0x000d (2 bytes):
  | | |         1cae: 01 00                                           [..]
  | | | 12) LinearityLimitRed = 4095
  | | |     - Tag 0x000e (2 bytes):
  | | |         1cb8: ff 0f                                           [..]
  | | | 13) LinearityLimitGreen = 4095
  | | |     - Tag 0x000f (2 bytes):
  | | |         1cc2: ff 0f                                           [..]
  | | | 14) LinearityLimitBlue = 4095
  | | |     - Tag 0x0010 (2 bytes):
  | | |         1ccc: ff 0f                                           [..]
  | | | 15) ISO = 160
  | | |     - Tag 0x0017 (2 bytes):
  | | |         1cd6: a0 00                                           [..]
  | | | 16) HighISOMultiplierRed = 0
  | | |     - Tag 0x0018 (2 bytes):
  | | |         1ce0: 00 00                                           [..]
  | | | 17) HighISOMultiplierGreen = 0
  | | |     - Tag 0x0019 (2 bytes):
  | | |         1cea: 00 00                                           [..]
  | | | 18) HighISOMultiplierBlue = 0
  | | |     - Tag 0x001a (2 bytes):
  | | |         1cf4: 00 00                                           [..]
  | | | 19) NoiseReductionParams = .d............
  | | |     - Tag 0x001b (26 bytes):
  | | |         1cfe: 03 00 64 00 01 00 01 00 01 00 c8 00 02 00 02 00 [..d.............]
  | | |         1d0e: 02 00 90 01 04 00 04 00 04 00                   [..........]
  | | | 20) BlackLevelRed = 128
  | | |     - Tag 0x001c (2 bytes):
  | | |         1d20: 80 00                                           [..]
  | | | 21) BlackLevelGreen = 128
  | | |     - Tag 0x001d (2 bytes):
  | | |         1d2a: 80 00                                           [..]
  | | | 22) BlackLevelBlue = 128
  | | |     - Tag 0x001e (2 bytes):
  | | |         1d34: 80 00                                           [..]
  | | | 23) WBRedLevel = 461
  | | |     - Tag 0x0024 (2 bytes):
  | | |         1d3e: cd 01                                           [..]
  | | | 24) WBGreenLevel = 265
  | | |     - Tag 0x0025 (2 bytes):
  | | |         1d48: 09 01                                           [..]
  | | | 25) WBBlueLevel = 482
  | | |     - Tag 0x0026 (2 bytes):
  | | |         1d52: e2 01                                           [..]
  | | | 26) WBInfo2 (SubDirectory) -->
  | | |     - Tag 0x0027 (58 bytes):
  | | |         1d5c: 07 00 09 00 fb 01 00 01 b5 01 0a 00 20 02 00 01 [............ ...]
  | | |         1d6c: 91 01 0b 00 43 02 00 01 77 01 03 00 5b 01 00 01 [....C...w...[...]
  | | |         1d7c: ad 02 04 00 31 02 00 01 9d 01 14 00 fb 01 00 01 [....1...........]
  | | |         1d8c: c0 01 18 00 5e 01 00 01 90 02                   [....^.....]
  | | | + [BinaryData directory, 58 bytes, Little-endian]
  | | | | NumWBEntries = 7
  | | | | - Tag 0x0000 (2 bytes, int16u[1]):
  | | | |     1d5c: 07 00                                           [..]
  | | | | WBType1 = 9
  | | | | - Tag 0x0001 (2 bytes, int16u[1]):
  | | | |     1d5e: 09 00                                           [..]
  | | | | WB_RGBLevels1 = 507 256 437
  | | | | - Tag 0x0002 (6 bytes, int16u[3]):
  | | | |     1d60: fb 01 00 01 b5 01                               [......]
  | | | | WBType2 = 10
  | | | | - Tag 0x0005 (2 bytes, int16u[1]):
  | | | |     1d66: 0a 00                                           [..]
  | | | | WB_RGBLevels2 = 544 256 401
  | | | | - Tag 0x0006 (6 bytes, int16u[3]):
  | | | |     1d68: 20 02 00 01 91 01                               [ .....]
  | | | | WBType3 = 11
  | | | | - Tag 0x0009 (2 bytes, int16u[1]):
  | | | |     1d6e: 0b 00                                           [..]
  | | | | WB_RGBLevels3 = 579 256 375
  | | | | - Tag 0x000a (6 bytes, int16u[3]):
  | | | |     1d70: 43 02 00 01 77 01                               [C...w.]
  | | | | WBType4 = 3
  | | | | - Tag 0x000d (2 bytes, int16u[1]):
  | | | |     1d76: 03 00                                           [..]
  | | | | WB_RGBLevels4 = 347 256 685
  | | | | - Tag 0x000e (6 bytes, int16u[3]):
  | | | |     1d78: 5b 01 00 01 ad 02                               [[.....]
  | | | | WBType5 = 4
  | | | | - Tag 0x0011 (2 bytes, int16u[1]):
  | | | |     1d7e: 04 00                                           [..]
  | | | | WB_RGBLevels5 = 561 256 413
  | | | | - Tag 0x0012 (6 bytes, int16u[3]):
  | | | |     1d80: 31 02 00 01 9d 01                               [1.....]
  | | | | WBType6 = 20
  | | | | - Tag 0x0015 (2 bytes, int16u[1]):
  | | | |     1d86: 14 00                                           [..]
  | | | | WB_RGBLevels6 = 507 256 448
  | | | | - Tag 0x0016 (6 bytes, int16u[3]):
  | | | |     1d88: fb 01 00 01 c0 01                               [......]
  | | | | WBType7 = 24
  | | | | - Tag 0x0019 (2 bytes, int16u[1]):
  | | | |     1d8e: 18 00                                           [..]
  | | | | WB_RGBLevels7 = 350 256 656
  | | | | - Tag 0x001a (6 bytes, int16u[3]):
  | | | |     1d90: 5e 01 00 01 90 02                               [^.....]
  | | | 27) RawFormat = 4
  | | |     - Tag 0x002d (2 bytes):
  | | |         1d9e: 04 00                                           [..]
  | | | 28) JpgFromRaw (SubDirectory) -->
  | | |     - Tag 0x002e (616448 bytes):
  | | |         1da8: ff d8 ff e1 7d fe 45 78 69 66 00 00 49 49 2a 00 [....}.Exif..II*.]
  | | |         1db8: 08 00 00 00 0e 00 0f 01 02 00 0a 00 00 00 b6 00 [................]
  | | |         1dc8: 00 00 10 01 02 00 08 00 00 00 c0 00 00 00 12 01 [................]
  | | |         1dd8: 03 00 01 00 00 00 01 00 00 00 1a 01 05 00 01 00 [................]
  | | |         1de8: 00 00 c8 00 00 00 1b 01 05 00 01 00 00 00 d0 00 [................]
  | | |         1df8: 00 00 28 01 03 00 01 00 00 00 02 00 00 00 31 01 [..(...........1.]
  | | |         1e08: 02 00 0a 00 00 00 d8 00 00 00 32 01 02 00 14 00 [..........2.....]
  | | |         1e18: 00 00 e2 00 00 00 3b 01 02 00 0c 00 00 00 f6 00 [......;.........]
  | | |         1e28: 00 00 13 02 03 00 01 00 00 00 02 00 00 00 69 87 [..............i.]
  | | |         1e38: 04 00 01 00 00 00 ca 02 00 00 a5 c4 07 00 d0 00 [................]
  | | |         1e48: 00 00 3a 01 00 00 d2 c6 07 00 40 00 00 00 0a 02 [..:.......@.....]
  | | |         1e58: 00 00 d3 c6 07 00 80 00 00 00 4a 02 00 00 e2 2b [..........J....+]
  | | |         1e68: 00 00 50 61 6e 61 73 6f 6e 69 63 00 44 4d 43 2d [..Panasonic.DMC-]
  | | |         1e78: 4c 58 37 00 b4 00 00 00 01 00 00 00 b4 00 00 00 [LX7.............]
  | | |         1e88: 01 00 00 00 56 65 72 2e 31 2e 30 20 20 00 32 30 [....Ver.1.0  .20]
  | | |         1e98: 31 34 3a 31 31 3a 31 39 20 32 33 3a 30 37 3a 34 [14:11:19 23:07:4]
  | | |         1ea8: 34 00 44 72 65 77 20 4e 6f 61 6b 65 73 00 00 00 [4.Drew Noakes...]
  | | |         1eb8: 00 00 00 00 00 00 00 00 00 00 00 00 00 00 00 00 [................]
  | | |         1ec8: 00 00 00 00 00 00 00 00 00 00 00 00 00 00 00 00 [................]
  | | |         1ed8: 00 00 00 00 00 00 00 00 00 00 00 00 00 00 00 00 [................]
  | | |         1ee8: 00 00 00 00 00 00 50 72 69 6e 74 49 4d 00 30 32 [......PrintIM.02]
  | | |         1ef8: 35 30 00 00 0e 00 01 00 16 00 16 00 02 00 00 00 [50..............]
  | | |         1f08: 00 00 03 00 64 00 00 00 07 00 00 00 00 00 08 00 [....d...........]
  | | |         1f18: 00 00 00 00 09 00 00 00 00 00 0a 00 00 00 00 00 [................]
  | | |         1f28: 0b 00 ac 00 00 00 0c 00 00 00 00 00 0d 00 00 00 [................]
  | | |         1f38: 00 00 0e 00 c4 00 00 00 00 01 05 00 00 00 01 01 [................]
  | | |         1f48: 01 00 00 00 10 01 80 00 00 00 09 11 00 00 10 27 [...............']
  | | |         1f58: 00 00 0b 0f 00 00 10 27 00 00 97 05 00 00 10 27 [.......'.......']
  | | |         1f68: 00 00 b0 08 00 00 10 27 00 00 01 1c 00 00 10 27 [.......'.......']
  | | |         1f78: 00 00 5e 02 00 00 10 27 00 00 8b 00 00 00 10 27 [..^....'.......']
  | | |         1f88: 00 00 cb 03 00 00 10 27 00 00 e5 1b 00 00 10 27 [.......'.......']
  | | |         1f98: 00 00 00 00 00 00 00 00 00 00 00 00 00 00 00 00 [................]
  | | |         1fa8: 00 00 00 00 00 00 00 00 00 00 00 00 00 00 00 00 [................]
  | | |         1fb8: 00 00 00 00 00 00 00 00 00 00 00 00 00 00 00 00 [................]
  | | |         1fc8: 00 00 00 00 00 00 00 00 00 00 00 00 00 00 00 00 [................]
  | | |         1fd8: 00 00 00 00 00 00 00 00 00 00 00 00 00 00 00 00 [................]
  | | |         1fe8: 00 00 00 00 00 00 00 00 00 00 00 00 00 00 00 00 [................]
  | | |         1ff8: 00 00 00 00 00 00 00 00 00 00 00 00 00 00 00 00 [................]
  | | |         2008: 00 00 00 00 00 00 00 00 00 00 00 00 00 00 00 00 [................]
  | | |         2018: 00 00 00 00 00 00 00 00 00 00 00 00 00 00 00 00 [................]
  | | |         2028: 00 00 00 00 00 00 00 00 00 00 00 00 00 00 00 00 [................]
  | | |         2038: 00 00 00 00 00 00 00 00 00 00 00 00 00 00 00 00 [................]
  | | |         2048: 00 00 00 00 00 00 00 00 00 00 00 00 00 00 00 00 [................]
  | | |         2058: 00 00 00 00 00 00 00 00 00 00 00 00 00 00 00 00 [................]
  | | |         2068: 00 00 00 00 00 00 00 00 00 00 00 00 00 00 00 00 [................]
  | | |         2078: 00 00 00 00 00 00 23 00 9a 82 05 00 01 00 00 00 [......#.........]
  | | |         2088: 74 04 00 00 9d 82 05 00 01 00 00 00 7c 04 00 00 [t...........|...]
  | | |         2098: 22 88 03 00 01 00 00 00 02 00 00 00 27 88 03 00 ["...........'...]
  | | |         20a8: 01 00 00 00 a0 00 00 00 30 88 03 00 01 00 00 00 [........0.......]
  | | |         20b8: 01 00 00 00 00 90 07 00 04 00 00 00 30 32 33 30 [............0230]
  | | |         20c8: 03 90 02 00 14 00 00 00 84 04 00 00 04 90 02 00 [................]
  | | |         20d8: 14 00 00 00 98 04 00 00 01 91 07 00 04 00 00 00 [................]
  | | |         20e8: 01 02 03 00 02 91 05 00 01 00 00 00 ac 04 00 00 [................]
  | | |         20f8: 04 92 0a 00 01 00 00 00 b4 04 00 00 05 92 05 00 [................]
  | | |         2108: 01 00 00 00 bc 04 00 00 07 92 03 00 01 00 00 00 [................]
  | | |         2118: 05 00 00 00 08 92 03 00 01 00 00 00 00 00 00 00 [................]
  | | |         2128: 09 92 03 00 01 00 00 00 10 00 00 00 0a 92 05 00 [................]
  | | |         2138: 01 00 00 00 c4 04 00 00 7c 92 07 00 f0 26 00 00 [........|....&..]
  | | |         2148: cc 04 00 00 00 a0 07 00 04 00 00 00 30 31 30 30 [............0100]
  | | |         2158: 01 a0 03 00 01 00 00 00 01 00 00 00 02 a0 04 00 [................]
  | | |         2168: 01 00 00 00 80 07 00 00 03 a0 04 00 01 00 00 00 [................]
  | | |         2178: a0 05 00 00 05 a0 04 00 01 00 00 00 c4 2b 00 00 [.............+..]
  | | |         2188: 17 a2 03 00 01 00 00 00 02 00 00 00 00 a3 07 00 [................]
  | | |         2198: 01 00 00 00 03 00 00 00 01 a3 07 00 01 00 00 00 [................]
  | | |         21a8: 01 00 00 00 01 a4 03 00 01 00 00 00 00 00 00 00 [................]
  | | |         21b8: 02 a4 03 00 01 00 00 00 00 00 00 00 03 a4 03 00 [................]
  | | |         21c8: 01 00 00 00 00 00 00 00 04 a4 05 00 01 00 00 00 [................]
  | | |         21d8: bc 2b 00 00 05 a4 03 00 01 00 00 00 18 00 00 00 [.+..............]
  | | |         21e8: 06 a4 03 00 01 00 00 00 00 00 00 00 07 a4 03 00 [................]
  | | |         21f8: 01 00 00 00 01 00 00 00 08 a4 03 00 01 00 00 00 [................]
  | | |         2208: 00 00 00 00 09 a4 03 00 01 00 00 00 00 00 00 00 [................]
  | | |         2218: 0a a4 03 00 01 00 00 00 00 00 00 00 00 00 00 00 [................]
  | | |         2228: 0a 00 00 00 58 02 00 00 0e 00 00 00 0a 00 00 00 [....X...........]
  | | |         2238: 32 30 31 34 3a 31 31 3a 31 39 20 32 33 3a 30 37 [2014:11:19 23:07]
  | | |         2248: 3a 34 34 00 32 30 31 34 3a 31 31 3a 31 39 20 32 [:44.2014:11:19 2]
  | | |         2258: 33 3a 30 37 3a 34 34 00 02 00 00 00 01 00 00 00 [3:07:44.........]
  | | |         2268: 00 00 00 00 64 00 00 00 7c 00 00 00 80 00 00 00 [....d...|.......]
  | | |         2278: 2f 00 00 00 0a 00 00 00 50 61 6e 61 73 6f 6e 69 [/.......Panasoni]
  | | |         2288: 63 00 00 00 6a 00 01 00 03 00 01 00 00 00 07 00 [c...j...........]
  | | |         2298: 00 00 02 00 07 00 04 00 00 00 00 01 00 00 03 00 [................]
  | | |         22a8: 03 00 01 00 00 00 01 00 00 00 07 00 03 00 01 00 [................]
  | | |         22b8: 00 00 01 00 00 00 0f 00 01 00 02 00 00 00 10 00 [................]
  | | |         22c8: 00 00 1a 00 03 00 01 00 00 00 02 00 00 00 1c 00 [................]
  | | |         22d8: 03 00 01 00 00 00 01 00 00 00 1f 00 03 00 01 00 [................]
  | | |         22e8: 00 00 06 00 00 00 20 00 03 00 01 00 00 00 02 00 [...... .........]
  | | |         22f8: 00 00 21 00 07 00 08 20 00 00 d2 09 00 00 22 00 [..!.... ......".]
  | | |         2308: 03 00 01 00 00 00 00 00 00 00 24 00 03 00 01 00 [..........$.....]
  | | |         2318: 00 00 00 00 00 00 25 00 07 00 10 00 00 00 da 29 [......%........)]
  | | |         2328: 00 00 26 00 07 00 04 00 00 00 30 34 30 31 27 00 [..&.......0401'.]
  | | |         2338: 03 00 01 00 00 00 00 00 00 00 28 00 03 00 01 00 [..........(.....]
  | | |         2348: 00 00 01 00 00 00 29 00 04 00 01 00 00 00 d7 20 [......)........ ]
  | | |         2358: 00 00 2a 00 03 00 01 00 00 00 00 00 00 00 2b 00 [..*...........+.]
  | | |         2368: 04 00 01 00 00 00 00 00 00 00 2c 00 03 00 01 00 [..........,.....]
  | | |         2378: 00 00 00 00 00 00 2d 00 03 00 01 00 00 00 00 00 [......-.........]
  | | |         2388: 00 00 2e 00 03 00 01 00 00 00 01 00 00 00 2f 00 [............../.]
  | | |         2398: 03 00 01 00 00 00 01 00 00 00 30 00 03 00 01 00 [..........0.....]
  | | |         23a8: 00 00 01 00 00 00 31 00 03 00 01 00 00 00 02 00 [......1.........]
  | | |         23b8: 00 00 32 00 03 00 01 00 00 00 00 00 00 00 33 00 [..2...........3.]
  | | |         23c8: 02 00 14 00 00 00 ea 29 00 00 34 00 03 00 01 00 [.......)..4.....]
  | | |         23d8: 00 00 01 00 00 00 35 00 03 00 01 00 00 00 01 00 [......5.........]
  | | |         23e8: 00 00 36 00 03 00 01 00 00 00 ff ff 00 00 37 00 [..6...........7.]
  | | |         23f8: 03 00 01 00 00 00 01 01 00 00 38 00 03 00 01 00 [..........8.....]
  | | |         2408: 00 00 02 00 00 00 39 00 03 00 01 00 00 00 00 00 [......9.........]
  | | |         2418: 00 00 3a 00 03 00 01 00 00 00 01 00 00 00 3b 00 [..:...........;.]
  | | |         2428: 03 00 01 00 00 00 01 00 00 00 3c 00 03 00 01 00 [..........<.....]
  | | |         2438: 00 00 ff ff 00 00 3d 00 03 00 01 00 00 00 01 00 [......=.........]
  | | |         2448: 00 00 3e 00 03 00 01 00 00 00 01 00 00 00 3f 00 [..>...........?.]
  | | |         2458: 03 00 01 00 00 00 00 00 00 00 40 00 03 00 01 00 [..........@.....]
  | | |         2468: 00 00 00 00 00 00 41 00 03 00 01 00 00 00 00 00 [......A.........]
  | | |         2478: 00 00 42 00 03 00 01 00 00 00 00 00 00 00 43 00 [..B...........C.]
  | | |         2488: 03 00 01 00 00 00 03 00 00 00 44 00 03 00 01 00 [..........D.....]
  | | |         2498: 00 00 00 00 00 00 46 00 03 00 01 00 00 00 00 00 [......F.........]
  | | |         24a8: 00 00 47 00 03 00 01 00 00 00 00 00 00 00 48 00 [..G...........H.]
  | | |         24b8: 03 00 01 00 00 00 00 00 00 00 4a 00 03 00 01 00 [..........J.....]
  | | |         24c8: 00 00 00 00 00 00 4b 00 04 00 01 00 00 00 40 0e [......K.......@.]
  | | |         24d8: 00 00 4c 00 04 00 01 00 00 00 b0 0a 00 00 4d 00 [..L...........M.]
  | | |         24e8: 05 00 02 00 00 00 fe 29 00 00 4e 00 07 00 2a 00 [.......)..N...*.]
  | | |         24f8: 00 00 0e 2a 00 00 4f 00 03 00 01 00 00 00 00 00 [...*..O.........]
  | | |         2508: 00 00 50 00 03 00 01 00 00 00 00 00 00 00 55 00 [..P...........U.]
  | | |         2518: 03 00 01 00 00 00 01 00 00 00 57 00 03 00 01 00 [..........W.....]
  | | |         2528: 00 00 00 00 00 00 5a 00 03 00 01 00 00 00 00 00 [......Z.........]
  | | |         2538: 00 00 5b 00 03 00 01 00 00 00 00 00 00 00 5c 00 [..[...........\.]
  | | |         2548: 03 00 01 00 00 00 00 00 00 00 5e 00 07 00 04 00 [..........^.....]
  | | |         2558: 00 00 00 00 00 10 61 00 07 00 94 00 00 00 38 2a [......a.......8*]
  | | |         2568: 00 00 62 00 03 00 01 00 00 00 00 00 00 00 63 00 [..b...........c.]
  | | |         2578: 07 00 04 00 00 00 00 00 00 00 65 00 07 00 40 00 [..........e...@.]
  | | |         2588: 00 00 cc 2a 00 00 66 00 07 00 40 00 00 00 0c 2b [...*..f...@....+]
  | | |         [snip 614416 bytes]
--- DOC1:JpgFromRaw --------------------------------------------------------
JPEG APP1 (32252 bytes):
      0006: 45 78 69 66 00 00 49 49 2a 00 08 00 00 00 0e 00 [Exif..II*.......]
      0016: 0f 01 02 00 0a 00 00 00 b6 00 00 00 10 01 02 00 [................]
      0026: 08 00 00 00 c0 00 00 00 12 01 03 00 01 00 00 00 [................]
      0036: 01 00 00 00 1a 01 05 00 01 00 00 00 c8 00 00 00 [................]
      0046: 1b 01 05 00 01 00 00 00 d0 00 00 00 28 01 03 00 [............(...]
      0056: 01 00 00 00 02 00 00 00 31 01 02 00 0a 00 00 00 [........1.......]
      0066: d8 00 00 00 32 01 02 00 14 00 00 00 e2 00 00 00 [....2...........]
      [snip 32140 bytes]
  ExifByteOrder = II
  + [IFD0 directory with 14 entries, Little-endian]
  | 0)  Make = Panasonic
  |     - Tag 0x010f (10 bytes, string[10]):
  |         00c2: 50 61 6e 61 73 6f 6e 69 63 00                   [Panasonic.]
  | 1)  Model = DMC-LX7
  |     - Tag 0x0110 (8 bytes, string[8]):
  |         00cc: 44 4d 43 2d 4c 58 37 00                         [DMC-LX7.]
  | 2)  Orientation = 1
  |     - Tag 0x0112 (2 bytes, int16u[1]):
  |         0036: 01 00                                           [..]
  | 3)  XResolution = 180 (180/1)
  |     - Tag 0x011a (8 bytes, rational64u[1]):
  |         00d4: b4 00 00 00 01 00 00 00                         [........]
  | 4)  YResolution = 180 (180/1)
  |     - Tag 0x011b (8 bytes, rational64u[1]):
  |         00dc: b4 00 00 00 01 00 00 00                         [........]
  | 5)  ResolutionUnit = 2
  |     - Tag 0x0128 (2 bytes, int16u[1]):
  |         005a: 02 00                                           [..]
  | 6)  Software = Ver.1.0  
  |     - Tag 0x0131 (10 bytes, string[10]):
  |         00e4: 56 65 72 2e 31 2e 30 20 20 00                   [Ver.1.0  .]
  | 7)  ModifyDate = 2014:11:19 23:07:44
  |     - Tag 0x0132 (20 bytes, string[20]):
  |         00ee: 32 30 31 34 3a 31 31 3a 31 39 20 32 33 3a 30 37 [2014:11:19 23:07]
  |         00fe: 3a 34 34 00                                     [:44.]
  | 8)  Artist = Drew Noakes
  |     - Tag 0x013b (12 bytes, string[12]):
  |         0102: 44 72 65 77 20 4e 6f 61 6b 65 73 00             [Drew Noakes.]
  | 9)  YCbCrPositioning = 2
  |     - Tag 0x0213 (2 bytes, int16u[1]):
  |         008a: 02 00                                           [..]
  | 10) ExifOffset (SubDirectory) -->
  |     - Tag 0x8769 (4 bytes, int32u[1]):
  |         0096: ca 02 00 00                                     [....]
  | + [ExifIFD directory with 35 entries, Little-endian]
  | | 0)  ExposureTime = 0.01666666667 (10/600)
  | |     - Tag 0x829a (8 bytes, rational64u[1]):
  | |         0480: 0a 00 00 00 58 02 00 00                         [....X...]
  | | 1)  FNumber = 1.4 (14/10)
  | |     - Tag 0x829d (8 bytes, rational64u[1]):
  | |         0488: 0e 00 00 00 0a 00 00 00                         [........]
  | | 2)  ExposureProgram = 2
  | |     - Tag 0x8822 (2 bytes, int16u[1]):
  | |         02f8: 02 00                                           [..]
  | | 3)  ISO = 160
  | |     - Tag 0x8827 (2 bytes, int16u[1]):
  | |         0304: a0 00                                           [..]
  | | 4)  SensitivityType = 1
  | |     - Tag 0x8830 (2 bytes, int16u[1]):
  | |         0310: 01 00                                           [..]
  | | 5)  ExifVersion = 0230
  | |     - Tag 0x9000 (4 bytes, undef[4]):
  | |         031c: 30 32 33 30                                     [0230]
  | | 6)  DateTimeOriginal = 2014:11:19 23:07:44
  | |     - Tag 0x9003 (20 bytes, string[20]):
  | |         0490: 32 30 31 34 3a 31 31 3a 31 39 20 32 33 3a 30 37 [2014:11:19 23:07]
  | |         04a0: 3a 34 34 00                                     [:44.]
  | | 7)  CreateDate = 2014:11:19 23:07:44
  | |     - Tag 0x9004 (20 bytes, string[20]):
  | |         04a4: 32 30 31 34 3a 31 31 3a 31 39 20 32 33 3a 30 37 [2014:11:19 23:07]
  | |         04b4: 3a 34 34 00                                     [:44.]
  | | 8)  ComponentsConfiguration = 1 2 3 0
  | |     - Tag 0x9101 (4 bytes, undef[4] read as int8u[4]):
  | |         0340: 01 02 03 00                                     [....]
  | | 9)  CompressedBitsPerPixel = 2 (2/1)
  | |     - Tag 0x9102 (8 bytes, rational64u[1]):
  | |         04b8: 02 00 00 00 01 00 00 00                         [........]
  | | 10) ExposureCompensation = 0 (0/100)
  | |     - Tag 0x9204 (8 bytes, rational64s[1]):
  | |         04c0: 00 00 00 00 64 00 00 00                         [....d...]
  | | 11) MaxApertureValue = 0.96875 (124/128)
  | |     - Tag 0x9205 (8 bytes, rational64u[1]):
  | |         04c8: 7c 00 00 00 80 00 00 00                         [|.......]
  | | 12) MeteringMode = 5
  | |     - Tag 0x9207 (2 bytes, int16u[1]):
  | |         0370: 05 00                                           [..]
  | | 13) LightSource = 0
  | |     - Tag 0x9208 (2 bytes, int16u[1]):
  | |         037c: 00 00                                           [..]
  | | 14) Flash = 16
  | |     - Tag 0x9209 (2 bytes, int16u[1]):
  | |         0388: 10 00                                           [..]
  | | 15) FocalLength = 4.7 (47/10)
  | |     - Tag 0x920a (8 bytes, rational64u[1]):
  | |         04d0: 2f 00 00 00 0a 00 00 00                         [/.......]
  | | 16) MakerNotePanasonic (SubDirectory) -->
  | |     - Tag 0x927c (9968 bytes, undef[9968]):
  | |         04d8: 50 61 6e 61 73 6f 6e 69 63 00 00 00 6a 00 01 00 [Panasonic...j...]
  | |         04e8: 03 00 01 00 00 00 07 00 00 00 02 00 07 00 04 00 [................]
  | |         04f8: 00 00 00 01 00 00 03 00 03 00 01 00 00 00 01 00 [................]
  | |         0508: 00 00 07 00 03 00 01 00 00 00 01 00 00 00 0f 00 [................]
  | |         0518: 01 00 02 00 00 00 10 00 00 00 1a 00 03 00 01 00 [................]
  | |         0528: 00 00 02 00 00 00 1c 00 03 00 01 00 00 00 01 00 [................]
  | |         0538: 00 00 1f 00 03 00 01 00 00 00 06 00 00 00 20 00 [.............. .]
  | |         0548: 03 00 01 00 00 00 02 00 00 00 21 00 07 00 08 20 [..........!.... ]
  | |         0558: 00 00 d2 09 00 00 22 00 03 00 01 00 00 00 00 00 [......".........]
  | |         0568: 00 00 24 00 03 00 01 00 00 00 00 00 00 00 25 00 [..$...........%.]
  | |         0578: 07 00 10 00 00 00 da 29 00 00 26 00 07 00 04 00 [.......)..&.....]
  | |         0588: 00 00 30 34 30 31 27 00 03 00 01 00 00 00 00 00 [..0401'.........]
  | |         0598: 00 00 28 00 03 00 01 00 00 00 01 00 00 00 29 00 [..(...........).]
  | |         05a8: 04 00 01 00 00 00 d7 20 00 00 2a 00 03 00 01 00 [....... ..*.....]
  | |         05b8: 00 00 00 00 00 00 2b 00 04 00 01 00 00 00 00 00 [......+.........]
  | |         05c8: 00 00 2c 00 03 00 01 00 00 00 00 00 00 00 2d 00 [..,...........-.]
  | |         05d8: 03 00 01 00 00 00 00 00 00 00 2e 00 03 00 01 00 [................]
  | |         05e8: 00 00 01 00 00 00 2f 00 03 00 01 00 00 00 01 00 [....../.........]
  | |         05f8: 00 00 30 00 03 00 01 00 00 00 01 00 00 00 31 00 [..0...........1.]
  | |         0608: 03 00 01 00 00 00 02 00 00 00 32 00 03 00 01 00 [..........2.....]
  | |         0618: 00 00 00 00 00 00 33 00 02 00 14 00 00 00 ea 29 [......3........)]
  | |         0628: 00 00 34 00 03 00 01 00 00 00 01 00 00 00 35 00 [..4...........5.]
  | |         0638: 03 00 01 00 00 00 01 00 00 00 36 00 03 00 01 00 [..........6.....]
  | |         0648: 00 00 ff ff 00 00 37 00 03 00 01 00 00 00 01 01 [......7.........]
  | |         0658: 00 00 38 00 03 00 01 00 00 00 02 00 00 00 39 00 [..8...........9.]
  | |         0668: 03 00 01 00 00 00 00 00 00 00 3a 00 03 00 01 00 [..........:.....]
  | |         0678: 00 00 01 00 00 00 3b 00 03 00 01 00 00 00 01 00 [......;.........]
  | |         0688: 00 00 3c 00 03 00 01 00 00 00 ff ff 00 00 3d 00 [..<...........=.]
  | |         0698: 03 00 01 00 00 00 01 00 00 00 3e 00 03 00 01 00 [..........>.....]
  | |         06a8: 00 00 01 00 00 00 3f 00 03 00 01 00 00 00 00 00 [......?.........]
  | |         06b8: 00 00 40 00 03 00 01 00 00 00 00 00 00 00 41 00 [..@...........A.]
  | |         06c8: 03 00 01 00 00 00 00 00 00 00 42 00 03 00 01 00 [..........B.....]
  | |         06d8: 00 00 00 00 00 00 43 00 03 00 01 00 00 00 03 00 [......C.........]
  | |         06e8: 00 00 44 00 03 00 01 00 00 00 00 00 00 00 46 00 [..D...........F.]
  | |         06f8: 03 00 01 00 00 00 00 00 00 00 47 00 03 00 01 00 [..........G.....]
  | |         0708: 00 00 00 00 00 00 48 00 03 00 01 00 00 00 00 00 [......H.........]
  | |         0718: 00 00 4a 00 03 00 01 00 00 00 00 00 00 00 4b 00 [..J...........K.]
  | |         0728: 04 00 01 00 00 00 40 0e 00 00 4c 00 04 00 01 00 [......@...L.....]
  | |         0738: 00 00 b0 0a 00 00 4d 00 05 00 02 00 00 00 fe 29 [......M........)]
  | |         0748: 00 00 4e 00 07 00 2a 00 00 00 0e 2a 00 00 4f 00 [..N...*....*..O.]
  | |         0758: 03 00 01 00 00 00 00 00 00 00 50 00 03 00 01 00 [..........P.....]
  | |         0768: 00 00 00 00 00 00 55 00 03 00 01 00 00 00 01 00 [......U.........]
  | |         0778: 00 00 57 00 03 00 01 00 00 00 00 00 00 00 5a 00 [..W...........Z.]
  | |         0788: 03 00 01 00 00 00 00 00 00 00 5b 00 03 00 01 00 [..........[.....]
  | |         0798: 00 00 00 00 00 00 5c 00 03 00 01 00 00 00 00 00 [......\.........]
  | |         07a8: 00 00 5e 00 07 00 04 00 00 00 00 00 00 10 61 00 [..^...........a.]
  | |         07b8: 07 00 94 00 00 00 38 2a 00 00 62 00 03 00 01 00 [......8*..b.....]
  | |         07c8: 00 00 00 00 00 00 63 00 07 00 04 00 00 00 00 00 [......c.........]
  | |         07d8: 00 00 65 00 07 00 40 00 00 00 cc 2a 00 00 66 00 [..e...@....*..f.]
  | |         07e8: 07 00 40 00 00 00 0c 2b 00 00 67 00 07 00 40 00 [..@....+..g...@.]
  | |         07f8: 00 00 4c 2b 00 00 70 00 01 00 01 00 00 00 00 00 [..L+..p.........]
  | |         0808: 00 00 72 00 03 00 01 00 00 00 00 00 00 00 73 00 [..r...........s.]
  | |         0818: 03 00 01 00 00 00 00 00 00 00 74 00 03 00 01 00 [..........t.....]
  | |         0828: 00 00 00 00 00 00 75 00 03 00 01 00 00 00 00 00 [......u.........]
  | |         0838: 00 00 76 00 03 00 01 00 00 00 00 00 00 00 77 00 [..v...........w.]
  | |         0848: 03 00 01 00 00 00 00 00 00 00 79 00 03 00 01 00 [..........y.....]
  | |         0858: 00 00 00 00 00 00 7a 00 03 00 01 00 00 00 00 00 [......z.........]
  | |         0868: 00 00 7b 00 03 00 01 00 00 00 00 00 00 00 7c 00 [..{...........|.]
  | |         0878: 03 00 01 00 00 00 00 00 00 00 7d 00 03 00 01 00 [..........}.....]
  | |         0888: 00 00 00 00 00 00 7e 00 03 00 01 00 00 00 00 00 [......~.........]
  | |         0898: 00 00 89 00 03 00 01 00 00 00 01 00 00 00 8b 00 [................]
  | |         08a8: 03 00 01 00 00 00 00 00 00 00 8c 00 03 00 01 00 [................]
  | |         08b8: 00 00 00 00 00 00 8d 00 03 00 01 00 00 00 00 00 [................]
  | |         08c8: 00 00 8e 00 03 00 01 00 00 00 00 00 00 00 8f 00 [................]
  | |         08d8: 01 00 01 00 00 00 00 00 00 00 90 00 03 00 01 00 [................]
  | |         08e8: 00 00 00 00 00 00 91 00 03 00 01 00 00 00 00 00 [................]
  | |         08f8: 00 00 92 00 01 00 01 00 00 00 00 00 00 00 93 00 [................]
  | |         0908: 01 00 01 00 00 00 00 00 00 00 94 00 03 00 01 00 [................]
  | |         0918: 00 00 00 00 00 00 96 00 01 00 01 00 00 00 00 00 [................]
  | |         0928: 00 00 97 00 03 00 01 00 00 00 00 00 00 00 98 00 [................]
  | |         0938: 03 00 01 00 00 00 00 00 00 00 9d 00 05 00 01 00 [................]
  | |         0948: 00 00 8c 2b 00 00 03 20 07 00 14 00 00 00 94 2b [...+... .......+]
  | |         0958: 00 00 00 80 07 00 04 00 00 00 30 31 34 31 01 80 [..........0141..]
  | |         0968: 03 00 01 00 00 00 00 00 00 00 02 80 03 00 01 00 [................]
  | |         0978: 00 00 01 00 00 00 03 80 03 00 01 00 00 00 01 00 [................]
  | |         0988: 00 00 04 80 03 00 01 00 00 00 37 07 00 00 05 80 [..........7.....]
  | |         0998: 03 00 01 00 00 00 24 04 00 00 06 80 03 00 01 00 [......$.........]
  | |         09a8: 00 00 8b 07 00 00 07 80 03 00 01 00 00 00 01 00 [................]
  | |         09b8: 00 00 08 80 03 00 01 00 00 00 01 00 00 00 09 80 [................]
  | |         09c8: 03 00 01 00 00 00 01 00 00 00 10 80 02 00 14 00 [................]
  | |         09d8: 00 00 a8 2b 00 00 44 56 01 02 45 50 00 00 f0 ff [...+..DV..EP....]
  | |         09e8: 44 42 f4 09 f0 ff 41 46 02 01 7a af 00 00 7c af [DB....AF..z...|.]
  | |         09f8: 00 00 7e af 00 00 98 af 00 00 9a af 00 00 9c af [..~.............]
  | |         0a08: 00 00 a0 af 04 82 a2 af 01 00 a4 af 00 31 a6 af [.............1..]
  | |         0a18: 00 00 e6 af 00 00 ca af 48 00 b2 af 00 00 b4 af [........H.......]
  | |         0a28: 00 00 ba af be ff cc af d9 ff bc af 00 00 be af [................]
  | |         0a38: 00 00 e8 af 00 00 f8 af 00 00 fa af 00 00 a8 af [................]
  | |         0a48: 9b 03 aa af fd 00 c8 af 76 00 d8 af 8a 03 b6 af [........v.......]
  | |         0a58: 80 00 b8 af 00 00 c6 af 03 03 76 af 9d 05 78 af [..........v...x.]
  | |         0a68: 7e 02 ce af 1b 00 d2 af 14 00 d0 af 28 00 ac af [~...........(...]
  | |         0a78: 34 00 b0 af 14 00 ae af 28 00 d4 af 0e 00 f4 af [4.......(.......]
  | |         0a88: 26 00 f2 af 3b 00 e2 af 02 00 e4 af 01 00 e0 af [&...;...........]
  | |         0a98: fd 00 d6 af 00 00 84 af 00 00 86 af 00 00 88 af [................]
  | |         0aa8: 0f 00 8a af 00 00 8c af 0f 00 8e af 00 00 90 af [................]
  | |         0ab8: 00 00 92 af 00 00 94 af 00 00 96 af 00 00 fe af [................]
  | |         0ac8: 00 00 f6 af 00 00 da af 01 00 f0 af 00 00 04 06 [................]
  | |         0ad8: 78 0b 0a 06 fd 00 08 a7 01 01 80 af 2a 01 82 af [x...........*...]
  | |         0ae8: 14 00 ec af 20 00 f0 ff 53 54 46 01 20 a9 00 00 [.... ...STF. ...]
  | |         0af8: 22 a9 00 00 7c a7 00 00 bc a7 00 00 be a7 00 00 ["...|...........]
  | |         0b08: ac a7 00 00 7e a7 00 00 a0 a7 00 00 a2 a7 00 00 [....~...........]
  | |         0b18: ae a7 00 00 90 a7 00 00 92 a7 00 00 94 a7 00 00 [................]
  | |         0b28: 98 a7 00 00 80 a7 00 00 82 a7 00 00 84 a7 00 00 [................]
  | |         0b38: 86 a7 00 00 32 a6 00 00 b0 a7 00 00 b2 a7 00 00 [....2...........]
  | |         0b48: b4 a7 00 00 76 a9 00 00 58 a9 00 00 54 a9 00 00 [....v...X...T...]
  | |         0b58: 56 a9 00 00 5e a9 00 00 88 a7 00 00 8a a7 00 00 [V...^...........]
  | |         0b68: 8c a7 00 00 8e a7 00 00 9c a7 00 00 aa a7 00 00 [................]
  | |         0b78: 9e a7 00 00 2a a9 00 00 70 a7 00 00 50 a9 00 00 [....*...p...P...]
  | |         0b88: 52 a9 00 00 28 a9 00 00 24 a9 00 00 2e a9 00 00 [R...(...$.......]
  | |         0b98: 5a a9 00 00 3a a9 00 00 3c a9 00 00 2c a9 00 00 [Z...:...<...,...]
  | |         0ba8: 30 a9 00 00 32 a9 00 00 36 a9 00 00 38 a9 00 00 [0...2...6...8...]
  | |         0bb8: 60 a9 00 00 62 a9 00 00 64 a9 00 00 68 a9 00 00 [`...b...d...h...]
  | |         0bc8: 66 a9 00 00 6a a9 00 00 7e a9 00 00 3e a9 00 00 [f...j...~...>...]
  | |         0bd8: 60 a7 00 00 62 a7 00 00 66 a7 00 00 68 a7 00 00 [`...b...f...h...]
  | |         0be8: 64 a7 00 00 6a a7 00 00 78 a7 00 00 6c a7 00 00 [d...j...x...l...]
  | |         0bf8: 6e a7 00 00 72 a7 00 00 74 a7 00 00 76 a7 00 00 [n...r...t...v...]
  | |         0c08: a4 a7 00 00 a6 a7 00 00 a8 a7 00 00 72 a9 00 00 [............r...]
  | |         0c18: 74 a9 00 00 26 a9 00 00 96 a7 00 00 00 a9 00 00 [t...&...........]
  | |         0c28: 02 a9 00 00 04 a9 00 00 34 a9 00 00 f0 ff 41 45 [........4.....AE]
  | |         0c38: be 01 02 a6 dc 01 00 a6 cd 01 0a a6 cd 01 06 a6 [................]
  | |         0c48: dc 01 14 a6 13 03 16 a6 3e 03 18 a6 ee 02 2a a6 [........>.....*.]
  | |         0c58: fc 00 2c a6 00 00 0c a6 d5 ff 24 a6 dd 01 e8 a6 [..,.......$.....]
  | |         0c68: 00 04 ec a6 e9 03 f2 a6 00 00 0e a6 d6 00 28 a6 [..............(.]
  | |         0c78: 01 00 2e a6 00 00 20 a6 98 00 7c a6 00 00 22 a6 [...... ...|...".]
  | |         0c88: 7b 02 30 a6 3e 19 26 a6 04 00 a6 a6 00 00 aa a6 [{.0.>.&.........]
  | |         0c98: ff ff 34 a7 00 00 80 a6 00 00 82 a6 00 00 86 a6 [..4.............]
  | |         0ca8: 00 00 a0 a6 00 00 c0 a6 00 00 da a6 00 00 94 a6 [................]
  | |         0cb8: 00 00 e2 a6 00 00 e0 a6 00 00 84 a6 00 00 c2 a6 [................]
  | |         [snip 7936 bytes]
  | | + [MakerNotes directory with 106 entries, Little-endian]
  | | | 0)  ImageQuality = 7
  | | |     - Tag 0x0001 (2 bytes, int16u[1]):
  | | |         04ee: 07 00                                           [..]
  | | | 1)  FirmwareVersion = .
  | | |     - Tag 0x0002 (4 bytes, undef[4]):
  | | |         04fa: 00 01 00 00                                     [....]
  | | | 2)  WhiteBalance = 1
  | | |     - Tag 0x0003 (2 bytes, int16u[1]):
  | | |         0506: 01 00                                           [..]
  | | | 3)  FocusMode = 1
  | | |     - Tag 0x0007 (2 bytes, int16u[1]):
  | | |         0512: 01 00                                           [..]
  | | | 4)  AFAreaMode = 16 0
  | | |     - Tag 0x000f (2 bytes, int8u[2]):
  | | |         051e: 10 00                                           [..]
  | | | 5)  ImageStabilization = 2
  | | |     - Tag 0x001a (2 bytes, int16u[1]):
  | | |         052a: 02 00                                           [..]
  | | | 6)  MacroMode = 1
  | | |     - Tag 0x001c (2 bytes, int16u[1]):
  | | |         0536: 01 00                                           [..]
  | | | 7)  ShootingMode = 6
  | | |     - Tag 0x001f (2 bytes, int16u[1]):
  | | |         0542: 06 00                                           [..]
  | | | 8)  Audio = 2
  | | |     - Tag 0x0020 (2 bytes, int16u[1]):
  | | |         054e: 02 00                                           [..]
  | | | 9)  DataDump = DV..EP..DB....AF..z.|.~................1......H...............................v.............v...x.~.........(..4.....(.....&..;............................................x..........*...... ..STF. .".|.......~.......................2.......v.X.T.V.^...............*.p.P.R.(.$...Z.:.<.,.0.2.6.8.`.b.d.h.f.j.~.>.`.b.f.h.d.j.x.l.n.r.t.v.......r.t.&........4...AE.......................>.....*..,.....$...............(.... ..|.".{.0.>.&........4...........................................C.T...V...U..UF...H......N....z.R..X..@..~.B..`..Z.L.\.....).d.....b...L.......6...j.l.n.f.........E...........................................0.............+.......P2..8.:...WB^...7.......$........h...`.d.f..@..B...D.p.F.D...y...@...........u...[...........x... .........................j.xl.;........:..b.........+.....7..p...........$...&... .."..<..>..(.*...,...........................0...2...4...6...8...H..J...L..N...P..R...T..V.....G.......................<...........L.........................n.p.r.t.v.x.z.|.~.q..........$...$...7.......$...$...7...........................................................................................................YC.N..P..R..T..D.DDF.D.H...J...L..8.0:.0<.0>.0....0...2.wf4.".6..........f`.PPb.PPd.PPf.PPh...j..l.n.......................................X..Z..\..^. ............^.........CM....p..........DSF.......................U..............IS........................r.......................................?...................(...................P...P...P...........................................FD.`.b.................................@.B.D.F.H.J.L.N.P.R.T.V.X.Z.\.^...............ATB<.".$.&.(.*.,...0.2.4.6.8.:.>...IA......................................................................................... .. ..................DSCPDISV.((((((((((FFFFFFFFFFqYpYvSFuTtUo[l]gbwRvSK?J@=L><K@JAICHCEFN;N<vSxR0|NA{OzOuUtVn[{NzP?[@ZBX6@Y@Y<];^7bCXAY^j_i7ddDag_i]kZnWrddagUfTfYaDVd4SgPjOkJq]]Z`j_k_BpY@n[o[k^n\j`k^k^cbd`h]=f^7da_e_eYki\g^s8!_(o\.x%|1(P.RF.|AJ&.-.,%I1#V5.:..0P7.e&(a1rC..<c#.R/cL.wBP63<&T7fP=[snip]
  | | |     - Tag 0x0021 (8200 bytes, undef[8200]):
  | | |         09de: 44 56 01 02 45 50 00 00 f0 ff 44 42 f4 09 f0 ff [DV..EP....DB....]
  | | |         09ee: 41 46 02 01 7a af 00 00 7c af 00 00 7e af 00 00 [AF..z...|...~...]
  | | |         09fe: 98 af 00 00 9a af 00 00 9c af 00 00 a0 af 04 82 [................]
  | | |         0a0e: a2 af 01 00 a4 af 00 31 a6 af 00 00 e6 af 00 00 [.......1........]
  | | |         0a1e: ca af 48 00 b2 af 00 00 b4 af 00 00 ba af be ff [..H.............]
  | | |         0a2e: cc af d9 ff bc af 00 00 be af 00 00 e8 af 00 00 [................]
  | | |         0a3e: f8 af 00 00 fa af 00 00 a8 af 9b 03 aa af fd 00 [................]
  | | |         0a4e: c8 af 76 00 d8 af 8a 03 b6 af 80 00 b8 af 00 00 [..v.............]
  | | |         0a5e: c6 af 03 03 76 af 9d 05 78 af 7e 02 ce af 1b 00 [....v...x.~.....]
  | | |         0a6e: d2 af 14 00 d0 af 28 00 ac af 34 00 b0 af 14 00 [......(...4.....]
  | | |         0a7e: ae af 28 00 d4 af 0e 00 f4 af 26 00 f2 af 3b 00 [..(.......&...;.]
  | | |         0a8e: e2 af 02 00 e4 af 01 00 e0 af fd 00 d6 af 00 00 [................]
  | | |         0a9e: 84 af 00 00 86 af 00 00 88 af 0f 00 8a af 00 00 [................]
  | | |         0aae: 8c af 0f 00 8e af 00 00 90 af 00 00 92 af 00 00 [................]
  | | |         0abe: 94 af 00 00 96 af 00 00 fe af 00 00 f6 af 00 00 [................]
  | | |         0ace: da af 01 00 f0 af 00 00 04 06 78 0b 0a 06 fd 00 [..........x.....]
  | | |         0ade: 08 a7 01 01 80 af 2a 01 82 af 14 00 ec af 20 00 [......*....... .]
  | | |         0aee: f0 ff 53 54 46 01 20 a9 00 00 22 a9 00 00 7c a7 [..STF. ..."...|.]
  | | |         0afe: 00 00 bc a7 00 00 be a7 00 00 ac a7 00 00 7e a7 [..............~.]
  | | |         0b0e: 00 00 a0 a7 00 00 a2 a7 00 00 ae a7 00 00 90 a7 [................]
  | | |         0b1e: 00 00 92 a7 00 00 94 a7 00 00 98 a7 00 00 80 a7 [................]
  | | |         0b2e: 00 00 82 a7 00 00 84 a7 00 00 86 a7 00 00 32 a6 [..............2.]
  | | |         0b3e: 00 00 b0 a7 00 00 b2 a7 00 00 b4 a7 00 00 76 a9 [..............v.]
  | | |         0b4e: 00 00 58 a9 00 00 54 a9 00 00 56 a9 00 00 5e a9 [..X...T...V...^.]
  | | |         0b5e: 00 00 88 a7 00 00 8a a7 00 00 8c a7 00 00 8e a7 [................]
  | | |         0b6e: 00 00 9c a7 00 00 aa a7 00 00 9e a7 00 00 2a a9 [..............*.]
  | | |         0b7e: 00 00 70 a7 00 00 50 a9 00 00 52 a9 00 00 28 a9 [..p...P...R...(.]
  | | |         0b8e: 00 00 24 a9 00 00 2e a9 00 00 5a a9 00 00 3a a9 [..$.......Z...:.]
  | | |         0b9e: 00 00 3c a9 00 00 2c a9 00 00 30 a9 00 00 32 a9 [..<...,...0...2.]
  | | |         0bae: 00 00 36 a9 00 00 38 a9 00 00 60 a9 00 00 62 a9 [..6...8...`...b.]
  | | |         0bbe: 00 00 64 a9 00 00 68 a9 00 00 66 a9 00 00 6a a9 [..d...h...f...j.]
  | | |         0bce: 00 00 7e a9 00 00 3e a9 00 00 60 a7 00 00 62 a7 [..~...>...`...b.]
  | | |         0bde: 00 00 66 a7 00 00 68 a7 00 00 64 a7 00 00 6a a7 [..f...h...d...j.]
  | | |         0bee: 00 00 78 a7 00 00 6c a7 00 00 6e a7 00 00 72 a7 [..x...l...n...r.]
  | | |         0bfe: 00 00 74 a7 00 00 76 a7 00 00 a4 a7 00 00 a6 a7 [..t...v.........]
  | | |         0c0e: 00 00 a8 a7 00 00 72 a9 00 00 74 a9 00 00 26 a9 [......r...t...&.]
  | | |         0c1e: 00 00 96 a7 00 00 00 a9 00 00 02 a9 00 00 04 a9 [................]
  | | |         0c2e: 00 00 34 a9 00 00 f0 ff 41 45 be 01 02 a6 dc 01 [..4.....AE......]
  | | |         0c3e: 00 a6 cd 01 0a a6 cd 01 06 a6 dc 01 14 a6 13 03 [................]
  | | |         0c4e: 16 a6 3e 03 18 a6 ee 02 2a a6 fc 00 2c a6 00 00 [..>.....*...,...]
  | | |         0c5e: 0c a6 d5 ff 24 a6 dd 01 e8 a6 00 04 ec a6 e9 03 [....$...........]
  | | |         0c6e: f2 a6 00 00 0e a6 d6 00 28 a6 01 00 2e a6 00 00 [........(.......]
  | | |         0c7e: 20 a6 98 00 7c a6 00 00 22 a6 7b 02 30 a6 3e 19 [ ...|...".{.0.>.]
  | | |         0c8e: 26 a6 04 00 a6 a6 00 00 aa a6 ff ff 34 a7 00 00 [&...........4...]
  | | |         0c9e: 80 a6 00 00 82 a6 00 00 86 a6 00 00 a0 a6 00 00 [................]
  | | |         0cae: c0 a6 00 00 da a6 00 00 94 a6 00 00 e2 a6 00 00 [................]
  | | |         0cbe: e0 a6 00 00 84 a6 00 00 c2 a6 00 00 8a a6 00 00 [................]
  | | |         0cce: 90 a6 00 00 a2 a6 00 00 88 a6 00 00 8c a6 ff ff [................]
  | | |         0cde: 8e a6 00 00 92 a6 ff ff 1a a6 43 03 54 a6 8e 03 [..........C.T...]
  | | |         0cee: 56 a6 00 00 10 a6 55 00 12 a6 55 00 46 a6 ee 04 [V.....U...U.F...]
  | | |         0cfe: 48 a6 00 04 ee a6 e9 03 4e a6 00 01 f4 a6 00 00 [H.......N.......]
  | | |         0d0e: 7a a6 00 00 52 a6 01 00 58 a6 01 00 40 a6 98 00 [z...R...X...@...]
  | | |         0d1e: 7e a6 00 00 42 a6 00 03 60 a6 00 01 5a a6 4c 0c [~...B...`...Z.L.]
  | | |         0d2e: 5c a6 c1 05 10 a7 29 0f 64 a6 01 00 06 a7 02 00 [\.....).d.......]
  | | |         0d3e: 62 a6 00 00 04 a7 00 00 4c a6 00 00 ac a6 00 00 [b.......L.......]
  | | |         0d4e: a4 a6 00 00 a8 a6 00 00 36 a7 00 00 9c a6 00 00 [........6.......]
  | | |         0d5e: 6a a6 00 00 6c a6 00 00 6e a6 00 00 66 a6 01 00 [j...l...n...f...]
  | | |         0d6e: c4 a6 03 00 c6 a6 00 00 c8 a6 45 00 ca a6 01 00 [..........E.....]
  | | |         0d7e: cc a6 0d 00 ce a6 00 00 d0 a6 00 00 d6 a6 00 00 [................]
  | | |         0d8e: d8 a6 00 00 d2 a6 00 00 d4 a6 00 00 b0 a6 00 00 [................]
  | | |         0d9e: b2 a6 00 00 ba a6 ff 00 dc a6 80 00 b6 a6 00 00 [................]
  | | |         0dae: b8 a6 00 00 9e a6 0e 00 96 a6 00 00 bc a6 00 00 [................]
  | | |         0dbe: be a6 00 00 f0 a6 00 00 30 a7 b2 01 0a a7 b2 01 [........0.......]
  | | |         0dce: 0c a7 00 00 0e a7 00 00 12 a7 2b 01 00 a7 12 00 [..........+.....]
  | | |         0dde: 1e a7 00 00 02 a7 50 00 32 a7 80 00 38 a7 00 00 [......P.2...8...]
  | | |         0dee: 3a a7 00 00 f0 ff 57 42 5e 02 16 a8 37 07 1a a8 [:.....WB^...7...]
  | | |         0dfe: 8b 07 18 a8 24 04 1c a8 e6 00 1e a8 01 01 68 a8 [....$.........h.]
  | | |         0e0e: ee 02 60 a8 00 00 64 a8 00 00 66 a8 08 00 40 a8 [..`...d...f...@.]
  | | |         0e1e: e6 00 42 a8 01 01 44 a8 70 01 46 a8 44 01 a0 a8 [..B...D.p.F.D...]
  | | |         0e2e: 79 05 a2 a8 40 0a a4 a8 ee 07 a6 a8 01 07 a8 a8 [y...@...........]
  | | |         0e3e: 75 05 aa a8 5b 0a ac a8 ee 07 ae a8 1e 07 b8 a8 [u...[...........]
  | | |         0e4e: 78 05 ba a8 20 0a bc a8 e4 07 be a8 f5 06 b0 a8 [x... ...........]
  | | |         0e5e: 87 05 b2 a8 f6 09 b4 a8 02 08 b6 a8 ce 06 6a a8 [..............j.]
  | | |         0e6e: 78 00 6c a8 3b 01 00 a8 d2 11 02 a8 01 04 3a a8 [x.l.;.........:.]
  | | |         0e7e: 02 00 62 a8 e8 00 b4 a6 00 00 c4 a8 0d 00 cc a8 [..b.............]
  | | |         0e8e: 2b 00 c6 a8 0f 00 ce a8 37 00 c0 a8 70 00 c8 a8 [+.......7...p...]
  | | |         0e9e: 90 00 c2 a8 90 00 ca a8 ba 00 d0 a8 00 00 24 a8 [..............$.]
  | | |         0eae: 0d 01 26 a8 0f 01 20 a8 a2 00 22 a8 98 00 3c a8 [..&... ..."...<.]
  | | |         0ebe: a2 00 3e a8 98 00 28 a8 00 00 2a a8 0d 01 2c a8 [..>...(...*...,.]
  | | |         0ece: 0f 01 98 a8 00 00 90 a8 0d 01 92 a8 0f 01 9a a8 [................]
  | | |         0ede: 00 00 94 a8 0d 01 96 a8 0f 01 9c a8 00 00 2e a8 [................]
  | | |         0eee: 00 00 30 a8 0d 01 32 a8 0f 01 34 a8 ff ff 36 a8 [..0...2...4...6.]
  | | |         0efe: ff ff 38 a8 ff ff 48 a8 e6 00 4a a8 01 01 4c a8 [..8...H...J...L.]
  | | |         0f0e: e6 00 4e a8 01 01 50 a8 e6 00 52 a8 01 01 54 a8 [..N...P...R...T.]
  | | |         0f1e: e6 00 56 a8 01 01 0c a8 47 05 10 a8 9c 0a 0e a8 [..V.....G.......]
  | | |         0f2e: 00 04 12 a8 a2 00 14 a8 98 00 d4 a8 00 00 d6 a8 [................]
  | | |         0f3e: 00 00 d8 a8 00 00 da a8 10 3c dc a8 00 00 de a8 [.........<......]
  | | |         0f4e: 00 00 f4 a8 00 00 0a a8 01 00 d8 19 4c 05 da 19 [............L...]
  | | |         0f5e: 89 0b dc 19 00 00 de 19 00 00 80 a8 00 00 82 a8 [................]
  | | |         0f6e: 00 00 84 a8 00 00 86 a8 00 00 88 a8 00 00 8a a8 [................]
  | | |         0f7e: 00 00 8c a8 00 00 8e a8 00 00 6e a8 00 00 70 a8 [..........n...p.]
  | | |         0f8e: 00 00 72 a8 00 00 74 a8 00 00 76 a8 00 00 78 a8 [..r...t...v...x.]
  | | |         0f9e: 00 00 7a a8 00 00 7c a8 00 00 7e a8 71 00 9e a8 [..z...|...~.q...]
  | | |         0fae: 00 00 9f a8 00 00 d0 ac 8b 07 d2 ac 24 04 d4 ac [............$...]
  | | |         0fbe: 24 04 d6 ac 37 07 d8 ac 8b 07 da ac 24 04 dc ac [$...7.......$...]
  | | |         0fce: 24 04 de ac 37 07 08 a9 f8 0f 0a a9 f8 0f 0c a9 [$...7...........]
  | | |         0fde: fc 0f 0e a9 fc 0f 10 a9 fc 0f 12 a9 f0 0f 14 a9 [................]
  | | |         0fee: fc 0f 16 a9 f8 0f 18 a9 f8 0f 1a a9 f8 0f 1c a9 [................]
  | | |         0ffe: f8 0f 1e a9 fc 0f da a9 01 00 db a9 01 00 c0 19 [................]
  | | |         100e: 00 00 c2 19 18 00 c4 19 00 00 c6 19 00 00 c8 19 [................]
  | | |         101e: 00 00 ca 19 00 00 cc 19 18 00 ce 19 00 00 d0 19 [................]
  | | |         102e: 00 00 d2 19 00 00 b2 19 ff ff b4 19 ff ff b6 19 [................]
  | | |         103e: ff ff b8 19 ff ff ba 19 ff ff bc 19 ff ff be 19 [................]
  | | |         104e: ff ff f0 ff 59 43 ea 00 4e aa 04 00 50 aa 04 00 [....YC..N...P...]
  | | |         105e: 52 aa 04 00 54 aa 04 00 44 aa 44 44 46 aa 44 ca [R...T...D.DDF.D.]
  | | |         106e: 48 aa cc cc 4a aa cc cc 4c aa 0c 00 38 aa 30 00 [H...J...L...8.0.]
  | | |         107e: 3a aa 30 00 3c aa 30 00 3e aa 30 00 2e aa 88 88 [:.0.<.0.>.0.....]
  | | |         108e: 30 aa cc 88 32 aa 77 66 34 aa 22 11 36 aa 00 00 [0...2.wf4.".6...]
  | | |         109e: 82 04 00 00 80 04 09 00 84 04 00 00 84 aa 66 00 [..............f.]
  | | |         10ae: 60 aa 50 50 62 aa 50 50 64 aa 50 50 66 aa 50 50 [`.PPb.PPd.PPf.PP]
  | | |         10be: 68 aa c0 c0 6a aa 02 00 6c aa 00 00 6e aa 00 00 [h...j...l...n...]
  | | |         10ce: 86 aa 00 00 88 aa 00 00 8a aa 08 00 8c aa 08 00 [................]
  | | |         10de: 8e aa 00 00 90 aa 00 00 92 aa 18 00 94 aa 18 00 [................]
  | | |         10ee: 96 aa 00 00 98 aa 00 00 a0 aa f0 00 a2 aa 10 00 [................]
  | | |         10fe: a4 aa e8 00 a6 aa 00 00 a8 aa 0a 00 58 aa 01 00 [............X...]
  | | |         110e: 5a aa 13 00 5c aa 13 00 5e aa 20 00 9a aa 00 00 [Z...\...^. .....]
  | | |         111e: 9c aa 08 00 e0 aa 01 00 e2 aa 00 00 e4 aa 00 00 [................]
  | | |         112e: 5e ab 01 00 be ab 00 00 fe ab 01 00 f0 ff 43 4d [^.............CM]
  | | |         113e: 1a 00 fc 05 09 70 04 ac 00 00 fe a9 00 00 04 a8 [.....p..........]
  | | |         114e: 00 00 fc a9 00 00 f0 ff 44 53 46 00 00 ae 04 10 [........DSF.....]
  | | |         115e: 1c ae 00 00 02 ae 00 00 18 ae 00 00 1e ae 00 00 [................]
  | | |         116e: 04 ae 00 00 06 ae 00 00 08 ae 00 00 0a ae 00 00 [................]
  | | |         117e: 0c ae 00 00 0e ae 55 14 1a ae ff 00 10 ae 00 00 [......U.........]
  | | |         118e: 12 ae 00 00 14 ae 00 00 16 ae 00 00 f0 ff 49 53 [..............IS]
  | | |         119e: ba 00 e0 ae 00 00 e2 ae cf 00 e4 ae fe 00 92 ae [................]
  | | |         11ae: 00 00 e6 ae 00 00 e8 ae 00 00 ea ae 00 00 ec ae [................]
  | | |         11be: 00 00 90 ae ff 00 91 ae 72 00 f2 ae e5 03 f4 ae [........r.......]
  | | |         [snip 6168 bytes]
  | | | 10) Panasonic_0x0022 = 0
  | | |     - Tag 0x0022 (2 bytes, int16u[1]):
  | | |         0566: 00 00                                           [..]
  | | | 11) FlashBias = 0
  | | |     - Tag 0x0024 (2 bytes, int16u[1] read as int16s[1]):
  | | |         0572: 00 00                                           [..]
  | | | 12) InternalSerialNumber = F111311090158_
  | | |     - Tag 0x0025 (16 bytes, undef[16]):
  | | |         29e6: 46 31 31 31 33 31 31 30 39 30 31 35 38 00 5f 00 [F111311090158._.]
  | | | 13) PanasonicExifVersion = 0401
  | | |     - Tag 0x0026 (4 bytes, undef[4]):
  | | |         058a: 30 34 30 31                                     [0401]
  | | | 14) VideoFrameRate = 0
  | | |     - Tag 0x0027 (2 bytes, int16u[1]):
  | | |         0596: 00 00                                           [..]
  | | | 15) ColorEffect = 1
  | | |     - Tag 0x0028 (2 bytes, int16u[1]):
  | | |         05a2: 01 00                                           [..]
  | | | 16) TimeSincePowerOn = 8407
  | | |     - Tag 0x0029 (4 bytes, int32u[1]):
  | | |         05ae: d7 20 00 00                                     [. ..]
  | | | 17) BurstMode = 0
  | | |     - Tag 0x002a (2 bytes, int16u[1]):
  | | |         05ba: 00 00                                           [..]
  | | | 18) SequenceNumber = 0
  | | |     - Tag 0x002b (4 bytes, int32u[1]):
  | | |         05c6: 00 00 00 00                                     [....]
  | | | 19) ContrastMode = 0
  | | |     - Tag 0x002c (2 bytes, int16u[1]):
  | | |         05d2: 00 00                                           [..]
  | | | 20) NoiseReduction = 0
  | | |     - Tag 0x002d (2 bytes, int16u[1]):
  | | |         05de: 00 00                                           [..]
  | | | 21) SelfTimer = 1
  | | |     - Tag 0x002e (2 bytes, int16u[1]):
  | | |         05ea: 01 00                                           [..]
  | | | 22) Panasonic_0x002f = 1
  | | |     - Tag 0x002f (2 bytes, int16u[1]):
  | | |         05f6: 01 00                                           [..]
  | | | 23) Rotation = 1
  | | |     - Tag 0x0030 (2 bytes, int16u[1]):
  | | |         0602: 01 00                                           [..]
  | | | 24) AFAssistLamp = 2
  | | |     - Tag 0x0031 (2 bytes, int16u[1]):
  | | |         060e: 02 00                                           [..]
  | | | 25) ColorMode = 0
  | | |     - Tag 0x0032 (2 bytes, int16u[1]):
  | | |         061a: 00 00                                           [..]
  | | | 26) BabyAge = 9999:99:99 00:00:00
  | | |     - Tag 0x0033 (20 bytes, string[20]):
  | | |         29f6: 39 39 39 39 3a 39 39 3a 39 39 20 30 30 3a 30 30 [9999:99:99 00:00]
  | | |         2a06: 3a 30 30 00                                     [:00.]
  | | | 27) OpticalZoomMode = 1
  | | |     - Tag 0x0034 (2 bytes, int16u[1]):
  | | |         0632: 01 00                                           [..]
  | | | 28) ConversionLens = 1
  | | |     - Tag 0x0035 (2 bytes, int16u[1]):
  | | |         063e: 01 00                                           [..]
  | | | 29) TravelDay = 65535
  | | |     - Tag 0x0036 (2 bytes, int16u[1]):
  | | |         064a: ff ff                                           [..]
  | | | 30) Panasonic_0x0037 = 257
  | | |     - Tag 0x0037 (2 bytes, int16u[1]):
  | | |         0656: 01 01                                           [..]
  | | | 31) BatteryLevel = 2
  | | |     - Tag 0x0038 (2 bytes, int16u[1]):
  | | |         0662: 02 00                                           [..]
  | | | 32) Contrast = 0
  | | |     - Tag 0x0039 (2 bytes, int16u[1] read as int16s[1]):
  | | |         066e: 00 00                                           [..]
  | | | 33) WorldTimeLocation = 1
  | | |     - Tag 0x003a (2 bytes, int16u[1]):
  | | |         067a: 01 00                                           [..]
  | | | 34) TextStamp = 1
  | | |     - Tag 0x003b (2 bytes, int16u[1]):
  | | |         0686: 01 00                                           [..]
  | | | 35) ProgramISO = 65535
  | | |     - Tag 0x003c (2 bytes, int16u[1]):
  | | |         0692: ff ff                                           [..]
  | | | 36) AdvancedSceneType = 1
  | | |     - Tag 0x003d (2 bytes, int16u[1]):
  | | |         069e: 01 00                                           [..]
  | | | 37) TextStamp = 1
  | | |     - Tag 0x003e (2 bytes, int16u[1]):
  | | |         06aa: 01 00                                           [..]
  | | | 38) FacesDetected = 0
  | | |     - Tag 0x003f (2 bytes, int16u[1]):
  | | |         06b6: 00 00                                           [..]
  | | | 39) Saturation = 0
  | | |     - Tag 0x0040 (2 bytes, int16u[1] read as int16s[1]):
  | | |         06c2: 00 00                                           [..]
  | | | 40) Sharpness = 0
  | | |     - Tag 0x0041 (2 bytes, int16u[1] read as int16s[1]):
  | | |         06ce: 00 00                                           [..]
  | | | 41) FilmMode = 0
  | | |     - Tag 0x0042 (2 bytes, int16u[1]):
  | | |         06da: 00 00                                           [..]
  | | | 42) JPEGQuality = 3
  | | |     - Tag 0x0043 (2 bytes, int16u[1]):
  | | |         06e6: 03 00                                           [..]
  | | | 43) ColorTempKelvin = 0
  | | |     - Tag 0x0044 (2 bytes, int16u[1]):
  | | |         06f2: 00 00                                           [..]
  | | | 44) WBShiftAB = 0
  | | |     - Tag 0x0046 (2 bytes, int16u[1] read as int16s[1]):
  | | |         06fe: 00 00                                           [..]
  | | | 45) WBShiftGM = 0
  | | |     - Tag 0x0047 (2 bytes, int16u[1] read as int16s[1]):
  | | |         070a: 00 00                                           [..]
  | | | 46) FlashCurtain = 0
  | | |     - Tag 0x0048 (2 bytes, int16u[1]):
  | | |         0716: 00 00                                           [..]
  | | | 47) Panasonic_0x004a = 0
  | | |     - Tag 0x004a (2 bytes, int16u[1]):
  | | |         0722: 00 00                                           [..]
  | | | 48) PanasonicImageWidth = 3648
  | | |     - Tag 0x004b (4 bytes, int32u[1]):
  | | |         072e: 40 0e 00 00                                     [@...]
  | | | 49) PanasonicImageHeight = 2736
  | | |     - Tag 0x004c (4 bytes, int32u[1]):
  | | |         073a: b0 0a 00 00                                     [....]
  | | | 50) AFPointPosition = 0.5 0.5 (128/256 128/256)
  | | |     - Tag 0x004d (16 bytes, rational64u[2]):
  | | |         2a0a: 80 00 00 00 00 01 00 00 80 00 00 00 00 01 00 00 [................]
  | | | 51) FaceDetInfo (SubDirectory) -->
  | | |     - Tag 0x004e (42 bytes, undef[42]):
  | | |         2a1a: 00 00 00 00 00 00 00 00 00 00 00 00 00 00 00 00 [................]
  | | |         2a2a: 00 00 00 00 00 00 00 00 00 00 00 00 00 00 00 00 [................]
  | | |         2a3a: 00 00 00 00 00 00 00 00 00 00                   [..........]
  | | | + [BinaryData directory, 42 bytes, Little-endian]
  | | | | NumFacePositions = 0
  | | | | - Tag 0x0000 (2 bytes, int16u[1]):
  | | | |     2a1a: 00 00                                           [..]
  | | | | Face1Position = 0 0 0 0
  | | | | - Tag 0x0001 (8 bytes, int16u[4]):
  | | | |     2a1c: 00 00 00 00 00 00 00 00                         [........]
  | | | | Face2Position = 0 0 0 0
  | | | | - Tag 0x0005 (8 bytes, int16u[4]):
  | | | |     2a24: 00 00 00 00 00 00 00 00                         [........]
  | | | | Face3Position = 0 0 0 0
  | | | | - Tag 0x0009 (8 bytes, int16u[4]):
  | | | |     2a2c: 00 00 00 00 00 00 00 00                         [........]
  | | | | Face4Position = 0 0 0 0
  | | | | - Tag 0x000d (8 bytes, int16u[4]):
  | | | |     2a34: 00 00 00 00 00 00 00 00                         [........]
  | | | | Face5Position = 0 0 0 0
  | | | | - Tag 0x0011 (8 bytes, int16u[4]):
  | | | |     2a3c: 00 00 00 00 00 00 00 00                         [........]
  | | | 52) Panasonic_0x004f = 0
  | | |     - Tag 0x004f (2 bytes, int16u[1]):
  | | |         075e: 00 00                                           [..]
  | | | 53) Panasonic_0x0050 = 0
  | | |     - Tag 0x0050 (2 bytes, int16u[1]):
  | | |         076a: 00 00                                           [..]
  | | | 54) Panasonic_0x0055 = 1
  | | |     - Tag 0x0055 (2 bytes, int16u[1]):
  | | |         0776: 01 00                                           [..]
  | | | 55) Panasonic_0x0057 = 0
  | | |     - Tag 0x0057 (2 bytes, int16u[1]):
  | | |         0782: 00 00                                           [..]
  | | | 56) Panasonic_0x005a = 0
  | | |     - Tag 0x005a (2 bytes, int16u[1]):
  | | |         078e: 00 00                                           [..]
  | | | 57) Panasonic_0x005b = 0
  | | |     - Tag 0x005b (2 bytes, int16u[1]):
  | | |         079a: 00 00                                           [..]
  | | | 58) Panasonic_0x005c = 0
  | | |     - Tag 0x005c (2 bytes, int16u[1]):
  | | |         07a6: 00 00                                           [..]
  | | | 59) Panasonic_0x005e = .
  | | |     - Tag 0x005e (4 bytes, undef[4]):
  | | |         07b2: 00 00 00 10                                     [....]
  | | | 60) FaceRecInfo (SubDirectory) -->
  | | |     - Tag 0x0061 (148 bytes, undef[148]):
  | | |         2a44: 00 00 00 00 00 00 00 00 00 00 00 00 00 00 00 00 [................]
  | | |         2a54: 00 00 00 00 00 00 00 00 00 00 00 00 00 00 00 00 [................]
  | | |         2a64: 39 39 39 39 3a 39 39 3a 39 39 20 30 30 3a 30 30 [9999:99:99 00:00]
  | | |         2a74: 3a 30 30 00 00 00 00 00 00 00 00 00 00 00 00 00 [:00.............]
  | | |         2a84: 00 00 00 00 00 00 00 00 00 00 00 00 00 00 00 00 [................]
  | | |         2a94: 39 39 39 39 3a 39 39 3a 39 39 20 30 30 3a 30 30 [9999:99:99 00:00]
  | | |         2aa4: 3a 30 30 00 00 00 00 00 00 00 00 00 00 00 00 00 [:00.............]
  | | |         2ab4: 00 00 00 00 00 00 00 00 00 00 00 00 00 00 00 00 [................]
  | | |         2ac4: 39 39 39 39 3a 39 39 3a 39 39 20 30 30 3a 30 30 [9999:99:99 00:00]
  | | |         2ad4: 3a 30 30 00                                     [:00.]
  | | | + [BinaryData directory, 148 bytes, Little-endian]
  | | | | FacesRecognized = 0
  | | | | - Tag 0x0000 (2 bytes, int16u[1]):
  | | | |     2a44: 00 00                                           [..]
  | | | | RecognizedFace1Name = 
  | | | | - Tag 0x0004 (20 bytes, string[20]):
  | | | |     2a48: 00 00 00 00 00 00 00 00 00 00 00 00 00 00 00 00 [................]
  | | | |     2a58: 00 00 00 00                                     [....]
  | | | | RecognizedFace1Position = 0 0 0 0
  | | | | - Tag 0x0018 (8 bytes, int16u[4]):
  | | | |     2a5c: 00 00 00 00 00 00 00 00                         [........]
  | | | | RecognizedFace1Age = 9999:99:99 00:00:00
  | | | | - Tag 0x0020 (20 bytes, string[20]):
  | | | |     2a64: 39 39 39 39 3a 39 39 3a 39 39 20 30 30 3a 30 30 [9999:99:99 00:00]
  | | | |     2a74: 3a 30 30 00                                     [:00.]
  | | | | RecognizedFace2Name = 
  | | | | - Tag 0x0034 (20 bytes, string[20]):
  | | | |     2a78: 00 00 00 00 00 00 00 00 00 00 00 00 00 00 00 00 [................]
  | | | |     2a88: 00 00 00 00                                     [....]
  | | | | RecognizedFace2Position = 0 0 0 0
  | | | | - Tag 0x0048 (8 bytes, int16u[4]):
  | | | |     2a8c: 00 00 00 00 00 00 00 00                         [........]
  | | | | RecognizedFace2Age = 9999:99:99 00:00:00
  | | | | - Tag 0x0050 (20 bytes, string[20]):
  | | | |     2a94: 39 39 39 39 3a 39 39 3a 39 39 20 30 30 3a 30 30 [9999:99:99 00:00]
  | | | |     2aa4: 3a 30 30 00                                     [:00.]
  | | | | RecognizedFace3Name = 
  | | | | - Tag 0x0064 (20 bytes, string[20]):
  | | | |     2aa8: 00 00 00 00 00 00 00 00 00 00 00 00 00 00 00 00 [................]
  | | | |     2ab8: 00 00 00 00                                     [....]
  | | | | RecognizedFace3Position = 0 0 0 0
  | | | | - Tag 0x0078 (8 bytes, int16u[4]):
  | | | |     2abc: 00 00 00 00 00 00 00 00                         [........]
  | | | | RecognizedFace3Age = 9999:99:99 00:00:00
  | | | | - Tag 0x0080 (20 bytes, string[20]):
  | | | |     2ac4: 39 39 39 39 3a 39 39 3a 39 39 20 30 30 3a 30 30 [9999:99:99 00:00]
  | | | |     2ad4: 3a 30 30 00                                     [:00.]
  | | | 61) FlashWarning = 0
  | | |     - Tag 0x0062 (2 bytes, int16u[1]):
  | | |         07ca: 00 00                                           [..]
  | | | 62) RecognizedFaceFlags = 0 0 0 0
  | | |     - Tag 0x0063 (4 bytes, undef[4] read as int8u[4]):
  | | |         07d6: 00 00 00 00                                     [....]
  | | | 63) Title = 
  | | |     - Tag 0x0065 (64 bytes, undef[64] read as string[64]):
  | | |         2ad8: 00 00 00 00 00 00 00 00 00 00 00 00 00 00 00 00 [................]
  | | |         2ae8: 00 00 00 00 00 00 00 00 00 00 00 00 00 00 00 00 [................]
  | | |         2af8: 00 00 00 00 00 00 00 00 00 00 00 00 00 00 00 00 [................]
  | | |         2b08: 00 00 00 00 00 00 00 00 00 00 00 00 00 00 00 00 [................]
  | | | 64) BabyName = 
  | | |     - Tag 0x0066 (64 bytes, undef[64] read as string[64]):
  | | |         2b18: 00 00 00 00 00 00 00 00 00 00 00 00 00 00 00 00 [................]
  | | |         2b28: 00 00 00 00 00 00 00 00 00 00 00 00 00 00 00 00 [................]
  | | |         2b38: 00 00 00 00 00 00 00 00 00 00 00 00 00 00 00 00 [................]
  | | |         2b48: 00 00 00 00 00 00 00 00 00 00 00 00 00 00 00 00 [................]
  | | | 65) Location = 
  | | |     - Tag 0x0067 (64 bytes, undef[64] read as string[64]):
  | | |         2b58: 00 00 00 00 00 00 00 00 00 00 00 00 00 00 00 00 [................]
  | | |         2b68: 00 00 00 00 00 00 00 00 00 00 00 00 00 00 00 00 [................]
  | | |         2b78: 00 00 00 00 00 00 00 00 00 00 00 00 00 00 00 00 [................]
  | | |         2b88: 00 00 00 00 00 00 00 00 00 00 00 00 00 00 00 00 [................]
  | | | 66) IntelligentResolution = 0
  | | |     - Tag 0x0070 (1 bytes, int8u[1]):
  | | |         0806: 00                                              [.]
  | | | 67) Panasonic_0x0072 = 0
  | | |     - Tag 0x0072 (2 bytes, int16u[1]):
  | | |         0812: 00 00                                           [..]
  | | | 68) Panasonic_0x0073 = 0
  | | |     - Tag 0x0073 (2 bytes, int16u[1]):
  | | |         081e: 00 00                                           [..]
  | | | 69) Panasonic_0x0074 = 0
  | | |     - Tag 0x0074 (2 bytes, int16u[1]):
  | | |         082a: 00 00                                           [..]
  | | | 70) Panasonic_0x0075 = 0
  | | |     - Tag 0x0075 (2 bytes, int16u[1]):
  | | |         0836: 00 00                                           [..]
  | | | 71) MergedImages = 0
  | | |     - Tag 0x0076 (2 bytes, int16u[1]):
  | | |         0842: 00 00                                           [..]
  | | | 72) BurstSpeed = 0
  | | |     - Tag 0x0077 (2 bytes, int16u[1]):
  | | |         084e: 00 00                                           [..]
  | | | 73) IntelligentD-Range = 0
  | | |     - Tag 0x0079 (2 bytes, int16u[1]):
  | | |         085a: 00 00                                           [..]
  | | | 74) Panasonic_0x007a = 0
  | | |     - Tag 0x007a (2 bytes, int16u[1]):
  | | |         0866: 00 00                                           [..]
  | | | 75) Panasonic_0x007b = 0
  | | |     - Tag 0x007b (2 bytes, int16u[1]):
  | | |         0872: 00 00                                           [..]
  | | | 76) ClearRetouch = 0
  | | |     - Tag 0x007c (2 bytes, int16u[1]):
  | | |         087e: 00 00                                           [..]
  | | | 77) Panasonic_0x007d = 0
  | | |     - Tag 0x007d (2 bytes, int16u[1]):
  | | |         088a: 00 00                                           [..]
  | | | 78) Panasonic_0x007e = 0
  | | |     - Tag 0x007e (2 bytes, int16u[1]):
  | | |         0896: 00 00                                           [..]
  | | | 79) PhotoStyle = 1
  | | |     - Tag 0x0089 (2 bytes, int16u[1]):
  | | |         08a2: 01 00                                           [..]
  | | | 80) WBShiftIntelligentAuto = 0
  | | |     - Tag 0x008b (2 bytes, int16u[1] read as int16s[1]):
  | | |         08ae: 00 00                                           [..]
  | | | 81) AccelerometerZ = 0
  | | |     - Tag 0x008c (2 bytes, int16u[1] read as int16s[1]):
  | | |         08ba: 00 00                                           [..]
  | | | 82) AccelerometerX = 0
  | | |     - Tag 0x008d (2 bytes, int16u[1] read as int16s[1]):
  | | |         08c6: 00 00                                           [..]
  | | | 83) AccelerometerY = 0
  | | |     - Tag 0x008e (2 bytes, int16u[1] read as int16s[1]):
  | | |         08d2: 00 00                                           [..]
  | | | 84) CameraOrientation = 0
  | | |     - Tag 0x008f (1 bytes, int8u[1]):
  | | |         08de: 00                                              [.]
  | | | 85) RollAngle = 0
  | | |     - Tag 0x0090 (2 bytes, int16u[1] read as int16s[1]):
  | | |         08ea: 00 00                                           [..]
  | | | 86) PitchAngle = 0
  | | |     - Tag 0x0091 (2 bytes, int16u[1] read as int16s[1]):
  | | |         08f6: 00 00                                           [..]
  | | | 87) WBShiftCreativeControl = 0
  | | |     - Tag 0x0092 (1 bytes, int8u[1] read as int8s[1]):
  | | |         0902: 00                                              [.]
  | | | 88) SweepPanoramaDirection = 0
  | | |     - Tag 0x0093 (1 bytes, int8u[1]):
  | | |         090e: 00                                              [.]
  | | | 89) SweepPanoramaFieldOfView = 0
  | | |     - Tag 0x0094 (2 bytes, int16u[1]):
  | | |         091a: 00 00                                           [..]
  | | | 90) TimerRecording = 0
  | | |     - Tag 0x0096 (1 bytes, int8u[1]):
  | | |         0926: 00                                              [.]
  | | | 91) Panasonic_0x0097 = 0
  | | |     - Tag 0x0097 (2 bytes, int16u[1]):
  | | |         0932: 00 00                                           [..]
  | | | 92) Panasonic_0x0098 = 0
  | | |     - Tag 0x0098 (2 bytes, int16u[1]):
  | | |         093e: 00 00                                           [..]
  | | | 93) InternalNDFilter = 0 (0/128)
  | | |     - Tag 0x009d (8 bytes, rational64u[1]):
  | | |         2b98: 00 00 00 00 80 00 00 00                         [........]
  | | | 94) TimeInfo (SubDirectory) -->
  | | |     - Tag 0x2003 (20 bytes, undef[20]):
  | | |         2ba0: 00 00 00 00 00 00 00 00 ff ff ff ff ff ff ff ff [................]
  | | |         2bb0: 00 00 00 00                                     [....]
  | | | + [BinaryData directory, 20 bytes, Little-endian]
  | | | | PanasonicDateTime = 
  | | | | - Tag 0x0000 (8 bytes, undef[8]):
  | | | |     2ba0: 00 00 00 00 00 00 00 00                         [........]
  | | | | TimeLapseShotNumber = 0
  | | | | - Tag 0x0010 (4 bytes, int32u[1]):
  | | | |     2bb0: 00 00 00 00                                     [....]
  | | | 95) MakerNoteVersion = 0141
  | | |     - Tag 0x8000 (4 bytes, undef[4]):
  | | |         0962: 30 31 34 31                                     [0141]
  | | | 96) SceneMode = 0
  | | |     - Tag 0x8001 (2 bytes, int16u[1]):
  | | |         096e: 00 00                                           [..]
  | | | 97) HighlightWarning = 1
  | | |     - Tag 0x8002 (2 bytes, int16u[1]):
  | | |         097a: 01 00                                           [..]
  | | | 98) DarkFocusEnvironment = 1
  | | |     - Tag 0x8003 (2 bytes, int16u[1]):
  | | |         0986: 01 00                                           [..]
  | | | 99) WBRedLevel = 1847
  | | |     - Tag 0x8004 (2 bytes, int16u[1]):
  | | |         0992: 37 07                                           [7.]
  | | | 100) WBGreenLevel = 1060
  | | |     - Tag 0x8005 (2 bytes, int16u[1]):
  | | |         099e: 24 04                                           [$.]
  | | | 101) WBBlueLevel = 1931
  | | |     - Tag 0x8006 (2 bytes, int16u[1]):
  | | |         09aa: 8b 07                                           [..]
  | | | 102) Panasonic_0x8007 = 1
  | | |     - Tag 0x8007 (2 bytes, int16u[1]):
  | | |         09b6: 01 00                                           [..]
  | | | 103) TextStamp = 1
  | | |     - Tag 0x8008 (2 bytes, int16u[1]):
  | | |         09c2: 01 00                                           [..]
  | | | 104) TextStamp = 1
  | | |     - Tag 0x8009 (2 bytes, int16u[1]):
  | | |         09ce: 01 00                                           [..]
  | | | 105) BabyAge = 9999:99:99 00:00:00
  | | |     - Tag 0x8010 (20 bytes, string[20]):
  | | |         2bb4: 39 39 39 39 3a 39 39 3a 39 39 20 30 30 3a 30 30 [9999:99:99 00:00]
  | | |         2bc4: 3a 30 30 00                                     [:00.]
  | | 17) FlashpixVersion = 0100
  | |     - Tag 0xa000 (4 bytes, undef[4]):
  | |         03ac: 30 31 30 30                                     [0100]
  | | 18) ColorSpace = 1
  | |     - Tag 0xa001 (2 bytes, int16u[1]):
  | |         03b8: 01 00                                           [..]
  | | 19) ExifImageWidth = 1920
  | |     - Tag 0xa002 (4 bytes, int32u[1]):
  | |         03c4: 80 07 00 00                                     [....]
  | | 20) ExifImageHeight = 1440
  | |     - Tag 0xa003 (4 bytes, int32u[1]):
  | |         03d0: a0 05 00 00                                     [....]
  | | 21) InteropOffset (SubDirectory) -->
  | |     - Tag 0xa005 (4 bytes, int32u[1]):
  | |         03dc: c4 2b 00 00                                     [.+..]
  | | + [InteropIFD directory with 2 entries, Little-endian]
  | | | 0)  InteropIndex = R98
  | | |     - Tag 0x0001 (4 bytes, string[4]):
  | | |         2bda: 52 39 38 00                                     [R98.]
  | | | 1)  InteropVersion = 0100
  | | |     - Tag 0x0002 (4 bytes, undef[4]):
  | | |         2be6: 30 31 30 30                                     [0100]
  | | 22) SensingMethod = 2
  | |     - Tag 0xa217 (2 bytes, int16u[1]):
  | |         03e8: 02 00                                           [..]
  | | 23) FileSource = 3
  | |     - Tag 0xa300 (1 bytes, undef[1]):
  | |         03f4: 03                                              [.]
  | | 24) SceneType = 1
  | |     - Tag 0xa301 (1 bytes, undef[1]):
  | |         0400: 01                                              [.]
  | | 25) CustomRendered = 0
  | |     - Tag 0xa401 (2 bytes, int16u[1]):
  | |         040c: 00 00                                           [..]
  | | 26) ExposureMode = 0
  | |     - Tag 0xa402 (2 bytes, int16u[1]):
  | |         0418: 00 00                                           [..]
  | | 27) WhiteBalance = 0
  | |     - Tag 0xa403 (2 bytes, int16u[1]):
  | |         0424: 00 00                                           [..]
  | | 28) DigitalZoomRatio = 0 (0/10)
  | |     - Tag 0xa404 (8 bytes, rational64u[1]):
  | |         2bc8: 00 00 00 00 0a 00 00 00                         [........]
  | | 29) FocalLengthIn35mmFormat = 24
  | |     - Tag 0xa405 (2 bytes, int16u[1]):
  | |         043c: 18 00                                           [..]
  | | 30) SceneCaptureType = 0
  | |     - Tag 0xa406 (2 bytes, int16u[1]):
  | |         0448: 00 00                                           [..]
  | | 31) GainControl = 1
  | |     - Tag 0xa407 (2 bytes, int16u[1]):
  | |         0454: 01 00                                           [..]
  | | 32) Contrast = 0
  | |     - Tag 0xa408 (2 bytes, int16u[1]):
  | |         0460: 00 00                                           [..]
  | | 33) Saturation = 0
  | |     - Tag 0xa409 (2 bytes, int16u[1]):
  | |         046c: 00 00                                           [..]
  | | 34) Sharpness = 0
  | |     - Tag 0xa40a (2 bytes, int16u[1]):
  | |         0478: 00 00                                           [..]
  | 11) PrintIM (SubDirectory) -->
  |     - Tag 0xc4a5 (208 bytes, undef[208]):
  |         0146: 50 72 69 6e 74 49 4d 00 30 32 35 30 00 00 0e 00 [PrintIM.0250....]
  |         0156: 01 00 16 00 16 00 02 00 00 00 00 00 03 00 64 00 [..............d.]
  |         0166: 00 00 07 00 00 00 00 00 08 00 00 00 00 00 09 00 [................]
  |         0176: 00 00 00 00 0a 00 00 00 00 00 0b 00 ac 00 00 00 [................]
  |         0186: 0c 00 00 00 00 00 0d 00 00 00 00 00 0e 00 c4 00 [................]
  |         0196: 00 00 00 01 05 00 00 00 01 01 01 00 00 00 10 01 [................]
  |         01a6: 80 00 00 00 09 11 00 00 10 27 00 00 0b 0f 00 00 [.........'......]
  |         01b6: 10 27 00 00 97 05 00 00 10 27 00 00 b0 08 00 00 [.'.......'......]
  |         01c6: 10 27 00 00 01 1c 00 00 10 27 00 00 5e 02 00 00 [.'.......'..^...]
  |         01d6: 10 27 00 00 8b 00 00 00 10 27 00 00 cb 03 00 00 [.'.......'......]
  |         01e6: 10 27 00 00 e5 1b 00 00 10 27 00 00 00 00 00 00 [.'.......'......]
  |         01f6: 00 00 00 00 00 00 00 00 00 00 00 00 00 00 00 00 [................]
  |         0206: 00 00 00 00 00 00 00 00 00 00 00 00 00 00 00 00 [................]
  | + [PrintIM directory with 14 entries]
  | | PrintIMVersion = 0250
  | | - Tag 'PrintIMVersion' (4 bytes):
  | |     0142: 30 32 35 30                                     [0250]
  | | 0)  PrintIM_0x0001 = 1441814
  | |     - Tag 0x0001 (4 bytes):
  | |         014c: 16 00 16 00                                     [....]
  | | 1)  PrintIM_0x0002 = 0
  | |     - Tag 0x0002 (4 bytes):
  | |         0152: 00 00 00 00                                     [....]
  | | 2)  PrintIM_0x0003 = 100
  | |     - Tag 0x0003 (4 bytes):
  | |         0158: 64 00 00 00                                     [d...]
  | | 3)  PrintIM_0x0007 = 0
  | |     - Tag 0x0007 (4 bytes):
  | |         015e: 00 00 00 00                                     [....]
  | | 4)  PrintIM_0x0008 = 0
  | |     - Tag 0x0008 (4 bytes):
  | |         0164: 00 00 00 00                                     [....]
  | | 5)  PrintIM_0x0009 = 0
  | |     - Tag 0x0009 (4 bytes):
  | |         016a: 00 00 00 00                                     [....]
  | | 6)  PrintIM_0x000a = 0
  | |     - Tag 0x000a (4 bytes):
  | |         0170: 00 00 00 00                                     [....]
  | | 7)  PrintIM_0x000b = 172
  | |     - Tag 0x000b (4 bytes):
  | |         0176: ac 00 00 00                                     [....]
  | | 8)  PrintIM_0x000c = 0
  | |     - Tag 0x000c (4 bytes):
  | |         017c: 00 00 00 00                                     [....]
  | | 9)  PrintIM_0x000d = 0
  | |     - Tag 0x000d (4 bytes):
  | |         0182: 00 00 00 00                                     [....]
  | | 10) PrintIM_0x000e = 196
  | |     - Tag 0x000e (4 bytes):
  | |         0188: c4 00 00 00                                     [....]
  | | 11) PrintIM_0x0100 = 5
  | |     - Tag 0x0100 (4 bytes):
  | |         018e: 05 00 00 00                                     [....]
  | | 12) PrintIM_0x0101 = 1
  | |     - Tag 0x0101 (4 bytes):
  | |         0194: 01 00 00 00                                     [....]
  | | 13) PrintIM_0x0110 = 128
  | |     - Tag 0x0110 (4 bytes):
  | |         019a: 80 00 00 00                                     [....]
  | 12) PanasonicTitle = 
  |     - Tag 0xc6d2 (64 bytes, undef[64] read as string[64]):
  |         0216: 00 00 00 00 00 00 00 00 00 00 00 00 00 00 00 00 [................]
  |         0226: 00 00 00 00 00 00 00 00 00 00 00 00 00 00 00 00 [................]
  |         0236: 00 00 00 00 00 00 00 00 00 00 00 00 00 00 00 00 [................]
  |         0246: 00 00 00 00 00 00 00 00 00 00 00 00 00 00 00 00 [................]
  | 13) PanasonicTitle2 = 
  |     - Tag 0xc6d3 (128 bytes, undef[128] read as string[128]):
  |         0256: 00 00 00 00 00 00 00 00 00 00 00 00 00 00 00 00 [................]
  |         0266: 00 00 00 00 00 00 00 00 00 00 00 00 00 00 00 00 [................]
  |         0276: 00 00 00 00 00 00 00 00 00 00 00 00 00 00 00 00 [................]
  |         0286: 00 00 00 00 00 00 00 00 00 00 00 00 00 00 00 00 [................]
  |         0296: 00 00 00 00 00 00 00 00 00 00 00 00 00 00 00 00 [................]
  |         02a6: 00 00 00 00 00 00 00 00 00 00 00 00 00 00 00 00 [................]
  |         02b6: 00 00 00 00 00 00 00 00 00 00 00 00 00 00 00 00 [................]
  |         02c6: 00 00 00 00 00 00 00 00 00 00 00 00 00 00 00 00 [................]
  + [IFD1 directory with 8 entries, Little-endian]
  | 0)  Compression = 6
  |     - Tag 0x0103 (2 bytes, int16u[1]):
  |         2bf8: 06 00                                           [..]
  | 1)  Orientation = 1
  |     - Tag 0x0112 (2 bytes, int16u[1]):
  |         2c04: 01 00                                           [..]
  | 2)  XResolution = 180 (180/1)
  |     - Tag 0x011a (8 bytes, rational64u[1]):
  |         2c54: b4 00 00 00 01 00 00 00                         [........]
  | 3)  YResolution = 180 (180/1)
  |     - Tag 0x011b (8 bytes, rational64u[1]):
  |         2c5c: b4 00 00 00 01 00 00 00                         [........]
  | 4)  ResolutionUnit = 2
  |     - Tag 0x0128 (2 bytes, int16u[1]):
  |         2c28: 02 00                                           [..]
  | 5)  ThumbnailOffset = 11764
  |     - Tag 0x0201 (4 bytes, int32u[1]):
  |         2c34: f4 2d 00 00                                     [.-..]
  | 6)  ThumbnailLength = 9179
  |     - Tag 0x0202 (4 bytes, int32u[1]):
  |         2c40: db 23 00 00                                     [.#..]
  | 7)  YCbCrPositioning = 2
  |     - Tag 0x0213 (2 bytes, int16u[1]):
  |         2c4c: 02 00                                           [..]
JPEG DQT (130 bytes):
      7e06: 00 07 07 07 07 07 07 07 07 07 07 07 0d 0d 07 14 [................]
      7e16: 0d 0d 0d 0d 0d 1a 0d 14 14 14 0d 1a 21 21 21 1a [............!!!.]
      7e26: 21 21 21 27 27 2e 34 27 27 27 2e 21 27 3b 2e 2e [!!!''.4'''.!';..]
      7e36: 2e 34 34 3b 3b 21 3b 41 2e 41 41 41 3b 3b 34 3b [.44;;!;A.AAA;;4;]
      7e46: 3b 01 0d 07 0d 0d 0d 0d 0d 1a 1a 0d 27 3b 27 21 [;...........';'!]
      7e56: 3b 3b 3b 3b 3b 3b 3b 3b 3b 3b 3b 3b 3b 3b 3b 3b [;;;;;;;;;;;;;;;;]
      7e66: 3b 3b 3b 3b 3b 3b 3b 3b 3b 3b 3b 3b 3b 3b 3b 3b [;;;;;;;;;;;;;;;;]
      [snip 18 bytes]
JPEG SOF0 (15 bytes):
      7e8c: 08 05 a0 07 80 03 01 21 00 02 11 01 03 11 01    [.......!.......]
  ImageWidth = 1920
  ImageHeight = 1440
  EncodingProcess = 0
  BitsPerSample = 8
  ColorComponents = 3
  YCbCrSubSampling = 2 1
JPEG DHT (416 bytes):
      7e9f: 00 00 01 05 01 01 01 01 01 01 00 00 00 00 00 00 [................]
      7eaf: 00 00 01 02 03 04 05 06 07 08 09 0a 0b 10 00 02 [................]
      7ebf: 01 03 03 02 04 03 05 05 04 04 00 00 01 7d 01 02 [.............}..]
      7ecf: 03 00 04 11 05 12 21 31 41 06 13 51 61 07 22 71 [......!1A..Qa."q]
      7edf: 14 32 81 91 a1 08 23 42 b1 c1 15 52 d1 f0 24 33 [.2....#B...R..$3]
      7eef: 62 72 82 09 0a 16 17 18 19 1a 25 26 27 28 29 2a [br........%&'()*]
      7eff: 34 35 36 37 38 39 3a 43 44 45 46 47 48 49 4a 53 [456789:CDEFGHIJS]
      [snip 304 bytes]
JPEG DRI (2 bytes):
      8043: 00 00                                           [..]
JPEG SOS
JPEG EOI
Unknown trailer (161 bytes at offset 0x967e5):
   967e5: ff ff ff ff ff ff ff ff ff ff ff ff ff ff ff ff [................]
   967f5: ff ff ff ff ff ff ff ff ff ff ff 01 18 00 04 00 [................]
   96805: 00 00 01 00 6e 09 00 01 19 00 07 00 00 00 20 ed [....n......... .]
   96815: 32 2f 57 15 01 00 00 7d 12 00 00 8c 01 01 00 2f [2/W....}......./]
   96825: 07 d4 01 01 01 f0 fb e8 08 c8 03 0e 0c 59 56 01 [.............YV.]
   96835: 1a 00 03 00 00 00 01 01 00 01 1b 00 07 00 00 00 [................]
   96845: 40 30 36 2f 5d c2 00 00 7e 71 07 40 00 00 f1 ff [@06/]...~q.@....]
   96855: 33 a3 fc e0 05 d3 fd ee 08 49 fe f3 ff 00 01 90 [3........I......]
   96865: 20 f4 05 fa 02 80 4e 40 00 2a fd 60 04 00 dc 08 [ .....N@.*.`....]
   96875: fd f4 b7 08 ff 67 f9 14 ff 00 f8 db fa 4c e5 51 [.....g.......L.Q]
   96885: 35                                              [5]
----------------------------------------------------------------------------
  | | | 29) RawDataOffset = 617984
  | | |     - Tag 0x0118 (4 bytes):
  | | |        985b0: 00 6e 09 00                                     [.n..]
  | | | 30) DistortionInfo (SubDirectory) -->
  | | |     - Tag 0x0119 (32 bytes):
  | | |        985bc: ed 32 2f 57 15 01 00 00 7d 12 00 00 8c 01 01 00 [.2/W....}.......]
  | | |        985cc: 2f 07 d4 01 01 01 f0 fb e8 08 c8 03 0e 0c 59 56 [/.............YV]
  | | | + [BinaryData directory, 32 bytes, Little-endian]
  | | | | DistortionParam02 = 277
  | | | | - Tag 0x0002 (2 bytes, int16s[1]):
  | | | |    985c0: 15 01                                           [..]
  | | | | DistortionParam04 = 4733
  | | | | - Tag 0x0004 (2 bytes, int16s[1]):
  | | | |    985c4: 7d 12                                           [}.]
  | | | | DistortionScale = 0
  | | | | - Tag 0x0005 (2 bytes, int16s[1]):
  | | | |    985c6: 00 00                                           [..]
  | | | | DistortionCorrection = 1
  | | | | - Tag '7.1', mask 0x0f (2 bytes, int16s[1]):
  | | | |    985ca: 01 00                                           [..]
  | | | | DistortionParam08 = 1839
  | | | | - Tag 0x0008 (2 bytes, int16s[1]):
  | | | |    985cc: 2f 07                                           [/.]
  | | | | DistortionParam09 = 468
  | | | | - Tag 0x0009 (2 bytes, int16s[1]):
  | | | |    985ce: d4 01                                           [..]
  | | | | DistortionParam11 = -1040
  | | | | - Tag 0x000b (2 bytes, int16s[1]):
  | | | |    985d2: f0 fb                                           [..]
  | | | | DistortionN = 2280
  | | | | - Tag 0x000c (2 bytes, int16s[1]):
  | | | |    985d4: e8 08                                           [..]
  | | | 31) PanasonicRaw_0x011a = 1
  | | |     - Tag 0x011a (2 bytes):
  | | |        985e4: 01 00                                           [..]
  | | | 32) PanasonicRaw_0x011b = 06/].~q.@..3........I..... .....N@*.`........g......L.Q5
  | | |     - Tag 0x011b (64 bytes):
  | | |        985ee: 30 36 2f 5d c2 00 00 7e 71 07 40 00 00 f1 ff 33 [06/]...~q.@....3]
  | | |        985fe: a3 fc e0 05 d3 fd ee 08 49 fe f3 ff 00 01 90 20 [........I...... ]
  | | |        9860e: f4 05 fa 02 80 4e 40 00 2a fd 60 04 00 dc 08 fd [.....N@.*.`.....]
  | | |        9861e: f4 b7 08 ff 67 f9 14 ff 00 f8 db fa 4c e5 51 35 [....g.......L.Q5]
  | 33) CalibrationIlluminant1 = 17
  |     - Tag 0xc65a (2 bytes, int16u[1]):
  |         019e: 11 00                                           [..]
  | 34) CalibrationIlluminant2 = 21
  |     - Tag 0xc65b (2 bytes, int16u[1]):
  |         01aa: 15 00                                           [..]
  | 35) RawDataUniqueID = ..\QG/.;kn..'p..
  |     - Tag 0xc65d (16 bytes, int8u[16] read as undef[16]):
  |        9862e: e3 dc 5c 51 47 2f ca 3b 6b 6e d4 01 27 70 bc d2 [..\QG/.;kn..'p..]
  | 36) OriginalRawFileName = photo_64.rw2
  |     - Tag 0xc68b (13 bytes, string[13]):
  |        9863e: 70 68 6f 74 6f 5f 36 34 2e 72 77 32 00          [photo_64.rw2.]
  | 37) ProfileCalibrationSig = com.adobe
  |     - Tag 0xc6f4 (10 bytes, string[10]):
  |        9864c: 63 6f 6d 2e 61 64 6f 62 65 00                   [com.adobe.]
  | 38) ProfileName = Adobe Standard
  |     - Tag 0xc6f8 (15 bytes, string[15]):
  |        98656: 41 64 6f 62 65 20 53 74 61 6e 64 61 72 64 00    [Adobe Standard.]
  | 39) ProfileHueSatMapDims = 90 30 1
  |     - Tag 0xc6f9 (12 bytes, int32u[3]):
  |        98666: 5a 00 00 00 1e 00 00 00 01 00 00 00             [Z...........]
  | Warning = [Minor] Not decoding some large array(s). Ignore minor errors to decode
  | 40) ProfileHueSatMapData1 = (large array of 8100 float values)
  |     - Tag 0xc6fa (32400 bytes, float[8100]):
  |        98672: 00 00 80 40 00 00 80 3f 00 00 80 3f 55 bf 58 40 [...@...?...?U.X@]
  |        98682: 8e 46 84 3f 15 75 80 3f 86 21 67 40 f3 28 84 3f [.F.?.u.?.!g@.(.?]
  |        98692: 36 a3 80 3f 76 23 72 40 69 04 84 3f 19 c3 80 3f [6..?v#r@i..?...?]
  |        986a2: 21 f6 79 40 d3 d7 83 3f db d4 80 3f b8 d3 7e 40 [!.y@...?...?..~@]
  |        986b2: 76 a2 83 3f 97 d8 80 3f d3 7f 80 40 fc 63 83 3f [v..?...?...@.c.?]
  |        986c2: 68 ce 80 3f 44 63 80 40 75 1c 83 3f 69 b6 80 3f [h..?Dc.@u..?i..?]
  |        986d2: 35 7e 7e 40 56 cc 82 3f b6 90 80 3f b9 85 7a 40 [5~~@V..?...?..z@]
  |        986e2: 78 74 82 3f 6a 5d 80 3f 56 45 75 40 17 16 82 3f [xt.?j].?VEu@...?]
  |        986f2: a1 1c 80 3f 87 2e 6f 40 d8 b2 81 3f ea 9c 7f 3f [...?..o@...?...?]
  |        98702: fb bb 68 40 c0 4c 81 3f 04 e6 7e 3f 98 71 62 40 [..h@.L.?..~?.qb@]
  |        98712: 3e e6 80 3f c7 14 7e 3f 7d dc 5c 40 21 82 80 3f [>..?..~?}.\@!..?]
  |        98722: 6a 29 7d 3f fc 92 58 40 9f 23 80 3f 22 24 7c 3f [j)}?..X@.#.?"$|?]
  |        98732: 9f 34 56 40 a5 9c 7f 3f 27 05 7b 3f 28 6a 56 40 [.4V@...?'.{?(jV@]
  |        98742: 76 0c 7f 3f af cc 79 3f 8e e5 59 40 7a 9f 7e 3f [v..?..y?..Y@z.~?]
  |        98752: f1 7a 78 3f fe 61 61 40 42 5f 7e 3f 24 10 77 3f [.zx?.aa@B_~?$.w?]
  |        98762: dd a3 6d 40 2a 56 7e 3f 7e 8c 75 3f c6 78 7f 40 [..m@*V~?~.u?.x.@]
  |        98772: 55 8f 7e 3f 35 f0 73 3f c6 db 8b 40 b3 16 7f 3f [U.~?5.s?...@...?]
  |        98782: 81 3b 72 3f 1a a0 9b 40 fc f8 7f 3f 98 6e 70 3f [.;r?...@...?.np?]
  |        98792: 00 7e af 40 d9 a1 80 3f b1 89 6e 3f b2 ee c7 40 [.~.@...?..n?...@]
  |        987a2: 8f 82 81 3f 02 8d 6c 3f 05 70 e5 40 2b a6 82 3f [...?..l?.p.@+..?]
  |        987b2: c3 78 6a 3f 36 42 04 41 9d 14 84 3f 28 4d 68 3f [.xj?6B.A...?(Mh?]
  |        987c2: 78 d9 18 41 49 92 84 3f 6a 0a 66 3f 9f c3 30 41 [x..AI..?j.f?..0A]
  |        987d2: 00 00 80 3f bf b0 63 3f 28 7d 52 40 00 00 80 3f [...?..c?(}R@...?]
  |        987e2: 00 00 80 3f 23 9a 2b 40 3d 4f 84 3f bb 6e 80 3f [...?#.+@=O.?.n.?]
  |        987f2: 74 c7 3a 40 f3 38 84 3f 7c 96 80 3f dd f7 46 40 [t.:@.8.?|..?..F@]
  |        98802: 90 1a 84 3f 48 b0 80 3f d4 4f 50 40 2a f3 83 3f [...?H..?.OP@*..?]
  |        98812: 82 bc 80 3f ce fa 56 40 43 c2 83 3f 8d bb 80 3f [...?..V@C..?...?]
  |        98822: 66 2b 5b 40 c2 87 83 3f cb ad 80 3f 90 1b 5d 40 [f+[@...?...?..]@]
  |        98832: f5 43 83 3f 9b 93 80 3f bd 0c 5d 40 8e f7 82 3f [.C.?...?..]@...?]
  |        98842: 5d 6d 80 3f 0a 48 5b 40 9f a3 82 3f 6d 3b 80 3f []m.?.H[@...?m;.?]
  |        98852: 66 1e 58 40 9a 49 82 3f 53 fc 7f 3f be e8 53 40 [f.X@.I.?S..?..S@]
  |        98862: 50 eb 81 3f db 6b 7f 3f 22 08 4f 40 e9 8a 81 3f [P..?.k.?".O@...?]
  |        98872: 2a c6 7e 3f ec e5 49 40 e9 2a 81 3f f5 0b 7e 3f [*.~?..I@.*.?..~?]
  |        98882: ed f3 44 40 25 ce 80 3f f1 3d 7d 3f 89 ac 40 40 [..D@%..?.=}?..@@]
  |        98892: c8 77 80 3f d4 5c 7c 3f e6 92 3d 40 47 2b 80 3f [.w.?.\|?..=@G+.?]
  |        988a2: 53 69 7b 3f 0a 33 3c 40 cf d8 7f 3f 22 64 7a 3f [Si{?.3<@...?"dz?]
  |        988b2: 05 22 3d 40 67 7e 7f 3f f7 4d 79 3f 0c fe 40 40 [."=@g~.?.My?..@@]
  |        988c2: f4 4f 7f 3f 8a 27 78 3f a6 6e 48 40 95 56 7f 3f [.O.?.'x?.nH@.V.?]
  |        988d2: 92 f1 76 3f c6 24 54 40 e3 9b 7f 3f c8 ac 75 3f [..v?.$T@...?..u?]
  |        988e2: f0 da 64 40 f2 14 80 3f e9 59 74 3f 5a 55 7b 40 [..d@...?.Yt?ZU{@]
  |        988f2: 85 85 80 3f b1 f9 72 3f 04 31 8c 40 12 25 81 3f [...?..r?.1.@.%.?]
  |        98902: e1 8c 71 3f 7a 6c 9e 40 2c f9 81 3f 3c 14 70 3f [..q?zl.@,..?<.p?]
  |        98912: 10 ce b4 40 8a 07 83 3f 87 90 6e 3f e0 cb cf 40 [...@...?..n?...@]
  |        98922: 08 56 84 3f 8e 02 6d 3f 26 e1 ef 40 49 92 84 3f [.V.?..m?&..@I..?]
  |        98932: 1c 6b 6b 3f 2a c7 0a 41 00 00 80 3f 04 cb 69 3f [.kk?*..A...?..i?]
  |        98942: 50 fa 24 40 00 00 80 3f 00 00 80 3f 32 bc fc 3f [P.$@...?...?2..?]
  |        98952: 01 58 84 3f 2f 68 80 3f 0c 42 0e 40 23 49 84 3f [.X.?/h.?.B.@#I.?]
  |        98962: 93 89 80 3f b2 8c 1b 40 f9 30 84 3f 75 9d 80 3f [...?...@.0.?u..?]
  |        98972: 18 54 26 40 cd 0e 84 3f 79 a4 80 3f 4e b3 2e 40 [.T&@...?y..?N..@]
  |        98982: 56 e2 83 3f 46 9f 80 3f c7 ca 34 40 ba ab 83 3f [V..?F..?..4@...?]
  |        98992: 7d 8e 80 3f b2 c0 38 40 86 6b 83 3f bd 72 80 3f [}..?..8@.k.?.r.?]
  |        989a2: 56 c1 3a 40 aa 22 83 3f a6 4c 80 3f 6d ff 3a 40 [V.:@.".?.L.?m.:@]
  |        989b2: 76 d2 82 3f d5 1c 80 3f 74 b4 39 40 92 7c 82 3f [v..?...?t.9@.|.?]
  |        989c2: cf c7 7f 3f 00 21 37 40 f8 22 82 3f f6 44 7f 3f [...?.!7@.".?.D.?]
  |        989d2: 13 8d 33 40 eb c7 81 3f 5e b2 7e 3f 66 48 2f 40 [..3@...?^.~?fH/@]
  |        989e2: f4 6d 81 3f 45 11 7e 3f b8 aa 2a 40 d1 17 81 3f [.m.?E.~?..*@...?]
  |        989f2: f1 62 7d 3f 18 14 26 40 76 c8 80 3f a9 a8 7c 3f [.b}?..&@v..?..|?]
  |        98a02: 27 ed 21 40 f9 82 80 3f bc e3 7b 3f 66 a7 1e 40 ['.!@...?..{?f..@]
  |        98a12: 90 4a 80 3f 82 15 7b 3f 6d bd 1c 40 83 22 80 3f [.J.?..{?m..@.".?]
  |        98a22: 5a 3f 7a 3f 32 b3 1c 40 1f 0e 80 3f ad 62 79 3f [Z?z?2..@...?.by?]
  |        98a32: 40 16 1f 40 ac 10 80 3f ef 80 78 3f ee 7d 24 40 [@..@...?..x?.}$@]
  |        98a42: 62 2d 80 3f a2 9b 77 3f 95 8b 2d 40 5c 67 80 3f [b-.?..w?..-@\g.?]
  |        98a52: 54 b4 76 3f c3 ea 3a 40 8a c1 80 3f a3 cc 75 3f [T.v?..:@...?..u?]
  |        98a62: 62 51 4d 40 a3 3e 81 3f 3e e6 74 3f e3 7f 65 40 [bQM@.>.?>.t?..e@]
  |        98a72: 1c e1 81 3f e5 02 74 3f b3 20 82 40 18 ab 82 3f [...?..t?. .@...?]
  |        98a82: 6b 24 73 3f e8 35 95 40 58 9e 83 3f ba 4c 72 3f [k$s?.5.@X..?.Lr?]
  |        98a92: f9 6f ac 40 49 92 84 3f ce 7d 71 3f c8 44 c8 40 [.o.@I..?.}q?.D.@]
  |        98aa2: 00 00 80 3f bd b9 70 3f ef ee ee 3f 00 00 80 3f [...?..p?...?...?]
  |        98ab2: 00 00 80 3f 12 14 a2 3f d3 60 84 3f 7a 61 80 3f [...?...?.`.?za.?]
  |        98ac2: 04 1a c3 3f 76 59 84 3f 89 7c 80 3f 17 b2 df 3f [...?vY.?.|.?...?]
  |        98ad2: 9c 47 84 3f b1 8a 80 3f ce e8 f7 3f b5 2a 84 3f [.G.?...?...?.*.?]
  |        98ae2: d1 8c 80 3f a9 e8 05 40 ac 02 84 3f c8 83 80 3f [...?...@...?...?]
  |        98af2: 50 c3 0d 40 e0 cf 83 3f 70 70 80 3f 5c 96 13 40 [P..@...?pp.?\..@]
  |        98b02: 1d 93 83 3f a2 53 80 3f df 78 17 40 94 4d 83 3f [...?.S.?.x.@.M.?]
  |        98b12: 36 2e 80 3f 88 87 19 40 d3 00 83 3f 04 01 80 3f [6..?...@...?...?]
  |        98b22: 2f e5 19 40 b7 ae 82 3f cb 99 7f 3f 54 bb 18 40 [/..@...?...?T..@]
  |        98b32: 60 59 82 3f 6c 25 7f 3f a6 3a 16 40 26 03 82 3f [`Y.?l%.?.:.@&..?]
  |        98b42: a9 a6 7e 3f 73 9b 12 40 84 ae 81 3f 4a 1f 7e 3f [..~?s..@...?J.~?]
  |        98b52: 24 1e 0e 40 0f 5e 81 3f 22 91 7d 3f a5 0b 09 40 [$..@.^.?".}?...@]
  |        98b62: 5b 14 81 3f 14 fe 7c 3f cb b5 03 40 f3 d3 80 3f [[..?..|?...@...?]
  |        98b72: 12 68 7c 3f 66 ef fc 3f 3d 9f 80 3f 22 d1 7b 3f [.h|?f..?=..?".{?]
  |        98b82: 2a 6c f3 3f 6b 78 80 3f 5e 3b 7b 3f 1e bf eb 3f [*l.?kx.?^;{?...?]
  |        98b92: 65 61 80 3f fd a8 7a 3f d1 d9 e6 3f b6 5b 80 3f [ea.?..z?...?.[.?]
  |        98ba2: 4e 1c 7a 3f 84 c2 e5 3f 72 68 80 3f bf 97 79 3f [N.z?...?rh.?..y?]
  |        98bb2: 82 94 e9 3f 28 88 80 3f df 1d 79 3f 53 80 f3 3f [...?(..?..y?S..?]
  |        98bc2: ca ba 80 3f 64 b1 78 3f e9 65 02 40 95 ff 80 3f [...?d.x?.e.@...?]
  |        98bd2: 28 55 78 3f 11 69 0f 40 05 55 81 3f 31 0c 78 3f [(Ux?.i.@.U.?1.x?]
  |        98be2: c4 81 21 40 bd b8 81 3f b2 d9 77 3f 8a 72 39 40 [..!@...?..w?.r9@]
  |        98bf2: 76 27 82 3f 0f c1 77 3f 13 08 58 40 ef 9c 82 3f [v'.?..w?..X@...?]
  |        98c02: e1 c5 77 3f e6 18 7e 40 00 00 80 3f f8 eb 77 3f [..w?..~@...?..w?]
  |        98c12: 3f e9 93 3f 00 00 80 3f 00 00 80 3f 93 73 0e 3f [?..?...?...?.s.?]
  |        98c22: a9 69 84 3f a4 5a 80 3f 3c 91 52 3f e2 69 84 3f [.i.?.Z.?<.R?.i.?]
  |        98c32: 6c 6f 80 3f 14 a9 87 3f 6e 5e 84 3f 0b 78 80 3f [lo.?...?n^.?.x.?]
  |        98c42: 6e 46 a2 3f de 46 84 3f 94 75 80 3f cc 0f b9 3f [nF.?.F.?.u.?...?]
  |        98c52: 45 23 84 3f 13 69 80 3f f2 f9 cb 3f 37 f4 83 3f [E#.?.i.?...?7..?]
  |        98c62: 91 53 80 3f e6 00 db 3f bd ba 83 3f 19 36 80 3f [.S.?...?...?.6.?]
  |        98c72: a0 29 e6 3f 46 78 83 3f b0 11 80 3f 98 83 ed 3f [.).?Fx.?...?...?]
  |        98c82: 9d 2e 83 3f c0 ce 7f 3f 56 2a f1 3f d4 df 82 3f [...?...?V*.?...?]
  |        98c92: 6d 70 7f 3f e6 46 f1 3f 30 8e 82 3f 87 0a 7f 3f [mp.?.F.?0..?...?]
  |        98ca2: 40 11 ee 3f 13 3c 82 3f 3d 9f 7e 3f 94 d1 e7 3f [@..?.<.?=.~?...?]
  |        98cb2: e7 eb 81 3f d0 30 7e 3f 7e e1 de 3f 03 a0 81 3f [...?.0~?~..?...?]
  |        98cc2: 94 c1 7d 3f 1e ad d3 3f 8d 5a 81 3f f7 53 7d 3f [..}?...?.Z.?.S}?]
  |        98cd2: 0a b4 c6 3f 64 1d 81 3f 82 ea 7c 3f 1a 8a b8 3f [...?d..?..|?...?]
  |        98ce2: 00 ea 80 3f e3 87 7c 3f 0c d8 a9 3f 58 c1 80 3f [...?..|?...?X..?]
  |        98cf2: e8 2e 7c 3f f1 5b 9b 3f c2 a3 80 3f 8e e2 7b 3f [..|?.[.?...?..{?]
  |        98d02: 60 e9 8d 3f df 90 80 3f 00 a6 7b 3f 7b 69 82 3f [`..?...?..{?{i.?]
  |        98d12: 78 87 80 3f 9a 7c 7b 3f 38 b5 73 3f 6d 85 80 3f [x..?.|{?8.s?m..?]
  |        98d22: f4 69 7b 3f 8c 9f 6a 3f 9c 87 80 3f e3 71 7b 3f [.i{?..j?...?.q{?]
  |        98d32: 80 df 6b 3f cc 89 80 3f 7f 98 7b 3f a6 e7 79 3f [..k?...?..{?..y?]
  |        98d42: a4 86 80 3f 29 e2 7b 3f 2c a6 8b 3f 97 77 80 3f [...?).{?,..?.w.?]
  |        98d52: 90 53 7c 3f d2 5f a3 3f e6 54 80 3f b8 f1 7c 3f [.S|?._.?.T.?..|?]
  |        98d62: 26 86 c5 3f 9a 15 80 3f fd c1 7d 3f f0 87 f3 3f [&..?...?..}?...?]
  |        98d72: 19 5f 7f 3f 1d ca 7e 3f 39 8e e3 3e 00 00 80 3f [._.?..~?9..>...?]
  |        98d82: 00 00 80 3f 13 a4 1e be 7b 72 84 3f b5 53 80 3f [...?....{r.?.S.?]
  |        98d92: 24 88 f0 3d 5b 7a 84 3f 47 62 80 3f a4 bb bb 3e [$..=[z.?Gb.?...>]
  |        98da2: 68 75 84 3f 91 65 80 3f 5e 50 17 3f 44 63 84 3f [hu.?.e.?^P.?Dc.?]
  |        98db2: cb 5e 80 3f 2a ff 49 3f 24 44 84 3f 24 4f 80 3f [.^.?*.I?$D.?$O.?]
  |        98dc2: da 88 75 3f c9 18 84 3f cc 37 80 3f 5d cc 8c 3f [..u?...?.7.?]..?]
  |        98dd2: 71 e2 83 3f ef 19 80 3f 9c f5 9a 3f c8 a2 83 3f [q..?...?...?...?]
  |        98de2: 73 ed 7f 3f 15 29 a5 3f d0 5b 83 3f b4 9e 7f 3f [s..?.).?.[.?...?]
  |        98df2: 7e 5c ab 3f cf 0f 83 3f 06 4a 7f 3f 4b 94 ad 3f [~\.?...?.J.?K..?]
  |        98e02: 2c c1 82 3f de f1 7e 3f 80 e5 ab 3f 54 72 82 3f [,..?..~?...?Tr.?]
  |        98e12: c0 98 7e 3f 63 77 a6 3f 9b 25 82 3f 48 41 7e 3f [..~?cw.?.%.?HA~?]
  |        98e22: e6 84 9d 3f 16 dd 81 3f 31 ee 7d 3f f2 5d 91 3f [...?...?1.}?.].?]
  |        98e32: 7c 9a 81 3f 54 a2 7d 3f 4f 68 82 3f ff 5e 81 3f [|..?T.}?Oh.?.^.?]
  |        98e42: b6 60 7d 3f ac 40 62 3f 2b 2b 81 3f 86 2c 7d 3f [.`}?.@b?++.?.,}?]
  |        98e52: 6c 32 3c 3f c2 fe 80 3f 2c 09 7d 3f b0 f9 13 3f [l2<?...?,.}?...?]
  |         [snip 30368 bytes]
  | 41) ProfileHueSatMapData2 = (large array of 8100 float values)
  |     - Tag 0xc6fb (32400 bytes, float[8100]):
  |        a0502: 00 00 80 40 00 00 80 3f 00 00 80 3f de 35 74 40 [...@...?...?.5t@]
  |        a0512: 4f 5f 82 3f 51 d1 7f 3f c6 87 75 40 30 c4 81 3f [O_.?Q..?..u@0..?]
  |        a0522: 14 18 80 3f 62 8c 76 40 d1 3d 81 3f 16 35 80 3f [...?b.v@.=.?.5.?]
  |        a0532: 6a 3e 77 40 67 c9 80 3f bf 3f 80 3f 0f 9c 77 40 [j>w@g..?.?.?..w@]
  |        a0542: 73 64 80 3f 21 38 80 3f 04 a7 77 40 bf 0c 80 3f [sd.?!8.?..w@...?]
  |        a0552: 4f 1e 80 3f 76 64 77 40 c3 80 7f 3f b2 e4 7f 3f [O..?vdw@...?...?]
  |        a0562: 12 dd 76 40 76 fb 7e 3f a3 68 7f 3f 04 1d 76 40 [..v@v.~?.h.?..v@]
  |        a0572: ed 86 7e 3f 96 c8 7e 3f f4 33 75 40 13 21 7e 3f [..~?..~?.3u@.!~?]
  |        a0582: ad 04 7e 3f 08 35 74 40 6c c8 7d 3f 0c 1d 7d 3f [..~?.5t@l.}?..}?]
  |        a0592: e5 36 73 40 0c 7c 7d 3f d6 11 7c 3f ac 53 72 40 [.6s@.|}?..|?.Sr@]
  |        a05a2: a2 3b 7d 3f 30 e3 7a 3f fc a8 71 40 6e 07 7d 3f [.;}?0.z?..q@n.}?]
  |        a05b2: 3c 91 79 3f f6 57 71 40 48 e0 7c 3f 1f 1c 78 3f [<.y?.Wq@H.|?..x?]
  |        a05c2: 32 85 71 40 9e c7 7c 3f fc 83 76 3f cb 58 72 40 [2.q@..|?..v?.Xr@]
  |        a05d2: 71 bf 7c 3f f6 c8 74 3f 58 fe 73 40 59 ca 7c 3f [q.|?..t?X.s@Y.|?]
  |        a05e2: 31 eb 72 3f ee a4 76 40 84 eb 7c 3f d1 ea 70 3f [1.r?..v@..|?..p?]
  |        a05f2: 20 7f 7a 40 b4 26 7d 3f f9 c7 6e 3f 00 c3 7f 40 [ .z@.&}?..n?...@]
  |        a0602: 42 80 7d 3f cd 82 6c 3f 0d 55 83 40 1c fd 7d 3f [B.}?..l?.U.@..}?]
  |        a0612: 70 1b 6a 3f be b8 87 40 c6 a2 7e 3f 06 92 67 3f [p.j?...@..~?..g?]
  |        a0622: d8 2c 8d 40 56 77 7f 3f b3 e6 64 3f 5e d3 93 40 [.,.@Vw.?..d?^..@]
  |        a0632: bf 40 80 3f 9a 19 62 3f 16 d0 9b 40 3f e4 80 3f [.@.?..b?...@?..?]
  |        a0642: df 2a 5f 3f 7e 48 a5 40 19 aa 81 3f a5 1a 5c 3f [.*_?~H.@...?..\?]
  |        a0652: da 63 b0 40 84 96 82 3f 0f e9 58 3f 28 4b bd 40 [.c.@...?..X?(K.@]
  |        a0662: 00 00 80 3f 42 96 55 3f 28 7d 52 40 00 00 80 3f [...?B.U?(}R@...?]
  |        a0672: 00 00 80 3f 9a 88 47 40 04 62 82 3f ef cb 7f 3f [...?..G@.b.?...?]
  |        a0682: 3c b4 49 40 e8 c8 81 3f 3e 13 80 3f 20 95 4b 40 [<.I@...?>..? .K@]
  |        a0692: 4c 44 81 3f a6 2e 80 3f ad 23 4d 40 c4 d1 80 3f [LD.?...?.#M@...?]
  |        a06a2: 47 38 80 3f 40 5b 4e 40 1b 6f 80 3f 3f 30 80 3f [G8.?@[N@.o.??0.?]
  |        a06b2: 57 3a 4f 40 55 1a 80 3f b8 16 80 3f b6 c2 4f 40 [W:O@U..?...?..O@]
  |        a06c2: 61 a3 7f 3f bf d7 7f 3f 8a f9 4f 40 4f 27 7f 3f [a..?...?..O@O'.?]
  |        a06d2: de 5f 7f 3f 82 e7 4f 40 e0 bd 7e 3f 4e c6 7e 3f [._.?..O@..~?N.~?]
  |        a06e2: f0 98 4f 40 fb 64 7e 3f a6 0b 7e 3f e0 1d 4f 40 [..O@.d~?..~?..O@]
  |        a06f2: 09 1b 7e 3f 8c 30 7d 3f 28 8a 4e 40 f0 de 7d 3f [..~?.0}?(.N@..}?]
  |        a0702: bc 35 7c 3f 7e f5 4d 40 1f b0 7d 3f 07 1c 7b 3f [.5|?~.M@..}?..{?]
  |        a0712: 81 7b 4d 40 8c 8e 7d 3f 52 e4 79 3f c4 3b 4d 40 [.{M@..}?R.y?.;M@]
  |        a0722: b6 7a 7d 3f 96 8f 78 3f d7 59 4d 40 af 75 7d 3f [.z}?..x?.YM@.u}?]
  |        a0732: e5 1e 77 3f 48 fd 4d 40 1b 81 7d 3f 67 93 75 3f [..w?H.M@..}?g.u?]
  |        a0742: a2 51 4f 40 33 9f 7d 3f 5b ee 73 3f 70 86 51 40 [.QO@3.}?[.s?p.Q@]
  |        a0752: cd d2 7d 3f 19 31 72 3f 2f cf 54 40 5d 1f 7e 3f [..}?.1r?/.T@].~?]
  |        a0762: 10 5d 70 3f 48 63 59 40 fb 88 7e 3f ca 73 6e 3f [.]p?HcY@..~?.sn?]
  |        a0772: 04 7e 5f 40 66 14 7f 3f ea 76 6c 3f 7c 5e 67 40 [.~_@f..?.vl?|^g@]
  |        a0782: 09 c7 7f 3f 2e 68 6a 3f 86 47 71 40 81 53 80 3f [...?.hj?.Gq@.S.?]
  |        a0792: 70 49 68 3f 9e 7f 7d 40 90 dd 80 3f a3 1c 66 3f [pIh?..}@...?..f?]
  |        a07a2: 67 28 86 40 7a 85 81 3f d9 e3 63 3f 4b 04 8f 40 [g(.@z..?..c?K..@]
  |        a07b2: 64 4f 82 3f 3f a1 61 3f e4 7b 99 40 d6 3f 83 3f [dO.??.a?.{.@.?.?]
  |        a07c2: 22 57 5f 3f 35 b9 a5 40 00 00 80 3f ea 07 5d 3f ["W_?5..@...?..]?]
  |        a07d2: 50 fa 24 40 00 00 80 3f 00 00 80 3f 04 d7 1a 40 [P.$@...?...?...@]
  |        a07e2: 7c 65 82 3f 12 c6 7f 3f c2 d4 1d 40 e1 ce 81 3f [|e.?...?...@...?]
  |        a07f2: 24 0e 80 3f e7 85 20 40 4e 4c 81 3f 1f 28 80 3f [$..?.. @NL.?.(.?]
  |        a0802: f8 df 22 40 c5 db 80 3f 13 31 80 3f 6d db 24 40 [.."@...?.1.?m.$@]
  |        a0812: 68 7b 80 3f 2b 29 80 3f fa 73 26 40 80 29 80 3f [h{.?+).?.s&@.).?]
  |        a0822: 9f 10 80 3f c9 a8 27 40 f6 c8 7f 3f 7c cf 7f 3f [...?..'@...?|..?]
  |        a0832: aa 7c 28 40 e0 55 7f 3f cb 5d 7f 3f 30 f6 28 40 [.|(@.U.?.].?0.(@]
  |        a0842: 3f f7 7e 3f 14 cd 7e 3f c0 1f 29 40 ec aa 7e 3f [?.~?..~?..)@..~?]
  |        a0852: 69 1e 7e 3f 9a 07 29 40 22 6f 7e 3f 09 53 7d 3f [i.~?..)@"o~?.S}?]
  |        a0862: cd bf 28 40 7c 42 7e 3f 66 6c 7c 3f 20 5e 28 40 [..(@|B~?fl|? ^(@]
  |        a0872: 02 24 7e 3f 1e 6c 7b 3f f2 fb 27 40 2d 13 7e 3f [.$~?.l{?..'@-.~?]
  |        a0882: 0a 54 7a 3f 08 b6 27 40 ed 0f 7e 3f 33 26 79 3f [.Tz?..'@..~?3&y?]
  |        a0892: 56 ac 27 40 b3 1a 7e 3f df e4 77 3f b4 01 28 40 [V.'@..~?..w?..(@]
  |        a08a2: 7a 34 7e 3f 8d 92 76 3f 8e db 28 40 cd 5e 7e 3f [z4~?..v?..(@.^~?]
  |        a08b2: fa 31 75 3f 8a 61 2a 40 d2 9b 7e 3f 21 c6 73 3f [.1u?.a*@..~?!.s?]
  |        a08c2: 18 bd 2c 40 54 ee 7e 3f 3e 52 72 3f 0f 19 30 40 [..,@T.~?>Rr?..0@]
  |        a08d2: ca 59 7f 3f d1 d9 70 3f 25 a1 34 40 67 e2 7f 3f [.Y.?..p?%.4@g..?]
  |        a08e2: a0 60 6f 3f 74 81 3a 40 90 46 80 3f b6 ea 6d 3f [.`o?t.:@.F.?..m?]
  |        a08f2: ec e5 41 40 dc af 80 3f 6a 7c 6c 3f c4 f9 4a 40 [..A@...?j|l?..J@]
  |        a0902: 6a 30 81 3f 5b 1a 6b 3f d6 e6 55 40 fc cb 81 3f [j0.?[.k?..U@...?]
  |        a0912: 79 c9 69 3f 0c d5 62 40 d1 86 82 3f 01 8f 68 3f [y.i?..b@...?..h?]
  |        a0922: b0 e9 71 40 a7 65 83 3f 80 70 67 3f 63 a3 81 40 [..q@.e.?.pg?c..@]
  |        a0932: 00 00 80 3f d8 73 66 3f ef ee ee 3f 00 00 80 3f [...?.sf?...?...?]
  |        a0942: 00 00 80 3f 26 40 dc 3f b6 69 82 3f be bf 7f 3f [...?&@.?.i.?...?]
  |        a0952: 96 ce e3 3f 18 d6 81 3f c7 08 80 3f 8a b7 ea 3f [...?...?...?...?]
  |        a0962: d4 55 81 3f 7e 21 80 3f 4e df f0 3f 62 e7 80 3f [.U.?~!.?N..?b..?]
  |        a0972: 1b 2a 80 3f 14 31 f6 3f 47 89 80 3f cf 22 80 3f [.*.?.1.?G..?.".?]
  |        a0982: b4 9f fa 3f 1b 3a 80 3f e3 0b 80 3f 2e 26 fe 3f [...?.:.?...?.&.?]
  |        a0992: 04 f1 7f 3f 78 cb 7f 3f f7 63 00 40 6b 86 7f 3f [...?x..?.c.@k..?]
  |        a09a2: bd 61 7f 3f 6a 48 01 40 01 32 7f 3f e0 db 7e 3f [.a.?jH.@.2.?..~?]
  |        a09b2: 80 ca 01 40 8d f1 7e 3f 71 3b 7e 3f 34 f8 01 40 [...@..~?q;~?4..@]
  |        a09c2: 08 c3 7e 3f 4e 82 7d 3f 17 e3 01 40 ab a4 7e 3f [..~?N.}?...@..~?]
  |        a09d2: a4 b2 7c 3f e5 9f 01 40 ef 94 7e 3f f3 ce 7b 3f [..|?...@..~?..{?]
  |        a09e2: 00 46 01 40 a0 92 7e 3f 17 da 7a 3f cc ee 00 40 [.F.@..~?..z?...@]
  |        a09f2: e3 9c 7e 3f 48 d7 79 3f ff b4 00 40 40 b3 7e 3f [..~?H.y?...@@.~?]
  |        a0a02: 1f ca 78 3f d2 b3 00 40 b5 d5 7e 3f 9c b6 77 3f [..x?...@..~?..w?]
  |        a0a12: 26 06 01 40 bd 04 7f 3f 27 a1 76 3f 94 c5 01 40 [&..@...?'.v?...@]
  |        a0a22: 66 41 7f 3f 98 8e 75 3f 6b 09 03 40 58 8d 7f 3f [fA.?..u?k..@X..?]
  |        a0a32: 38 84 74 3f a8 e5 04 40 f1 ea 7f 3f c4 87 73 3f [8.t?...@...?..s?]
  |        a0a42: dd 69 07 40 a6 2e 80 3f 76 9f 72 3f 11 a0 0a 40 [.i.@...?v.r?...@]
  |        a0a52: 2d 74 80 3f 00 d2 71 3f 9b 8b 0e 40 7b c8 80 3f [-t.?..q?...@{..?]
  |        a0a62: 9a 26 71 3f f7 27 13 40 7c 2e 81 3f fc a4 70 3f [.&q?.'.@|..?..p?]
  |        a0a72: a1 67 18 40 a4 a9 81 3f 67 55 70 3f ea 32 1e 40 [.g.@...?gUp?.2.@]
  |        a0a82: ff 3d 82 3f a6 40 70 3f d8 66 24 40 37 f0 82 3f [.=.?.@p?.f$@7..?]
  |        a0a92: 14 70 70 3f 11 d4 2a 40 00 00 80 3f 9a ed 70 3f [.pp?..*@...?..p?]
  |        a0aa2: 3f e9 93 3f 00 00 80 3f 00 00 80 3f 9f c5 82 3f [?..?...?...?...?]
  |        a0ab2: ae 6e 82 3f f8 b8 7f 3f 07 d4 8b 3f 8e de 81 3f [.n.?...?...?...?]
  |        a0ac2: 27 03 80 3f 92 28 94 3f de 60 81 3f bd 1a 80 3f ['..?.(.?.`.?...?]
  |        a0ad2: 01 a0 9b 3f 96 f4 80 3f 4f 23 80 3f ee 1f a2 3f [...?...?O#.?...?]
  |        a0ae2: aa 98 80 3f 11 1d 80 3f ac 97 a7 3f 05 4c 80 3f [...?...?...?.L.?]
  |        a0af2: 54 08 80 3f c0 00 ac 3f 8c 0d 80 3f 27 cb 7f 3f [T..?...?...?'..?]
  |        a0b02: e0 5e af 3f 3c b8 7f 3f e4 6a 7f 3f a6 bf b1 3f [.^.?<..?.j.?...?]
  |        a0b12: 28 6d 7f 3f 82 f1 7e 3f c0 39 b3 3f 8f 37 7f 3f [(m.?..~?.9.?.7.?]
  |        a0b22: 08 61 7e 3f d6 eb b3 3f 22 15 7f 3f e5 bb 7d 3f [.a~?...?"..?..}?]
  |        a0b32: 12 fb b3 3f 9f 03 7f 3f f9 04 7d 3f 48 91 b3 3f [...?...?..}?H..?]
  |        a0b42: db 00 7f 3f 9e 3f 7c 3f de da b2 3f cb 0a 7f 3f [...?.?|?...?...?]
  |        a0b52: aa 6f 7b 3f 60 04 b2 3f 93 1f 7f 3f 7c 99 7a 3f [.o{?`..?...?|.z?]
  |        a0b62: e0 37 b1 3f 99 3d 7f 3f f9 c1 79 3f 1a 9a b0 3f [.7.?.=.?..y?...?]
  |        a0b72: 91 63 7f 3f 9c ee 78 3f 6a 47 b0 3f 95 90 7f 3f [.c.?..x?jG.?...?]
  |        a0b82: 75 25 78 3f a4 50 b0 3f 39 c4 7f 3f 32 6d 77 3f [u%x?.P.?9..?2mw?]
  |        a0b92: da b7 b0 3f 9e fe 7f 3f 24 cd 76 3f 05 6d b1 3f [...?...?$.v?.m.?]
  |        a0ba2: 4a 20 80 3f 41 4d 76 3f ca 4a b2 3f d5 45 80 3f [J .?AMv?.J.?.E.?]
  |        a0bb2: 30 f6 75 3f 38 13 b3 3f 2b 71 80 3f 48 d1 75 3f [0.u?8..?+q.?H.u?]
  |        a0bc2: b4 6c b3 3f 07 a4 80 3f 97 e8 75 3f 0c df b2 3f [.l.?...?..u?...?]
  |        a0bd2: b3 e0 80 3f e6 46 76 3f c6 d0 b0 3f 1f 2a 81 3f [...?.Fv?...?.*.?]
  |        a0be2: bf f7 76 3f bc 84 ac 3f ef 83 81 3f 6f 07 78 3f [..v?...?...?o.x?]
  |        a0bf2: 26 18 a5 3f 93 f2 81 3f 0c 83 79 3f 00 81 99 3f [&..?...?..y?...?]
  |        a0c02: 00 00 80 3f 78 78 7b 3f 39 8e e3 3e 00 00 80 3f [...?xx{?9..>...?]
  |        a0c12: 00 00 80 3f 52 f2 a4 3e 61 74 82 3f c4 b1 7f 3f [...?R..>at.?...?]
  |        a0c22: 4e da ce 3e 3f e8 81 3f 87 fa 7f 3f ea 6b f5 3e [N..>?..?...?.k.>]
  |        a0c32: 6b 6d 81 3f d3 13 80 3f ae fc 0b 3f 62 03 81 3f [km.?...?...?b..?]
  |        a0c42: 9b 1c 80 3f ab 01 1b 3f 88 a9 80 3f cb 17 80 3f [...?...?...?...?]
  |        a0c52: 69 9e 27 3f 26 5f 80 3f bb 05 80 3f 35 c6 31 3f [i.'?&_.?...?5.1?]
  |        a0c62: 67 23 80 3f e3 cd 7f 3f 96 85 39 3f af ea 7f 3f [g#.?...?..9?...?]
  |        a0c72: 54 78 7f 3f 89 00 3f 3f c8 a7 7f 3f b1 0c 7f 3f [Tx.?..??...?...?]
  |        a0c82: 94 6f 42 3f ba 7b 7f 3f 5f 8d 7e 3f ca 1b 44 3f [.oB?.{.?_.~?..D?]
  |        a0c92: f0 63 7f 3f 47 fd 7d 3f cd 59 44 3f ab 5d 7f 3f [.c.?G.}?.YD?.].?]
  |        a0ca2: e2 5f 7d 3f ec 83 43 3f 08 66 7f 3f 42 b9 7c 3f [._}?..C?.f.?B.|?]
  |        a0cb2: 6c f3 41 3f 12 7a 7f 3f 17 0e 7c 3f 31 f9 3f 3f [l.A?.z.?..|?1.??]
  |        a0cc2: d1 96 7f 3f ba 63 7b 3f cc d5 3d 3f 5f b9 7f 3f [...?.c{?..=?_..?]
  |        a0cd2: 34 c0 7a 3f 2e b1 3b 3f fc de 7f 3f 48 2a 7a 3f [4.z?..;?...?H*z?]
  |        a0ce2: 16 92 39 3f 95 02 80 3f 74 a9 79 3f 73 55 37 3f [..9?...?t.y?sU7?]
  |         [snip 30368 bytes]
  | 42) ProfileEmbedPolicy = 0
  |     - Tag 0xc6fd (4 bytes, int32u[1]):
  |         020a: 00 00 00 00                                     [....]
  | 43) ProfileCopyright = Copyright 2012 Adobe Systems, Inc.
  |     - Tag 0xc6fe (35 bytes, string[35]):
  |        a8392: 43 6f 70 79 72 69 67 68 74 20 32 30 31 32 20 41 [Copyright 2012 A]
  |        a83a2: 64 6f 62 65 20 53 79 73 74 65 6d 73 2c 20 49 6e [dobe Systems, In]
  |        a83b2: 63 2e 00                                        [c..]
  | 44) ForwardMatrix1 = 0.5886 0.3085 0.0672 0.0814 1.0652 -0.1466 -0.0526 -0.4813 1.359 (5886/10000 3085/10000 672/10000 814/10000 10652/10000 -1466/10000 -526/10000 -4813/10000 13590/10000)
  |     - Tag 0xc714 (72 bytes, rational64s[9]):
  |        a83b6: fe 16 00 00 10 27 00 00 0d 0c 00 00 10 27 00 00 [.....'.......'..]
  |        a83c6: a0 02 00 00 10 27 00 00 2e 03 00 00 10 27 00 00 [.....'.......'..]
  |        a83d6: 9c 29 00 00 10 27 00 00 46 fa ff ff 10 27 00 00 [.)...'..F....'..]
  |        a83e6: f2 fd ff ff 10 27 00 00 33 ed ff ff 10 27 00 00 [.....'..3....'..]
  |        a83f6: 16 35 00 00 10 27 00 00                         [.5...'..]
  | 45) ForwardMatrix2 = 0.5482 0.4214 -0.0053 0.141 1.0704 -0.2114 0.0164 -0.2579 1.0667 (5482/10000 4214/10000 -53/10000 1410/10000 10704/10000 -2114/10000 164/10000 -2579/10000 10667/10000)
  |     - Tag 0xc715 (72 bytes, rational64s[9]):
  |        a83fe: 6a 15 00 00 10 27 00 00 76 10 00 00 10 27 00 00 [j....'..v....'..]
  |        a840e: cb ff ff ff 10 27 00 00 82 05 00 00 10 27 00 00 [.....'.......'..]
  |        a841e: d0 29 00 00 10 27 00 00 be f7 ff ff 10 27 00 00 [.)...'.......'..]
  |        a842e: a4 00 00 00 10 27 00 00 ed f5 ff ff 10 27 00 00 [.....'.......'..]
  |        a843e: ab 29 00 00 10 27 00 00                         [.)...'..]
  | 46) PreviewApplicationName = Adobe DNG Converter
  |     - Tag 0xc716 (20 bytes, string[20]):
  |        a8446: 41 64 6f 62 65 20 44 4e 47 20 43 6f 6e 76 65 72 [Adobe DNG Conver]
  |        a8456: 74 65 72 00                                     [ter.]
  | 47) PreviewApplicationVersion = 15.4
  |     - Tag 0xc717 (5 bytes, string[5]):
  |        a845a: 31 35 2e 34 00                                  [15.4.]
  | 48) PreviewSettingsDigest = .O.C.k....Jh....
  |     - Tag 0xc719 (16 bytes, int8u[16] read as undef[16]):
  |        a8460: cd 4f 12 43 c9 6b ae 12 0d e6 4a 68 8f 03 bb f1 [.O.C.k....Jh....]
  | 49) PreviewColorSpace = 2
  |     - Tag 0xc71a (4 bytes, int32u[1]):
  |         025e: 02 00 00 00                                     [....]
  | 50) PreviewDateTime = 2023-07-26T06:11:34+02:00
  |     - Tag 0xc71b (26 bytes, string[26]):
  |        a8470: 32 30 32 33 2d 30 37 2d 32 36 54 30 36 3a 31 31 [2023-07-26T06:11]
  |        a8480: 3a 33 34 2b 30 32 3a 30 30 00                   [:34+02:00.]
  | 51) ProfileLookTableDims = 36 8 16
  |     - Tag 0xc725 (12 bytes, int32u[3]):
  |        a848a: 24 00 00 00 08 00 00 00 10 00 00 00             [$...........]
  | 52) ProfileLookTableData = (large array of 13824 float values)
  |     - Tag 0xc726 (55296 bytes, float[13824]):
  |        a8496: 00 00 00 00 00 00 80 3f 00 00 80 3f 00 00 00 00 [.......?...?....]
  |        a84a6: f5 ec 60 3f 00 00 80 3f 00 00 00 00 68 92 62 3f [..`?...?....h.b?]
  |        a84b6: 00 00 80 3f 00 00 00 00 26 81 64 3f 00 00 80 3f [...?....&.d?...?]
  |        a84c6: 00 00 00 00 54 d4 66 3f 00 00 80 3f 00 00 00 00 [....T.f?...?....]
  |        a84d6: 5d 9d 69 3f 00 00 80 3f 00 00 00 00 93 b2 6e 3f [].i?...?......n?]
  |        a84e6: 00 00 80 3f 00 00 00 00 00 00 80 3f 00 00 80 3f [...?.......?...?]
  |        a84f6: 00 00 00 00 00 00 80 3f 00 00 80 3f fb 34 0c bc [.......?...?.4..]
  |        a8506: f5 ec 60 3f 00 00 80 3f e7 a0 1f bd 68 92 62 3f [..`?...?....h.b?]
  |        a8516: 00 00 80 3f fa 46 cb bd 26 81 64 3f 00 00 80 3f [...?.F..&.d?...?]
  |        a8526: d5 fe 53 be 54 d4 66 3f 00 00 80 3f ca 84 df be [..S.T.f?...?....]
  |        a8536: 5d 9d 69 3f 00 00 80 3f 67 71 70 bf 93 b2 6e 3f [].i?...?gqp...n?]
  |        a8546: 00 00 80 3f ac a9 d3 bf 00 00 80 3f 00 00 80 3f [...?.......?...?]
  |        a8556: 00 00 00 00 00 00 80 3f 00 00 80 3f 02 f4 5c bc [.......?...?..\.]
  |        a8566: f5 ec 60 3f 00 00 80 3f 8e 27 7b bd 68 92 62 3f [..`?...?.'{.h.b?]
  |        a8576: 00 00 80 3f 75 40 1e be 26 81 64 3f 00 00 80 3f [...?u@..&.d?...?]
  |        a8586: a5 38 a2 be 54 d4 66 3f 00 00 80 3f cd ad 1f bf [.8..T.f?...?....]
  |        a8596: 5d 9d 69 3f 00 00 80 3f 2f f8 a2 bf 93 b2 6e 3f [].i?...?/.....n?]
  |        a85a6: 00 00 80 3f 7b d1 15 c0 00 00 80 3f 00 00 80 3f [...?{......?...?]
  |        a85b6: 00 00 00 00 00 00 80 3f 00 00 80 3f bd 57 74 bc [.......?...?.Wt.]
  |        a85c6: f5 ec 60 3f 00 00 80 3f 1c 64 8b bd 68 92 62 3f [..`?...?.d..h.b?]
  |        a85d6: 00 00 80 3f 03 3a 2d be 26 81 64 3f 00 00 80 3f [...?.:-.&.d?...?]
  |        a85e6: 06 23 af be 54 d4 66 3f 00 00 80 3f 91 97 26 bf [.#..T.f?...?..&.]
  |        a85f6: 5d 9d 69 3f 00 00 80 3f cc 37 a1 bf 93 b2 6e 3f [].i?...?.7....n?]
  |        a8606: 00 00 80 3f 25 0d 11 c0 00 00 80 3f 00 00 80 3f [...?%......?...?]
  |        a8616: 00 00 00 00 00 00 80 3f 00 00 80 3f 39 18 6b bc [.......?...?9.k.]
  |        a8626: f5 ec 60 3f 00 00 80 3f 37 6b 72 bd 68 92 62 3f [..`?...?7kr.h.b?]
  |        a8636: 00 00 80 3f 44 ba 16 be 26 81 64 3f 00 00 80 3f [...?D...&.d?...?]
  |        a8646: 27 0d 96 be 54 d4 66 3f 00 00 80 3f 93 5c 0b bf ['...T.f?...?.\..]
  |        a8656: 5d 9d 69 3f 00 00 80 3f 43 32 82 bf 93 b2 6e 3f [].i?...?C2....n?]
  |        a8666: 00 00 80 3f 95 b8 e4 bf 00 00 80 3f 00 00 80 3f [...?.......?...?]
  |        a8676: 00 00 00 00 00 00 80 3f 00 00 80 3f 63 ff 0d bc [.......?...?c...]
  |        a8686: f5 ec 60 3f 00 00 80 3f a3 1d 19 bd 68 92 62 3f [..`?...?....h.b?]
  |        a8696: 00 00 80 3f ea da b6 bd 26 81 64 3f 00 00 80 3f [...?....&.d?...?]
  |        a86a6: f7 06 35 be 54 d4 66 3f 00 00 80 3f 26 6a a5 be [..5.T.f?...?&j..]
  |        a86b6: 5d 9d 69 3f 00 00 80 3f b3 c0 16 bf 93 b2 6e 3f [].i?...?......n?]
  |        a86c6: 00 00 80 3f e1 03 82 bf 00 00 80 3f 00 00 80 3f [...?.......?...?]
  |        a86d6: 00 00 00 00 00 00 80 3f 00 00 80 3f 00 00 00 00 [.......?...?....]
  |        a86e6: f5 ec 60 3f 00 00 80 3f 00 00 00 00 68 92 62 3f [..`?...?....h.b?]
  |        a86f6: 00 00 80 3f 00 00 00 00 26 81 64 3f 00 00 80 3f [...?....&.d?...?]
  |        a8706: 00 00 00 00 54 d4 66 3f 00 00 80 3f 00 00 00 00 [....T.f?...?....]
  |        a8716: 5d 9d 69 3f 00 00 80 3f 00 00 00 00 93 b2 6e 3f [].i?...?......n?]
  |        a8726: 00 00 80 3f 00 00 00 00 00 00 80 3f 00 00 80 3f [...?.......?...?]
  |        a8736: 00 00 00 00 00 00 80 3f 00 00 80 3f 40 30 3c 3e [.......?...?@0<>]
  |        a8746: f5 ec 60 3f 00 00 80 3f a0 fd ca 3e 68 92 62 3f [..`?...?...>h.b?]
  |        a8756: 00 00 80 3f c0 9d 21 3f 26 81 64 3f 00 00 80 3f [...?..!?&.d?...?]
  |        a8766: 00 00 70 3f 54 d4 66 3f 00 00 80 3f d0 70 af 3f [..p?T.f?...?.p.?]
  |        a8776: 5d 9d 69 3f 00 00 80 3f c4 3d 05 40 93 b2 6e 3f [].i?...?.=.@..n?]
  |        a8786: 00 00 80 3f 3c fe 44 40 00 00 80 3f 00 00 80 3f [...?<.D@...?...?]
  |        a8796: 00 00 00 00 00 00 80 3f 00 00 80 3f 60 d6 9b 3e [.......?...?`..>]
  |        a87a6: f5 ec 60 3f 00 00 80 3f 80 b1 20 3f 68 92 62 3f [..`?...?.. ?h.b?]
  |        a87b6: 00 00 80 3f e8 37 85 3f 26 81 64 3f 00 00 80 3f [...?.7.?&.d?...?]
  |        a87c6: 68 ee c6 3f 54 d4 66 3f 00 00 80 3f ca ce 13 40 [h..?T.f?...?...@]
  |        a87d6: 5d 9d 69 3f 00 00 80 3f 12 25 66 40 93 b2 6e 3f [].i?...?.%f@..n?]
  |        a87e6: 00 00 80 3f fd 45 ad 40 00 00 80 3f 00 00 80 3f [...?.E.@...?...?]
  |        a87f6: 00 00 00 00 00 00 80 3f 00 00 80 3f c0 f7 a1 3e [.......?...?...>]
  |        a8806: f5 ec 60 3f 00 00 80 3f 98 cc 38 3f 68 92 62 3f [..`?...?..8?h.b?]
  |        a8816: 00 00 80 3f c4 1a 99 3f 26 81 64 3f 00 00 80 3f [...?...?&.d?...?]
  |        a8826: 50 30 e8 3f 54 d4 66 3f 00 00 80 3f 44 b0 30 40 [P0.?T.f?...?D.0@]
  |        a8836: 5d 9d 69 3f 00 00 80 3f 99 7d 8e 40 93 b2 6e 3f [].i?...?.}.@..n?]
  |        a8846: 00 00 80 3f 4e c6 db 40 00 00 80 3f 00 00 80 3f [...?N..@...?...?]
  |        a8856: 00 00 00 00 00 00 80 3f 00 00 80 3f 60 76 92 3e [.......?...?`v.>]
  |        a8866: f5 ec 60 3f 00 00 80 3f a0 7c 26 3f 68 92 62 3f [..`?...?.|&?h.b?]
  |        a8876: 00 00 80 3f 68 de 8b 3f 26 81 64 3f 00 00 80 3f [...?h..?&.d?...?]
  |        a8886: 08 11 d7 3f 54 d4 66 3f 00 00 80 3f 46 5b 29 40 [...?T.f?...?F[)@]
  |        a8896: 5d 9d 69 3f 00 00 80 3f de 09 90 40 93 b2 6e 3f [].i?...?...@..n?]
  |        a88a6: 00 00 80 3f 59 ff e2 40 00 00 80 3f 00 00 80 3f [...?Y..@...?...?]
  |        a88b6: 00 00 00 00 00 00 80 3f 00 00 80 3f 80 e3 39 3e [.......?...?..9>]
  |        a88c6: f5 ec 60 3f 00 00 80 3f 10 a3 d3 3e 68 92 62 3f [..`?...?...>h.b?]
  |        a88d6: 00 00 80 3f c0 a9 33 3f 26 81 64 3f 00 00 80 3f [...?..3?&.d?...?]
  |        a88e6: 28 87 8c 3f 54 d4 66 3f 00 00 80 3f d4 10 ed 3f [(..?T.f?...?...?]
  |        a88f6: 5d 9d 69 3f 00 00 80 3f 5c 83 54 40 93 b2 6e 3f [].i?...?\.T@..n?]
  |        a8906: 00 00 80 3f c9 59 a0 40 00 00 80 3f 00 00 80 3f [...?.Y.@...?...?]
  |        a8916: 00 00 00 00 00 00 80 3f 00 00 80 3f 00 00 00 00 [.......?...?....]
  |        a8926: f5 ec 60 3f 00 00 80 3f 00 00 00 00 68 92 62 3f [..`?...?....h.b?]
  |        a8936: 00 00 80 3f 00 00 00 00 26 81 64 3f 00 00 80 3f [...?....&.d?...?]
  |        a8946: 00 00 00 00 54 d4 66 3f 00 00 80 3f 00 00 00 00 [....T.f?...?....]
  |        a8956: 5d 9d 69 3f 00 00 80 3f 00 00 00 00 93 b2 6e 3f [].i?...?......n?]
  |        a8966: 00 00 80 3f 00 00 00 00 00 00 80 3f 00 00 80 3f [...?.......?...?]
  |        a8976: 00 00 00 00 00 00 80 3f 00 00 80 3f 40 d8 39 be [.......?...?@.9.]
  |        a8986: f5 ec 60 3f 00 00 80 3f 20 a2 d3 be 68 92 62 3f [..`?...? ...h.b?]
  |        a8996: 00 00 80 3f c0 a9 33 bf 26 81 64 3f 00 00 80 3f [...?..3.&.d?...?]
  |        a89a6: 28 87 8c bf 54 d4 66 3f 00 00 80 3f 98 10 ed bf [(...T.f?...?....]
  |        a89b6: 5d 9d 69 3f 00 00 80 3f 5c 83 54 c0 93 b2 6e 3f [].i?...?\.T...n?]
  |        a89c6: 00 00 80 3f ba 59 a0 c0 00 00 80 3f 00 00 80 3f [...?.Y.....?...?]
  |        a89d6: 00 00 00 00 00 00 80 3f 00 00 80 3f 40 78 92 be [.......?...?@x..]
  |        a89e6: f5 ec 60 3f 00 00 80 3f a0 7c 26 bf 68 92 62 3f [..`?...?.|&.h.b?]
  |        a89f6: 00 00 80 3f 68 de 8b bf 26 81 64 3f 00 00 80 3f [...?h...&.d?...?]
  |        a8a06: 90 10 d7 bf 54 d4 66 3f 00 00 80 3f 28 5b 29 c0 [....T.f?...?([).]
  |        a8a16: 5d 9d 69 3f 00 00 80 3f de 09 90 c0 93 b2 6e 3f [].i?...?......n?]
  |        a8a26: 00 00 80 3f 68 ff e2 c0 00 00 80 3f 00 00 80 3f [...?h......?...?]
  |        a8a36: 00 00 00 00 00 00 80 3f 00 00 80 3f c0 f7 a1 be [.......?...?....]
  |        a8a46: f5 ec 60 3f 00 00 80 3f 20 cc 38 bf 68 92 62 3f [..`?...? .8.h.b?]
  |        a8a56: 00 00 80 3f 88 1a 99 bf 26 81 64 3f 00 00 80 3f [...?....&.d?...?]
  |        a8a66: c8 30 e8 bf 54 d4 66 3f 00 00 80 3f 80 b0 30 c0 [.0..T.f?...?..0.]
  |        a8a76: 5d 9d 69 3f 00 00 80 3f 8a 7d 8e c0 93 b2 6e 3f [].i?...?.}....n?]
  |        a8a86: 00 00 80 3f 4e c6 db c0 00 00 80 3f 00 00 80 3f [...?N......?...?]
  |        a8a96: 00 00 00 00 00 00 80 3f 00 00 80 3f 60 d6 9b be [.......?...?`...]
  |        a8aa6: f5 ec 60 3f 00 00 80 3f 70 b2 20 bf 68 92 62 3f [..`?...?p. .h.b?]
  |        a8ab6: 00 00 80 3f f8 36 85 bf 26 81 64 3f 00 00 80 3f [...?.6..&.d?...?]
  |        a8ac6: 68 ee c6 bf 54 d4 66 3f 00 00 80 3f ac ce 13 c0 [h...T.f?...?....]
  |        a8ad6: 5d 9d 69 3f 00 00 80 3f f4 24 66 c0 93 b2 6e 3f [].i?...?.$f...n?]
  |        a8ae6: 00 00 80 3f ee 45 ad c0 00 00 80 3f 00 00 80 3f [...?.E.....?...?]
  |        a8af6: 00 00 00 00 00 00 80 3f 00 00 80 3f 40 30 3c be [.......?...?@0<.]
  |        a8b06: f5 ec 60 3f 00 00 80 3f a0 fd ca be 68 92 62 3f [..`?...?....h.b?]
  |        a8b16: 00 00 80 3f c0 9d 21 bf 26 81 64 3f 00 00 80 3f [...?..!.&.d?...?]
  |        a8b26: 00 00 70 bf 54 d4 66 3f 00 00 80 3f d0 70 af bf [..p.T.f?...?.p..]
  |        a8b36: 5d 9d 69 3f 00 00 80 3f c4 3d 05 c0 93 b2 6e 3f [].i?...?.=....n?]
  |        a8b46: 00 00 80 3f 3c fe 44 c0 00 00 80 3f 00 00 80 3f [...?<.D....?...?]
  |        a8b56: 00 00 00 00 00 00 80 3f 00 00 80 3f 00 00 00 00 [.......?...?....]
  |        a8b66: f5 ec 60 3f 00 00 80 3f 00 00 00 00 68 92 62 3f [..`?...?....h.b?]
  |        a8b76: 00 00 80 3f 00 00 00 00 26 81 64 3f 00 00 80 3f [...?....&.d?...?]
  |        a8b86: 00 00 00 00 54 d4 66 3f 00 00 80 3f 00 00 00 00 [....T.f?...?....]
  |        a8b96: 5d 9d 69 3f 00 00 80 3f 00 00 00 00 93 b2 6e 3f [].i?...?......n?]
  |        a8ba6: 00 00 80 3f 00 00 00 00 00 00 80 3f 00 00 80 3f [...?.......?...?]
  |        a8bb6: 00 00 00 00 00 00 80 3f 00 00 80 3f 40 30 3c 3e [.......?...?@0<>]
  |        a8bc6: f5 ec 60 3f 00 00 80 3f a0 fd ca 3e 68 92 62 3f [..`?...?...>h.b?]
  |        a8bd6: 00 00 80 3f c0 9d 21 3f 26 81 64 3f 00 00 80 3f [...?..!?&.d?...?]
  |        a8be6: 00 00 70 3f 54 d4 66 3f 00 00 80 3f d0 70 af 3f [..p?T.f?...?.p.?]
  |        a8bf6: 5d 9d 69 3f 00 00 80 3f c4 3d 05 40 93 b2 6e 3f [].i?...?.=.@..n?]
  |        a8c06: 00 00 80 3f 3c fe 44 40 00 00 80 3f 00 00 80 3f [...?<.D@...?...?]
  |        a8c16: 00 00 00 00 00 00 80 3f 00 00 80 3f 80 d4 9b 3e [.......?...?...>]
  |        a8c26: f5 ec 60 3f 00 00 80 3f 80 b1 20 3f 68 92 62 3f [..`?...?.. ?h.b?]
  |        a8c36: 00 00 80 3f 70 37 85 3f 26 81 64 3f 00 00 80 3f [...?p7.?&.d?...?]
  |        a8c46: e0 ee c6 3f 54 d4 66 3f 00 00 80 3f ac ce 13 40 [...?T.f?...?...@]
  |        a8c56: 5d 9d 69 3f 00 00 80 3f f4 24 66 40 93 b2 6e 3f [].i?...?.$f@..n?]
  |        a8c66: 00 00 80 3f 0c 46 ad 40 00 00 80 3f 00 00 80 3f [...?.F.@...?...?]
  |        a8c76: 00 00 00 00 00 00 80 3f 00 00 80 3f c0 f7 a1 3e [.......?...?...>]
  |         [snip 53264 bytes]
  | 53) NoiseProfile = 0.000206411535820554 3.04830497207869e-07
  |     - Tag 0xc761 (16 bytes, double[2]):
  |        b5c96: 62 cd 7b 97 05 0e 2b 3f be bc 68 b4 f2 74 94 3e [b.{...+?..h..t.>]
  | 54) NewRawImageDigest = ........+.o.0...
  |     - Tag 0xc7a7 (16 bytes, int8u[16] read as undef[16]):
  |        b5ca6: 90 e0 8e c5 0e a2 2e 0b 2b c9 6f b6 30 e2 ce b2 [........+.o.0...]
