  ExifToolVersion = 13.59
  FileName = media_53.png
  Directory = C:/Users/micro/IdeaProjects/kim/src/commonTest/resources/de/stefan_oltmann/kim/testdata/full
  FileSize = 1222934
  FileModifyDate = 1776264339.15006
  FileAccessDate = 1786601581.77503
  FileCreateDate = 1776264339.14906
  FilePermissions = 33206
  FileType = PNG
  FileTypeExtension = PNG
  MIMEType = image/png
PNG IHDR (13 bytes):
      0010: 00 00 03 e8 00 00 02 9c 08 06 00 00 00          [.............]
  + [BinaryData directory, 13 bytes, Big-endian]
  | ImageWidth = 1000
  | - Tag 0x0000 (4 bytes, int32u[1]):
  |     0000: 00 00 03 e8                                     [....]
  | ImageHeight = 668
  | - Tag 0x0004 (4 bytes, int32u[1]):
  |     0004: 00 00 02 9c                                     [....]
  | BitDepth = 8
  | - Tag 0x0008 (1 bytes, int8u[1]):
  |     0008: 08                                              [.]
  | ColorType = 6
  | - Tag 0x0009 (1 bytes, int8u[1]):
  |     0009: 06                                              [.]
  | Compression = 0
  | - Tag 0x000a (1 bytes, int8u[1]):
  |     000a: 00                                              [.]
  | Filter = 0
  | - Tag 0x000b (1 bytes, int8u[1]):
  |     000b: 00                                              [.]
  | Interlace = 0
  | - Tag 0x000c (1 bytes, int8u[1]):
  |     000c: 00                                              [.]
PNG zTXt (11219 bytes):
      0029: 52 61 77 20 70 72 6f 66 69 6c 65 20 74 79 70 65 [Raw profile type]
      0039: 20 65 78 69 66 00 00 78 da ed 9d 59 72 e4 38 d6 [ exif..x...Yr.8.]
      0049: ac df b9 8a 5e 02 31 03 cb c1 68 f6 ef e0 2e ff [....^.1...h.....]
      0059: 7e 0e 32 a4 d0 94 53 55 75 f5 83 94 a6 94 82 41 [~.2...SUu......A]
      0069: 82 c0 19 fc b8 03 08 ea 98 ff ef ff d6 f1 9f ff [................]
      0079: fc c7 24 53 ce c3 87 94 63 89 f1 e4 cb 17 5f 6c [..$S....c....._l]
      0089: e5 97 7c ee 2f 63 af 1f a7 df ff ef af 99 4f 77 [..|./c........Ow]
      0099: 1f 7d 73 fc 28 fd bc 4e b7 1c d2 29 ee be 20 5e [.}s.(..N...).. ^]
      00a9: 3f cf c5 71 9d 71 bf 9e fd be c9 79 1f 9f 77 43 [?..q.q.....y..wC]
      00b9: cb be dc fd 6a e8 be c3 e3 a7 a9 fc 16 9e 8e df [....j...........]
      00c9: bf 99 f6 f6 f8 c1 30 f6 af 36 bf 6b e8 be 81 33 [......0..6.k...3]
      00d9: f7 9d c7 53 4f 74 dc 5e c7 8d bf 1b 32 f3 7e a3 [...SOt.^....2.~.]
      00e9: dd 17 d4 bb 01 7b 1d f7 d1 a7 37 37 b8 bf b0 e7 [.....{....77....]
      00f9: 9b e3 c7 e3 8d 92 b3 7d d3 50 bf 4e 89 25 a7 67 [.......}.P.N.%.g]
      0109: a3 86 7a 8f 20 e4 fc c6 d8 3d db 70 5d 59 ce e7 [..z. ....=.p]Y..]
      0119: ae fa 78 f7 b4 da cb cc f9 f5 db bb 68 e2 8c 2b [..x.........h..+]
      0129: ce d7 df 8f 38 ed e9 83 5f 81 b1 b8 e4 4e 4f 43 [....8..._....NOC]
      0139: f6 ee cd e3 6e ef 5f fb c4 c0 46 e0 be ce da e9 [....n._...F.....]
      0149: 8c 3b ed 3c 9c 73 b7 4d 9c be 9d ab fc 0c fb 7f [.;.<.s.M........]
      0159: c6 ca 49 91 df 3d ef 54 bd cb 50 3d 71 17 e3 4a [..I..=.T..P=q..J]
      0169: 3e 2e 3b 93 4d 41 bd f2 ee b0 c3 db 50 b8 c4 d1 [>.;.MA......P...]
      0179: f6 a3 41 e3 ca 6e 2a f1 bf 71 9e 77 cf 7d c4 f2 [..A..n*..q.w.}..]
      0189: 4a 47 e8 99 c5 0c a5 72 af 3b 04 b6 b1 57 be 9c [JG.....r.;...W..]
      0199: 5d c6 eb 1b f7 d7 ee ae b5 39 7f 16 63 36 bd 1e []........9..c6..]
      01a9: bf 1a 7a 78 ea 7c 77 c1 23 96 ec 5b 0f 3d ce e7 [..zx.|w.#..[.=..]
      01b9: d6 e7 99 64 b4 bb a1 db 3a 1f 3c 77 3e f2 ca bf [...d....:.<w>...]
      01c9: 3d 6e fa 23 df 8a 79 d3 d0 0e c5 dd 13 8c 55 5f [=n.#..y.......U_]
      01d9: ef ec 1e 99 67 cb 9b 21 bb d7 1b bc 9c bf 1b f2 [....g..!........]
      01e9: 8f 0b 52 b1 6f 86 16 1e 23 78 7b fc c5 84 b5 bc [..R.o...#x{.....]
      01f9: 35 b6 bf ef 90 3a 6f 24 25 b0 b5 77 3b ee b2 44 [5....:o$%..w;..D]
      0209: b9 a2 fe 46 06 bc 9d f6 71 f3 7a fc 78 f3 86 fd [...F....q.z.x...]
      0219: fc 82 9d 37 b7 2d 6e 9b 12 84 9c 24 f0 f2 4f 3d [...7.-n....$..O=]
      0229: aa 42 9d 2b 1f ce 67 ef 90 02 97 7f 66 7d 63 a3 [.B.+..g.....f}c.]
      0239: 68 ef b4 5a f5 ed d0 62 bd de 30 67 b5 9f b9 1f [h..Z...b..0g....]
      0249: 50 f2 9f 21 00 3d f2 6f e2 e8 e5 04 f7 c5 05 f1 [P..!.=.o........]
      0259: f3 e3 4e 37 b8 b1 6a 37 94 ee ae 3a dd 21 bc da [..N7..j7...:.!..]
      0269: 82 80 bf 8e fb eb 02 d3 1f 16 bb 8f 87 bb a1 76 [...............v]
      0279: 37 d4 ba 0d 6f 6e 65 5e e2 f6 02 b7 74 be d8 fc [7...one^....t...]
      0289: fc 22 1f 8f cf 12 f2 57 13 77 b7 9c 1f 08 f9 38 [.".....W.w.....8]
      0299: 10 ce 77 d1 f6 49 6e 3d 92 d5 df 21 e2 5e cd 70 [..w..In=...!.^.p]
      02a9: 50 66 2e 8f 95 db 4b af a0 7f 43 f0 7d ec be 33 [Pf....K...C.}..3]
      02b9: e5 67 9f 5f ea 75 fc 71 df c3 dc 0d 9d d9 5f 17 [.g._.u.q......_.]
      02c9: dc 06 b5 8f e3 e5 3e 1e 5f 8a c2 75 63 73 1d 5f [......>._..ucs._]
      02d9: 77 15 3a 48 c0 eb 0d 77 bd 61 5f a2 77 c7 f2 69 [w.:H...w.a_.w..i]
      02e9: c2 7d 41 bc e2 9d 97 d7 f1 78 df 60 dd 3d f2 55 [.}A......x.`.=.U]
      02f9: ce e3 8d fc f6 8d f0 38 7e f7 c8 3f a2 fa 3e 6e [.......8~..?..>n]
      0309: cf eb b8 79 18 bb f6 fb 8d bb ab d7 2b 46 e8 ef [...y........+F..]
      0319: e3 fe 3a de ef 02 39 ee 33 ec dd 53 e3 1e b5 7f [..:...9.3..S....]
      0329: 5e 56 b1 e9 1e da 5d cb 9b bd 8f c7 6b 9c b9 3d [^V....].....k..=]
      0339: 6c 7d 5b 71 bc 24 77 bc 6a 7f bc 8a 71 49 2f 1e [l}[q.$w.j...qI/.]
      0349: db 9d 5d 71 fb f1 b2 94 ee 7c 07 e5 8a d6 bc e4 [..]q.....|......]
      0359: e1 1b f7 cf 0b 7b 76 bb 4f ec c2 c4 eb 78 79 1c [.....{v.O....xy.]
      0369: af 8f 18 ba 8f 87 fb 06 b7 97 0f 7b 37 54 eb 7d [...........{7T.}]
      0379: 87 db cd be 5e c7 cd 0d a1 2f c1 18 f6 40 af fb [....^..../...@..]
      0389: 39 85 c1 dd 50 b8 ef bc 8d 96 5f bb 9a f2 75 7c [9...P....._...u|]
      0399: bc 6b e8 e5 6b 5d 0d cd 87 d7 f2 69 ed 4b f8 bb [.k..k].....i.K..]
      03a9: d7 88 0e 77 44 95 3b 15 1e d0 d4 ec 75 bc 3e aa [...wD.;.....u.>.]
      03b9: de 2b d1 ba 43 f0 ce 1f fb b8 62 3e a0 e2 82 81 [.+..C.....b>....]
      03c9: 47 4f 83 7d 87 14 e7 3b 5a e3 76 45 7a 7c df af [GO.}...;Z.vEz|..]
      03d9: 83 50 1b a2 40 41 87 03 f8 cd 06 1e ef 1b 8e 05 [.P..@A..........]
      03e9: fb f2 f3 b8 7e 39 3f 36 f2 9b df c7 9f 5c f4 dd [....~9?6.....\..]
      03f9: d0 77 43 df 0d fd 4f 35 b4 29 9f 7f 3a 62 f6 ff [.wC...O5.)..:b..]
      0409: 92 11 85 ff 0b 80 92 f6 ef e1 f9 fd e3 e9 d4 fb [................]
      0419: b7 1b 46 f8 b2 17 2f d9 c7 ef ef e7 5b 9a e7 9f [..F.../.....[...]
      0429: a2 35 f1 a5 ed a7 e6 3e fd dd 5f 32 c7 8a e0 c4 [.5.....>.._2....]
      0439: 7d 1b b3 af f7 17 b0 f9 7d 28 ec e6 dc 7e cb 32 [}.......}(...~.2]
      0449: 04 f7 f4 ca dd af 2e d4 cc fb d8 a5 9d ae 6b a3 [..............k.]
      0459: 1a b2 ea fe 7e 69 df f4 c9 ee 8b f7 90 f4 ea a5 [....~i..........]
      0469: 3f d7 b1 74 5d b1 cf d9 0d 1f bb 8b af 36 da dd [?..t]........6..]
      0479: 74 79 9f 10 6f 2b 5d 83 89 bb b1 b4 2f bb 7e 57 [ty..o+]...../.~W]
      0489: 4f ed 7e 65 ae a1 95 fb 44 f3 a6 31 fb f4 7b bc [O.~e....D..1..{.]
      0499: 2f f0 77 5f e3 d3 ab 7c d9 e9 78 5c f4 74 d9 eb [/.w_...|..x\.t..]
      04a9: f0 ae fb bb fb ee 7a ef b2 a3 b7 0f 7d 19 f6 20 [......z.....}.. ]
      04b9: cb 65 a3 cf 06 a7 0b f3 cb f0 fc d3 3b ea 51 7a [.e..........;.Qz]
      04c9: 7a 55 de f6 c8 bc 3a f2 ef ea d1 77 f6 7f 37 f4 [zU....:....w..7.]
      04d9: dd d0 77 43 df 0d fd a3 0d a9 de be 27 14 f6 45 [..wC........'..E]
      04e9: 81 98 77 75 ff 9e fc bd de 3f 6e 70 7f 9c e0 5e [..wu.....?np...^]
      04f9: 4e 78 ae b9 17 d0 3f 48 45 fa ac 4f c7 df 33 b0 [Nx....?HE..O..3.]
      0509: a7 86 ce b7 c3 78 3b 60 b3 e5 96 57 29 df 72 2b [.....x;`...W).r+]
      0519: bd 0c fb 43 43 8f f1 5e 74 21 dd 56 b0 2f f6 b0 [...CC..^t!.V./..]
      0529: 77 05 33 5f 51 ae e3 a6 03 8f 0b c2 6d 8b 2f 2f [w.3_Q.......m.//]
      0539: 78 58 ea 3e 27 f1 9e e6 16 cd f1 e5 05 bb ae ee [xX.>'...........]
      0549: e2 f9 a0 33 f6 52 8c 9f 5f 71 bc 9c 14 9f c9 dc [...3.R.._q......]
      0559: 3e 92 3e 1c c9 4f 47 c2 9b 9e 19 95 ec fc c2 10 [>.>..OG.........]
      0569: 3f ef 5b 7c 7b 09 fd 74 1f ed 75 bc b9 24 bd bb [?.[|{..t..u..$..]
      0579: 24 71 fc 07 16 db 0e 72 fb 46 3f 8e a3 db 93 97 [$q.....r.F?.....]
      0589: b5 c4 2b c3 1d f9 76 37 57 64 c3 dd 68 86 fa dd [..+...v7Wd..h...]
      0599: 82 db 6f d7 a7 eb f0 7d 2c 72 82 df bd b8 58 5b [..o....},r....X[]
      05a9: d8 83 ca 9a 37 b9 d7 44 d6 35 83 c1 cb 70 f8 bd [....7..D.5...p..]
      05b9: ba b3 e7 ad e6 a4 b3 7f fa 7d bc 3f f0 bb 5f 26 [.........}.?.._&]
      05c9: 9c 46 df c7 e3 97 bf f2 fd 66 4a e3 57 be f2 58 [.F.......fJ.W..X]
      05d9: 35 ad d5 5f be cd 9a 8f ef 4f 1b ca eb 34 2f df [5.._.....O...4/.]
      05e9: 06 ba 78 7f 27 77 7e 39 f8 1f f6 a8 98 7b fd 68 [..x.'w~9.....{.h]
      05f9: ad f9 fc fb 22 06 9e 5f 9f 63 8d e3 ab 93 7f d7 [....".._.c......]
      0609: e8 c7 bb 29 70 fb 66 d2 8a 2f 4d 99 e9 3b 8d 6b [...)p.f../M..;.k]
      0619: 2e e9 f1 33 b8 d7 f9 db e6 ee 49 df 9a 9e d7 65 [...3......I....e]
      0629: be f2 f3 f3 44 f9 3b 13 64 cd 43 de b3 79 b1 dc [....D.;.d.C..y..]
      0639: 73 6b 8f 19 d0 f4 3a 73 9c 7f 36 ae a2 1e 7d d1 [sk....:s..6...}.]
      0649: 0b 5f df 4e 41 97 7e 0f a3 5d df be be b3 91 7f [._.NA.~..]......]
      0659: 9d 30 fe 4b 5f 3f 74 ff 5a af bd d3 ef 5a 4b d3 [.0.K_?t.Z....ZK.]
      0669: cf ea 7e b3 a1 e7 af d9 f6 64 26 99 8d 4f c6 27 [..~......d&..O.']
      0679: 43 fb a1 97 cc 2f 78 f0 77 7b f4 f8 0a 77 4f c2 [C..../x.w{...wO.]
      0689: d3 b2 87 5b 3f 68 48 b6 78 fe 96 47 fa fd fd c1 [...[?hH.x..G....]
      0699: d3 ee 27 3d 0a ee e7 3d 7c d8 ea f8 ec e0 fb 2f [..'=...=|....../]
      06a9: 9b 5f a7 a1 7f cd fd e9 dd bb 3f 7b ed de 37 e4 [._........?{..7.]
      06b9: be 3e e1 6f f1 5a f6 3f 6f e0 6d 43 e6 27 43 78 [.>.o.Z.?o.mC.'Cx]
      06c9: df db 70 fd 0c 78 73 84 cf 7a 34 ff 30 d1 b6 fb [..p..xs..z4.0...]
      06d9: d3 d5 83 3d 77 3f fe 62 d2 2a 4a 43 7c 5a 4e 7d [...=w?.b.*JC|ZN}]
      06e9: 32 f8 5e e4 f5 7f 31 fb 3f d8 c6 be 07 e3 af 1a [2.^...1.?.......]
      06f9: 32 b7 2d f3 bd 96 f0 c8 a5 27 b4 a4 40 9c 21 5d [2.-......'..@.!]]
      0709: cb 62 69 5e 2b 17 6b fd cc fd f7 7a 46 5f 6f 57 [.bi^+.k....zF_oW]
      0719: 4a b5 6a e3 9e 7b 66 ff 20 fb ff 9a 8d de c5 59 [J.j..{f. ......Y]
      0729: bc c8 c3 6b 8e 5e 6b 47 4f 3d 8c 6f 8d 99 ec db [...k.^kGO=.o....]
      0739: 46 6c 7e fb fe 7c aa 84 c7 cb b2 ce fb 13 cc af [Fl~..|..........]
      0749: 0f 6b ec 86 7e d0 c0 ef dc e0 f8 ea 0e bf db c3 [.k..~...........]
      0759: e3 57 b3 fb ef 8b ec 2f f0 3c dd 3f 8f e7 03 bf [.W...../.<.?....]
      0769: f4 65 7f a7 47 f5 79 ad ff 8b a1 bb bf 61 68 7f [.e..G.y......ah.]
      0779: 66 23 f3 6b 91 7f bc ec 05 31 d7 1a ed cb cf 7b [f#.k.....1.....{]
      0789: 68 90 fe eb 58 96 ee b8 8e db f2 59 8f 7e 42 d2 [h...X......Y.~B.]
      0799: ab bf 56 8d 43 f9 d9 d0 dc 2f 30 b2 7f 2a 8e 3e [..V.C..../0..*.>]
      07a9: e0 d6 7c d7 50 7c 87 cd f1 27 58 9d dd 79 da f0 [..|.P|...'X..y..]
      07b9: 83 1e 7d 68 30 fc e4 06 f9 7d 43 f9 33 ac fd c1 [..}h0....}C.3...]
      07c9: 6b f3 af 04 e4 8f 92 f7 79 1f db 4b f1 e3 a7 f6 [k.......y..K....]
      07d9: 0e 7c 95 94 ff 15 f7 7f d9 d0 73 97 7f b5 c7 ff [.|........s.....]
      07e9: ae b1 3f eb f1 f1 57 8d fc cf 0e ed 4f 8c fc ef [..?...W.....O...]
      07f9: 1a fb 47 3d 3e 7e c9 c8 e6 af f6 e8 67 37 71 bf [..G=>~......g7q.]
      0809: 39 b4 49 f1 6c a0 60 05 bb c7 fc f8 fa 63 43 bf [9.I.l.`......cC.]
      [snip 9187 bytes]
  + [Decompressed EXIF_Profile directory, 34873 bytes]
  |     0000: 0a 65 78 69 66 0a 20 20 20 31 37 31 39 30 0a 34 [.exif.   17190.4]
  |     0010: 35 37 38 36 39 36 36 30 30 30 30 34 39 34 39 32 [5786966000049492]
  |     0020: 61 30 30 30 38 30 30 30 30 30 30 31 32 30 30 30 [a000800000012000]
  |     0030: 30 30 31 30 34 30 30 30 31 30 30 30 30 30 30 65 [001040001000000e]
  |     0040: 38 30 33 30 30 30 30 30 31 30 31 30 34 30 30 30 [8030000010104000]
  |     0050: 31 30 30 30 30 30 30 0a 39 63 30 32 30 30 30 30 [1000000.9c020000]
  |     0060: 30 32 30 31 30 33 30 30 30 33 30 30 30 30 30 30 [0201030003000000]
  |     0070: 65 36 30 30 30 30 30 30 30 66 30 31 30 32 30 30 [e60000000f010200]
  |     0080: 30 36 30 30 30 30 30 30 65 63 30 30 30 30 30 30 [06000000ec000000]
  |     0090: 31 30 30 31 30 32 30 30 30 65 30 30 30 30 30 30 [100102000e000000]
  |     00a0: 0a 66 32 30 30 30 30 30 30 31 32 30 31 30 33 30 [.f20000001201030]
  |     00b0: 30 30 31 30 30 30 30 30 30 30 31 30 30 30 30 30 [0010000000100000]
  |     00c0: 30 31 61 30 31 30 35 30 30 30 31 30 30 30 30 30 [01a0105000100000]
  |     00d0: 30 30 30 30 31 30 30 30 30 31 62 30 31 30 35 30 [0000100001b01050]
  |     00e0: 30 30 31 30 30 30 30 30 30 0a 30 38 30 31 30 30 [001000000.080100]
  |     00f0: 30 30 32 38 30 31 30 33 30 30 30 31 30 30 30 30 [0028010300010000]
  |     0100: 30 30 30 32 30 30 30 30 30 30 33 31 30 31 30 32 [0002000000310102]
  |     0110: 30 30 30 64 30 30 30 30 30 30 31 30 30 31 30 30 [000d000000100100]
  |     0120: 30 30 33 32 30 31 30 32 30 30 31 34 30 30 30 30 [0032010200140000]
  |     0130: 30 30 0a 31 65 30 31 30 30 30 30 33 62 30 31 30 [00.1e0100003b010]
  |     0140: 32 30 30 30 61 30 30 30 30 30 30 33 32 30 31 30 [2000a00000032010]
  |     0150: 30 30 30 34 36 34 37 30 33 30 30 30 31 30 30 30 [0004647030001000]
  |     0160: 30 30 30 30 30 30 30 30 30 30 30 34 39 34 37 30 [0000000000049470]
  |     0170: 33 30 30 30 31 30 30 30 30 30 30 0a 30 30 30 30 [30001000000.0000]
  |     0180: 30 30 30 30 39 38 38 32 30 32 30 30 30 61 30 30 [0000988202000a00]
  |     0190: 30 30 30 30 33 63 30 31 30 30 30 30 36 39 38 37 [00003c0100006987]
  |     01a0: 30 34 30 30 30 31 30 30 30 30 30 30 35 61 30 31 [0400010000005a01]
  |     01b0: 30 30 30 30 32 35 38 38 30 34 30 30 30 31 30 30 [0000258804000100]
  |     01c0: 30 30 30 30 0a 63 38 32 35 30 30 30 30 30 33 39 [0000.c8250000039]
  |     01d0: 30 30 32 30 30 31 34 30 30 30 30 30 30 34 36 30 [0020014000000460]
  |     01e0: 31 30 30 30 30 33 61 32 36 30 30 30 30 30 38 30 [100003a260000080]
  |     01f0: 30 30 38 30 30 30 38 30 30 34 33 36 31 36 65 36 [00800080043616e6]
  |     0200: 66 36 65 30 30 34 33 36 31 36 65 36 66 0a 36 65 [f6e0043616e6f.6e]
  |     0210: 32 30 34 35 34 66 35 33 32 30 33 37 33 30 34 34 [20454f5320373044]
  |     0220: 30 30 32 63 30 31 30 30 30 30 30 31 30 30 30 30 [002c010000010000]
  |     0230: 30 30 32 63 30 31 30 30 30 30 30 31 30 30 30 30 [002c010000010000]
  |     0240: 30 30 34 37 34 39 34 64 35 30 32 30 33 32 32 65 [0047494d5020322e]
  |     0250: 33 31 33 30 32 65 0a 33 33 33 30 30 30 30 30 33 [31302e.333000003]
  |     0260: 32 33 30 33 32 33 33 33 61 33 30 33 35 33 61 33 [23032333a30353a3]
  |     0270: 30 33 38 32 30 33 31 33 36 33 61 33 34 33 32 33 [0382031363a34323]
  |     0280: 61 33 32 33 33 30 30 36 34 37 38 36 36 36 66 37 [a3233006478666f7]
  |     0290: 34 36 66 32 65 37 32 37 35 30 30 34 33 34 33 0a [46f2e7275004343.]
  |     02a0: 32 64 34 32 35 39 32 30 33 33 32 65 33 30 30 30 [2d425920332e3000]
  |     02b0: 33 32 33 30 33 31 33 39 33 61 33 30 33 37 33 61 [323031393a30373a]
  |     02c0: 33 31 33 34 32 30 33 30 33 39 33 61 33 32 33 31 [31342030393a3231]
  |     02d0: 33 61 33 31 33 31 30 30 32 32 30 30 39 61 38 32 [3a31310022009a82]
  |     02e0: 30 35 30 30 30 31 30 30 0a 30 30 30 30 66 38 30 [05000100.0000f80]
  |     02f0: 32 30 30 30 30 39 64 38 32 30 35 30 30 30 31 30 [200009d820500010]
  |     0300: 30 30 30 30 30 30 30 30 33 30 30 30 30 32 32 38 [0000000030000228]
  |     0310: 38 30 33 30 30 30 31 30 30 30 30 30 30 30 31 30 [8030001000000010]
  |     0320: 30 30 30 30 30 32 37 38 38 30 33 30 30 30 31 30 [0000027880300010]
  |     0330: 30 0a 30 30 30 30 66 61 30 30 30 30 30 30 33 30 [0.0000fa00000030]
  |     0340: 38 38 30 33 30 30 30 31 30 30 30 30 30 30 30 32 [8803000100000002]
  |     0350: 30 30 30 30 30 30 33 32 38 38 30 34 30 30 30 31 [0000003288040001]
  |     0360: 30 30 30 30 30 30 66 61 30 30 30 30 30 30 30 30 [000000fa00000000]
  |     0370: 39 30 30 37 30 30 30 34 30 30 0a 30 30 30 30 33 [9007000400.00003]
  |     0380: 30 33 32 33 33 33 30 30 33 39 30 30 32 30 30 31 [0323330039002001]
  |     0390: 34 30 30 30 30 30 30 30 38 30 33 30 30 30 30 30 [4000000080300000]
  |     03a0: 34 39 30 30 32 30 30 31 34 30 30 30 30 30 30 31 [4900200140000001]
  |     03b0: 63 30 33 30 30 30 30 30 31 39 31 30 37 30 30 30 [c030000019107000]
  |     03c0: 34 30 30 0a 30 30 30 30 30 31 30 32 30 33 30 30 [400.000001020300]
  |     03d0: 30 31 39 32 30 61 30 30 30 31 30 30 30 30 30 30 [01920a0001000000]
  |     03e0: 33 30 30 33 30 30 30 30 30 32 39 32 30 35 30 30 [3003000002920500]
  |     03f0: 30 31 30 30 30 30 30 30 33 38 30 33 30 30 30 30 [0100000038030000]
  |     0400: 30 34 39 32 30 61 30 30 30 31 30 30 0a 30 30 30 [04920a000100.000]
  |     0410: 30 34 30 30 33 30 30 30 30 30 37 39 32 30 33 30 [0400300000792030]
  |     0420: 30 30 31 30 30 30 30 30 30 30 35 30 30 30 30 30 [0010000000500000]
  |     0430: 30 30 39 39 32 30 33 30 30 30 31 30 30 30 30 30 [0099203000100000]
  |     0440: 30 31 30 30 30 30 30 30 30 30 61 39 32 30 35 30 [0100000000a92050]
  |     0450: 30 30 31 30 30 0a 30 30 30 30 34 38 30 33 30 30 [00100.0000480300]
  |     0460: 30 30 37 63 39 32 30 37 30 30 31 32 32 32 30 30 [007c920700122200]
  |     0470: 30 30 35 30 30 33 30 30 30 30 39 30 39 32 30 32 [0050030000909202]
  |     0480: 30 30 30 33 30 30 30 30 30 30 33 34 33 37 30 30 [0003000000343700]
  |     0490: 30 30 39 31 39 32 30 32 30 30 30 33 30 30 0a 30 [00919202000300.0]
  |     04a0: 30 30 30 33 34 33 37 30 30 30 30 39 32 39 32 30 [0003437000092920]
  |     04b0: 32 30 30 30 33 30 30 30 30 30 30 33 34 33 37 30 [2000300000034370]
  |     04c0: 30 30 30 30 30 61 30 30 37 30 30 30 34 30 30 30 [00000a0070004000]
  |     04d0: 30 30 30 33 30 33 31 33 30 33 30 30 32 61 30 30 [0003031303002a00]
  |     04e0: 34 30 30 30 31 30 30 0a 30 30 30 30 61 30 30 66 [4000100.0000a00f]
  |     04f0: 30 30 30 30 30 33 61 30 30 34 30 30 30 31 30 30 [000003a004000100]
  |     0500: 30 30 30 30 36 65 30 61 30 30 30 30 30 65 61 32 [00006e0a00000ea2]
  |     0510: 30 35 30 30 30 31 30 30 30 30 30 30 36 32 32 35 [0500010000006225]
  |     0520: 30 30 30 30 30 66 61 32 30 35 30 30 30 31 30 30 [00000fa205000100]
  |     0530: 0a 30 30 30 30 36 61 32 35 30 30 30 30 31 30 61 [.00006a25000010a]
  |     0540: 32 30 33 30 30 30 31 30 30 30 30 30 30 30 32 30 [2030001000000020]
  |     0550: 30 30 30 30 30 30 31 61 34 30 33 30 30 30 31 30 [0000001a40300010]
  |     0560: 30 30 30 30 30 30 30 30 30 30 30 30 30 30 32 61 [000000000000002a]
  |     0570: 34 30 33 30 30 30 31 30 30 0a 30 30 30 30 30 31 [403000100.000001]
  |     0580: 30 30 30 30 30 30 30 33 61 34 30 33 30 30 30 31 [00000003a4030001]
  |     0590: 30 30 30 30 30 30 30 30 30 30 30 30 30 30 30 36 [0000000000000006]
  |     05a0: 61 34 30 33 30 30 30 31 30 30 30 30 30 30 30 30 [a403000100000000]
  |     05b0: 30 30 30 30 30 30 33 31 61 34 30 32 30 30 30 64 [00000031a402000d]
  |     05c0: 30 30 0a 30 30 30 30 37 32 32 35 30 30 30 30 33 [00.0000722500003]
  |     05d0: 32 61 34 30 35 30 30 30 34 30 30 30 30 30 30 38 [2a40500040000008]
  |     05e0: 30 32 35 30 30 30 30 33 34 61 34 30 32 30 30 31 [025000034a402001]
  |     05f0: 63 30 30 30 30 30 30 61 30 32 35 30 30 30 30 33 [c000000a02500003]
  |     0600: 35 61 34 30 32 30 30 30 62 30 30 0a 30 30 30 30 [5a402000b00.0000]
  |     0610: 62 63 32 35 30 30 30 30 30 30 30 30 30 30 30 30 [bc25000000000000]
  |     0620: 30 31 30 30 30 30 30 30 39 30 30 31 30 30 30 30 [0100000090010000]
  |     0630: 34 37 30 30 30 30 30 30 30 61 30 30 30 30 30 30 [470000000a000000]
  |     0640: 33 32 33 30 33 31 33 39 33 61 33 30 33 37 33 61 [323031393a30373a]
  |     0650: 33 31 33 34 0a 32 30 33 30 33 39 33 61 33 32 33 [3134.2030393a323]
  |     0660: 31 33 61 33 31 33 31 30 30 33 32 33 30 33 31 33 [13a3131003230313]
  |     0670: 39 33 61 33 30 33 37 33 61 33 31 33 34 32 30 33 [93a30373a3134203]
  |     0680: 30 33 39 33 61 33 32 33 31 33 61 33 31 33 31 30 [0393a32313a31310]
  |     0690: 30 30 30 61 30 30 38 30 30 30 30 30 30 0a 30 31 [000a008000000.01]
  |     06a0: 30 30 30 30 61 30 30 35 30 30 30 30 30 30 30 31 [0000a00500000001]
  |     06b0: 30 30 30 30 30 30 30 30 30 30 30 31 30 30 30 30 [0000000000010000]
  |     06c0: 30 30 66 61 30 30 30 30 30 30 30 31 30 30 30 30 [00fa000000010000]
  |     06d0: 30 30 32 34 30 30 30 33 30 30 30 33 30 30 30 34 [0024000300030004]
  |     06e0: 30 30 30 30 30 30 0a 30 36 30 35 30 30 30 30 31 [000000.060500001]
  |     06f0: 39 30 30 30 32 30 30 30 32 30 30 30 30 30 30 33 [9000200020000003]
  |     0700: 31 30 30 30 30 30 30 39 38 30 30 30 32 30 30 30 [1000000980002000]
  |     0710: 38 30 30 30 30 30 30 30 65 30 35 30 30 30 30 39 [80000000e0500009]
  |     0720: 61 30 30 30 32 30 30 31 30 30 30 30 30 30 30 0a [a00020010000000.]
  |     0730: 31 36 30 35 30 30 30 30 30 38 34 30 30 32 30 30 [1605000008400200]
  |     0740: 30 63 30 30 30 30 30 30 32 36 30 35 30 30 30 30 [0c00000026050000]
  |     0750: 30 39 34 30 30 32 30 30 30 36 30 30 30 30 30 30 [0940020006000000]
  |     0760: 33 32 30 35 30 30 30 30 31 31 34 30 30 32 30 30 [3205000011400200]
  |     0770: 66 38 30 31 30 30 30 30 0a 33 38 30 35 30 30 30 [f8010000.3805000]
  |     0780: 30 31 33 34 30 30 32 30 30 32 34 30 30 30 30 30 [0134002002400000]
  |     0790: 30 33 30 30 37 30 30 30 30 31 35 34 30 30 32 30 [0300700001540020]
  |     07a0: 30 66 36 30 33 30 30 30 30 35 34 30 37 30 30 30 [0f60300005407000]
  |     07b0: 30 31 36 34 30 30 32 30 30 30 66 30 30 30 30 30 [0164002000f00000]
  |     07c0: 30 0a 34 61 30 62 30 30 30 30 31 38 34 30 30 32 [0.4a0b0000184002]
  |     07d0: 30 30 30 66 30 30 30 30 30 30 35 61 30 62 30 30 [000f0000005a0b00]
  |     07e0: 30 30 31 39 34 30 30 32 30 30 34 31 30 30 30 30 [0019400200410000]
  |     [snip 32841 bytes]
  + [Decoded EXIF_Profile directory, 17190 bytes]
  |     0000: 45 78 69 66 00 00 49 49 2a 00 08 00 00 00 12 00 [Exif..II*.......]
  |     0010: 00 01 04 00 01 00 00 00 e8 03 00 00 01 01 04 00 [................]
  |     0020: 01 00 00 00 9c 02 00 00 02 01 03 00 03 00 00 00 [................]
  |     0030: e6 00 00 00 0f 01 02 00 06 00 00 00 ec 00 00 00 [................]
  |     0040: 10 01 02 00 0e 00 00 00 f2 00 00 00 12 01 03 00 [................]
  |     0050: 01 00 00 00 01 00 00 00 1a 01 05 00 01 00 00 00 [................]
  |     0060: 00 01 00 00 1b 01 05 00 01 00 00 00 08 01 00 00 [................]
  |     0070: 28 01 03 00 01 00 00 00 02 00 00 00 31 01 02 00 [(...........1...]
  |     0080: 0d 00 00 00 10 01 00 00 32 01 02 00 14 00 00 00 [........2.......]
  |     0090: 1e 01 00 00 3b 01 02 00 0a 00 00 00 32 01 00 00 [....;.......2...]
  |     00a0: 46 47 03 00 01 00 00 00 00 00 00 00 49 47 03 00 [FG..........IG..]
  |     00b0: 01 00 00 00 00 00 00 00 98 82 02 00 0a 00 00 00 [................]
  |     00c0: 3c 01 00 00 69 87 04 00 01 00 00 00 5a 01 00 00 [<...i.......Z...]
  |     00d0: 25 88 04 00 01 00 00 00 c8 25 00 00 03 90 02 00 [%........%......]
  |     00e0: 14 00 00 00 46 01 00 00 3a 26 00 00 08 00 08 00 [....F...:&......]
  |     00f0: 08 00 43 61 6e 6f 6e 00 43 61 6e 6f 6e 20 45 4f [..Canon.Canon EO]
  |     0100: 53 20 37 30 44 00 2c 01 00 00 01 00 00 00 2c 01 [S 70D.,.......,.]
  |     0110: 00 00 01 00 00 00 47 49 4d 50 20 32 2e 31 30 2e [......GIMP 2.10.]
  |     0120: 33 30 00 00 32 30 32 33 3a 30 35 3a 30 38 20 31 [30..2023:05:08 1]
  |     0130: 36 3a 34 32 3a 32 33 00 64 78 66 6f 74 6f 2e 72 [6:42:23.dxfoto.r]
  |     0140: 75 00 43 43 2d 42 59 20 33 2e 30 00 32 30 31 39 [u.CC-BY 3.0.2019]
  |     0150: 3a 30 37 3a 31 34 20 30 39 3a 32 31 3a 31 31 00 [:07:14 09:21:11.]
  |     0160: 22 00 9a 82 05 00 01 00 00 00 f8 02 00 00 9d 82 ["...............]
  |     0170: 05 00 01 00 00 00 00 03 00 00 22 88 03 00 01 00 [..........".....]
  |     0180: 00 00 01 00 00 00 27 88 03 00 01 00 00 00 fa 00 [......'.........]
  |     0190: 00 00 30 88 03 00 01 00 00 00 02 00 00 00 32 88 [..0...........2.]
  |     01a0: 04 00 01 00 00 00 fa 00 00 00 00 90 07 00 04 00 [................]
  |     01b0: 00 00 30 32 33 30 03 90 02 00 14 00 00 00 08 03 [..0230..........]
  |     01c0: 00 00 04 90 02 00 14 00 00 00 1c 03 00 00 01 91 [................]
  |     01d0: 07 00 04 00 00 00 01 02 03 00 01 92 0a 00 01 00 [................]
  |     01e0: 00 00 30 03 00 00 02 92 05 00 01 00 00 00 38 03 [..0...........8.]
  |     01f0: 00 00 04 92 0a 00 01 00 00 00 40 03 00 00 07 92 [..........@.....]
  |     0200: 03 00 01 00 00 00 05 00 00 00 09 92 03 00 01 00 [................]
  |     0210: 00 00 10 00 00 00 0a 92 05 00 01 00 00 00 48 03 [..............H.]
  |     0220: 00 00 7c 92 07 00 12 22 00 00 50 03 00 00 90 92 [..|...."..P.....]
  |     0230: 02 00 03 00 00 00 34 37 00 00 91 92 02 00 03 00 [......47........]
  |     0240: 00 00 34 37 00 00 92 92 02 00 03 00 00 00 34 37 [..47..........47]
  |     0250: 00 00 00 a0 07 00 04 00 00 00 30 31 30 30 02 a0 [..........0100..]
  |     0260: 04 00 01 00 00 00 a0 0f 00 00 03 a0 04 00 01 00 [................]
  |     0270: 00 00 6e 0a 00 00 0e a2 05 00 01 00 00 00 62 25 [..n...........b%]
  |     0280: 00 00 0f a2 05 00 01 00 00 00 6a 25 00 00 10 a2 [..........j%....]
  |     0290: 03 00 01 00 00 00 02 00 00 00 01 a4 03 00 01 00 [................]
  |     02a0: 00 00 00 00 00 00 02 a4 03 00 01 00 00 00 01 00 [................]
  |     02b0: 00 00 03 a4 03 00 01 00 00 00 00 00 00 00 06 a4 [................]
  |     02c0: 03 00 01 00 00 00 00 00 00 00 31 a4 02 00 0d 00 [..........1.....]
  |     02d0: 00 00 72 25 00 00 32 a4 05 00 04 00 00 00 80 25 [..r%..2........%]
  |     02e0: 00 00 34 a4 02 00 1c 00 00 00 a0 25 00 00 35 a4 [..4........%..5.]
  |     02f0: 02 00 0b 00 00 00 bc 25 00 00 00 00 00 00 01 00 [.......%........]
  |     0300: 00 00 90 01 00 00 47 00 00 00 0a 00 00 00 32 30 [......G.......20]
  |     0310: 31 39 3a 30 37 3a 31 34 20 30 39 3a 32 31 3a 31 [19:07:14 09:21:1]
  |     0320: 31 00 32 30 31 39 3a 30 37 3a 31 34 20 30 39 3a [1.2019:07:14 09:]
  |     0330: 32 31 3a 31 31 00 00 a0 08 00 00 00 01 00 00 a0 [21:11...........]
  |     0340: 05 00 00 00 01 00 00 00 00 00 01 00 00 00 fa 00 [................]
  |     0350: 00 00 01 00 00 00 24 00 03 00 03 00 04 00 00 00 [......$.........]
  |     0360: 06 05 00 00 19 00 02 00 02 00 00 00 31 00 00 00 [............1...]
  |     0370: 98 00 02 00 08 00 00 00 0e 05 00 00 9a 00 02 00 [................]
  |     0380: 10 00 00 00 16 05 00 00 08 40 02 00 0c 00 00 00 [.........@......]
  |     0390: 26 05 00 00 09 40 02 00 06 00 00 00 32 05 00 00 [&....@......2...]
  |     03a0: 11 40 02 00 f8 01 00 00 38 05 00 00 13 40 02 00 [.@......8....@..]
  |     03b0: 24 00 00 00 30 07 00 00 15 40 02 00 f6 03 00 00 [$...0....@......]
  |     03c0: 54 07 00 00 16 40 02 00 0f 00 00 00 4a 0b 00 00 [T....@......J...]
  |     03d0: 18 40 02 00 0f 00 00 00 5a 0b 00 00 19 40 02 00 [.@......Z....@..]
  |     03e0: 41 00 00 00 6a 0b 00 00 20 40 02 00 18 00 00 00 [A...j... @......]
  |     03f0: ac 0b 00 00 21 40 02 00 0b 00 00 00 c4 0b 00 00 [....!@..........]
  |     0400: 24 40 02 00 cd 00 00 00 d0 0b 00 00 25 40 02 00 [$@..........%@..]
  |     0410: 13 00 00 00 9e 0c 00 00 27 40 02 00 2e 00 00 00 [........'@......]
  |     0420: b2 0c 00 00 26 00 03 00 8b 00 00 00 e0 0c 00 00 [....&...........]
  |     0430: 0d 00 03 00 00 06 00 00 f6 0d 00 00 97 00 02 00 [................]
  |     0440: 00 08 00 00 f6 19 00 00 07 00 02 00 17 00 00 00 [................]
  |     0450: f6 21 00 00 02 00 03 00 04 00 00 00 0e 22 00 00 [.!..........."..]
  |     0460: 06 00 02 00 0e 00 00 00 16 22 00 00 96 00 02 00 [........."......]
  |     0470: 0a 00 00 00 24 22 00 00 95 00 02 00 1c 00 00 00 [....$"..........]
  |     0480: 2e 22 00 00 aa 00 03 00 06 00 00 00 4a 22 00 00 [."..........J"..]
  |     0490: 10 00 04 00 01 00 00 00 25 03 00 80 e0 00 03 00 [........%.......]
  |     04a0: 11 00 00 00 56 22 00 00 13 00 08 00 04 00 00 00 [....V"..........]
  |     04b0: 78 22 00 00 d0 00 04 00 01 00 00 00 00 00 00 00 [x"..............]
  |     04c0: 0f 00 03 00 e8 00 00 00 80 22 00 00 01 00 03 00 [........."......]
  |     04d0: 31 00 00 00 50 24 00 00 93 00 03 00 20 00 00 00 [1...P$...... ...]
  |     04e0: b2 24 00 00 a0 00 03 00 0e 00 00 00 f2 24 00 00 [.$...........$..]
  |     04f0: 04 00 03 00 22 00 00 00 0e 25 00 00 35 00 09 00 [...."....%..5...]
  |     0500: 04 00 00 00 52 25 00 00 00 00 00 00 00 00 00 00 [....R%..........]
  |     0510: 00 00 00 00 30 20 30 20 30 20 30 00 30 20 35 34 [....0 0 0 0.0 54]
  |     0520: 37 32 20 33 36 34 38 20 30 20 30 00 31 33 35 20 [72 3648 0 0.135 ]
  |     0530: 31 33 35 20 31 33 35 00 30 20 30 20 30 00 30 20 [135 135.0 0 0.0 ]
  |     0540: 30 20 30 20 30 20 30 20 30 20 30 20 30 20 30 20 [0 0 0 0 0 0 0 0 ]
  |     0550: 30 20 30 20 30 20 30 20 30 20 30 20 30 20 30 20 [0 0 0 0 0 0 0 0 ]
  |     0560: 30 20 30 20 30 20 30 20 30 20 30 20 30 20 30 20 [0 0 0 0 0 0 0 0 ]
  |     0570: 30 20 30 20 30 20 30 20 30 20 30 20 30 20 30 20 [0 0 0 0 0 0 0 0 ]
  |     0580: 30 20 30 20 30 20 30 20 30 20 30 20 30 20 30 20 [0 0 0 0 0 0 0 0 ]
  |     0590: 30 20 30 20 30 20 30 20 30 20 30 20 30 20 30 20 [0 0 0 0 0 0 0 0 ]
  |     05a0: 30 20 30 20 30 20 30 20 30 20 30 20 30 20 30 20 [0 0 0 0 0 0 0 0 ]
  |     05b0: 30 20 30 20 30 20 30 20 30 20 30 20 30 20 30 20 [0 0 0 0 0 0 0 0 ]
  |     05c0: 30 20 30 20 30 20 30 20 30 20 30 20 30 20 30 20 [0 0 0 0 0 0 0 0 ]
  |     05d0: 30 20 30 20 30 20 30 20 30 20 30 20 30 20 30 20 [0 0 0 0 0 0 0 0 ]
  |     05e0: 30 20 30 20 30 20 30 20 30 20 30 20 30 20 30 20 [0 0 0 0 0 0 0 0 ]
  |     05f0: 30 20 30 20 30 20 30 20 30 20 30 20 30 20 30 20 [0 0 0 0 0 0 0 0 ]
  |     0600: 30 20 30 20 30 20 30 20 30 20 30 20 30 20 30 20 [0 0 0 0 0 0 0 0 ]
  |     0610: 30 20 30 20 30 20 30 20 30 20 30 20 30 20 30 20 [0 0 0 0 0 0 0 0 ]
  |     0620: 30 20 30 20 30 20 30 20 30 20 30 20 30 20 30 20 [0 0 0 0 0 0 0 0 ]
  |     0630: 30 20 30 20 30 20 30 20 30 20 30 20 30 20 30 20 [0 0 0 0 0 0 0 0 ]
  |     0640: 30 20 30 20 30 20 30 20 30 20 30 20 30 20 30 20 [0 0 0 0 0 0 0 0 ]
  |     0650: 30 20 30 20 30 20 30 20 30 20 30 20 30 20 30 20 [0 0 0 0 0 0 0 0 ]
  |     0660: 30 20 30 20 30 20 30 20 30 20 30 20 30 20 30 20 [0 0 0 0 0 0 0 0 ]
  |     0670: 30 20 30 20 30 20 30 20 30 20 30 20 30 20 30 20 [0 0 0 0 0 0 0 0 ]
  |     0680: 30 20 30 20 30 20 30 20 30 20 30 20 30 20 30 20 [0 0 0 0 0 0 0 0 ]
  |     0690: 30 20 30 20 30 20 30 20 30 20 30 20 30 20 30 20 [0 0 0 0 0 0 0 0 ]
  |     06a0: 30 20 30 20 30 20 30 20 30 20 30 20 30 20 30 20 [0 0 0 0 0 0 0 0 ]
  |     06b0: 30 20 30 20 30 20 30 20 30 20 30 20 30 20 30 20 [0 0 0 0 0 0 0 0 ]
  |     06c0: 30 20 30 20 30 20 30 20 30 20 30 20 30 20 30 20 [0 0 0 0 0 0 0 0 ]
  |     06d0: 30 20 30 20 30 20 30 20 30 20 30 20 30 20 30 20 [0 0 0 0 0 0 0 0 ]
  |     06e0: 30 20 30 20 30 20 30 20 30 20 30 20 30 20 30 20 [0 0 0 0 0 0 0 0 ]
  |     06f0: 30 20 30 20 30 20 30 20 30 20 30 20 30 20 30 20 [0 0 0 0 0 0 0 0 ]
  |     0700: 30 20 30 20 30 20 30 20 30 20 30 20 30 20 30 20 [0 0 0 0 0 0 0 0 ]
  |     0710: 30 20 30 20 30 20 30 20 30 20 30 20 30 20 30 20 [0 0 0 0 0 0 0 0 ]
  |     0720: 30 20 30 20 30 20 30 20 30 20 30 20 30 20 30 20 [0 0 0 0 0 0 0 0 ]
  |     0730: 30 20 30 20 30 00 34 34 20 30 20 30 20 31 30 20 [0 0 0.44 0 0 10 ]
  |     0740: 34 32 39 34 39 36 37 32 39 35 20 30 20 31 30 20 [4294967295 0 10 ]
  |     0750: 30 20 31 30 20 30 20 31 30 00 30 20 33 33 20 32 [0 10 0 10.0 33 2]
  |     0760: 30 30 20 31 20 31 20 30 20 30 20 30 20 31 20 30 [00 1 1 0 0 0 1 0]
  |     0770: 20 31 20 30 20 36 35 20 30 20 30 20 30 20 31 30 [ 1 0 65 0 0 0 10]
  |     0780: 30 20 30 20 31 30 30 20 30 20 34 20 31 36 20 39 [0 0 100 0 4 16 9]
  |     0790: 36 20 32 31 20 36 34 20 31 34 20 32 35 35 20 33 [6 21 64 14 255 3]
  |     07a0: 31 20 32 34 33 20 33 31 20 32 33 33 20 33 30 20 [1 243 31 233 30 ]
  |     07b0: 35 38 20 32 38 20 31 34 20 32 36 20 32 32 30 20 [58 28 14 26 220 ]
  |     07c0: 32 32 20 30 20 30 20 31 32 33 20 31 20 31 31 32 [22 0 0 123 1 112]
  |     07d0: 20 34 20 31 30 31 20 37 20 32 32 33 20 38 20 32 [ 4 101 7 223 8 2]
  |     07e0: 36 20 31 30 20 30 20 36 34 20 38 33 20 36 33 20 [6 10 0 64 83 63 ]
  |     [snip 15158 bytes]
  ExifByteOrder = II
  + [IFD0 directory with 18 entries, Little-endian]
  | 0)  ImageWidth = 1000
  |     - Tag 0x0100 (4 bytes, int32u[1]):
  |         0012: e8 03 00 00                                     [....]
  | 1)  ImageHeight = 668
  |     - Tag 0x0101 (4 bytes, int32u[1]):
  |         001e: 9c 02 00 00                                     [....]
  | 2)  BitsPerSample = 8 8 8
  |     - Tag 0x0102 (6 bytes, int16u[3]):
  |         00e6: 08 00 08 00 08 00                               [......]
  | 3)  Make = Canon
  |     - Tag 0x010f (6 bytes, string[6]):
  |         00ec: 43 61 6e 6f 6e 00                               [Canon.]
  | 4)  Model = Canon EOS 70D
  |     - Tag 0x0110 (14 bytes, string[14]):
  |         00f2: 43 61 6e 6f 6e 20 45 4f 53 20 37 30 44 00       [Canon EOS 70D.]
  | 5)  Orientation = 1
  |     - Tag 0x0112 (2 bytes, int16u[1]):
  |         004e: 01 00                                           [..]
  | 6)  XResolution = 300 (300/1)
  |     - Tag 0x011a (8 bytes, rational64u[1]):
  |         0100: 2c 01 00 00 01 00 00 00                         [,.......]
  | 7)  YResolution = 300 (300/1)
  |     - Tag 0x011b (8 bytes, rational64u[1]):
  |         0108: 2c 01 00 00 01 00 00 00                         [,.......]
  | 8)  ResolutionUnit = 2
  |     - Tag 0x0128 (2 bytes, int16u[1]):
  |         0072: 02 00                                           [..]
  | 9)  Software = GIMP 2.10.30
  |     - Tag 0x0131 (13 bytes, string[13]):
  |         0110: 47 49 4d 50 20 32 2e 31 30 2e 33 30 00          [GIMP 2.10.30.]
  | 10) ModifyDate = 2023:05:08 16:42:23
  |     - Tag 0x0132 (20 bytes, string[20]):
  |         011e: 32 30 32 33 3a 30 35 3a 30 38 20 31 36 3a 34 32 [2023:05:08 16:42]
  |         012e: 3a 32 33 00                                     [:23.]
  | 11) Artist = dxfoto.ru
  |     - Tag 0x013b (10 bytes, string[10]):
  |         0132: 64 78 66 6f 74 6f 2e 72 75 00                   [dxfoto.ru.]
  | 12) Rating = 0
  |     - Tag 0x4746 (2 bytes, int16u[1]):
  |         00a2: 00 00                                           [..]
  | 13) RatingPercent = 0
  |     - Tag 0x4749 (2 bytes, int16u[1]):
  |         00ae: 00 00                                           [..]
  | 14) Copyright = CC-BY 3.0
  |     - Tag 0x8298 (10 bytes, string[10] read as undef[10]):
  |         013c: 43 43 2d 42 59 20 33 2e 30 00                   [CC-BY 3.0.]
  | 15) ExifOffset (SubDirectory) -->
  |     - Tag 0x8769 (4 bytes, int32u[1]):
  |         00c6: 5a 01 00 00                                     [Z...]
  | + [ExifIFD directory with 34 entries, Little-endian]
  | | 0)  ExposureTime = 0.0025 (1/400)
  | |     - Tag 0x829a (8 bytes, rational64u[1]):
  | |         02f8: 01 00 00 00 90 01 00 00                         [........]
  | | 1)  FNumber = 7.1 (71/10)
  | |     - Tag 0x829d (8 bytes, rational64u[1]):
  | |         0300: 47 00 00 00 0a 00 00 00                         [G.......]
  | | 2)  ExposureProgram = 1
  | |     - Tag 0x8822 (2 bytes, int16u[1]):
  | |         017c: 01 00                                           [..]
  | | 3)  ISO = 250
  | |     - Tag 0x8827 (2 bytes, int16u[1]):
  | |         0188: fa 00                                           [..]
  | | 4)  SensitivityType = 2
  | |     - Tag 0x8830 (2 bytes, int16u[1]):
  | |         0194: 02 00                                           [..]
  | | 5)  RecommendedExposureIndex = 250
  | |     - Tag 0x8832 (4 bytes, int32u[1]):
  | |         01a0: fa 00 00 00                                     [....]
  | | 6)  ExifVersion = 0230
  | |     - Tag 0x9000 (4 bytes, undef[4]):
  | |         01ac: 30 32 33 30                                     [0230]
  | | 7)  DateTimeOriginal = 2019:07:14 09:21:11
  | |     - Tag 0x9003 (20 bytes, string[20]):
  | |         0308: 32 30 31 39 3a 30 37 3a 31 34 20 30 39 3a 32 31 [2019:07:14 09:21]
  | |         0318: 3a 31 31 00                                     [:11.]
  | | 8)  CreateDate = 2019:07:14 09:21:11
  | |     - Tag 0x9004 (20 bytes, string[20]):
  | |         031c: 32 30 31 39 3a 30 37 3a 31 34 20 30 39 3a 32 31 [2019:07:14 09:21]
  | |         032c: 3a 31 31 00                                     [:11.]
  | | 9)  ComponentsConfiguration = 1 2 3 0
  | |     - Tag 0x9101 (4 bytes, undef[4] read as int8u[4]):
  | |         01d0: 01 02 03 00                                     [....]
  | | 10) ShutterSpeedValue = 8.625 (565248/65536)
  | |     - Tag 0x9201 (8 bytes, rational64s[1]):
  | |         0330: 00 a0 08 00 00 00 01 00                         [........]
  | | 11) ApertureValue = 5.625 (368640/65536)
  | |     - Tag 0x9202 (8 bytes, rational64u[1]):
  | |         0338: 00 a0 05 00 00 00 01 00                         [........]
  | | 12) ExposureCompensation = 0 (0/1)
  | |     - Tag 0x9204 (8 bytes, rational64s[1]):
  | |         0340: 00 00 00 00 01 00 00 00                         [........]
  | | 13) MeteringMode = 5
  | |     - Tag 0x9207 (2 bytes, int16u[1]):
  | |         0200: 05 00                                           [..]
  | | 14) Flash = 16
  | |     - Tag 0x9209 (2 bytes, int16u[1]):
  | |         020c: 10 00                                           [..]
  | | 15) FocalLength = 250 (250/1)
  | |     - Tag 0x920a (8 bytes, rational64u[1]):
  | |         0348: fa 00 00 00 01 00 00 00                         [........]
  | | 16) MakerNoteCanon (SubDirectory) -->
  | |     - Tag 0x927c (8722 bytes, undef[8722]):
  | |         0350: 24 00 03 00 03 00 04 00 00 00 06 05 00 00 19 00 [$...............]
  | |         0360: 02 00 02 00 00 00 31 00 00 00 98 00 02 00 08 00 [......1.........]
  | |         0370: 00 00 0e 05 00 00 9a 00 02 00 10 00 00 00 16 05 [................]
  | |         0380: 00 00 08 40 02 00 0c 00 00 00 26 05 00 00 09 40 [...@......&....@]
  | |         0390: 02 00 06 00 00 00 32 05 00 00 11 40 02 00 f8 01 [......2....@....]
  | |         03a0: 00 00 38 05 00 00 13 40 02 00 24 00 00 00 30 07 [..8....@..$...0.]
  | |         03b0: 00 00 15 40 02 00 f6 03 00 00 54 07 00 00 16 40 [...@......T....@]
  | |         03c0: 02 00 0f 00 00 00 4a 0b 00 00 18 40 02 00 0f 00 [......J....@....]
  | |         03d0: 00 00 5a 0b 00 00 19 40 02 00 41 00 00 00 6a 0b [..Z....@..A...j.]
  | |         03e0: 00 00 20 40 02 00 18 00 00 00 ac 0b 00 00 21 40 [.. @..........!@]
  | |         03f0: 02 00 0b 00 00 00 c4 0b 00 00 24 40 02 00 cd 00 [..........$@....]
  | |         0400: 00 00 d0 0b 00 00 25 40 02 00 13 00 00 00 9e 0c [......%@........]
  | |         0410: 00 00 27 40 02 00 2e 00 00 00 b2 0c 00 00 26 00 [..'@..........&.]
  | |         0420: 03 00 8b 00 00 00 e0 0c 00 00 0d 00 03 00 00 06 [................]
  | |         0430: 00 00 f6 0d 00 00 97 00 02 00 00 08 00 00 f6 19 [................]
  | |         0440: 00 00 07 00 02 00 17 00 00 00 f6 21 00 00 02 00 [...........!....]
  | |         0450: 03 00 04 00 00 00 0e 22 00 00 06 00 02 00 0e 00 [......."........]
  | |         0460: 00 00 16 22 00 00 96 00 02 00 0a 00 00 00 24 22 [..."..........$"]
  | |         0470: 00 00 95 00 02 00 1c 00 00 00 2e 22 00 00 aa 00 [..........."....]
  | |         0480: 03 00 06 00 00 00 4a 22 00 00 10 00 04 00 01 00 [......J"........]
  | |         0490: 00 00 25 03 00 80 e0 00 03 00 11 00 00 00 56 22 [..%...........V"]
  | |         04a0: 00 00 13 00 08 00 04 00 00 00 78 22 00 00 d0 00 [..........x"....]
  | |         04b0: 04 00 01 00 00 00 00 00 00 00 0f 00 03 00 e8 00 [................]
  | |         04c0: 00 00 80 22 00 00 01 00 03 00 31 00 00 00 50 24 [..."......1...P$]
  | |         04d0: 00 00 93 00 03 00 20 00 00 00 b2 24 00 00 a0 00 [...... ....$....]
  | |         04e0: 03 00 0e 00 00 00 f2 24 00 00 04 00 03 00 22 00 [.......$......".]
  | |         04f0: 00 00 0e 25 00 00 35 00 09 00 04 00 00 00 52 25 [...%..5.......R%]
  | |         0500: 00 00 00 00 00 00 00 00 00 00 00 00 00 00 30 20 [..............0 ]
  | |         0510: 30 20 30 20 30 00 30 20 35 34 37 32 20 33 36 34 [0 0 0.0 5472 364]
  | |         0520: 38 20 30 20 30 00 31 33 35 20 31 33 35 20 31 33 [8 0 0.135 135 13]
  | |         0530: 35 00 30 20 30 20 30 00 30 20 30 20 30 20 30 20 [5.0 0 0.0 0 0 0 ]
  | |         0540: 30 20 30 20 30 20 30 20 30 20 30 20 30 20 30 20 [0 0 0 0 0 0 0 0 ]
  | |         0550: 30 20 30 20 30 20 30 20 30 20 30 20 30 20 30 20 [0 0 0 0 0 0 0 0 ]
  | |         0560: 30 20 30 20 30 20 30 20 30 20 30 20 30 20 30 20 [0 0 0 0 0 0 0 0 ]
  | |         0570: 30 20 30 20 30 20 30 20 30 20 30 20 30 20 30 20 [0 0 0 0 0 0 0 0 ]
  | |         0580: 30 20 30 20 30 20 30 20 30 20 30 20 30 20 30 20 [0 0 0 0 0 0 0 0 ]
  | |         0590: 30 20 30 20 30 20 30 20 30 20 30 20 30 20 30 20 [0 0 0 0 0 0 0 0 ]
  | |         05a0: 30 20 30 20 30 20 30 20 30 20 30 20 30 20 30 20 [0 0 0 0 0 0 0 0 ]
  | |         05b0: 30 20 30 20 30 20 30 20 30 20 30 20 30 20 30 20 [0 0 0 0 0 0 0 0 ]
  | |         05c0: 30 20 30 20 30 20 30 20 30 20 30 20 30 20 30 20 [0 0 0 0 0 0 0 0 ]
  | |         05d0: 30 20 30 20 30 20 30 20 30 20 30 20 30 20 30 20 [0 0 0 0 0 0 0 0 ]
  | |         05e0: 30 20 30 20 30 20 30 20 30 20 30 20 30 20 30 20 [0 0 0 0 0 0 0 0 ]
  | |         05f0: 30 20 30 20 30 20 30 20 30 20 30 20 30 20 30 20 [0 0 0 0 0 0 0 0 ]
  | |         0600: 30 20 30 20 30 20 30 20 30 20 30 20 30 20 30 20 [0 0 0 0 0 0 0 0 ]
  | |         0610: 30 20 30 20 30 20 30 20 30 20 30 20 30 20 30 20 [0 0 0 0 0 0 0 0 ]
  | |         0620: 30 20 30 20 30 20 30 20 30 20 30 20 30 20 30 20 [0 0 0 0 0 0 0 0 ]
  | |         0630: 30 20 30 20 30 20 30 20 30 20 30 20 30 20 30 20 [0 0 0 0 0 0 0 0 ]
  | |         0640: 30 20 30 20 30 20 30 20 30 20 30 20 30 20 30 20 [0 0 0 0 0 0 0 0 ]
  | |         0650: 30 20 30 20 30 20 30 20 30 20 30 20 30 20 30 20 [0 0 0 0 0 0 0 0 ]
  | |         0660: 30 20 30 20 30 20 30 20 30 20 30 20 30 20 30 20 [0 0 0 0 0 0 0 0 ]
  | |         0670: 30 20 30 20 30 20 30 20 30 20 30 20 30 20 30 20 [0 0 0 0 0 0 0 0 ]
  | |         0680: 30 20 30 20 30 20 30 20 30 20 30 20 30 20 30 20 [0 0 0 0 0 0 0 0 ]
  | |         0690: 30 20 30 20 30 20 30 20 30 20 30 20 30 20 30 20 [0 0 0 0 0 0 0 0 ]
  | |         06a0: 30 20 30 20 30 20 30 20 30 20 30 20 30 20 30 20 [0 0 0 0 0 0 0 0 ]
  | |         06b0: 30 20 30 20 30 20 30 20 30 20 30 20 30 20 30 20 [0 0 0 0 0 0 0 0 ]
  | |         06c0: 30 20 30 20 30 20 30 20 30 20 30 20 30 20 30 20 [0 0 0 0 0 0 0 0 ]
  | |         06d0: 30 20 30 20 30 20 30 20 30 20 30 20 30 20 30 20 [0 0 0 0 0 0 0 0 ]
  | |         06e0: 30 20 30 20 30 20 30 20 30 20 30 20 30 20 30 20 [0 0 0 0 0 0 0 0 ]
  | |         06f0: 30 20 30 20 30 20 30 20 30 20 30 20 30 20 30 20 [0 0 0 0 0 0 0 0 ]
  | |         0700: 30 20 30 20 30 20 30 20 30 20 30 20 30 20 30 20 [0 0 0 0 0 0 0 0 ]
  | |         0710: 30 20 30 20 30 20 30 20 30 20 30 20 30 20 30 20 [0 0 0 0 0 0 0 0 ]
  | |         0720: 30 20 30 20 30 20 30 20 30 20 30 20 30 20 30 00 [0 0 0 0 0 0 0 0.]
  | |         0730: 34 34 20 30 20 30 20 31 30 20 34 32 39 34 39 36 [44 0 0 10 429496]
  | |         0740: 37 32 39 35 20 30 20 31 30 20 30 20 31 30 20 30 [7295 0 10 0 10 0]
  | |         0750: 20 31 30 00 30 20 33 33 20 32 30 30 20 31 20 31 [ 10.0 33 200 1 1]
  | |         0760: 20 30 20 30 20 30 20 31 20 30 20 31 20 30 20 36 [ 0 0 0 1 0 1 0 6]
  | |         0770: 35 20 30 20 30 20 30 20 31 30 30 20 30 20 31 30 [5 0 0 0 100 0 10]
  | |         0780: 30 20 30 20 34 20 31 36 20 39 36 20 32 31 20 36 [0 0 4 16 96 21 6]
  | |         0790: 34 20 31 34 20 32 35 35 20 33 31 20 32 34 33 20 [4 14 255 31 243 ]
  | |         07a0: 33 31 20 32 33 33 20 33 30 20 35 38 20 32 38 20 [31 233 30 58 28 ]
  | |         07b0: 31 34 20 32 36 20 32 32 30 20 32 32 20 30 20 30 [14 26 220 22 0 0]
  | |         07c0: 20 31 32 33 20 31 20 31 31 32 20 34 20 31 30 31 [ 123 1 112 4 101]
  | |         07d0: 20 37 20 32 32 33 20 38 20 32 36 20 31 30 20 30 [ 7 223 8 26 10 0]
  | |         07e0: 20 36 34 20 38 33 20 36 33 20 32 31 36 20 36 32 [ 64 83 63 216 62]
  | |         07f0: 20 37 38 20 36 32 20 32 33 32 20 36 31 20 31 39 [ 78 62 232 61 19]
  | |         0800: 36 20 36 31 20 30 20 36 34 20 32 30 20 36 34 20 [6 61 0 64 20 64 ]
  | |         0810: 36 32 20 36 34 20 31 32 36 20 36 34 20 31 38 31 [62 64 126 64 181]
  | |         0820: 20 36 34 20 32 30 30 20 36 34 20 30 20 30 20 31 [ 64 200 64 0 0 1]
  | |         0830: 37 38 20 33 20 32 33 34 20 35 20 33 34 20 38 20 [78 3 234 5 34 8 ]
  | |         0840: 31 35 37 20 39 20 32 36 20 31 30 20 30 20 36 34 [157 9 26 10 0 64]
  | |         0850: 20 32 33 38 20 36 33 20 34 30 20 36 34 20 31 32 [ 238 63 40 64 12]
  | |         0860: 37 20 36 34 20 31 39 31 20 36 34 20 32 31 31 20 [7 64 191 64 211 ]
  | |         0870: 36 34 20 30 20 30 20 31 37 38 20 33 20 32 33 34 [64 0 0 178 3 234]
  | |         0880: 20 35 20 33 34 20 38 20 31 35 37 20 39 20 32 36 [ 5 34 8 157 9 26]
  | |         0890: 20 31 30 20 30 20 30 20 30 20 30 20 30 20 30 20 [ 10 0 0 0 0 0 0 ]
  | |         08a0: 30 20 30 20 30 20 30 20 30 20 30 20 30 20 30 20 [0 0 0 0 0 0 0 0 ]
  | |         08b0: 30 20 30 20 30 20 30 20 30 20 30 20 30 20 30 20 [0 0 0 0 0 0 0 0 ]
  | |         08c0: 30 20 30 20 30 20 30 20 30 20 30 20 30 20 30 20 [0 0 0 0 0 0 0 0 ]
  | |         08d0: 30 20 30 20 30 20 30 20 30 20 30 20 30 20 30 20 [0 0 0 0 0 0 0 0 ]
  | |         08e0: 30 20 30 20 30 20 30 20 30 20 30 20 30 20 30 20 [0 0 0 0 0 0 0 0 ]
  | |         08f0: 30 20 30 20 30 20 30 20 30 20 30 20 30 20 30 20 [0 0 0 0 0 0 0 0 ]
  | |         0900: 30 20 30 20 30 20 30 20 30 20 30 20 30 20 30 20 [0 0 0 0 0 0 0 0 ]
  | |         0910: 30 20 30 20 30 20 30 20 30 20 30 20 30 20 30 20 [0 0 0 0 0 0 0 0 ]
  | |         0920: 30 20 30 20 30 20 30 20 30 20 30 20 30 20 30 20 [0 0 0 0 0 0 0 0 ]
  | |         0930: 30 20 30 20 30 20 30 20 30 20 30 20 30 20 30 20 [0 0 0 0 0 0 0 0 ]
  | |         0940: 30 20 30 20 30 20 30 20 30 20 30 20 30 20 30 20 [0 0 0 0 0 0 0 0 ]
  | |         0950: 30 20 30 20 30 20 30 20 30 20 30 20 30 20 30 20 [0 0 0 0 0 0 0 0 ]
  | |         0960: 30 20 30 20 30 20 30 20 30 20 30 20 30 20 30 20 [0 0 0 0 0 0 0 0 ]
  | |         0970: 30 20 30 20 30 20 30 20 30 20 30 20 30 20 30 20 [0 0 0 0 0 0 0 0 ]
  | |         0980: 30 20 30 20 30 20 30 20 30 20 30 20 30 20 30 20 [0 0 0 0 0 0 0 0 ]
  | |         0990: 30 20 30 20 30 20 30 20 30 20 30 20 30 20 30 20 [0 0 0 0 0 0 0 0 ]
  | |         09a0: 30 20 30 20 30 20 30 20 30 20 30 20 30 20 30 20 [0 0 0 0 0 0 0 0 ]
  | |         09b0: 30 20 30 20 30 20 30 20 30 20 30 20 30 20 30 20 [0 0 0 0 0 0 0 0 ]
  | |         09c0: 30 20 30 20 30 20 30 20 30 20 30 20 30 20 30 20 [0 0 0 0 0 0 0 0 ]
  | |         09d0: 30 20 30 20 30 20 30 20 30 20 30 20 30 20 30 20 [0 0 0 0 0 0 0 0 ]
  | |         09e0: 30 20 30 20 30 20 30 20 30 20 30 20 30 20 30 20 [0 0 0 0 0 0 0 0 ]
  | |         09f0: 30 20 30 20 30 20 30 20 30 20 30 20 30 20 30 20 [0 0 0 0 0 0 0 0 ]
  | |         0a00: 30 20 30 20 30 20 30 20 30 20 30 20 30 20 30 20 [0 0 0 0 0 0 0 0 ]
  | |         0a10: 30 20 30 20 30 20 30 20 30 20 30 20 30 20 30 20 [0 0 0 0 0 0 0 0 ]
  | |         0a20: 30 20 30 20 30 20 30 20 30 20 30 20 30 20 30 20 [0 0 0 0 0 0 0 0 ]
  | |         0a30: 30 20 30 20 30 20 30 20 30 20 30 20 30 20 30 20 [0 0 0 0 0 0 0 0 ]
  | |         0a40: 30 20 30 20 30 20 30 20 30 20 30 20 30 20 30 20 [0 0 0 0 0 0 0 0 ]
  | |         0a50: 30 20 30 20 30 20 30 20 30 20 30 20 30 20 30 20 [0 0 0 0 0 0 0 0 ]
  | |         0a60: 30 20 30 20 30 20 30 20 30 20 30 20 30 20 30 20 [0 0 0 0 0 0 0 0 ]
  | |         0a70: 30 20 30 20 30 20 30 20 30 20 30 20 30 20 30 20 [0 0 0 0 0 0 0 0 ]
  | |         0a80: 30 20 30 20 30 20 30 20 30 20 30 20 30 20 30 20 [0 0 0 0 0 0 0 0 ]
  | |         0a90: 30 20 30 20 30 20 30 20 30 20 30 20 30 20 30 20 [0 0 0 0 0 0 0 0 ]
  | |         0aa0: 30 20 30 20 30 20 30 20 30 20 30 20 30 20 30 20 [0 0 0 0 0 0 0 0 ]
  | |         0ab0: 30 20 30 20 30 20 30 20 30 20 30 20 30 20 30 20 [0 0 0 0 0 0 0 0 ]
  | |         0ac0: 30 20 30 20 30 20 30 20 30 20 30 20 30 20 30 20 [0 0 0 0 0 0 0 0 ]
  | |         0ad0: 30 20 30 20 30 20 30 20 30 20 30 20 30 20 30 20 [0 0 0 0 0 0 0 0 ]
  | |         0ae0: 30 20 30 20 30 20 30 20 30 20 30 20 30 20 30 20 [0 0 0 0 0 0 0 0 ]
  | |         0af0: 30 20 30 20 30 20 30 20 30 20 30 20 30 20 30 20 [0 0 0 0 0 0 0 0 ]
  | |         0b00: 30 20 30 20 30 20 30 20 30 20 30 20 30 20 30 20 [0 0 0 0 0 0 0 0 ]
  | |         0b10: 30 20 30 20 30 20 30 20 30 20 30 20 30 20 30 20 [0 0 0 0 0 0 0 0 ]
  | |         0b20: 30 20 30 20 30 20 30 20 30 20 30 20 30 20 30 20 [0 0 0 0 0 0 0 0 ]
  | |         0b30: 30 20 30 20 30 20 30 20 30 20 30 20 30 20 30 20 [0 0 0 0 0 0 0 0 ]
  | |         [snip 6690 bytes]
  | | + [MakerNotes directory with 36 entries, Little-endian]
  | | | 0)  CanonFlashInfo = 0 0 0 0
  | | |     - Tag 0x0003 (8 bytes, int16u[4]):
  | | |         0506: 00 00 00 00 00 00 00 00                         [........]
  | | | 1)  Canon_0x0019 = 1
  | | |     - Tag 0x0019 (2 bytes, string[2]):
  | | |         0366: 31 00                                           [1.]
  | | | 2)  CropInfo (SubDirectory) -->
  | | |     - Tag 0x0098 (8 bytes, string[8] read as undef[8]):
  | | |         050e: 30 20 30 20 30 20 30 00                         [0 0 0 0.]
  | | | + [BinaryData directory, 8 bytes, Little-endian]
  | | | | CropLeftMargin = 8240
  | | | | - Tag 0x0000 (2 bytes, int16u[1]):
  | | | |     050e: 30 20                                           [0 ]
  | | | | CropRightMargin = 8240
  | | | | - Tag 0x0001 (2 bytes, int16u[1]):
  | | | |     0510: 30 20                                           [0 ]
  | | | | CropTopMargin = 8240
  | | | | - Tag 0x0002 (2 bytes, int16u[1]):
  | | | |     0512: 30 20                                           [0 ]
  | | | | CropBottomMargin = 48
  | | | | - Tag 0x0003 (2 bytes, int16u[1]):
  | | | |     0514: 30 00                                           [0.]
  | | | 3)  AspectInfo (SubDirectory) -->
  | | |     - Tag 0x009a (16 bytes, string[16] read as undef[16]):
  | | |         0516: 30 20 35 34 37 32 20 33 36 34 38 20 30 20 30 00 [0 5472 3648 0 0.]
  | | | + [BinaryData directory, 16 bytes, Little-endian]
  | | | | AspectRatio = 875896880
  | | | | - Tag 0x0000 (4 bytes, int32u[1]):
  | | | |     0516: 30 20 35 34                                     [0 54]
  | | | | CroppedImageWidth = 857748023
  | | | | - Tag 0x0001 (4 bytes, int32u[1]):
  | | | |     051a: 37 32 20 33                                     [72 3]
  | | | | CroppedImageHeight = 540554294
  | | | | - Tag 0x0002 (4 bytes, int32u[1]):
  | | | |     051e: 36 34 38 20                                     [648 ]
  | | | | CroppedImageLeft = 3153968
  | | | | - Tag 0x0003 (4 bytes, int32u[1]):
  | | | |     0522: 30 20 30 00                                     [0 0.]
  | | | 4)  PictureStyleUserDef = 135 135 135
  | | |     - Tag 0x4008 (12 bytes, string[12]):
  | | |         0526: 31 33 35 20 31 33 35 20 31 33 35 00             [135 135 135.]
  | | | 5)  PictureStylePC = 0 0 0
  | | |     - Tag 0x4009 (6 bytes, string[6]):
  | | |         0532: 30 20 30 20 30 00                               [0 0 0.]
  | | | 6)  Canon_0x4011 = 0 0 0 0 0 0 0 0 0 0 0 0 0 0 0 0 0 0 0 0 0 0 0 0 0 0 0 0 0 0 0 0 0 0 0 0 0 0 0 0 0 0 0 0 0 0 0 0 0 0 0 0 0 0 0 0 0 0 0 0 0 0 0 0 0 0 0 0 0 0 0 0 0 0 0 0 0 0 0 0 0 0 0 0 0 0 0 0 0 0 0 0 0 0 0 0 0 0 0 0 0 0 0 0 0 0 0 0 0 0 0 0 0 0 0 0 0 0 0 0 0 0 0 0 0 0 0 0 0 0 0 0 0 0 0 0 0 0 0 0 0 0 0 0 0 0 0 0 0 0 0 0 0 0 0 0 0 0 0 0 0 0 0 0 0 0 0 0 0 0 0 0 0 0 0 0 0 0 0 0 0 0 0 0 0 0 0 0 0 0 0 0 0 0 0 0 0 0 0 0 0 0 0 0 0 0 0 0 0 0 0 0 0 0 0 0 0 0 0 0 0 0 0 0 0 0 0 0 0 0 0 0 0 0 0 0 0 0 0 0 0 0 0 0 0 0 0 0 0 0 0 0
  | | |     - Tag 0x4011 (504 bytes, string[504]):
  | | |         0538: 30 20 30 20 30 20 30 20 30 20 30 20 30 20 30 20 [0 0 0 0 0 0 0 0 ]
  | | |         0548: 30 20 30 20 30 20 30 20 30 20 30 20 30 20 30 20 [0 0 0 0 0 0 0 0 ]
  | | |         0558: 30 20 30 20 30 20 30 20 30 20 30 20 30 20 30 20 [0 0 0 0 0 0 0 0 ]
  | | |         0568: 30 20 30 20 30 20 30 20 30 20 30 20 30 20 30 20 [0 0 0 0 0 0 0 0 ]
  | | |         0578: 30 20 30 20 30 20 30 20 30 20 30 20 30 20 30 20 [0 0 0 0 0 0 0 0 ]
  | | |         0588: 30 20 30 20 30 20 30 20 30 20 30 20 30 20 30 20 [0 0 0 0 0 0 0 0 ]
  | | |         0598: 30 20 30 20 30 20 30 20 30 20 30 20 30 20 30 20 [0 0 0 0 0 0 0 0 ]
  | | |         05a8: 30 20 30 20 30 20 30 20 30 20 30 20 30 20 30 20 [0 0 0 0 0 0 0 0 ]
  | | |         05b8: 30 20 30 20 30 20 30 20 30 20 30 20 30 20 30 20 [0 0 0 0 0 0 0 0 ]
  | | |         05c8: 30 20 30 20 30 20 30 20 30 20 30 20 30 20 30 20 [0 0 0 0 0 0 0 0 ]
  | | |         05d8: 30 20 30 20 30 20 30 20 30 20 30 20 30 20 30 20 [0 0 0 0 0 0 0 0 ]
  | | |         05e8: 30 20 30 20 30 20 30 20 30 20 30 20 30 20 30 20 [0 0 0 0 0 0 0 0 ]
  | | |         05f8: 30 20 30 20 30 20 30 20 30 20 30 20 30 20 30 20 [0 0 0 0 0 0 0 0 ]
  | | |         0608: 30 20 30 20 30 20 30 20 30 20 30 20 30 20 30 20 [0 0 0 0 0 0 0 0 ]
  | | |         0618: 30 20 30 20 30 20 30 20 30 20 30 20 30 20 30 20 [0 0 0 0 0 0 0 0 ]
  | | |         0628: 30 20 30 20 30 20 30 20 30 20 30 20 30 20 30 20 [0 0 0 0 0 0 0 0 ]
  | | |         0638: 30 20 30 20 30 20 30 20 30 20 30 20 30 20 30 20 [0 0 0 0 0 0 0 0 ]
  | | |         0648: 30 20 30 20 30 20 30 20 30 20 30 20 30 20 30 20 [0 0 0 0 0 0 0 0 ]
  | | |         0658: 30 20 30 20 30 20 30 20 30 20 30 20 30 20 30 20 [0 0 0 0 0 0 0 0 ]
  | | |         0668: 30 20 30 20 30 20 30 20 30 20 30 20 30 20 30 20 [0 0 0 0 0 0 0 0 ]
  | | |         0678: 30 20 30 20 30 20 30 20 30 20 30 20 30 20 30 20 [0 0 0 0 0 0 0 0 ]
  | | |         0688: 30 20 30 20 30 20 30 20 30 20 30 20 30 20 30 20 [0 0 0 0 0 0 0 0 ]
  | | |         0698: 30 20 30 20 30 20 30 20 30 20 30 20 30 20 30 20 [0 0 0 0 0 0 0 0 ]
  | | |         06a8: 30 20 30 20 30 20 30 20 30 20 30 20 30 20 30 20 [0 0 0 0 0 0 0 0 ]
  | | |         06b8: 30 20 30 20 30 20 30 20 30 20 30 20 30 20 30 20 [0 0 0 0 0 0 0 0 ]
  | | |         06c8: 30 20 30 20 30 20 30 20 30 20 30 20 30 20 30 20 [0 0 0 0 0 0 0 0 ]
  | | |         06d8: 30 20 30 20 30 20 30 20 30 20 30 20 30 20 30 20 [0 0 0 0 0 0 0 0 ]
  | | |         06e8: 30 20 30 20 30 20 30 20 30 20 30 20 30 20 30 20 [0 0 0 0 0 0 0 0 ]
  | | |         06f8: 30 20 30 20 30 20 30 20 30 20 30 20 30 20 30 20 [0 0 0 0 0 0 0 0 ]
  | | |         0708: 30 20 30 20 30 20 30 20 30 20 30 20 30 20 30 20 [0 0 0 0 0 0 0 0 ]
  | | |         0718: 30 20 30 20 30 20 30 20 30 20 30 20 30 20 30 20 [0 0 0 0 0 0 0 0 ]
  | | |         0728: 30 20 30 20 30 20 30 00                         [0 0 0 0.]
  | | | 7)  AFMicroAdj (SubDirectory) -->
  | | |     - Tag 0x4013 (36 bytes, string[36] read as undef[36]):
  | | |         0730: 34 34 20 30 20 30 20 31 30 20 34 32 39 34 39 36 [44 0 0 10 429496]
  | | |         0740: 37 32 39 35 20 30 20 31 30 20 30 20 31 30 20 30 [7295 0 10 0 10 0]
  | | |         0750: 20 31 30 00                                     [ 10.]
  | | | Warning = [minor] Invalid AFMicroAdj data
  | | | 8)  VignettingCorrUnknown2 (SubDirectory) -->
  | | |     - Tag 0x4015 (1014 bytes, string[1014] read as undef[1014]):
  | | |         0754: 30 20 33 33 20 32 30 30 20 31 20 31 20 30 20 30 [0 33 200 1 1 0 0]
  | | |         0764: 20 30 20 31 20 30 20 31 20 30 20 36 35 20 30 20 [ 0 1 0 1 0 65 0 ]
  | | |         0774: 30 20 30 20 31 30 30 20 30 20 31 30 30 20 30 20 [0 0 100 0 100 0 ]
  | | |         0784: 34 20 31 36 20 39 36 20 32 31 20 36 34 20 31 34 [4 16 96 21 64 14]
  | | |         0794: 20 32 35 35 20 33 31 20 32 34 33 20 33 31 20 32 [ 255 31 243 31 2]
  | | |         07a4: 33 33 20 33 30 20 35 38 20 32 38 20 31 34 20 32 [33 30 58 28 14 2]
  | | |         07b4: 36 20 32 32 30 20 32 32 20 30 20 30 20 31 32 33 [6 220 22 0 0 123]
  | | |         07c4: 20 31 20 31 31 32 20 34 20 31 30 31 20 37 20 32 [ 1 112 4 101 7 2]
  | | |         07d4: 32 33 20 38 20 32 36 20 31 30 20 30 20 36 34 20 [23 8 26 10 0 64 ]
  | | |         07e4: 38 33 20 36 33 20 32 31 36 20 36 32 20 37 38 20 [83 63 216 62 78 ]
  | | |         07f4: 36 32 20 32 33 32 20 36 31 20 31 39 36 20 36 31 [62 232 61 196 61]
  | | |         0804: 20 30 20 36 34 20 32 30 20 36 34 20 36 32 20 36 [ 0 64 20 64 62 6]
  | | |         0814: 34 20 31 32 36 20 36 34 20 31 38 31 20 36 34 20 [4 126 64 181 64 ]
  | | |         0824: 32 30 30 20 36 34 20 30 20 30 20 31 37 38 20 33 [200 64 0 0 178 3]
  | | |         0834: 20 32 33 34 20 35 20 33 34 20 38 20 31 35 37 20 [ 234 5 34 8 157 ]
  | | |         0844: 39 20 32 36 20 31 30 20 30 20 36 34 20 32 33 38 [9 26 10 0 64 238]
  | | |         0854: 20 36 33 20 34 30 20 36 34 20 31 32 37 20 36 34 [ 63 40 64 127 64]
  | | |         0864: 20 31 39 31 20 36 34 20 32 31 31 20 36 34 20 30 [ 191 64 211 64 0]
  | | |         0874: 20 30 20 31 37 38 20 33 20 32 33 34 20 35 20 33 [ 0 178 3 234 5 3]
  | | |         0884: 34 20 38 20 31 35 37 20 39 20 32 36 20 31 30 20 [4 8 157 9 26 10 ]
  | | |         0894: 30 20 30 20 30 20 30 20 30 20 30 20 30 20 30 20 [0 0 0 0 0 0 0 0 ]
  | | |         08a4: 30 20 30 20 30 20 30 20 30 20 30 20 30 20 30 20 [0 0 0 0 0 0 0 0 ]
  | | |         08b4: 30 20 30 20 30 20 30 20 30 20 30 20 30 20 30 20 [0 0 0 0 0 0 0 0 ]
  | | |         08c4: 30 20 30 20 30 20 30 20 30 20 30 20 30 20 30 20 [0 0 0 0 0 0 0 0 ]
  | | |         08d4: 30 20 30 20 30 20 30 20 30 20 30 20 30 20 30 20 [0 0 0 0 0 0 0 0 ]
  | | |         08e4: 30 20 30 20 30 20 30 20 30 20 30 20 30 20 30 20 [0 0 0 0 0 0 0 0 ]
  | | |         08f4: 30 20 30 20 30 20 30 20 30 20 30 20 30 20 30 20 [0 0 0 0 0 0 0 0 ]
  | | |         0904: 30 20 30 20 30 20 30 20 30 20 30 20 30 20 30 20 [0 0 0 0 0 0 0 0 ]
  | | |         0914: 30 20 30 20 30 20 30 20 30 20 30 20 30 20 30 20 [0 0 0 0 0 0 0 0 ]
  | | |         0924: 30 20 30 20 30 20 30 20 30 20 30 20 30 20 30 20 [0 0 0 0 0 0 0 0 ]
  | | |         0934: 30 20 30 20 30 20 30 20 30 20 30 20 30 20 30 20 [0 0 0 0 0 0 0 0 ]
  | | |         0944: 30 20 30 20 30 20 30 20 30 20 30 20 30 20 30 20 [0 0 0 0 0 0 0 0 ]
  | | |         0954: 30 20 30 20 30 20 30 20 30 20 30 20 30 20 30 20 [0 0 0 0 0 0 0 0 ]
  | | |         0964: 30 20 30 20 30 20 30 20 30 20 30 20 30 20 30 20 [0 0 0 0 0 0 0 0 ]
  | | |         0974: 30 20 30 20 30 20 30 20 30 20 30 20 30 20 30 20 [0 0 0 0 0 0 0 0 ]
  | | |         0984: 30 20 30 20 30 20 30 20 30 20 30 20 30 20 30 20 [0 0 0 0 0 0 0 0 ]
  | | |         0994: 30 20 30 20 30 20 30 20 30 20 30 20 30 20 30 20 [0 0 0 0 0 0 0 0 ]
  | | |         09a4: 30 20 30 20 30 20 30 20 30 20 30 20 30 20 30 20 [0 0 0 0 0 0 0 0 ]
  | | |         09b4: 30 20 30 20 30 20 30 20 30 20 30 20 30 20 30 20 [0 0 0 0 0 0 0 0 ]
  | | |         09c4: 30 20 30 20 30 20 30 20 30 20 30 20 30 20 30 20 [0 0 0 0 0 0 0 0 ]
  | | |         09d4: 30 20 30 20 30 20 30 20 30 20 30 20 30 20 30 20 [0 0 0 0 0 0 0 0 ]
  | | |         09e4: 30 20 30 20 30 20 30 20 30 20 30 20 30 20 30 20 [0 0 0 0 0 0 0 0 ]
  | | |         09f4: 30 20 30 20 30 20 30 20 30 20 30 20 30 20 30 20 [0 0 0 0 0 0 0 0 ]
  | | |         0a04: 30 20 30 20 30 20 30 20 30 20 30 20 30 20 30 20 [0 0 0 0 0 0 0 0 ]
  | | |         0a14: 30 20 30 20 30 20 30 20 30 20 30 20 30 20 30 20 [0 0 0 0 0 0 0 0 ]
  | | |         0a24: 30 20 30 20 30 20 30 20 30 20 30 20 30 20 30 20 [0 0 0 0 0 0 0 0 ]
  | | |         0a34: 30 20 30 20 30 20 30 20 30 20 30 20 30 20 30 20 [0 0 0 0 0 0 0 0 ]
  | | |         0a44: 30 20 30 20 30 20 30 20 30 20 30 20 30 20 30 20 [0 0 0 0 0 0 0 0 ]
  | | |         0a54: 30 20 30 20 30 20 30 20 30 20 30 20 30 20 30 20 [0 0 0 0 0 0 0 0 ]
  | | |         0a64: 30 20 30 20 30 20 30 20 30 20 30 20 30 20 30 20 [0 0 0 0 0 0 0 0 ]
  | | |         0a74: 30 20 30 20 30 20 30 20 30 20 30 20 30 20 30 20 [0 0 0 0 0 0 0 0 ]
  | | |         0a84: 30 20 30 20 30 20 30 20 30 20 30 20 30 20 30 20 [0 0 0 0 0 0 0 0 ]
  | | |         0a94: 30 20 30 20 30 20 30 20 30 20 30 20 30 20 30 20 [0 0 0 0 0 0 0 0 ]
  | | |         0aa4: 30 20 30 20 30 20 30 20 30 20 30 20 30 20 30 20 [0 0 0 0 0 0 0 0 ]
  | | |         0ab4: 30 20 30 20 30 20 30 20 30 20 30 20 30 20 30 20 [0 0 0 0 0 0 0 0 ]
  | | |         0ac4: 30 20 30 20 30 20 30 20 30 20 30 20 30 20 30 20 [0 0 0 0 0 0 0 0 ]
  | | |         0ad4: 30 20 30 20 30 20 30 20 30 20 30 20 30 20 30 20 [0 0 0 0 0 0 0 0 ]
  | | |         0ae4: 30 20 30 20 30 20 30 20 30 20 30 20 30 20 30 20 [0 0 0 0 0 0 0 0 ]
  | | |         0af4: 30 20 30 20 30 20 30 20 30 20 30 20 30 20 30 20 [0 0 0 0 0 0 0 0 ]
  | | |         0b04: 30 20 30 20 30 20 30 20 30 20 30 20 30 20 30 20 [0 0 0 0 0 0 0 0 ]
  | | |         0b14: 30 20 30 20 30 20 30 20 30 20 30 20 30 20 30 20 [0 0 0 0 0 0 0 0 ]
  | | |         0b24: 30 20 30 20 30 20 30 20 30 20 30 20 30 20 30 20 [0 0 0 0 0 0 0 0 ]
  | | |         0b34: 30 20 30 20 30 20 30 20 30 20 30 20 32 35 30 20 [0 0 0 0 0 0 250 ]
  | | |         0b44: 30 20 30 20 30 00                               [0 0 0.]
  | | | + [BinaryData directory, 1014 bytes, Little-endian]
  | | | 9)  VignettingCorr2 (SubDirectory) -->
  | | |     - Tag 0x4016 (15 bytes, string[15] read as undef[15]):
  | | |         0b4a: 32 38 20 30 20 31 20 30 20 30 20 31 20 31 00    [28 0 1 0 0 1 1.]
  | | | Warning = [minor] Invalid VignettingCorr2 data
  | | | 10) LightingOpt (SubDirectory) -->
  | | |     - Tag 0x4018 (15 bytes, string[15] read as undef[15]):
  | | |         0b5a: 32 38 20 30 20 33 20 30 20 30 20 33 20 31 00    [28 0 3 0 0 3 1.]
  | | | Warning = [minor] Invalid LightingOpt data
  | | | 11) LensInfo (SubDirectory) -->
  | | |     - Tag 0x4019 (65 bytes, string[65] read as undef[65]):
  | | |         0b6a: 30 20 30 20 31 32 38 20 31 33 20 32 30 37 20 30 [0 0 128 13 207 0]
  | | |         0b7a: 20 30 20 30 20 30 20 30 20 30 20 30 20 30 20 30 [ 0 0 0 0 0 0 0 0]
  | | |         0b8a: 20 30 20 30 20 30 20 30 20 30 20 30 20 30 20 30 [ 0 0 0 0 0 0 0 0]
  | | |         0b9a: 20 30 20 30 20 30 20 30 20 30 20 30 20 30 20 30 [ 0 0 0 0 0 0 0 0]
  | | |         0baa: 00                                              [.]
  | | | + [BinaryData directory, 65 bytes, Little-endian]
  | | | | LensSerialNumber = 0 0 1
  | | | | - Tag 0x0000 (5 bytes, undef[5]):
  | | | |     0b6a: 30 20 30 20 31                                  [0 0 1]
  | | | 12) AmbienceInfo (SubDirectory) -->
  | | |     - Tag 0x4020 (24 bytes, string[24] read as undef[24]):
  | | |         0bac: 32 38 20 30 20 30 20 30 20 30 20 32 31 34 37 34 [28 0 0 0 0 21474]
  | | |         0bbc: 38 33 36 34 37 20 30 00                         [83647 0.]
  | | | Warning = [minor] Invalid AmbienceInfo data
  | | | 13) MultiExp (SubDirectory) -->
  | | |     - Tag 0x4021 (11 bytes, string[11] read as undef[11]):
  | | |         0bc4: 32 30 20 30 20 30 20 30 20 31 00                [20 0 0 0 1.]
  | | | Warning = [minor] Invalid MultiExp data
  | | | 14) FilterInfo (SubDirectory) -->
  | | |     - Tag 0x4024 (205 bytes, string[205] read as undef[205]):
  | | |         0bd0: 32 31 32 20 37 20 31 20 32 30 20 31 20 32 35 37 [212 7 1 20 1 257]
  | | |         0be0: 20 31 20 34 32 39 34 39 36 37 32 39 35 20 32 20 [ 1 4294967295 2 ]
  | | |         0bf0: 32 30 20 31 20 35 31 33 20 31 20 34 32 39 34 39 [20 1 513 1 42949]
  | | |         0c00: 36 37 32 39 35 20 33 20 32 30 20 31 20 37 36 39 [67295 3 20 1 769]
  | | |         0c10: 20 31 20 34 32 39 34 39 36 37 32 39 35 20 34 20 [ 1 4294967295 4 ]
  | | |         0c20: 35 36 20 34 20 31 30 32 35 20 31 20 34 32 39 34 [56 4 1025 1 4294]
  | | |         0c30: 39 36 37 32 39 35 20 31 30 32 36 20 31 20 30 20 [967295 1026 1 0 ]
  | | |         0c40: 31 30 32 37 20 31 20 30 20 31 30 32 38 20 31 20 [1027 1 0 1028 1 ]
  | | |         0c50: 30 20 35 20 32 30 20 31 20 31 32 38 31 20 31 20 [0 5 20 1 1281 1 ]
  | | |         0c60: 34 32 39 34 39 36 37 32 39 35 20 36 20 32 30 20 [4294967295 6 20 ]
  | | |         0c70: 31 20 31 35 33 37 20 31 20 34 32 39 34 39 36 37 [1 1537 1 4294967]
  | | |         0c80: 32 39 35 20 37 20 32 30 20 31 20 31 37 39 33 20 [295 7 20 1 1793 ]
  | | |         0c90: 31 20 34 32 39 34 39 36 37 32 39 35 00          [1 4294967295.]
  | | | Warning = [minor] Invalid FilterInfo data
  | | | 15) HDRInfo (SubDirectory) -->
  | | |     - Tag 0x4025 (19 bytes, string[19] read as undef[19]):
  | | |         0c9e: 33 36 20 30 20 30 20 30 20 30 20 30 20 30 20 30 [36 0 0 0 0 0 0 0]
  | | |         0cae: 20 30 00                                        [ 0.]
  | | | Warning = [minor] Invalid HDRInfo data
  | | | 16) Canon_0x4027 = 24 524550 2969567282 134217728 13684944 65538
  | | |     - Tag 0x4027 (46 bytes, string[46]):
  | | |         0cb2: 32 34 20 35 32 34 35 35 30 20 32 39 36 39 35 36 [24 524550 296956]
  | | |         0cc2: 37 32 38 32 20 31 33 34 32 31 37 37 32 38 20 31 [7282 134217728 1]
  | | |         0cd2: 33 36 38 34 39 34 34 20 36 35 35 33 38 00       [3684944 65538.]
  | | | 17) CanonAFInfo2 (SubDirectory) -->
  | | |     - Tag 0x0026 (278 bytes, int16u[139] read as undef[278]):
  | | |         0ce0: 16 01 02 00 1f 00 13 00 60 15 40 0e 60 15 40 0e [........`.@.`.@.]
  | | |         0cf0: e5 00 e5 00 e5 00 e5 00 e5 00 e5 00 e5 00 e5 00 [................]
  | | |         0d00: e5 00 e5 00 e5 00 e5 00 e5 00 e5 00 e5 00 e5 00 [................]
  | | |         0d10: e5 00 e5 00 e5 00 00 00 00 00 00 00 00 00 00 00 [................]
  | | |         0d20: 00 00 00 00 00 00 00 00 00 00 00 00 00 00 15 01 [................]
  | | |         0d30: 15 01 15 01 15 01 15 01 15 01 15 01 15 01 15 01 [................]
  | | |         0d40: 15 01 15 01 15 01 15 01 15 01 15 01 15 01 15 01 [................]
  | | |         0d50: 15 01 15 01 00 00 00 00 00 00 00 00 00 00 00 00 [................]
  | | |         0d60: 00 00 00 00 00 00 00 00 00 00 00 00 8d fa 7f fc [................]
  | | |         0d70: 7f fc 7f fc 71 fe 71 fe 71 fe 00 00 00 00 00 00 [....q.q.q.......]
  | | |         0d80: 00 00 00 00 8f 01 8f 01 8f 01 81 03 81 03 81 03 [................]
  | | |         0d90: 73 05 00 00 00 00 00 00 00 00 00 00 00 00 00 00 [s...............]
  | | |         0da0: 00 00 00 00 00 00 00 00 00 00 00 00 91 01 00 00 [................]
  | | |         0db0: 6f fe 91 01 00 00 6f fe f3 02 91 01 00 00 6f fe [o.....o.......o.]
  | | |         0dc0: 0d fd 91 01 00 00 6f fe 91 01 00 00 6f fe 00 00 [......o.....o...]
  | | |         0dd0: 00 00 00 00 00 00 00 00 00 00 00 00 00 00 00 00 [................]
  | | |         0de0: 00 00 00 00 00 00 00 00 00 02 00 00 00 02 00 00 [................]
  | | |         0df0: 00 00 00 00 ff ff                               [......]
  | | | + [SerialData directory, 278 bytes]
  | | | | 0)  AFInfoSize = 278
  | | | |     - Tag 0x0000 (2 bytes, int16u[1]):
  | | | |         0ce0: 16 01                                           [..]
  | | | | 1)  AFAreaMode = 2
  | | | |     - Tag 0x0001 (2 bytes, int16u[1]):
  | | | |         0ce2: 02 00                                           [..]
  | | | | 2)  NumAFPoints = 31
  | | | |     - Tag 0x0002 (2 bytes, int16u[1]):
  | | | |         0ce4: 1f 00                                           [..]
  | | | | 3)  ValidAFPoints = 19
  | | | |     - Tag 0x0003 (2 bytes, int16u[1]):
  | | | |         0ce6: 13 00                                           [..]
  | | | | 4)  CanonImageWidth = 5472
  | | | |     - Tag 0x0004 (2 bytes, int16u[1]):
  | | | |         0ce8: 60 15                                           [`.]
  | | | | 5)  CanonImageHeight = 3648
  | | | |     - Tag 0x0005 (2 bytes, int16u[1]):
  | | | |         0cea: 40 0e                                           [@.]
  | | | | 6)  AFImageWidth = 5472
  | | | |     - Tag 0x0006 (2 bytes, int16u[1]):
  | | | |         0cec: 60 15                                           [`.]
  | | | | 7)  AFImageHeight = 3648
  | | | |     - Tag 0x0007 (2 bytes, int16u[1]):
  | | | |         0cee: 40 0e                                           [@.]
  | | | | 8)  AFAreaWidths = 229 229 229 229 229 229 229 229 229 229 229 229 229 229 229 229 229 229 229 0 0 0 0 0 0 0 0 0 0 0 0
  | | | |     - Tag 0x0008 (62 bytes, int16s[31]):
  | | | |         0cf0: e5 00 e5 00 e5 00 e5 00 e5 00 e5 00 e5 00 e5 00 [................]
  | | | |         0d00: e5 00 e5 00 e5 00 e5 00 e5 00 e5 00 e5 00 e5 00 [................]
  | | | |         0d10: e5 00 e5 00 e5 00 00 00 00 00 00 00 00 00 00 00 [................]
  | | | |         0d20: 00 00 00 00 00 00 00 00 00 00 00 00 00 00       [..............]
  | | | | 9)  AFAreaHeights = 277 277 277 277 277 277 277 277 277 277 277 277 277 277 277 277 277 277 277 0 0 0 0 0 0 0 0 0 0 0 0
  | | | |     - Tag 0x0009 (62 bytes, int16s[31]):
  | | | |         0d2e: 15 01 15 01 15 01 15 01 15 01 15 01 15 01 15 01 [................]
  | | | |         0d3e: 15 01 15 01 15 01 15 01 15 01 15 01 15 01 15 01 [................]
  | | | |         0d4e: 15 01 15 01 15 01 00 00 00 00 00 00 00 00 00 00 [................]
  | | | |         0d5e: 00 00 00 00 00 00 00 00 00 00 00 00 00 00       [..............]
  | | | | 10) AFAreaXPositions = -1395 -897 -897 -897 -399 -399 -399 0 0 0 0 0 399 399 399 897 897 897 1395 0 0 0 0 0 0 0 0 0 0 0 0
  | | | |     - Tag 0x000a (62 bytes, int16s[31]):
  | | | |         0d6c: 8d fa 7f fc 7f fc 7f fc 71 fe 71 fe 71 fe 00 00 [........q.q.q...]
  | | | |         0d7c: 00 00 00 00 00 00 00 00 8f 01 8f 01 8f 01 81 03 [................]
  | | | |         0d8c: 81 03 81 03 73 05 00 00 00 00 00 00 00 00 00 00 [....s...........]
  | | | |         0d9c: 00 00 00 00 00 00 00 00 00 00 00 00 00 00       [..............]
  | | | | 11) AFAreaYPositions = 0 401 0 -401 401 0 -401 755 401 0 -401 -755 401 0 -401 401 0 -401 0 0 0 0 0 0 0 0 0 0 0 0 0
  | | | |     - Tag 0x000b (62 bytes, int16s[31]):
  | | | |         0daa: 00 00 91 01 00 00 6f fe 91 01 00 00 6f fe f3 02 [......o.....o...]
  | | | |         0dba: 91 01 00 00 6f fe 0d fd 91 01 00 00 6f fe 91 01 [....o.......o...]
  | | | |         0dca: 00 00 6f fe 00 00 00 00 00 00 00 00 00 00 00 00 [..o.............]
  | | | |         0dda: 00 00 00 00 00 00 00 00 00 00 00 00 00 00       [..............]
  | | | | 12) AFPointsInFocus = 512 0
  | | | |     - Tag 0x000c (4 bytes, int16s[2]):
  | | | |         0de8: 00 02 00 00                                     [....]
  | | | | 13) AFPointsSelected = 512 0
  | | | |     - Tag 0x000d (4 bytes, int16s[2]):
  | | | |         0dec: 00 02 00 00                                     [....]
  | | | 18) CanonCameraInfo70D (SubDirectory) -->
  | | |     - Tag 0x000d (3072 bytes, int16u[1536] read as undef[3072]):
  | | |         0df6: aa 00 aa 00 7d 00 35 00 7d 00 35 00 53 00 00 00 [....}.5.}.5.S...]
  | | |         0e06: 01 00 b3 00 01 00 a7 00 00 00 03 00 00 00 00 00 [................]
  | | |         0e16: 00 00 00 00 00 00 00 00 01 00 00 00 00 00 06 00 [................]
  | | |         0e26: 00 00 00 00 00 00 98 00 9a 00 00 00 69 00 00 00 [............i...]
  | | |         0e36: 71 00 00 00 67 00 00 00 fa 00 80 00 00 00 00 00 [q...g...........]
  | | |         0e46: 00 00 00 00 00 00 00 00 00 00 09 00 03 00 00 00 [................]
  | | |         0e56: 00 00 00 00 00 00 00 00 4a 00 00 00 fa 00 00 00 [........J.......]
  | | |         0e66: 9c 00 01 00 bb 00 bb 00 4a 00 00 00 00 00 00 00 [........J.......]
  | | |         0e76: 40 00 c0 00 00 00 00 00 00 00 00 00 00 00 00 00 [@...............]
  | | |         0e86: 00 00 00 00 00 00 00 00 00 00 00 00 00 00 00 00 [................]
  | | |         0e96: 00 00 00 00 00 00 00 00 00 00 00 00 00 00 00 00 [................]
  | | |         0ea6: 00 00 ff 00 00 00 4a 00 ff 00 75 00 ff 00 a3 00 [......J...u.....]
  | | |         0eb6: 00 00 00 00 00 00 00 00 00 00 00 00 00 00 00 00 [................]
  | | |         0ec6: 00 00 00 00 00 00 00 00 00 00 00 00 eb 00 25 00 [..............%.]
  | | |         0ed6: ee 00 3d 00 4a 00 00 00 00 00 00 00 00 00 00 00 [..=.J...........]
  | | |         0ee6: 00 00 00 00 00 00 00 00 01 00 01 00 00 00 00 00 [................]
  | | |         0ef6: 00 00 00 00 00 00 01 00 00 00 00 00 00 00 00 00 [................]
  | | |         0f06: 00 00 00 00 00 00 00 00 00 00 00 00 00 00 00 00 [................]
  | | |         0f16: 00 00 00 00 00 00 00 00 5a 00 00 00 55 00 04 00 [........Z...U...]
  | | |         0f26: 00 00 3f 00 00 00 00 00 00 00 00 00 00 00 00 00 [..?.............]
  | | |         0f36: ff 00 ff 00 ff 00 ff 00 0c 00 cc 00 cc 00 03 00 [................]
  | | |         0f46: 00 00 00 00 00 00 03 00 00 00 00 00 00 00 00 00 [................]
  | | |         0f56: 00 00 00 00 00 00 53 00 00 00 00 00 00 00 00 00 [......S.........]
  | | |         0f66: 00 00 00 00 00 00 00 00 4a 00 00 00 00 00 00 00 [........J.......]
  | | |         0f76: 00 00 4a 00 00 00 00 00 00 00 00 00 00 00 28 00 [..J...........(.]
  | | |         0f86: 0a 00 00 00 00 00 00 00 00 00 00 00 00 00 00 00 [................]
  | | |         0f96: 00 00 00 00 00 00 07 00 00 00 00 00 00 00 07 00 [................]
  | | |         0fa6: 00 00 00 00 00 00 07 00 00 00 00 00 00 00 03 00 [................]
  | | |         0fb6: 00 00 00 00 00 00 03 00 00 00 00 00 00 00 03 00 [................]
  | | |         0fc6: 00 00 00 00 00 00 00 00 00 00 00 00 00 00 01 00 [................]
  | | |         0fd6: 00 00 00 00 00 00 00 00 00 00 00 00 00 00 00 00 [................]
  | | |         0fe6: 00 00 00 00 00 00 84 00 00 00 00 00 00 00 01 00 [................]
  | | |         0ff6: 00 00 00 00 00 00 00 00 00 00 00 00 00 00 01 00 [................]
  | | |         1006: 00 00 00 00 00 00 07 00 00 00 00 00 00 00 00 00 [................]
  | | |         1016: 00 00 00 00 03 00 05 00 03 00 5f 00 d5 00 00 00 [.........._.....]
  | | |         1026: 00 00 00 00 00 00 0e 00 00 00 00 00 00 00 00 00 [................]
  | | |         1036: 00 00 00 00 00 00 00 00 00 00 00 00 00 00 00 00 [................]
  | | |         1046: 00 00 03 00 07 00 07 00 11 00 0d 00 00 00 00 00 [................]
  | | |         1056: 00 00 00 00 00 00 00 00 00 00 00 00 00 00 00 00 [................]
  | | |         1066: 00 00 00 00 00 00 00 00 00 00 55 00 56 00 05 00 [..........U.V...]
  | | |         1076: 00 00 00 00 03 00 00 00 14 00 04 00 00 00 00 00 [................]
  | | |         1086: 00 00 00 00 00 00 00 00 00 00 00 00 00 00 00 00 [................]
  | | |         1096: 00 00 00 00 00 00 00 00 00 00 00 00 00 00 00 00 [................]
  | | |         10a6: 03 00 02 00 02 00 00 00 00 00 00 00 00 00 00 00 [................]
  | | |         10b6: 00 00 00 00 00 00 01 00 30 00 58 00 10 00 34 00 [........0.X...4.]
  | | |         10c6: 00 00 37 00 00 00 fa 00 91 00 57 00 9a 00 7e 00 [..7.......W...~.]
  | | |         10d6: 08 00 ff 00 00 00 00 00 00 00 00 00 00 00 00 00 [................]
  | | |         10e6: 00 00 80 00 0d 00 cf 00 01 00 00 00 02 00 17 00 [................]
  | | |         10f6: 32 00 00 00 00 00 02 00 00 00 00 00 00 00 00 00 [2...............]
  | | |         1106: 00 00 00 00 00 00 00 00 00 00 00 00 00 00 00 00 [................]
  | | |         1116: 00 00 00 00 00 00 00 00 00 00 00 00 00 00 00 00 [................]
  | | |         1126: 00 00 00 00 00 00 00 00 00 00 00 00 00 00 01 00 [................]
  | | |         1136: 00 00 00 00 00 00 60 00 15 00 00 00 00 00 40 00 [......`.......@.]
  | | |         1146: 0e 00 00 00 00 00 26 00 02 00 00 00 00 00 72 00 [......&.......r.]
  | | |         1156: 01 00 00 00 00 00 28 00 02 00 00 00 00 00 e0 00 [......(.........]
  | | |         1166: 02 00 00 00 00 00 d0 00 02 00 00 00 00 00 e0 00 [................]
  | | |         1176: 01 00 00 00 00 00 00 00 00 00 00 00 00 00 00 00 [................]
  | | |         1186: 00 00 00 00 00 00 d0 00 02 00 00 00 00 00 e0 00 [................]
  | | |         1196: 01 00 00 00 00 00 d0 00 02 00 00 00 00 00 e0 00 [................]
  | | |         11a6: 01 00 00 00 00 00 00 00 00 00 00 00 00 00 00 00 [................]
  | | |         11b6: 00 00 00 00 00 00 d0 00 02 00 00 00 00 00 e0 00 [................]
  | | |         11c6: 01 00 00 00 00 00 00 00 00 00 00 00 00 00 00 00 [................]
  | | |         11d6: 00 00 00 00 00 00 01 00 00 00 00 00 00 00 00 00 [................]
  | | |         11e6: 00 00 00 00 00 00 00 00 00 00 00 00 00 00 00 00 [................]
  | | |         11f6: 00 00 00 00 00 00 00 00 00 00 00 00 00 00 00 00 [................]
  | | |         1206: 00 00 00 00 00 00 00 00 00 00 00 00 00 00 ff 00 [................]
  | | |         1216: ff 00 ff 00 7f 00 ff 00 ff 00 ff 00 7f 00 00 00 [................]
  | | |         1226: 00 00 00 00 00 00 00 00 00 00 00 00 00 00 00 00 [................]
  | | |         1236: 02 00 00 00 00 00 00 00 00 00 00 00 00 00 00 00 [................]
  | | |         1246: 00 00 00 00 00 00 0a 00 02 00 00 00 01 00 00 00 [................]
  | | |         1256: 00 00 01 00 00 00 00 00 03 00 00 00 00 00 00 00 [................]
  | | |         1266: 00 00 00 00 00 00 00 00 00 00 00 00 00 00 00 00 [................]
  | | |         1276: 00 00 00 00 00 00 00 00 00 00 00 00 00 00 00 00 [................]
  | | |         1286: 00 00 00 00 00 00 00 00 00 00 00 00 00 00 00 00 [................]
  | | |         1296: 00 00 00 00 01 00 00 00 00 00 00 00 00 00 00 00 [................]
  | | |         12a6: 00 00 00 00 00 00 01 00 01 00 00 00 31 00 2e 00 [............1...]
  | | |         12b6: 31 00 2e 00 32 00 00 00 42 00 31 00 28 00 33 00 [1...2...B.1.(.3.]
  | | |         12c6: 32 00 29 00 00 00 00 00 00 00 00 00 05 00 00 00 [2.).............]
  | | |         12d6: 00 00 00 00 00 00 00 00 00 00 00 00 a4 00 cd 00 [................]
  | | |         12e6: 59 00 00 00 00 00 00 00 00 00 00 00 00 00 00 00 [Y...............]
  | | |         12f6: 03 00 80 00 00 00 00 00 00 00 00 00 00 00 00 00 [................]
  | | |         1306: 00 00 00 00 00 00 00 00 00 00 00 00 00 00 00 00 [................]
  | | |         1316: 00 00 00 00 00 00 00 00 00 00 00 00 00 00 00 00 [................]
  | | |         1326: 00 00 00 00 00 00 00 00 00 00 00 00 00 00 00 00 [................]
  | | |         1336: 00 00 00 00 00 00 8e 00 00 00 00 00 00 00 64 00 [..............d.]
  | | |         1346: 00 00 00 00 00 00 64 00 00 00 00 00 00 00 00 00 [......d.........]
  | | |         1356: 00 00 00 00 00 00 83 00 25 00 00 00 00 00 00 00 [........%.......]
  | | |         1366: 00 00 00 00 00 00 64 00 00 00 00 00 00 00 65 00 [......d.......e.]
  | | |         1376: 00 00 00 00 00 00 64 00 00 00 00 00 00 00 08 00 [......d.........]
  | | |         1386: 00 00 00 00 00 00 08 00 00 00 00 00 00 00 08 00 [................]
  | | |         1396: 00 00 00 00 00 00 08 00 00 00 00 00 00 00 01 00 [................]
  | | |         13a6: 00 00 00 00 00 00 00 00 00 00 00 00 00 00 00 00 [................]
  | | |         13b6: 00 00 00 00 00 00 00 00 00 00 00 00 00 00 00 00 [................]
  | | |         13c6: 00 00 00 00 00 00 00 00 00 00 00 00 00 00 00 00 [................]
  | | |         13d6: 00 00 00 00 00 00 00 00 00 00 00 00 00 00 00 00 [................]
  | | |         13e6: 00 00 00 00 00 00 f4 00 01 00 00 00 04 00 00 00 [................]
  | | |         13f6: 04 00 74 00 02 00 00 00 00 00 00 00 00 00 00 00 [..t.............]
  | | |         1406: 00 00 00 00 00 00 00 00 00 00 00 00 00 00 00 00 [................]
  | | |         1416: 00 00 00 00 00 00 00 00 00 00 00 00 00 00 00 00 [................]
  | | |         1426: 00 00 00 00 00 00 00 00 00 00 00 00 00 00 00 00 [................]
  | | |         1436: 00 00 00 00 00 00 00 00 00 00 00 00 00 00 f4 00 [................]
  | | |         1446: 01 00 00 00 04 00 00 00 04 00 74 00 02 00 00 00 [..........t.....]
  | | |         1456: 00 00 00 00 00 00 00 00 00 00 00 00 00 00 00 00 [................]
  | | |         1466: 00 00 00 00 00 00 00 00 00 00 00 00 00 00 00 00 [................]
  | | |         1476: 00 00 00 00 00 00 00 00 00 00 00 00 00 00 00 00 [................]
  | | |         1486: 00 00 00 00 00 00 00 00 00 00 00 00 00 00 00 00 [................]
  | | |         1496: 00 00 00 00 00 00 f4 00 01 00 00 00 04 00 00 00 [................]
  | | |         14a6: 04 00 74 00 02 00 00 00 00 00 00 00 00 00 00 00 [..t.............]
  | | |         14b6: 00 00 00 00 00 00 00 00 00 00 00 00 00 00 00 00 [................]
  | | |         14c6: 00 00 00 00 00 00 00 00 00 00 00 00 00 00 00 00 [................]
  | | |         14d6: 00 00 00 00 00 00 00 00 00 00 00 00 00 00 00 00 [................]
  | | |         14e6: 00 00 00 00 00 00 00 00 00 00 00 00 00 00 f4 00 [................]
  | | |         14f6: 01 00 00 00 04 00 00 00 04 00 74 00 02 00 00 00 [..........t.....]
  | | |         1506: 00 00 00 00 00 00 00 00 00 00 00 00 00 00 00 00 [................]
  | | |         1516: 00 00 00 00 00 00 00 00 00 00 00 00 00 00 00 00 [................]
  | | |         1526: 00 00 00 00 00 00 00 00 00 00 00 00 00 00 00 00 [................]
  | | |         1536: 00 00 00 00 00 00 00 00 00 00 00 00 00 00 00 00 [................]
  | | |         1546: 00 00 00 00 00 00 f4 00 01 00 00 00 04 00 00 00 [................]
  | | |         1556: 04 00 74 00 02 00 00 00 00 00 00 00 00 00 00 00 [..t.............]
  | | |         1566: 00 00 00 00 00 00 01 00 00 00 00 00 00 00 00 00 [................]
  | | |         1576: 00 00 00 00 00 00 00 00 00 00 00 00 00 00 00 00 [................]
  | | |         1586: 00 00 00 00 00 00 02 00 00 00 00 00 00 00 00 00 [................]
  | | |         1596: 00 00 00 00 00 00 03 00 00 00 00 00 00 00 00 00 [................]
  | | |         15a6: 00 00 00 00 00 00 00 00 00 00 00 00 00 00 ef 00 [................]
  | | |         15b6: be 00 ad 00 de 00 ef 00 be 00 ad 00 de 00 00 00 [................]
  | | |         15c6: 00 00 00 00 00 00 02 00 00 00 00 00 00 00 00 00 [................]
  | | |         15d6: 00 00 00 00 00 00 00 00 00 00 00 00 00 00 ef 00 [................]
  | | |         [snip 1040 bytes]
  | | | + [BinaryData directory, 3072 bytes, Little-endian]
  | | | | FNumber = 0
  | | | | - Tag 0x0003 (1 bytes, int8u[1]):
  | | | |     0df9: 00                                              [.]
  | | | | ExposureTime = 125
  | | | | - Tag 0x0004 (1 bytes, int8u[1]):
  | | | |     0dfa: 7d                                              [}]
  | | | | ISO = 53
  | | | | - Tag 0x0006 (1 bytes, int8u[1]):
  | | | |     0dfc: 35                                              [5]
  | | | | CameraTemperature = 0
  | | | | - Tag 0x001b (1 bytes, int8u[1]):
  | | | |     0e11: 00                                              [.]
  | | | | FocalLength = 0
  | | | | - Tag 0x0023 (2 bytes, int16uRev[1]):
  | | | |     0e19: 00 00                                           [..]
  | | | | CameraOrientation = 0
  | | | | - Tag 0x0084 (1 bytes, int8u[1]):
  | | | |     0e7a: 00                                              [.]
  | | | | FocusDistanceUpper = 0
  | | | | - Tag 0x0093 (2 bytes, int16uRev[1]):
  | | | |     0e89: 00 00                                           [..]
  | | | | FocusDistanceLower = 0
  | | | | - Tag 0x0095 (2 bytes, int16uRev[1]):
  | | | |     0e8b: 00 00                                           [..]
  | | | | ColorTemperature = 0
  | | | | - Tag 0x00c7 (2 bytes, int16u[1]):
  | | | |     0ebd: 00 00                                           [..]
  | | | | LensType = 21248
  | | | | - Tag 0x0166 (2 bytes, int16uRev[1]):
  | | | |     0f5c: 53 00                                           [S.]
  | | | | MinFocalLength = 0
  | | | | - Tag 0x0168 (2 bytes, int16uRev[1]):
  | | | |     0f5e: 00 00                                           [..]
  | | | | MaxFocalLength = 0
  | | | | - Tag 0x016a (2 bytes, int16uRev[1]):
  | | | |     0f60: 00 00                                           [..]
  | | | | FirmwareVersion = 
  | | | | - Tag 0x025e (6 bytes, string[6]):
  | | | |     1054: 00 00 00 00 00 00                               [......]
  | | | | FileIndex = 512
  | | | | - Tag 0x02b3 (4 bytes, int32u[1]):
  | | | |     10a9: 00 02 00 00                                     [....]
  | | | | DirectoryIndex = 0
  | | | | - Tag 0x02bf (4 bytes, int32u[1]):
  | | | |     10b5: 00 00 00 00                                     [....]
  | | | | PictureStyleInfo (SubDirectory) -->
  | | | | - Tag 0x03cf (2097 bytes, int8u[1]):
  | | | |     11c5: 00 01 00 00 00 00 00 00 00 00 00 00 00 00 00 00 [................]
  | | | |     11d5: 00 00 00 00 00 00 00 01 00 00 00 00 00 00 00 00 [................]
  | | | |     11e5: 00 00 00 00 00 00 00 00 00 00 00 00 00 00 00 00 [................]
  | | | |     11f5: 00 00 00 00 00 00 00 00 00 00 00 00 00 00 00 00 [................]
  | | | |     1205: 00 00 00 00 00 00 00 00 00 00 00 00 00 00 00 ff [................]
  | | | |     1215: 00 ff 00 ff 00 7f 00 ff 00 ff 00 ff 00 7f 00 00 [................]
  | | | |     1225: 00 00 00 00 00 00 00 00 00 00 00 00 00 00 00 00 [................]
  | | | |     1235: 00 02 00 00 00 00 00 00 00 00 00 00 00 00 00 00 [................]
  | | | |     1245: 00 00 00 00 00 00 00 0a 00 02 00 00 00 01 00 00 [................]
  | | | |     1255: 00 00 00 01 00 00 00 00 00 03 00 00 00 00 00 00 [................]
  | | | |     1265: 00 00 00 00 00 00 00 00 00 00 00 00 00 00 00 00 [................]
  | | | |     1275: 00 00 00 00 00 00 00 00 00 00 00 00 00 00 00 00 [................]
  | | | |     1285: 00 00 00 00 00 00 00 00 00 00 00 00 00 00 00 00 [................]
  | | | |     1295: 00 00 00 00 00 01 00 00 00 00 00 00 00 00 00 00 [................]
  | | | |     12a5: 00 00 00 00 00 00 00 01 00 01 00 00 00 31 00 2e [.............1..]
  | | | |     12b5: 00 31 00 2e 00 32 00 00 00 42 00 31 00 28 00 33 [.1...2...B.1.(.3]
  | | | |     12c5: 00 32 00 29 00 00 00 00 00 00 00 00 00 05 00 00 [.2.)............]
  | | | |     12d5: 00 00 00 00 00 00 00 00 00 00 00 00 00 a4 00 cd [................]
  | | | |     12e5: 00 59 00 00 00 00 00 00 00 00 00 00 00 00 00 00 [.Y..............]
  | | | |     12f5: 00 03 00 80 00 00 00 00 00 00 00 00 00 00 00 00 [................]
  | | | |     1305: 00 00 00 00 00 00 00 00 00 00 00 00 00 00 00 00 [................]
  | | | |     1315: 00 00 00 00 00 00 00 00 00 00 00 00 00 00 00 00 [................]
  | | | |     1325: 00 00 00 00 00 00 00 00 00 00 00 00 00 00 00 00 [................]
  | | | |     1335: 00 00 00 00 00 00 00 8e 00 00 00 00 00 00 00 64 [...............d]
  | | | |     1345: 00 00 00 00 00 00 00 64 00 00 00 00 00 00 00 00 [.......d........]
  | | | |     1355: 00 00 00 00 00 00 00 83 00 25 00 00 00 00 00 00 [.........%......]
  | | | |     1365: 00 00 00 00 00 00 00 64 00 00 00 00 00 00 00 65 [.......d.......e]
  | | | |     1375: 00 00 00 00 00 00 00 64 00 00 00 00 00 00 00 08 [.......d........]
  | | | |     1385: 00 00 00 00 00 00 00 08 00 00 00 00 00 00 00 08 [................]
  | | | |     1395: 00 00 00 00 00 00 00 08 00 00 00 00 00 00 00 01 [................]
  | | | |     13a5: 00 00 00 00 00 00 00 00 00 00 00 00 00 00 00 00 [................]
  | | | |     13b5: 00 00 00 00 00 00 00 00 00 00 00 00 00 00 00 00 [................]
  | | | |     13c5: 00 00 00 00 00 00 00 00 00 00 00 00 00 00 00 00 [................]
  | | | |     13d5: 00 00 00 00 00 00 00 00 00 00 00 00 00 00 00 00 [................]
  | | | |     13e5: 00 00 00 00 00 00 00 f4 00 01 00 00 00 04 00 00 [................]
  | | | |     13f5: 00 04 00 74 00 02 00 00 00 00 00 00 00 00 00 00 [...t............]
  | | | |     1405: 00 00 00 00 00 00 00 00 00 00 00 00 00 00 00 00 [................]
  | | | |     1415: 00 00 00 00 00 00 00 00 00 00 00 00 00 00 00 00 [................]
  | | | |     1425: 00 00 00 00 00 00 00 00 00 00 00 00 00 00 00 00 [................]
  | | | |     1435: 00 00 00 00 00 00 00 00 00 00 00 00 00 00 00 f4 [................]
  | | | |     1445: 00 01 00 00 00 04 00 00 00 04 00 74 00 02 00 00 [...........t....]
  | | | |     1455: 00 00 00 00 00 00 00 00 00 00 00 00 00 00 00 00 [................]
  | | | |     1465: 00 00 00 00 00 00 00 00 00 00 00 00 00 00 00 00 [................]
  | | | |     1475: 00 00 00 00 00 00 00 00 00 00 00 00 00 00 00 00 [................]
  | | | |     1485: 00 00 00 00 00 00 00 00 00 00 00 00 00 00 00 00 [................]
  | | | |     1495: 00 00 00 00 00 00 00 f4 00 01 00 00 00 04 00 00 [................]
  | | | |     14a5: 00 04 00 74 00 02 00 00 00 00 00 00 00 00 00 00 [...t............]
  | | | |     14b5: 00 00 00 00 00 00 00 00 00 00 00 00 00 00 00 00 [................]
  | | | |     14c5: 00 00 00 00 00 00 00 00 00 00 00 00 00 00 00 00 [................]
  | | | |     14d5: 00 00 00 00 00 00 00 00 00 00 00 00 00 00 00 00 [................]
  | | | |     14e5: 00 00 00 00 00 00 00 00 00 00 00 00 00 00 00 f4 [................]
  | | | |     14f5: 00 01 00 00 00 04 00 00 00 04 00 74 00 02 00 00 [...........t....]
  | | | |     1505: 00 00 00 00 00 00 00 00 00 00 00 00 00 00 00 00 [................]
  | | | |     1515: 00 00 00 00 00 00 00 00 00 00 00 00 00 00 00 00 [................]
  | | | |     1525: 00 00 00 00 00 00 00 00 00 00 00 00 00 00 00 00 [................]
  | | | |     1535: 00 00 00 00 00 00 00 00 00 00 00 00 00 00 00 00 [................]
  | | | |     1545: 00 00 00 00 00 00 00 f4 00 01 00 00 00 04 00 00 [................]
  | | | |     1555: 00 04 00 74 00 02 00 00 00 00 00 00 00 00 00 00 [...t............]
  | | | |     1565: 00 00 00 00 00 00 00 01 00 00 00 00 00 00 00 00 [................]
  | | | |     1575: 00 00 00 00 00 00 00 00 00 00 00 00 00 00 00 00 [................]
  | | | |     1585: 00 00 00 00 00 00 00 02 00 00 00 00 00 00 00 00 [................]
  | | | |     1595: 00 00 00 00 00 00 00 03 00 00 00 00 00 00 00 00 [................]
  | | | |     15a5: 00 00 00 00 00 00 00 00 00 00 00 00 00 00 00 ef [................]
  | | | |     15b5: 00 be 00 ad 00 de 00 ef 00 be 00 ad 00 de 00 00 [................]
  | | | |     15c5: 00 00 00 00 00 00 00 02 00 00 00 00 00 00 00 00 [................]
  | | | |     15d5: 00 00 00 00 00 00 00 00 00 00 00 00 00 00 00 ef [................]
  | | | |     15e5: 00 be 00 ad 00 de 00 ef 00 be 00 ad 00 de 00 00 [................]
  | | | |     15f5: 00 00 00 00 00 00 00 04 00 00 00 00 00 00 00 00 [................]
  | | | |     1605: 00 00 00 00 00 00 00 00 00 00 00 00 00 00 00 ef [................]
  | | | |     1615: 00 be 00 ad 00 de 00 ef 00 be 00 ad 00 de 00 00 [................]
  | | | |     1625: 00 00 00 00 00 00 00 00 00 00 00 00 00 00 00 00 [................]
  | | | |     1635: 00 00 00 00 00 00 00 00 00 00 00 00 00 00 00 ef [................]
  | | | |     1645: 00 be 00 ad 00 de 00 ef 00 be 00 ad 00 de 00 00 [................]
  | | | |     1655: 00 00 00 00 00 00 00 00 00 00 00 00 00 00 00 00 [................]
  | | | |     1665: 00 00 00 00 00 00 00 00 00 00 00 00 00 00 00 ef [................]
  | | | |     1675: 00 be 00 ad 00 de 00 ef 00 be 00 ad 00 de 00 00 [................]
  | | | |     1685: 00 00 00 00 00 00 00 03 00 00 00 00 00 00 00 ef [................]
  | | | |     1695: 00 be 00 ad 00 de 00 ef 00 be 00 ad 00 de 00 00 [................]
  | | | |     16a5: 00 00 00 00 00 00 00 00 00 00 00 00 00 00 00 00 [................]
  | | | |     16b5: 00 00 00 00 00 00 00 04 00 00 00 00 00 00 00 00 [................]
  | | | |     16c5: 00 00 00 00 00 00 00 00 00 00 00 00 00 00 00 00 [................]
  | | | |     16d5: 00 00 00 00 00 00 00 00 00 00 00 00 00 00 00 00 [................]
  | | | |     16e5: 00 00 00 00 00 00 00 03 00 00 00 00 00 00 00 00 [................]
  | | | |     16f5: 00 00 00 00 00 00 00 00 00 00 00 00 00 00 00 00 [................]
  | | | |     1705: 00 00 00 00 00 00 00 00 00 00 00 00 00 00 00 00 [................]
  | | | |     1715: 00 00 00 00 00 00 00 03 00 00 00 00 00 00 00 00 [................]
  | | | |     1725: 00 00 00 00 00 00 00 00 00 00 00 00 00 00 00 00 [................]
  | | | |     1735: 00 00 00 00 00 00 00 00 00 00 00 00 00 00 00 00 [................]
  | | | |     1745: 00 00 00 00 00 00 00 03 00 00 00 00 00 00 00 00 [................]
  | | | |     1755: 00 00 00 00 00 00 00 00 00 00 00 00 00 00 00 00 [................]
  | | | |     1765: 00 00 00 00 00 00 00 00 00 00 00 00 00 00 00 87 [................]
  | | | |     1775: 00 00 00 87 00 00 00 87 00 00 00 00 00 00 00 ff [................]
  | | | |     1785: 00 ff 00 ff 00 ff 00 ff 00 ff 00 ff 00 ff 00 00 [................]
  | | | |     1795: 00 00 00 00 00 00 00 00 00 00 00 00 00 00 00 00 [................]
  | | | |     17a5: 00 00 00 00 00 00 00 00 00 00 00 00 00 00 00 00 [................]
  | | | |     17b5: 00 00 00 00 00 00 00 00 00 00 00 00 00 00 00 00 [................]
  | | | |     17c5: 00 00 00 00 00 00 00 00 00 00 00 00 00 00 00 00 [................]
  | | | |     17d5: 00 04 00 00 00 04 00 00 00 04 00 00 00 04 00 00 [................]
  | | | |     17e5: 00 00 00 00 00 00 00 00 00 00 00 00 00 00 00 00 [................]
  | | | |     17f5: 00 00 00 00 00 00 00 00 00 00 00 00 00 00 00 00 [................]
  | | | |     1805: 00 00 00 00 00 00 00 00 00 00 00 00 00 00 00 00 [................]
  | | | |     1815: 00 00 00 00 00 00 00 00 00 00 00 00 00 00 00 00 [................]
  | | | |     1825: 00 04 00 00 00 04 00 00 00 04 00 00 00 04 00 00 [................]
  | | | |     1835: 00 00 00 00 00 00 00 00 00 00 00 00 00 00 00 00 [................]
  | | | |     1845: 00 00 00 00 00 00 00 00 00 00 00 00 00 00 00 00 [................]
  | | | |     1855: 00 00 00 00 00 00 00 00 00 00 00 00 00 00 00 00 [................]
  | | | |     1865: 00 00 00 00 00 00 00 00 00 00 00 00 00 00 00 00 [................]
  | | | |     1875: 00 04 00 00 00 04 00 00 00 04 00 00 00 04 00 00 [................]
  | | | |     1885: 00 00 00 00 00 00 00 00 00 00 00 00 00 00 00 00 [................]
  | | | |     1895: 00 00 00 00 00 00 00 00 00 00 00 00 00 00 00 00 [................]
  | | | |     18a5: 00 00 00 00 00 00 00 00 00 00 00 00 00 00 00 00 [................]
  | | | |     18b5: 00 00 00 00 00 00 00 00 00 00 00 00 00 00 00 00 [................]
  | | | |     18c5: 00 04 00 00 00 04 00 00 00 04 00 00 00 04 00 00 [................]
  | | | |     18d5: 00 00 00 00 00 00 00 00 00 00 00 00 00 00 00 00 [................]
  | | | |     18e5: 00 00 00 00 00 00 00 00 00 00 00 00 00 00 00 00 [................]
  | | | |     18f5: 00 00 00 00 00 00 00 00 00 00 00 00 00 00 00 00 [................]
  | | | |     1905: 00 00 00 00 00 00 00 00 00 00 00 00 00 00 00 00 [................]
  | | | |     1915: 00 04 00 00 00 04 00 00 00 04 00 00 00 04 00 00 [................]
  | | | |     1925: 00 00 00 00 00 00 00 00 00 00 00 00 00 00 00 07 [................]
  | | | |     1935: 00 f4 00 2a 00 5d 00 da 00 01 00 00 00 00 00 04 [...*.]..........]
  | | | |     1945: 00 00 00 01 00 00 00 00 00 00 00 00 00 00 00 04 [................]
  | | | |     1955: 00 00 00 01 00 00 00 00 00 00 00 00 00 00 00 04 [................]
  | | | |     1965: 00 00 00 01 00 00 00 00 00 00 00 00 00 00 00 00 [................]
  | | | |     1975: 00 00 00 00 00 33 00 00 00 00 00 00 00 00 00 00 [.....3..........]
  | | | |     1985: 00 00 00 00 00 00 00 00 00 00 00 00 00 00 00 90 [................]
  | | | |     1995: 00 37 00 00 00 00 00 d8 00 3a 00 01 00 00 00 00 [.7.......:......]
  | | | |     19a5: 00 00 00 00 00 00 00 00 00 00 00 00 00 00 00 00 [................]
  | | | |     [snip 65 bytes]
  | | | | + [BinaryData directory, 2097 bytes, Little-endian]
  | | | | | ContrastStandard = 256
  | | | | | - Tag 0x0000 (4 bytes, int32s[1]):
  | | | | |     11c5: 00 01 00 00                                     [....]
  | | | | | SharpnessStandard = 0
  | | | | | - Tag 0x0004 (4 bytes, int32s[1]):
  | | | | |     11c9: 00 00 00 00                                     [....]
  | | | | | SaturationStandard = 0
  | | | | | - Tag 0x0008 (4 bytes, int32s[1]):
  | | | | |     11cd: 00 00 00 00                                     [....]
  | | | | | ColorToneStandard = 0
  | | | | | - Tag 0x000c (4 bytes, int32s[1]):
  | | | | |     11d1: 00 00 00 00                                     [....]
  | | | | | FilterEffectStandard = 0
  | | | | | - Tag 0x0010 (4 bytes, int32s[1]):
  | | | | |     11d5: 00 00 00 00                                     [....]
  | | | | | ToningEffectStandard = 16777216
  | | | | | - Tag 0x0014 (4 bytes, int32s[1]):
  | | | | |     11d9: 00 00 00 01                                     [....]
  | | | | | ContrastPortrait = 0
  | | | | | - Tag 0x0018 (4 bytes, int32s[1]):
  | | | | |     11dd: 00 00 00 00                                     [....]
  | | | | | SharpnessPortrait = 0
  | | | | | - Tag 0x001c (4 bytes, int32s[1]):
  | | | | |     11e1: 00 00 00 00                                     [....]
  | | | | | SaturationPortrait = 0
  | | | | | - Tag 0x0020 (4 bytes, int32s[1]):
  | | | | |     11e5: 00 00 00 00                                     [....]
  | | | | | ColorTonePortrait = 0
  | | | | | - Tag 0x0024 (4 bytes, int32s[1]):
  | | | | |     11e9: 00 00 00 00                                     [....]
  | | | | | FilterEffectPortrait = 0
  | | | | | - Tag 0x0028 (4 bytes, int32s[1]):
  | | | | |     11ed: 00 00 00 00                                     [....]
  | | | | | ToningEffectPortrait = 0
  | | | | | - Tag 0x002c (4 bytes, int32s[1]):
  | | | | |     11f1: 00 00 00 00                                     [....]
  | | | | | ContrastLandscape = 0
  | | | | | - Tag 0x0030 (4 bytes, int32s[1]):
  | | | | |     11f5: 00 00 00 00                                     [....]
  | | | | | SharpnessLandscape = 0
  | | | | | - Tag 0x0034 (4 bytes, int32s[1]):
  | | | | |     11f9: 00 00 00 00                                     [....]
  | | | | | SaturationLandscape = 0
  | | | | | - Tag 0x0038 (4 bytes, int32s[1]):
  | | | | |     11fd: 00 00 00 00                                     [....]
  | | | | | ColorToneLandscape = 0
  | | | | | - Tag 0x003c (4 bytes, int32s[1]):
  | | | | |     1201: 00 00 00 00                                     [....]
  | | | | | FilterEffectLandscape = 0
  | | | | | - Tag 0x0040 (4 bytes, int32s[1]):
  | | | | |     1205: 00 00 00 00                                     [....]
  | | | | | ToningEffectLandscape = 0
  | | | | | - Tag 0x0044 (4 bytes, int32s[1]):
  | | | | |     1209: 00 00 00 00                                     [....]
  | | | | | ContrastNeutral = 0
  | | | | | - Tag 0x0048 (4 bytes, int32s[1]):
  | | | | |     120d: 00 00 00 00                                     [....]
  | | | | | SharpnessNeutral = -16777216
  | | | | | - Tag 0x004c (4 bytes, int32s[1]):
  | | | | |     1211: 00 00 00 ff                                     [....]
  | | | | | SaturationNeutral = -16711936
  | | | | | - Tag 0x0050 (4 bytes, int32s[1]):
  | | | | |     1215: 00 ff 00 ff                                     [....]
  | | | | | ColorToneNeutral = -16744704
  | | | | | - Tag 0x0054 (4 bytes, int32s[1]):
  | | | | |     1219: 00 7f 00 ff                                     [....]
  | | | | | FilterEffectNeutral = -16711936
  | | | | | - Tag 0x0058 (4 bytes, int32s[1]):
  | | | | |     121d: 00 ff 00 ff                                     [....]
  | | | | | ToningEffectNeutral = 32512
  | | | | | - Tag 0x005c (4 bytes, int32s[1]):
  | | | | |     1221: 00 7f 00 00                                     [....]
  | | | | | ContrastFaithful = 0
  | | | | | - Tag 0x0060 (4 bytes, int32s[1]):
  | | | | |     1225: 00 00 00 00                                     [....]
  | | | | | SharpnessFaithful = 0
  | | | | | - Tag 0x0064 (4 bytes, int32s[1]):
  | | | | |     1229: 00 00 00 00                                     [....]
  | | | | | SaturationFaithful = 0
  | | | | | - Tag 0x0068 (4 bytes, int32s[1]):
  | | | | |     122d: 00 00 00 00                                     [....]
  | | | | | ColorToneFaithful = 0
  | | | | | - Tag 0x006c (4 bytes, int32s[1]):
  | | | | |     1231: 00 00 00 00                                     [....]
  | | | | | FilterEffectFaithful = 512
  | | | | | - Tag 0x0070 (4 bytes, int32s[1]):
  | | | | |     1235: 00 02 00 00                                     [....]
  | | | | | ToningEffectFaithful = 0
  | | | | | - Tag 0x0074 (4 bytes, int32s[1]):
  | | | | |     1239: 00 00 00 00                                     [....]
  | | | | | ContrastMonochrome = 0
  | | | | | - Tag 0x0078 (4 bytes, int32s[1]):
  | | | | |     123d: 00 00 00 00                                     [....]
  | | | | | SharpnessMonochrome = 0
  | | | | | - Tag 0x007c (4 bytes, int32s[1]):
  | | | | |     1241: 00 00 00 00                                     [....]
  | | | | | SaturationMonochrome = 0
  | | | | | - Tag 0x0080 (4 bytes, int32s[1]):
  | | | | |     1245: 00 00 00 00                                     [....]
  | | | | | ColorToneMonochrome = 167772160
  | | | | | - Tag 0x0084 (4 bytes, int32s[1]):
  | | | | |     1249: 00 00 00 0a                                     [....]
  | | | | | FilterEffectMonochrome = 512
  | | | | | - Tag 0x0088 (4 bytes, int32s[1]):
  | | | | |     124d: 00 02 00 00                                     [....]
  | | | | | ToningEffectMonochrome = 256
  | | | | | - Tag 0x008c (4 bytes, int32s[1]):
  | | | | |     1251: 00 01 00 00                                     [....]
  | | | | | ContrastAuto = 16777216
  | | | | | - Tag 0x0090 (4 bytes, int32s[1]):
  | | | | |     1255: 00 00 00 01                                     [....]
  | | | | | SharpnessAuto = 0
  | | | | | - Tag 0x0094 (4 bytes, int32s[1]):
  | | | | |     1259: 00 00 00 00                                     [....]
  | | | | | SaturationAuto = 768
  | | | | | - Tag 0x0098 (4 bytes, int32s[1]):
  | | | | |     125d: 00 03 00 00                                     [....]
  | | | | | ColorToneAuto = 0
  | | | | | - Tag 0x009c (4 bytes, int32s[1]):
  | | | | |     1261: 00 00 00 00                                     [....]
  | | | | | FilterEffectAuto = 0
  | | | | | - Tag 0x00a0 (4 bytes, int32s[1]):
  | | | | |     1265: 00 00 00 00                                     [....]
  | | | | | ToningEffectAuto = 0
  | | | | | - Tag 0x00a4 (4 bytes, int32s[1]):
  | | | | |     1269: 00 00 00 00                                     [....]
  | | | | | ContrastUserDef1 = 0
  | | | | | - Tag 0x00a8 (4 bytes, int32s[1]):
  | | | | |     126d: 00 00 00 00                                     [....]
  | | | | | SharpnessUserDef1 = 0
  | | | | | - Tag 0x00ac (4 bytes, int32s[1]):
  | | | | |     1271: 00 00 00 00                                     [....]
  | | | | | SaturationUserDef1 = 0
  | | | | | - Tag 0x00b0 (4 bytes, int32s[1]):
  | | | | |     1275: 00 00 00 00                                     [....]
  | | | | | ColorToneUserDef1 = 0
  | | | | | - Tag 0x00b4 (4 bytes, int32s[1]):
  | | | | |     1279: 00 00 00 00                                     [....]
  | | | | | FilterEffectUserDef1 = 0
  | | | | | - Tag 0x00b8 (4 bytes, int32s[1]):
  | | | | |     127d: 00 00 00 00                                     [....]
  | | | | | ToningEffectUserDef1 = 0
  | | | | | - Tag 0x00bc (4 bytes, int32s[1]):
  | | | | |     1281: 00 00 00 00                                     [....]
  | | | | | ContrastUserDef2 = 0
  | | | | | - Tag 0x00c0 (4 bytes, int32s[1]):
  | | | | |     1285: 00 00 00 00                                     [....]
  | | | | | SharpnessUserDef2 = 0
  | | | | | - Tag 0x00c4 (4 bytes, int32s[1]):
  | | | | |     1289: 00 00 00 00                                     [....]
  | | | | | SaturationUserDef2 = 0
  | | | | | - Tag 0x00c8 (4 bytes, int32s[1]):
  | | | | |     128d: 00 00 00 00                                     [....]
  | | | | | ColorToneUserDef2 = 0
  | | | | | - Tag 0x00cc (4 bytes, int32s[1]):
  | | | | |     1291: 00 00 00 00                                     [....]
  | | | | | FilterEffectUserDef2 = 0
  | | | | | - Tag 0x00d0 (4 bytes, int32s[1]):
  | | | | |     1295: 00 00 00 00                                     [....]
  | | | | | ToningEffectUserDef2 = 256
  | | | | | - Tag 0x00d4 (4 bytes, int32s[1]):
  | | | | |     1299: 00 01 00 00                                     [....]
  | | | | | ContrastUserDef3 = 0
  | | | | | - Tag 0x00d8 (4 bytes, int32s[1]):
  | | | | |     129d: 00 00 00 00                                     [....]
  | | | | | SharpnessUserDef3 = 0
  | | | | | - Tag 0x00dc (4 bytes, int32s[1]):
  | | | | |     12a1: 00 00 00 00                                     [....]
  | | | | | SaturationUserDef3 = 0
  | | | | | - Tag 0x00e0 (4 bytes, int32s[1]):
  | | | | |     12a5: 00 00 00 00                                     [....]
  | | | | | ColorToneUserDef3 = 16777216
  | | | | | - Tag 0x00e4 (4 bytes, int32s[1]):
  | | | | |     12a9: 00 00 00 01                                     [....]
  | | | | | FilterEffectUserDef3 = 256
  | | | | | - Tag 0x00e8 (4 bytes, int32s[1]):
  | | | | |     12ad: 00 01 00 00                                     [....]
  | | | | | ToningEffectUserDef3 = 771764480
  | | | | | - Tag 0x00ec (4 bytes, int32s[1]):
  | | | | |     12b1: 00 31 00 2e                                     [.1..]
  | | | | | UserDef1PictureStyle = 12544
  | | | | | - Tag 0x00f0 (2 bytes, int16u[1]):
  | | | | |     12b5: 00 31                                           [.1]
  | | | | | UserDef2PictureStyle = 11776
  | | | | | - Tag 0x00f2 (2 bytes, int16u[1]):
  | | | | |     12b7: 00 2e                                           [..]
  | | | | | UserDef3PictureStyle = 12800
  | | | | | - Tag 0x00f4 (2 bytes, int16u[1]):
  | | | | |     12b9: 00 32                                           [.2]
  | | | 19) DustRemovalData = 0 0 0 0 0 0 0 0 0 0 0 0 0 0 0 0 0 0 0 0 0 0 0 0 0 0 0 0 0 0 0 0 0 0 0 0 0 0 0 0 0 0 0 0 0 0 0 0 0 0 0 0 0 0 0 0 0 0 0 0 0 0 0 0 0 0 0 0 0 0 0 0 0 0 0 0 0 0 0 0 0 0 0 0 0 0 0 0 0 0 0 0 0 0 0 0 0 0 0 0 0 0 0 0 0 0 0 0 0 0 0 0 0 0 0 0 0 0 0 0 0 0 0 0 0 0 0 0 0 0 0 0 0 0 0 0 0 0 0 0 0 0 0 0 0 0 0 0 0 0 0 0 0 0 0 0 0 0 0 0 0 0 0 0 0 0 0 0 0 0 0 0 0 0 0 0 0 0 0 0 0 0 0 0 0 0 0 0 0 0 0 0 0 0 0 0 0 0 0 0 0 0 0 0 0 0 0 0 0 0 0 0 0 0 0 0 0 0 0 0 0 0 0 0 0 0 0 0 0 0 0 0 0 0 0 0 0 0 0 0 0 0 0 0 0 0 0 0 0 0 0 0 0 0 0 0 0 0 0 0 0 0 0 0 0 0 0 0 0 0 0 0 0 0 0 0 0 0 0 0 0 0 0 0 0 0 0 0 0 0 0 0 0 0 0 0 0 0 0 0 0 0 0 0 0 0 0 0 0 0 0 0 0 0 0 0 0 0 0 0 0 0 0 0 0 0 0 0 0 0 0 0 0 0 0 0 0 0 0 0 0 0 0 0 0 0 0 0 0 0 0 0 0 0 0 0 0 0 0 0 0 0 0 0 0 0 0 0 0 0 0 0 0 0 0 0 0 0 0 0 0 0 0 0 0 0 0 0 0 0 0 0 0 0 0 0 0 0 0 0 0 0 0 0 0 0 0 0 0 0 0 0 0 0 0 0 0 0 0 0 0 0 0 0 0 0 0 0 0 0 0 0 0 0 0 0 0 0 0 0 0 0 0 0 0 0 0 0 0 0 0 0 0 0 0 0 0 0 0 0 0 0 0 0 0 0 0 0 0 0 0 0 0 0 0 0 0 0 0 0 0 0 0 0 0 0 0 0 0 0 0 0 0 0 0 0 0 0 0 0 0 0 0 0 0 0 0 0 0 0 0 0 0 0 0 0 0 0 0 0 0 0 0 0 0 0 0 0 0 0 0 0 0 0 0 0 0 0 0 0 0 0 0 0 0 0 0 0 0 0 0 0 0 0 0 0 0 0 0 0 0 0 0 0 0 0 0 0 0 0 0 0 0 0 0 0 0 0 0 0 0 0 0 0 0 0 0 0 0 0 0 0 0 0 0 0 0 0 0 0 0 0 0 0 0 0 0 0 0 0 0 0 0 0 0 0 0 0 0 0 0 0 0 0 0 0 0 0 0 0 0 0 0 0 0 0 0 0 0 0 0 0 0 0 0 0 0 0 0 0 0 0 0 0 0 0 0 0 0 0 0 0 0 0 0 0 0 0 0 0 0 0 0 0 0 0 0 0 0 0 0 0 0 0 0 0 0 0 0 0 0 0 0 0 0 0 0 0 0 0 0 0 0 0 0 0 0 0 0 0 0 0 0 0 0 0 0 0 0 0 0 0 0 0 0 0 0 0 0 0 0 0 0 0 0 0 0 0 0 0 0 0 0 0 0 0 0 0 0 0 0 0 0 0 0 0 0 0 0 0 0 0 0 0 0 0 0 0 0 0 0 0 0 0 0 0 0 0 0 0 0 0 0 0 0 0 0 0 0 0 0 0 0 0 0 0 0 0 0 0 0 0 0 0 0 0 0 0 0 0 0 0 0 0 0 0 0 0 0 0 0 0 0 0 0 0 0 0 0 0 0 0 0 0 0 0 0 0 0 0 0 0 0 0 0 0 0 0 0 0 0 0 0 0 0 0 0 0 0 0 0 0 0 0 0 0 0 0 0 0 0 0 0 0 0 0 0 0 0 0 0 0 0 0 0 0 0 0 0 0 0 0 0 0 0 0 0 0 0 0 0 0 0 0 0 0 0 0 0 0 0 0 0 0 0 0 0 0 0 0 0 0 0 0 0 0 0 0 0 0 0 0 0 0 0 0 0 0 0 0 0 0 0 0 0 0 0 0 0 0 0 0 0 0 0 0 0 0 0 0 0 0 0 0 0 0 0 0 0 0 0 0 0 0 0 0 0 0 0 0 0 0 0 0 0 0 0 0 0 0 0 0 0 0 0 0 0 0 0 0 0 0 0 0 0 0 0 0 0 0 0 0 0 0 0 0 0 0 0 0 0 0 0 0
  | | |     - Tag 0x0097 (2048 bytes, string[2048]):
  | | |         19f6: 30 20 30 20 30 20 30 20 30 20 30 20 30 20 30 20 [0 0 0 0 0 0 0 0 ]
  | | |         1a06: 30 20 30 20 30 20 30 20 30 20 30 20 30 20 30 20 [0 0 0 0 0 0 0 0 ]
  | | |         1a16: 30 20 30 20 30 20 30 20 30 20 30 20 30 20 30 20 [0 0 0 0 0 0 0 0 ]
  | | |         1a26: 30 20 30 20 30 20 30 20 30 20 30 20 30 20 30 20 [0 0 0 0 0 0 0 0 ]
  | | |         1a36: 30 20 30 20 30 20 30 20 30 20 30 20 30 20 30 20 [0 0 0 0 0 0 0 0 ]
  | | |         1a46: 30 20 30 20 30 20 30 20 30 20 30 20 30 20 30 20 [0 0 0 0 0 0 0 0 ]
  | | |         1a56: 30 20 30 20 30 20 30 20 30 20 30 20 30 20 30 20 [0 0 0 0 0 0 0 0 ]
  | | |         1a66: 30 20 30 20 30 20 30 20 30 20 30 20 30 20 30 20 [0 0 0 0 0 0 0 0 ]
  | | |         1a76: 30 20 30 20 30 20 30 20 30 20 30 20 30 20 30 20 [0 0 0 0 0 0 0 0 ]
  | | |         1a86: 30 20 30 20 30 20 30 20 30 20 30 20 30 20 30 20 [0 0 0 0 0 0 0 0 ]
  | | |         1a96: 30 20 30 20 30 20 30 20 30 20 30 20 30 20 30 20 [0 0 0 0 0 0 0 0 ]
  | | |         1aa6: 30 20 30 20 30 20 30 20 30 20 30 20 30 20 30 20 [0 0 0 0 0 0 0 0 ]
  | | |         1ab6: 30 20 30 20 30 20 30 20 30 20 30 20 30 20 30 20 [0 0 0 0 0 0 0 0 ]
  | | |         1ac6: 30 20 30 20 30 20 30 20 30 20 30 20 30 20 30 20 [0 0 0 0 0 0 0 0 ]
  | | |         1ad6: 30 20 30 20 30 20 30 20 30 20 30 20 30 20 30 20 [0 0 0 0 0 0 0 0 ]
  | | |         1ae6: 30 20 30 20 30 20 30 20 30 20 30 20 30 20 30 20 [0 0 0 0 0 0 0 0 ]
  | | |         1af6: 30 20 30 20 30 20 30 20 30 20 30 20 30 20 30 20 [0 0 0 0 0 0 0 0 ]
  | | |         1b06: 30 20 30 20 30 20 30 20 30 20 30 20 30 20 30 20 [0 0 0 0 0 0 0 0 ]
  | | |         1b16: 30 20 30 20 30 20 30 20 30 20 30 20 30 20 30 20 [0 0 0 0 0 0 0 0 ]
  | | |         1b26: 30 20 30 20 30 20 30 20 30 20 30 20 30 20 30 20 [0 0 0 0 0 0 0 0 ]
  | | |         1b36: 30 20 30 20 30 20 30 20 30 20 30 20 30 20 30 20 [0 0 0 0 0 0 0 0 ]
  | | |         1b46: 30 20 30 20 30 20 30 20 30 20 30 20 30 20 30 20 [0 0 0 0 0 0 0 0 ]
  | | |         1b56: 30 20 30 20 30 20 30 20 30 20 30 20 30 20 30 20 [0 0 0 0 0 0 0 0 ]
  | | |         1b66: 30 20 30 20 30 20 30 20 30 20 30 20 30 20 30 20 [0 0 0 0 0 0 0 0 ]
  | | |         1b76: 30 20 30 20 30 20 30 20 30 20 30 20 30 20 30 20 [0 0 0 0 0 0 0 0 ]
  | | |         1b86: 30 20 30 20 30 20 30 20 30 20 30 20 30 20 30 20 [0 0 0 0 0 0 0 0 ]
  | | |         1b96: 30 20 30 20 30 20 30 20 30 20 30 20 30 20 30 20 [0 0 0 0 0 0 0 0 ]
  | | |         1ba6: 30 20 30 20 30 20 30 20 30 20 30 20 30 20 30 20 [0 0 0 0 0 0 0 0 ]
  | | |         1bb6: 30 20 30 20 30 20 30 20 30 20 30 20 30 20 30 20 [0 0 0 0 0 0 0 0 ]
  | | |         1bc6: 30 20 30 20 30 20 30 20 30 20 30 20 30 20 30 20 [0 0 0 0 0 0 0 0 ]
  | | |         1bd6: 30 20 30 20 30 20 30 20 30 20 30 20 30 20 30 20 [0 0 0 0 0 0 0 0 ]
  | | |         1be6: 30 20 30 20 30 20 30 20 30 20 30 20 30 20 30 20 [0 0 0 0 0 0 0 0 ]
  | | |         1bf6: 30 20 30 20 30 20 30 20 30 20 30 20 30 20 30 20 [0 0 0 0 0 0 0 0 ]
  | | |         1c06: 30 20 30 20 30 20 30 20 30 20 30 20 30 20 30 20 [0 0 0 0 0 0 0 0 ]
  | | |         1c16: 30 20 30 20 30 20 30 20 30 20 30 20 30 20 30 20 [0 0 0 0 0 0 0 0 ]
  | | |         1c26: 30 20 30 20 30 20 30 20 30 20 30 20 30 20 30 20 [0 0 0 0 0 0 0 0 ]
  | | |         1c36: 30 20 30 20 30 20 30 20 30 20 30 20 30 20 30 20 [0 0 0 0 0 0 0 0 ]
  | | |         1c46: 30 20 30 20 30 20 30 20 30 20 30 20 30 20 30 20 [0 0 0 0 0 0 0 0 ]
  | | |         1c56: 30 20 30 20 30 20 30 20 30 20 30 20 30 20 30 20 [0 0 0 0 0 0 0 0 ]
  | | |         1c66: 30 20 30 20 30 20 30 20 30 20 30 20 30 20 30 20 [0 0 0 0 0 0 0 0 ]
  | | |         1c76: 30 20 30 20 30 20 30 20 30 20 30 20 30 20 30 20 [0 0 0 0 0 0 0 0 ]
  | | |         1c86: 30 20 30 20 30 20 30 20 30 20 30 20 30 20 30 20 [0 0 0 0 0 0 0 0 ]
  | | |         1c96: 30 20 30 20 30 20 30 20 30 20 30 20 30 20 30 20 [0 0 0 0 0 0 0 0 ]
  | | |         1ca6: 30 20 30 20 30 20 30 20 30 20 30 20 30 20 30 20 [0 0 0 0 0 0 0 0 ]
  | | |         1cb6: 30 20 30 20 30 20 30 20 30 20 30 20 30 20 30 20 [0 0 0 0 0 0 0 0 ]
  | | |         1cc6: 30 20 30 20 30 20 30 20 30 20 30 20 30 20 30 20 [0 0 0 0 0 0 0 0 ]
  | | |         1cd6: 30 20 30 20 30 20 30 20 30 20 30 20 30 20 30 20 [0 0 0 0 0 0 0 0 ]
  | | |         1ce6: 30 20 30 20 30 20 30 20 30 20 30 20 30 20 30 20 [0 0 0 0 0 0 0 0 ]
  | | |         1cf6: 30 20 30 20 30 20 30 20 30 20 30 20 30 20 30 20 [0 0 0 0 0 0 0 0 ]
  | | |         1d06: 30 20 30 20 30 20 30 20 30 20 30 20 30 20 30 20 [0 0 0 0 0 0 0 0 ]
  | | |         1d16: 30 20 30 20 30 20 30 20 30 20 30 20 30 20 30 20 [0 0 0 0 0 0 0 0 ]
  | | |         1d26: 30 20 30 20 30 20 30 20 30 20 30 20 30 20 30 20 [0 0 0 0 0 0 0 0 ]
  | | |         1d36: 30 20 30 20 30 20 30 20 30 20 30 20 30 20 30 20 [0 0 0 0 0 0 0 0 ]
  | | |         1d46: 30 20 30 20 30 20 30 20 30 20 30 20 30 20 30 20 [0 0 0 0 0 0 0 0 ]
  | | |         1d56: 30 20 30 20 30 20 30 20 30 20 30 20 30 20 30 20 [0 0 0 0 0 0 0 0 ]
  | | |         1d66: 30 20 30 20 30 20 30 20 30 20 30 20 30 20 30 20 [0 0 0 0 0 0 0 0 ]
  | | |         1d76: 30 20 30 20 30 20 30 20 30 20 30 20 30 20 30 20 [0 0 0 0 0 0 0 0 ]
  | | |         1d86: 30 20 30 20 30 20 30 20 30 20 30 20 30 20 30 20 [0 0 0 0 0 0 0 0 ]
  | | |         1d96: 30 20 30 20 30 20 30 20 30 20 30 20 30 20 30 20 [0 0 0 0 0 0 0 0 ]
  | | |         1da6: 30 20 30 20 30 20 30 20 30 20 30 20 30 20 30 20 [0 0 0 0 0 0 0 0 ]
  | | |         1db6: 30 20 30 20 30 20 30 20 30 20 30 20 30 20 30 20 [0 0 0 0 0 0 0 0 ]
  | | |         1dc6: 30 20 30 20 30 20 30 20 30 20 30 20 30 20 30 20 [0 0 0 0 0 0 0 0 ]
  | | |         1dd6: 30 20 30 20 30 20 30 20 30 20 30 20 30 20 30 20 [0 0 0 0 0 0 0 0 ]
  | | |         1de6: 30 20 30 20 30 20 30 20 30 20 30 20 30 20 30 20 [0 0 0 0 0 0 0 0 ]
  | | |         1df6: 30 20 30 20 30 20 30 20 30 20 30 20 30 20 30 20 [0 0 0 0 0 0 0 0 ]
  | | |         1e06: 30 20 30 20 30 20 30 20 30 20 30 20 30 20 30 20 [0 0 0 0 0 0 0 0 ]
  | | |         1e16: 30 20 30 20 30 20 30 20 30 20 30 20 30 20 30 20 [0 0 0 0 0 0 0 0 ]
  | | |         1e26: 30 20 30 20 30 20 30 20 30 20 30 20 30 20 30 20 [0 0 0 0 0 0 0 0 ]
  | | |         1e36: 30 20 30 20 30 20 30 20 30 20 30 20 30 20 30 20 [0 0 0 0 0 0 0 0 ]
  | | |         1e46: 30 20 30 20 30 20 30 20 30 20 30 20 30 20 30 20 [0 0 0 0 0 0 0 0 ]
  | | |         1e56: 30 20 30 20 30 20 30 20 30 20 30 20 30 20 30 20 [0 0 0 0 0 0 0 0 ]
  | | |         1e66: 30 20 30 20 30 20 30 20 30 20 30 20 30 20 30 20 [0 0 0 0 0 0 0 0 ]
  | | |         1e76: 30 20 30 20 30 20 30 20 30 20 30 20 30 20 30 20 [0 0 0 0 0 0 0 0 ]
  | | |         1e86: 30 20 30 20 30 20 30 20 30 20 30 20 30 20 30 20 [0 0 0 0 0 0 0 0 ]
  | | |         1e96: 30 20 30 20 30 20 30 20 30 20 30 20 30 20 30 20 [0 0 0 0 0 0 0 0 ]
  | | |         1ea6: 30 20 30 20 30 20 30 20 30 20 30 20 30 20 30 20 [0 0 0 0 0 0 0 0 ]
  | | |         1eb6: 30 20 30 20 30 20 30 20 30 20 30 20 30 20 30 20 [0 0 0 0 0 0 0 0 ]
  | | |         1ec6: 30 20 30 20 30 20 30 20 30 20 30 20 30 20 30 20 [0 0 0 0 0 0 0 0 ]
  | | |         1ed6: 30 20 30 20 30 20 30 20 30 20 30 20 30 20 30 20 [0 0 0 0 0 0 0 0 ]
  | | |         1ee6: 30 20 30 20 30 20 30 20 30 20 30 20 30 20 30 20 [0 0 0 0 0 0 0 0 ]
  | | |         1ef6: 30 20 30 20 30 20 30 20 30 20 30 20 30 20 30 20 [0 0 0 0 0 0 0 0 ]
  | | |         1f06: 30 20 30 20 30 20 30 20 30 20 30 20 30 20 30 20 [0 0 0 0 0 0 0 0 ]
  | | |         1f16: 30 20 30 20 30 20 30 20 30 20 30 20 30 20 30 20 [0 0 0 0 0 0 0 0 ]
  | | |         1f26: 30 20 30 20 30 20 30 20 30 20 30 20 30 20 30 20 [0 0 0 0 0 0 0 0 ]
  | | |         1f36: 30 20 30 20 30 20 30 20 30 20 30 20 30 20 30 20 [0 0 0 0 0 0 0 0 ]
  | | |         1f46: 30 20 30 20 30 20 30 20 30 20 30 20 30 20 30 20 [0 0 0 0 0 0 0 0 ]
  | | |         1f56: 30 20 30 20 30 20 30 20 30 20 30 20 30 20 30 20 [0 0 0 0 0 0 0 0 ]
  | | |         1f66: 30 20 30 20 30 20 30 20 30 20 30 20 30 20 30 20 [0 0 0 0 0 0 0 0 ]
  | | |         1f76: 30 20 30 20 30 20 30 20 30 20 30 20 30 20 30 20 [0 0 0 0 0 0 0 0 ]
  | | |         1f86: 30 20 30 20 30 20 30 20 30 20 30 20 30 20 30 20 [0 0 0 0 0 0 0 0 ]
  | | |         1f96: 30 20 30 20 30 20 30 20 30 20 30 20 30 20 30 20 [0 0 0 0 0 0 0 0 ]
  | | |         1fa6: 30 20 30 20 30 20 30 20 30 20 30 20 30 20 30 20 [0 0 0 0 0 0 0 0 ]
  | | |         1fb6: 30 20 30 20 30 20 30 20 30 20 30 20 30 20 30 20 [0 0 0 0 0 0 0 0 ]
  | | |         1fc6: 30 20 30 20 30 20 30 20 30 20 30 20 30 20 30 20 [0 0 0 0 0 0 0 0 ]
  | | |         1fd6: 30 20 30 20 30 20 30 20 30 20 30 20 30 20 30 20 [0 0 0 0 0 0 0 0 ]
  | | |         1fe6: 30 20 30 20 30 20 30 20 30 20 30 20 30 20 30 20 [0 0 0 0 0 0 0 0 ]
  | | |         1ff6: 30 20 30 20 30 20 30 20 30 20 30 20 30 20 30 20 [0 0 0 0 0 0 0 0 ]
  | | |         2006: 30 20 30 20 30 20 30 20 30 20 30 20 30 20 30 20 [0 0 0 0 0 0 0 0 ]
  | | |         2016: 30 20 30 20 30 20 30 20 30 20 30 20 30 20 30 20 [0 0 0 0 0 0 0 0 ]
  | | |         2026: 30 20 30 20 30 20 30 20 30 20 30 20 30 20 30 20 [0 0 0 0 0 0 0 0 ]
  | | |         2036: 30 20 30 20 30 20 30 20 30 20 30 20 30 20 30 20 [0 0 0 0 0 0 0 0 ]
  | | |         2046: 30 20 30 20 30 20 30 20 30 20 30 20 30 20 30 20 [0 0 0 0 0 0 0 0 ]
  | | |         2056: 30 20 30 20 30 20 30 20 30 20 30 20 30 20 30 20 [0 0 0 0 0 0 0 0 ]
  | | |         2066: 30 20 30 20 30 20 30 20 30 20 30 20 30 20 30 20 [0 0 0 0 0 0 0 0 ]
  | | |         2076: 30 20 30 20 30 20 30 20 30 20 30 20 30 20 30 20 [0 0 0 0 0 0 0 0 ]
  | | |         2086: 30 20 30 20 30 20 30 20 30 20 30 20 30 20 30 20 [0 0 0 0 0 0 0 0 ]
  | | |         2096: 30 20 30 20 30 20 30 20 30 20 30 20 30 20 30 20 [0 0 0 0 0 0 0 0 ]
  | | |         20a6: 30 20 30 20 30 20 30 20 30 20 30 20 30 20 30 20 [0 0 0 0 0 0 0 0 ]
  | | |         20b6: 30 20 30 20 30 20 30 20 30 20 30 20 30 20 30 20 [0 0 0 0 0 0 0 0 ]
  | | |         20c6: 30 20 30 20 30 20 30 20 30 20 30 20 30 20 30 20 [0 0 0 0 0 0 0 0 ]
  | | |         20d6: 30 20 30 20 30 20 30 20 30 20 30 20 30 20 30 20 [0 0 0 0 0 0 0 0 ]
  | | |         20e6: 30 20 30 20 30 20 30 20 30 20 30 20 30 20 30 20 [0 0 0 0 0 0 0 0 ]
  | | |         20f6: 30 20 30 20 30 20 30 20 30 20 30 20 30 20 30 20 [0 0 0 0 0 0 0 0 ]
  | | |         2106: 30 20 30 20 30 20 30 20 30 20 30 20 30 20 30 20 [0 0 0 0 0 0 0 0 ]
  | | |         2116: 30 20 30 20 30 20 30 20 30 20 30 20 30 20 30 20 [0 0 0 0 0 0 0 0 ]
  | | |         2126: 30 20 30 20 30 20 30 20 30 20 30 20 30 20 30 20 [0 0 0 0 0 0 0 0 ]
  | | |         2136: 30 20 30 20 30 20 30 20 30 20 30 20 30 20 30 20 [0 0 0 0 0 0 0 0 ]
  | | |         2146: 30 20 30 20 30 20 30 20 30 20 30 20 30 20 30 20 [0 0 0 0 0 0 0 0 ]
  | | |         2156: 30 20 30 20 30 20 30 20 30 20 30 20 30 20 30 20 [0 0 0 0 0 0 0 0 ]
  | | |         2166: 30 20 30 20 30 20 30 20 30 20 30 20 30 20 30 20 [0 0 0 0 0 0 0 0 ]
  | | |         2176: 30 20 30 20 30 20 30 20 30 20 30 20 30 20 30 20 [0 0 0 0 0 0 0 0 ]
  | | |         2186: 30 20 30 20 30 20 30 20 30 20 30 20 30 20 30 20 [0 0 0 0 0 0 0 0 ]
  | | |         2196: 30 20 30 20 30 20 30 20 30 20 30 20 30 20 30 20 [0 0 0 0 0 0 0 0 ]
  | | |         21a6: 30 20 30 20 30 20 30 20 30 20 30 20 30 20 30 20 [0 0 0 0 0 0 0 0 ]
  | | |         21b6: 30 20 30 20 30 20 30 20 30 20 30 20 30 20 30 20 [0 0 0 0 0 0 0 0 ]
  | | |         21c6: 30 20 30 20 30 20 30 20 30 20 30 20 30 20 30 20 [0 0 0 0 0 0 0 0 ]
  | | |         21d6: 30 20 30 20 30 20 30 20 30 20 30 20 30 20 30 20 [0 0 0 0 0 0 0 0 ]
  | | |         21e6: 30 20 30 20 30 20 30 20 30 20 30 20 30 20 30 00 [0 0 0 0 0 0 0 0.]
  | | | 20) CanonFirmwareVersion = Firmware Version 1.1.2
  | | |     - Tag 0x0007 (23 bytes, string[23]):
  | | |         21f6: 46 69 72 6d 77 61 72 65 20 56 65 72 73 69 6f 6e [Firmware Version]
  | | |         2206: 20 31 2e 31 2e 32 00                            [ 1.1.2.]
  | | | 21) CanonFocalLength (SubDirectory) -->
  | | |     - Tag 0x0002 (8 bytes, int16u[4] read as undef[8]):
  | | |         220e: 00 00 fa 00 16 0b 24 5a                         [......$Z]
  | | | + [BinaryData directory, 8 bytes, Little-endian]
  | | | | FocalType = 0
  | | | | - Tag 0x0000 (2 bytes, int16u[1]):
  | | | |     220e: 00 00                                           [..]
  | | | | FocalLength = 250
  | | | | - Tag 0x0001 (2 bytes, int16u[1]):
  | | | |     2210: fa 00                                           [..]
  | | | | FocalPlaneXUnknown = 2838
  | | | | - Tag 0x0002 (2 bytes, int16u[1]):
  | | | |     2212: 16 0b                                           [..]
  | | | | FocalPlaneYUnknown = 23076
  | | | | - Tag 0x0003 (2 bytes, int16u[1]):
  | | | |     2214: 24 5a                                           [$Z]
  | | | 22) CanonImageType = Canon EOS 70D
  | | |     - Tag 0x0006 (14 bytes, string[14]):
  | | |         2216: 43 61 6e 6f 6e 20 45 4f 53 20 37 30 44 00       [Canon EOS 70D.]
  | | | 23) InternalSerialNumber = FA1065286
  | | |     - Tag 0x0096 (10 bytes, string[10]):
  | | |         2224: 46 41 31 30 36 35 32 38 36 00                   [FA1065286.]
  | | | 24) LensModel = EF-S55-250mm f/4-5.6 IS STM
  | | |     - Tag 0x0095 (28 bytes, string[28]):
  | | |         222e: 45 46 2d 53 35 35 2d 32 35 30 6d 6d 20 66 2f 34 [EF-S55-250mm f/4]
  | | |         223e: 2d 35 2e 36 20 49 53 20 53 54 4d 00             [-5.6 IS STM.]
  | | | 25) MeasuredColor (SubDirectory) -->
  | | |     - Tag 0x00aa (12 bytes, int16u[6] read as undef[12]):
  | | |         224a: 0c 00 eb 02 00 04 00 04 11 01 00 00             [............]
  | | | + [BinaryData directory, 12 bytes, Little-endian]
  | | | | MeasuredRGGB = 747 1024 1024 273
  | | | | - Tag 0x0001 (8 bytes, int16u[4]):
  | | | |     224c: eb 02 00 04 00 04 11 01                         [........]
  | | | 26) CanonModelID = 2147484453
  | | |     - Tag 0x0010 (4 bytes, int32u[1]):
  | | |         0492: 25 03 00 80                                     [%...]
  | | | 27) SensorInfo (SubDirectory) -->
  | | |     - Tag 0x00e0 (34 bytes, int16u[17] read as undef[34]):
  | | |         2256: 22 00 c0 15 7c 0e 01 00 01 00 54 00 32 00 b3 15 ["...|.....T.2...]
  | | |         2266: 71 0e 00 00 00 00 00 00 00 00 00 00 00 00 00 00 [q...............]
  | | |         2276: 00 00                                           [..]
  | | | + [BinaryData directory, 34 bytes, Little-endian]
  | | | | SensorWidth = 5568
  | | | | - Tag 0x0001 (2 bytes, int16s[1]):
  | | | |     2258: c0 15                                           [..]
  | | | | SensorHeight = 3708
  | | | | - Tag 0x0002 (2 bytes, int16s[1]):
  | | | |     225a: 7c 0e                                           [|.]
  | | | | SensorLeftBorder = 84
  | | | | - Tag 0x0005 (2 bytes, int16s[1]):
  | | | |     2260: 54 00                                           [T.]
  | | | | SensorTopBorder = 50
  | | | | - Tag 0x0006 (2 bytes, int16s[1]):
  | | | |     2262: 32 00                                           [2.]
  | | | | SensorRightBorder = 5555
  | | | | - Tag 0x0007 (2 bytes, int16s[1]):
  | | | |     2264: b3 15                                           [..]
  | | | | SensorBottomBorder = 3697
  | | | | - Tag 0x0008 (2 bytes, int16s[1]):
  | | | |     2266: 71 0e                                           [q.]
  | | | | BlackMaskLeftBorder = 0
  | | | | - Tag 0x0009 (2 bytes, int16s[1]):
  | | | |     2268: 00 00                                           [..]
  | | | | BlackMaskTopBorder = 0
  | | | | - Tag 0x000a (2 bytes, int16s[1]):
  | | | |     226a: 00 00                                           [..]
  | | | | BlackMaskRightBorder = 0
  | | | | - Tag 0x000b (2 bytes, int16s[1]):
  | | | |     226c: 00 00                                           [..]
  | | | | BlackMaskBottomBorder = 0
  | | | | - Tag 0x000c (2 bytes, int16s[1]):
  | | | |     226e: 00 00                                           [..]
  | | | 28) ThumbnailImageValidArea = 0 159 7 112
  | | |     - Tag 0x0013 (8 bytes, int16s[4]):
  | | |         2278: 00 00 9f 00 07 00 70 00                         [......p.]
  | | | 29) VRDOffset = 0
  | | |     - Tag 0x00d0 (4 bytes, int32u[1]):
  | | |         04b6: 00 00 00 00                                     [....]
  | | | 30) CustomFunctionsUnknown (SubDirectory) -->
  | | |     - Tag 0x000f (464 bytes, int16u[232] read as undef[464]):
  | | |         2280: d0 01 00 00 03 00 00 00 01 00 00 00 54 00 00 00 [............T...]
  | | |         2290: 06 00 00 00 01 01 00 00 01 00 00 00 00 00 00 00 [................]
  | | |         22a0: 02 01 00 00 01 00 00 00 00 00 00 00 04 01 00 00 [................]
  | | |         22b0: 01 00 00 00 00 00 00 00 05 01 00 00 01 00 00 00 [................]
  | | |         22c0: 00 00 00 00 06 01 00 00 02 00 00 00 03 00 00 00 [................]
  | | |         22d0: 00 00 00 00 08 01 00 00 01 00 00 00 00 00 00 00 [................]
  | | |         22e0: 03 00 00 00 e4 00 00 00 0d 00 00 00 02 05 00 00 [................]
  | | |         22f0: 01 00 00 00 00 00 00 00 18 05 00 00 01 00 00 00 [................]
  | | |         2300: 00 00 00 00 19 05 00 00 01 00 00 00 00 00 00 00 [................]
  | | |         2310: 1a 05 00 00 01 00 00 00 00 00 00 00 0e 05 00 00 [................]
  | | |         2320: 01 00 00 00 00 00 00 00 05 05 00 00 01 00 00 00 [................]
  | | |         2330: 00 00 00 00 12 05 00 00 02 00 00 00 00 00 00 00 [................]
  | | |         2340: 07 00 00 00 1b 05 00 00 01 00 00 00 00 00 00 00 [................]
  | | |         2350: 16 05 00 00 01 00 00 00 00 00 00 00 13 05 00 00 [................]
  | | |         2360: 01 00 00 00 00 00 00 00 0c 05 00 00 01 00 00 00 [................]
  | | |         2370: 00 00 00 00 10 05 00 00 01 00 00 00 00 00 00 00 [................]
  | | |         2380: 07 05 00 00 10 00 00 00 00 00 00 00 00 00 00 00 [................]
  | | |         2390: 00 00 00 00 00 00 00 00 00 00 00 00 00 00 00 00 [................]
  | | |         23a0: 00 00 00 00 00 00 00 00 00 00 00 00 00 00 00 00 [................]
  | | |         23b0: 00 00 00 00 00 00 00 00 00 00 00 00 00 00 00 00 [................]
  | | |         23c0: 00 00 00 00 00 00 00 00 04 00 00 00 84 00 00 00 [................]
  | | |         23d0: 04 00 00 00 06 07 00 00 01 00 00 00 00 00 00 00 [................]
  | | |         23e0: 0f 07 00 00 02 00 00 00 00 00 00 00 02 00 00 00 [................]
  | | |         23f0: 0a 04 00 00 01 00 00 00 03 00 00 00 0c 07 00 00 [................]
  | | |         2400: 13 00 00 00 00 00 00 00 00 00 00 00 00 00 00 00 [................]
  | | |         2410: 00 00 00 00 00 00 00 00 00 00 00 00 00 00 00 00 [................]
  | | |         2420: 00 00 00 00 00 00 00 00 00 00 00 00 00 00 00 00 [................]
  | | |         2430: 00 00 00 00 00 00 00 00 00 00 00 00 00 00 00 00 [................]
  | | |         2440: 00 00 00 00 00 00 00 00 00 00 00 00 00 00 00 00 [................]
  | | | + [CanonCustom directory with 231 entries]
  | | | | 0)  CanonCustom_FuncsUnknown_0x0000 = 0
  | | | |     - Tag 0x0000 (1 bytes, int8u[1])
  | | | | 1)  CanonCustom_FuncsUnknown_0x0000 = 3
  | | | |     - Tag 0x0000 (1 bytes, int8u[1])
  | | | | 2)  CanonCustom_FuncsUnknown_0x0000 = 0
  | | | |     - Tag 0x0000 (1 bytes, int8u[1])
  | | | | 3)  CanonCustom_FuncsUnknown_0x0000 = 1
  | | | |     - Tag 0x0000 (1 bytes, int8u[1])
  | | | | 4)  CanonCustom_FuncsUnknown_0x0000 = 0
  | | | |     - Tag 0x0000 (1 bytes, int8u[1])
  | | | | 5)  CanonCustom_FuncsUnknown_0x0000 = 84
  | | | |     - Tag 0x0000 (1 bytes, int8u[1])
  | | | | 6)  CanonCustom_FuncsUnknown_0x0000 = 0
  | | | |     - Tag 0x0000 (1 bytes, int8u[1])
  | | | | 7)  CanonCustom_FuncsUnknown_0x0000 = 6
  | | | |     - Tag 0x0000 (1 bytes, int8u[1])
  | | | | 8)  CanonCustom_FuncsUnknown_0x0000 = 0
  | | | |     - Tag 0x0000 (1 bytes, int8u[1])
  | | | | 9)  CanonCustom_FuncsUnknown_0x0001 = 1
  | | | |     - Tag 0x0001 (1 bytes, int8u[1])
  | | | | 10) CanonCustom_FuncsUnknown_0x0000 = 0
  | | | |     - Tag 0x0000 (1 bytes, int8u[1])
  | | | | 11) CanonCustom_FuncsUnknown_0x0000 = 1
  | | | |     - Tag 0x0000 (1 bytes, int8u[1])
  | | | | 12) CanonCustom_FuncsUnknown_0x0000 = 0
  | | | |     - Tag 0x0000 (1 bytes, int8u[1])
  | | | | 13) CanonCustom_FuncsUnknown_0x0000 = 0
  | | | |     - Tag 0x0000 (1 bytes, int8u[1])
  | | | | 14) CanonCustom_FuncsUnknown_0x0000 = 0
  | | | |     - Tag 0x0000 (1 bytes, int8u[1])
  | | | | 15) CanonCustom_FuncsUnknown_0x0001 = 2
  | | | |     - Tag 0x0001 (1 bytes, int8u[1])
  | | | | 16) CanonCustom_FuncsUnknown_0x0000 = 0
  | | | |     - Tag 0x0000 (1 bytes, int8u[1])
  | | | | 17) CanonCustom_FuncsUnknown_0x0000 = 1
  | | | |     - Tag 0x0000 (1 bytes, int8u[1])
  | | | | 18) CanonCustom_FuncsUnknown_0x0000 = 0
  | | | |     - Tag 0x0000 (1 bytes, int8u[1])
  | | | | 19) CanonCustom_FuncsUnknown_0x0000 = 0
  | | | |     - Tag 0x0000 (1 bytes, int8u[1])
  | | | | 20) CanonCustom_FuncsUnknown_0x0000 = 0
  | | | |     - Tag 0x0000 (1 bytes, int8u[1])
  | | | | 21) CanonCustom_FuncsUnknown_0x0001 = 4
  | | | |     - Tag 0x0001 (1 bytes, int8u[1])
  | | | | 22) CanonCustom_FuncsUnknown_0x0000 = 0
  | | | |     - Tag 0x0000 (1 bytes, int8u[1])
  | | | | 23) CanonCustom_FuncsUnknown_0x0000 = 1
  | | | |     - Tag 0x0000 (1 bytes, int8u[1])
  | | | | 24) CanonCustom_FuncsUnknown_0x0000 = 0
  | | | |     - Tag 0x0000 (1 bytes, int8u[1])
  | | | | 25) CanonCustom_FuncsUnknown_0x0000 = 0
  | | | |     - Tag 0x0000 (1 bytes, int8u[1])
  | | | | 26) CanonCustom_FuncsUnknown_0x0000 = 0
  | | | |     - Tag 0x0000 (1 bytes, int8u[1])
  | | | | 27) CanonCustom_FuncsUnknown_0x0001 = 5
  | | | |     - Tag 0x0001 (1 bytes, int8u[1])
  | | | | 28) CanonCustom_FuncsUnknown_0x0000 = 0
  | | | |     - Tag 0x0000 (1 bytes, int8u[1])
  | | | | 29) CanonCustom_FuncsUnknown_0x0000 = 1
  | | | |     - Tag 0x0000 (1 bytes, int8u[1])
  | | | | 30) CanonCustom_FuncsUnknown_0x0000 = 0
  | | | |     - Tag 0x0000 (1 bytes, int8u[1])
  | | | | 31) CanonCustom_FuncsUnknown_0x0000 = 0
  | | | |     - Tag 0x0000 (1 bytes, int8u[1])
  | | | | 32) CanonCustom_FuncsUnknown_0x0000 = 0
  | | | |     - Tag 0x0000 (1 bytes, int8u[1])
  | | | | 33) CanonCustom_FuncsUnknown_0x0001 = 6
  | | | |     - Tag 0x0001 (1 bytes, int8u[1])
  | | | | 34) CanonCustom_FuncsUnknown_0x0000 = 0
  | | | |     - Tag 0x0000 (1 bytes, int8u[1])
  | | | | 35) CanonCustom_FuncsUnknown_0x0000 = 2
  | | | |     - Tag 0x0000 (1 bytes, int8u[1])
  | | | | 36) CanonCustom_FuncsUnknown_0x0000 = 0
  | | | |     - Tag 0x0000 (1 bytes, int8u[1])
  | | | | 37) CanonCustom_FuncsUnknown_0x0000 = 3
  | | | |     - Tag 0x0000 (1 bytes, int8u[1])
  | | | | 38) CanonCustom_FuncsUnknown_0x0000 = 0
  | | | |     - Tag 0x0000 (1 bytes, int8u[1])
  | | | | 39) CanonCustom_FuncsUnknown_0x0000 = 0
  | | | |     - Tag 0x0000 (1 bytes, int8u[1])
  | | | | 40) CanonCustom_FuncsUnknown_0x0000 = 0
  | | | |     - Tag 0x0000 (1 bytes, int8u[1])
  | | | | 41) CanonCustom_FuncsUnknown_0x0001 = 8
  | | | |     - Tag 0x0001 (1 bytes, int8u[1])
  | | | | 42) CanonCustom_FuncsUnknown_0x0000 = 0
  | | | |     - Tag 0x0000 (1 bytes, int8u[1])
  | | | | 43) CanonCustom_FuncsUnknown_0x0000 = 1
  | | | |     - Tag 0x0000 (1 bytes, int8u[1])
  | | | | 44) CanonCustom_FuncsUnknown_0x0000 = 0
  | | | |     - Tag 0x0000 (1 bytes, int8u[1])
  | | | | 45) CanonCustom_FuncsUnknown_0x0000 = 0
  | | | |     - Tag 0x0000 (1 bytes, int8u[1])
  | | | | 46) CanonCustom_FuncsUnknown_0x0000 = 0
  | | | |     - Tag 0x0000 (1 bytes, int8u[1])
  | | | | 47) CanonCustom_FuncsUnknown_0x0000 = 3
  | | | |     - Tag 0x0000 (1 bytes, int8u[1])
  | | | | 48) CanonCustom_FuncsUnknown_0x0000 = 0
  | | | |     - Tag 0x0000 (1 bytes, int8u[1])
  | | | | 49) CanonCustom_FuncsUnknown_0x0000 = 228
  | | | |     - Tag 0x0000 (1 bytes, int8u[1])
  | | | | 50) CanonCustom_FuncsUnknown_0x0000 = 0
  | | | |     - Tag 0x0000 (1 bytes, int8u[1])
  | | | | 51) CanonCustom_FuncsUnknown_0x0000 = 13
  | | | |     - Tag 0x0000 (1 bytes, int8u[1])
  | | | | 52) CanonCustom_FuncsUnknown_0x0000 = 0
  | | | |     - Tag 0x0000 (1 bytes, int8u[1])
  | | | | 53) CanonCustom_FuncsUnknown_0x0005 = 2
  | | | |     - Tag 0x0005 (1 bytes, int8u[1])
  | | | | 54) CanonCustom_FuncsUnknown_0x0000 = 0
  | | | |     - Tag 0x0000 (1 bytes, int8u[1])
  | | | | 55) CanonCustom_FuncsUnknown_0x0000 = 1
  | | | |     - Tag 0x0000 (1 bytes, int8u[1])
  | | | | 56) CanonCustom_FuncsUnknown_0x0000 = 0
  | | | |     - Tag 0x0000 (1 bytes, int8u[1])
  | | | | 57) CanonCustom_FuncsUnknown_0x0000 = 0
  | | | |     - Tag 0x0000 (1 bytes, int8u[1])
  | | | | 58) CanonCustom_FuncsUnknown_0x0000 = 0
  | | | |     - Tag 0x0000 (1 bytes, int8u[1])
  | | | | 59) CanonCustom_FuncsUnknown_0x0005 = 24
  | | | |     - Tag 0x0005 (1 bytes, int8u[1])
  | | | | 60) CanonCustom_FuncsUnknown_0x0000 = 0
  | | | |     - Tag 0x0000 (1 bytes, int8u[1])
  | | | | 61) CanonCustom_FuncsUnknown_0x0000 = 1
  | | | |     - Tag 0x0000 (1 bytes, int8u[1])
  | | | | 62) CanonCustom_FuncsUnknown_0x0000 = 0
  | | | |     - Tag 0x0000 (1 bytes, int8u[1])
  | | | | 63) CanonCustom_FuncsUnknown_0x0000 = 0
  | | | |     - Tag 0x0000 (1 bytes, int8u[1])
  | | | | 64) CanonCustom_FuncsUnknown_0x0000 = 0
  | | | |     - Tag 0x0000 (1 bytes, int8u[1])
  | | | | 65) CanonCustom_FuncsUnknown_0x0005 = 25
  | | | |     - Tag 0x0005 (1 bytes, int8u[1])
  | | | | 66) CanonCustom_FuncsUnknown_0x0000 = 0
  | | | |     - Tag 0x0000 (1 bytes, int8u[1])
  | | | | 67) CanonCustom_FuncsUnknown_0x0000 = 1
  | | | |     - Tag 0x0000 (1 bytes, int8u[1])
  | | | | 68) CanonCustom_FuncsUnknown_0x0000 = 0
  | | | |     - Tag 0x0000 (1 bytes, int8u[1])
  | | | | 69) CanonCustom_FuncsUnknown_0x0000 = 0
  | | | |     - Tag 0x0000 (1 bytes, int8u[1])
  | | | | 70) CanonCustom_FuncsUnknown_0x0000 = 0
  | | | |     - Tag 0x0000 (1 bytes, int8u[1])
  | | | | 71) CanonCustom_FuncsUnknown_0x0005 = 26
  | | | |     - Tag 0x0005 (1 bytes, int8u[1])
  | | | | 72) CanonCustom_FuncsUnknown_0x0000 = 0
  | | | |     - Tag 0x0000 (1 bytes, int8u[1])
  | | | | 73) CanonCustom_FuncsUnknown_0x0000 = 1
  | | | |     - Tag 0x0000 (1 bytes, int8u[1])
  | | | | 74) CanonCustom_FuncsUnknown_0x0000 = 0
  | | | |     - Tag 0x0000 (1 bytes, int8u[1])
  | | | | 75) CanonCustom_FuncsUnknown_0x0000 = 0
  | | | |     - Tag 0x0000 (1 bytes, int8u[1])
  | | | | 76) CanonCustom_FuncsUnknown_0x0000 = 0
  | | | |     - Tag 0x0000 (1 bytes, int8u[1])
  | | | | 77) CanonCustom_FuncsUnknown_0x0005 = 14
  | | | |     - Tag 0x0005 (1 bytes, int8u[1])
  | | | | 78) CanonCustom_FuncsUnknown_0x0000 = 0
  | | | |     - Tag 0x0000 (1 bytes, int8u[1])
  | | | | 79) CanonCustom_FuncsUnknown_0x0000 = 1
  | | | |     - Tag 0x0000 (1 bytes, int8u[1])
  | | | | 80) CanonCustom_FuncsUnknown_0x0000 = 0
  | | | |     - Tag 0x0000 (1 bytes, int8u[1])
  | | | | 81) CanonCustom_FuncsUnknown_0x0000 = 0
  | | | |     - Tag 0x0000 (1 bytes, int8u[1])
  | | | | 82) CanonCustom_FuncsUnknown_0x0000 = 0
  | | | |     - Tag 0x0000 (1 bytes, int8u[1])
  | | | | 83) CanonCustom_FuncsUnknown_0x0005 = 5
  | | | |     - Tag 0x0005 (1 bytes, int8u[1])
  | | | | 84) CanonCustom_FuncsUnknown_0x0000 = 0
  | | | |     - Tag 0x0000 (1 bytes, int8u[1])
  | | | | 85) CanonCustom_FuncsUnknown_0x0000 = 1
  | | | |     - Tag 0x0000 (1 bytes, int8u[1])
  | | | | 86) CanonCustom_FuncsUnknown_0x0000 = 0
  | | | |     - Tag 0x0000 (1 bytes, int8u[1])
  | | | | 87) CanonCustom_FuncsUnknown_0x0000 = 0
  | | | |     - Tag 0x0000 (1 bytes, int8u[1])
  | | | | 88) CanonCustom_FuncsUnknown_0x0000 = 0
  | | | |     - Tag 0x0000 (1 bytes, int8u[1])
  | | | | 89) CanonCustom_FuncsUnknown_0x0005 = 18
  | | | |     - Tag 0x0005 (1 bytes, int8u[1])
  | | | | 90) CanonCustom_FuncsUnknown_0x0000 = 0
  | | | |     - Tag 0x0000 (1 bytes, int8u[1])
  | | | | 91) CanonCustom_FuncsUnknown_0x0000 = 2
  | | | |     - Tag 0x0000 (1 bytes, int8u[1])
  | | | | 92) CanonCustom_FuncsUnknown_0x0000 = 0
  | | | |     - Tag 0x0000 (1 bytes, int8u[1])
  | | | | 93) CanonCustom_FuncsUnknown_0x0000 = 0
  | | | |     - Tag 0x0000 (1 bytes, int8u[1])
  | | | | 94) CanonCustom_FuncsUnknown_0x0000 = 0
  | | | |     - Tag 0x0000 (1 bytes, int8u[1])
  | | | | 95) CanonCustom_FuncsUnknown_0x0000 = 7
  | | | |     - Tag 0x0000 (1 bytes, int8u[1])
  | | | | 96) CanonCustom_FuncsUnknown_0x0000 = 0
  | | | |     - Tag 0x0000 (1 bytes, int8u[1])
  | | | | 97) CanonCustom_FuncsUnknown_0x0005 = 27
  | | | |     - Tag 0x0005 (1 bytes, int8u[1])
  | | | | 98) CanonCustom_FuncsUnknown_0x0000 = 0
  | | | |     - Tag 0x0000 (1 bytes, int8u[1])
  | | | | 99) CanonCustom_FuncsUnknown_0x0000 = 1
  | | | |     - Tag 0x0000 (1 bytes, int8u[1])
  | | | | 100) CanonCustom_FuncsUnknown_0x0000 = 0
  | | | |     - Tag 0x0000 (1 bytes, int8u[1])
  | | | | 101) CanonCustom_FuncsUnknown_0x0000 = 0
  | | | |     - Tag 0x0000 (1 bytes, int8u[1])
  | | | | 102) CanonCustom_FuncsUnknown_0x0000 = 0
  | | | |     - Tag 0x0000 (1 bytes, int8u[1])
  | | | | 103) CanonCustom_FuncsUnknown_0x0005 = 22
  | | | |     - Tag 0x0005 (1 bytes, int8u[1])
  | | | | 104) CanonCustom_FuncsUnknown_0x0000 = 0
  | | | |     - Tag 0x0000 (1 bytes, int8u[1])
  | | | | 105) CanonCustom_FuncsUnknown_0x0000 = 1
  | | | |     - Tag 0x0000 (1 bytes, int8u[1])
  | | | | 106) CanonCustom_FuncsUnknown_0x0000 = 0
  | | | |     - Tag 0x0000 (1 bytes, int8u[1])
  | | | | 107) CanonCustom_FuncsUnknown_0x0000 = 0
  | | | |     - Tag 0x0000 (1 bytes, int8u[1])
  | | | | 108) CanonCustom_FuncsUnknown_0x0000 = 0
  | | | |     - Tag 0x0000 (1 bytes, int8u[1])
  | | | | 109) CanonCustom_FuncsUnknown_0x0005 = 19
  | | | |     - Tag 0x0005 (1 bytes, int8u[1])
  | | | | 110) CanonCustom_FuncsUnknown_0x0000 = 0
  | | | |     - Tag 0x0000 (1 bytes, int8u[1])
  | | | | 111) CanonCustom_FuncsUnknown_0x0000 = 1
  | | | |     - Tag 0x0000 (1 bytes, int8u[1])
  | | | | 112) CanonCustom_FuncsUnknown_0x0000 = 0
  | | | |     - Tag 0x0000 (1 bytes, int8u[1])
  | | | | 113) CanonCustom_FuncsUnknown_0x0000 = 0
  | | | |     - Tag 0x0000 (1 bytes, int8u[1])
  | | | | 114) CanonCustom_FuncsUnknown_0x0000 = 0
  | | | |     - Tag 0x0000 (1 bytes, int8u[1])
  | | | | 115) CanonCustom_FuncsUnknown_0x0005 = 12
  | | | |     - Tag 0x0005 (1 bytes, int8u[1])
  | | | | 116) CanonCustom_FuncsUnknown_0x0000 = 0
  | | | |     - Tag 0x0000 (1 bytes, int8u[1])
  | | | | 117) CanonCustom_FuncsUnknown_0x0000 = 1
  | | | |     - Tag 0x0000 (1 bytes, int8u[1])
  | | | | 118) CanonCustom_FuncsUnknown_0x0000 = 0
  | | | |     - Tag 0x0000 (1 bytes, int8u[1])
  | | | | 119) CanonCustom_FuncsUnknown_0x0000 = 0
  | | | |     - Tag 0x0000 (1 bytes, int8u[1])
  | | | | 120) CanonCustom_FuncsUnknown_0x0000 = 0
  | | | |     - Tag 0x0000 (1 bytes, int8u[1])
  | | | | 121) CanonCustom_FuncsUnknown_0x0005 = 16
  | | | |     - Tag 0x0005 (1 bytes, int8u[1])
  | | | | 122) CanonCustom_FuncsUnknown_0x0000 = 0
  | | | |     - Tag 0x0000 (1 bytes, int8u[1])
  | | | | 123) CanonCustom_FuncsUnknown_0x0000 = 1
  | | | |     - Tag 0x0000 (1 bytes, int8u[1])
  | | | | 124) CanonCustom_FuncsUnknown_0x0000 = 0
  | | | |     - Tag 0x0000 (1 bytes, int8u[1])
  | | | | 125) CanonCustom_FuncsUnknown_0x0000 = 0
  | | | |     - Tag 0x0000 (1 bytes, int8u[1])
  | | | | 126) CanonCustom_FuncsUnknown_0x0000 = 0
  | | | |     - Tag 0x0000 (1 bytes, int8u[1])
  | | | | 127) CanonCustom_FuncsUnknown_0x0005 = 7
  | | | |     - Tag 0x0005 (1 bytes, int8u[1])
  | | | | 128) CanonCustom_FuncsUnknown_0x0000 = 0
  | | | |     - Tag 0x0000 (1 bytes, int8u[1])
  | | | | 129) CanonCustom_FuncsUnknown_0x0000 = 16
  | | | |     - Tag 0x0000 (1 bytes, int8u[1])
  | | | | 130) CanonCustom_FuncsUnknown_0x0000 = 0
  | | | |     - Tag 0x0000 (1 bytes, int8u[1])
  | | | | 131) CanonCustom_FuncsUnknown_0x0000 = 0
  | | | |     - Tag 0x0000 (1 bytes, int8u[1])
  | | | | 132) CanonCustom_FuncsUnknown_0x0000 = 0
  | | | |     - Tag 0x0000 (1 bytes, int8u[1])
  | | | | 133) CanonCustom_FuncsUnknown_0x0000 = 0
  | | | |     - Tag 0x0000 (1 bytes, int8u[1])
  | | | | 134) CanonCustom_FuncsUnknown_0x0000 = 0
  | | | |     - Tag 0x0000 (1 bytes, int8u[1])
  | | | | 135) CanonCustom_FuncsUnknown_0x0000 = 0
  | | | |     - Tag 0x0000 (1 bytes, int8u[1])
  | | | | 136) CanonCustom_FuncsUnknown_0x0000 = 0
  | | | |     - Tag 0x0000 (1 bytes, int8u[1])
  | | | | 137) CanonCustom_FuncsUnknown_0x0000 = 0
  | | | |     - Tag 0x0000 (1 bytes, int8u[1])
  | | | | 138) CanonCustom_FuncsUnknown_0x0000 = 0
  | | | |     - Tag 0x0000 (1 bytes, int8u[1])
  | | | | 139) CanonCustom_FuncsUnknown_0x0000 = 0
  | | | |     - Tag 0x0000 (1 bytes, int8u[1])
  | | | | 140) CanonCustom_FuncsUnknown_0x0000 = 0
  | | | |     - Tag 0x0000 (1 bytes, int8u[1])
  | | | | 141) CanonCustom_FuncsUnknown_0x0000 = 0
  | | | |     - Tag 0x0000 (1 bytes, int8u[1])
  | | | | 142) CanonCustom_FuncsUnknown_0x0000 = 0
  | | | |     - Tag 0x0000 (1 bytes, int8u[1])
  | | | | 143) CanonCustom_FuncsUnknown_0x0000 = 0
  | | | |     - Tag 0x0000 (1 bytes, int8u[1])
  | | | | 144) CanonCustom_FuncsUnknown_0x0000 = 0
  | | | |     - Tag 0x0000 (1 bytes, int8u[1])
  | | | | 145) CanonCustom_FuncsUnknown_0x0000 = 0
  | | | |     - Tag 0x0000 (1 bytes, int8u[1])
  | | | | 146) CanonCustom_FuncsUnknown_0x0000 = 0
  | | | |     - Tag 0x0000 (1 bytes, int8u[1])
  | | | | 147) CanonCustom_FuncsUnknown_0x0000 = 0
  | | | |     - Tag 0x0000 (1 bytes, int8u[1])
  | | | | 148) CanonCustom_FuncsUnknown_0x0000 = 0
  | | | |     - Tag 0x0000 (1 bytes, int8u[1])
  | | | | 149) CanonCustom_FuncsUnknown_0x0000 = 0
  | | | |     - Tag 0x0000 (1 bytes, int8u[1])
  | | | | 150) CanonCustom_FuncsUnknown_0x0000 = 0
  | | | |     - Tag 0x0000 (1 bytes, int8u[1])
  | | | | 151) CanonCustom_FuncsUnknown_0x0000 = 0
  | | | |     - Tag 0x0000 (1 bytes, int8u[1])
  | | | | 152) CanonCustom_FuncsUnknown_0x0000 = 0
  | | | |     - Tag 0x0000 (1 bytes, int8u[1])
  | | | | 153) CanonCustom_FuncsUnknown_0x0000 = 0
  | | | |     - Tag 0x0000 (1 bytes, int8u[1])
  | | | | 154) CanonCustom_FuncsUnknown_0x0000 = 0
  | | | |     - Tag 0x0000 (1 bytes, int8u[1])
  | | | | 155) CanonCustom_FuncsUnknown_0x0000 = 0
  | | | |     - Tag 0x0000 (1 bytes, int8u[1])
  | | | | 156) CanonCustom_FuncsUnknown_0x0000 = 0
  | | | |     - Tag 0x0000 (1 bytes, int8u[1])
  | | | | 157) CanonCustom_FuncsUnknown_0x0000 = 0
  | | | |     - Tag 0x0000 (1 bytes, int8u[1])
  | | | | 158) CanonCustom_FuncsUnknown_0x0000 = 0
  | | | |     - Tag 0x0000 (1 bytes, int8u[1])
  | | | | 159) CanonCustom_FuncsUnknown_0x0000 = 0
  | | | |     - Tag 0x0000 (1 bytes, int8u[1])
  | | | | 160) CanonCustom_FuncsUnknown_0x0000 = 0
  | | | |     - Tag 0x0000 (1 bytes, int8u[1])
  | | | | 161) CanonCustom_FuncsUnknown_0x0000 = 0
  | | | |     - Tag 0x0000 (1 bytes, int8u[1])
  | | | | 162) CanonCustom_FuncsUnknown_0x0000 = 0
  | | | |     - Tag 0x0000 (1 bytes, int8u[1])
  | | | | 163) CanonCustom_FuncsUnknown_0x0000 = 4
  | | | |     - Tag 0x0000 (1 bytes, int8u[1])
  | | | | 164) CanonCustom_FuncsUnknown_0x0000 = 0
  | | | |     - Tag 0x0000 (1 bytes, int8u[1])
  | | | | 165) CanonCustom_FuncsUnknown_0x0000 = 132
  | | | |     - Tag 0x0000 (1 bytes, int8u[1])
  | | | | 166) CanonCustom_FuncsUnknown_0x0000 = 0
  | | | |     - Tag 0x0000 (1 bytes, int8u[1])
  | | | | 167) CanonCustom_FuncsUnknown_0x0000 = 4
  | | | |     - Tag 0x0000 (1 bytes, int8u[1])
  | | | | 168) CanonCustom_FuncsUnknown_0x0000 = 0
  | | | |     - Tag 0x0000 (1 bytes, int8u[1])
  | | | | 169) CanonCustom_FuncsUnknown_0x0007 = 6
  | | | |     - Tag 0x0007 (1 bytes, int8u[1])
  | | | | 170) CanonCustom_FuncsUnknown_0x0000 = 0
  | | | |     - Tag 0x0000 (1 bytes, int8u[1])
  | | | | 171) CanonCustom_FuncsUnknown_0x0000 = 1
  | | | |     - Tag 0x0000 (1 bytes, int8u[1])
  | | | | 172) CanonCustom_FuncsUnknown_0x0000 = 0
  | | | |     - Tag 0x0000 (1 bytes, int8u[1])
  | | | | 173) CanonCustom_FuncsUnknown_0x0000 = 0
  | | | |     - Tag 0x0000 (1 bytes, int8u[1])
  | | | | 174) CanonCustom_FuncsUnknown_0x0000 = 0
  | | | |     - Tag 0x0000 (1 bytes, int8u[1])
  | | | | 175) CanonCustom_FuncsUnknown_0x0007 = 15
  | | | |     - Tag 0x0007 (1 bytes, int8u[1])
  | | | | 176) CanonCustom_FuncsUnknown_0x0000 = 0
  | | | |     - Tag 0x0000 (1 bytes, int8u[1])
  | | | | 177) CanonCustom_FuncsUnknown_0x0000 = 2
  | | | |     - Tag 0x0000 (1 bytes, int8u[1])
  | | | | 178) CanonCustom_FuncsUnknown_0x0000 = 0
  | | | |     - Tag 0x0000 (1 bytes, int8u[1])
  | | | | 179) CanonCustom_FuncsUnknown_0x0000 = 0
  | | | |     - Tag 0x0000 (1 bytes, int8u[1])
  | | | | 180) CanonCustom_FuncsUnknown_0x0000 = 0
  | | | |     - Tag 0x0000 (1 bytes, int8u[1])
  | | | | 181) CanonCustom_FuncsUnknown_0x0000 = 2
  | | | |     - Tag 0x0000 (1 bytes, int8u[1])
  | | | | 182) CanonCustom_FuncsUnknown_0x0000 = 0
  | | | |     - Tag 0x0000 (1 bytes, int8u[1])
  | | | | 183) CanonCustom_FuncsUnknown_0x0004 = 10
  | | | |     - Tag 0x0004 (1 bytes, int8u[1])
  | | | | 184) CanonCustom_FuncsUnknown_0x0000 = 0
  | | | |     - Tag 0x0000 (1 bytes, int8u[1])
  | | | | 185) CanonCustom_FuncsUnknown_0x0000 = 1
  | | | |     - Tag 0x0000 (1 bytes, int8u[1])
  | | | | 186) CanonCustom_FuncsUnknown_0x0000 = 0
  | | | |     - Tag 0x0000 (1 bytes, int8u[1])
  | | | | 187) CanonCustom_FuncsUnknown_0x0000 = 3
  | | | |     - Tag 0x0000 (1 bytes, int8u[1])
  | | | | 188) CanonCustom_FuncsUnknown_0x0000 = 0
  | | | |     - Tag 0x0000 (1 bytes, int8u[1])
  | | | | 189) CanonCustom_FuncsUnknown_0x0007 = 12
  | | | |     - Tag 0x0007 (1 bytes, int8u[1])
  | | | | 190) CanonCustom_FuncsUnknown_0x0000 = 0
  | | | |     - Tag 0x0000 (1 bytes, int8u[1])
  | | | | 191) CanonCustom_FuncsUnknown_0x0000 = 19
  | | | |     - Tag 0x0000 (1 bytes, int8u[1])
  | | | | 192) CanonCustom_FuncsUnknown_0x0000 = 0
  | | | |     - Tag 0x0000 (1 bytes, int8u[1])
  | | | | 193) CanonCustom_FuncsUnknown_0x0000 = 0
  | | | |     - Tag 0x0000 (1 bytes, int8u[1])
  | | | | 194) CanonCustom_FuncsUnknown_0x0000 = 0
  | | | |     - Tag 0x0000 (1 bytes, int8u[1])
  | | | | 195) CanonCustom_FuncsUnknown_0x0000 = 0
  | | | |     - Tag 0x0000 (1 bytes, int8u[1])
  | | | | 196) CanonCustom_FuncsUnknown_0x0000 = 0
  | | | |     - Tag 0x0000 (1 bytes, int8u[1])
  | | | | 197) CanonCustom_FuncsUnknown_0x0000 = 0
  | | | |     - Tag 0x0000 (1 bytes, int8u[1])
  | | | | 198) CanonCustom_FuncsUnknown_0x0000 = 0
  | | | |     - Tag 0x0000 (1 bytes, int8u[1])
  | | | | 199) CanonCustom_FuncsUnknown_0x0000 = 0
  | | | |     - Tag 0x0000 (1 bytes, int8u[1])
  | | | | 200) CanonCustom_FuncsUnknown_0x0000 = 0
  | | | |     - Tag 0x0000 (1 bytes, int8u[1])
  | | | | 201) CanonCustom_FuncsUnknown_0x0000 = 0
  | | | |     - Tag 0x0000 (1 bytes, int8u[1])
  | | | | 202) CanonCustom_FuncsUnknown_0x0000 = 0
  | | | |     - Tag 0x0000 (1 bytes, int8u[1])
  | | | | 203) CanonCustom_FuncsUnknown_0x0000 = 0
  | | | |     - Tag 0x0000 (1 bytes, int8u[1])
  | | | | 204) CanonCustom_FuncsUnknown_0x0000 = 0
  | | | |     - Tag 0x0000 (1 bytes, int8u[1])
  | | | | 205) CanonCustom_FuncsUnknown_0x0000 = 0
  | | | |     - Tag 0x0000 (1 bytes, int8u[1])
  | | | | 206) CanonCustom_FuncsUnknown_0x0000 = 0
  | | | |     - Tag 0x0000 (1 bytes, int8u[1])
  | | | | 207) CanonCustom_FuncsUnknown_0x0000 = 0
  | | | |     - Tag 0x0000 (1 bytes, int8u[1])
  | | | | 208) CanonCustom_FuncsUnknown_0x0000 = 0
  | | | |     - Tag 0x0000 (1 bytes, int8u[1])
  | | | | 209) CanonCustom_FuncsUnknown_0x0000 = 0
  | | | |     - Tag 0x0000 (1 bytes, int8u[1])
  | | | | 210) CanonCustom_FuncsUnknown_0x0000 = 0
  | | | |     - Tag 0x0000 (1 bytes, int8u[1])
  | | | | 211) CanonCustom_FuncsUnknown_0x0000 = 0
  | | | |     - Tag 0x0000 (1 bytes, int8u[1])
  | | | | 212) CanonCustom_FuncsUnknown_0x0000 = 0
  | | | |     - Tag 0x0000 (1 bytes, int8u[1])
  | | | | 213) CanonCustom_FuncsUnknown_0x0000 = 0
  | | | |     - Tag 0x0000 (1 bytes, int8u[1])
  | | | | 214) CanonCustom_FuncsUnknown_0x0000 = 0
  | | | |     - Tag 0x0000 (1 bytes, int8u[1])
  | | | | 215) CanonCustom_FuncsUnknown_0x0000 = 0
  | | | |     - Tag 0x0000 (1 bytes, int8u[1])
  | | | | 216) CanonCustom_FuncsUnknown_0x0000 = 0
  | | | |     - Tag 0x0000 (1 bytes, int8u[1])
  | | | | 217) CanonCustom_FuncsUnknown_0x0000 = 0
  | | | |     - Tag 0x0000 (1 bytes, int8u[1])
  | | | | 218) CanonCustom_FuncsUnknown_0x0000 = 0
  | | | |     - Tag 0x0000 (1 bytes, int8u[1])
  | | | | 219) CanonCustom_FuncsUnknown_0x0000 = 0
  | | | |     - Tag 0x0000 (1 bytes, int8u[1])
  | | | | 220) CanonCustom_FuncsUnknown_0x0000 = 0
  | | | |     - Tag 0x0000 (1 bytes, int8u[1])
  | | | | 221) CanonCustom_FuncsUnknown_0x0000 = 0
  | | | |     - Tag 0x0000 (1 bytes, int8u[1])
  | | | | 222) CanonCustom_FuncsUnknown_0x0000 = 0
  | | | |     - Tag 0x0000 (1 bytes, int8u[1])
  | | | | 223) CanonCustom_FuncsUnknown_0x0000 = 0
  | | | |     - Tag 0x0000 (1 bytes, int8u[1])
  | | | | 224) CanonCustom_FuncsUnknown_0x0000 = 0
  | | | |     - Tag 0x0000 (1 bytes, int8u[1])
  | | | | 225) CanonCustom_FuncsUnknown_0x0000 = 0
  | | | |     - Tag 0x0000 (1 bytes, int8u[1])
  | | | | 226) CanonCustom_FuncsUnknown_0x0000 = 0
  | | | |     - Tag 0x0000 (1 bytes, int8u[1])
  | | | | 227) CanonCustom_FuncsUnknown_0x0000 = 0
  | | | |     - Tag 0x0000 (1 bytes, int8u[1])
  | | | | 228) CanonCustom_FuncsUnknown_0x0000 = 0
  | | | |     - Tag 0x0000 (1 bytes, int8u[1])
  | | | | 229) CanonCustom_FuncsUnknown_0x0000 = 0
  | | | |     - Tag 0x0000 (1 bytes, int8u[1])
  | | | | 230) CanonCustom_FuncsUnknown_0x0000 = 0
  | | | |     - Tag 0x0000 (1 bytes, int8u[1])
  | | | 31) CanonCameraSettings (SubDirectory) -->
  | | |     - Tag 0x0001 (98 bytes, int16u[49] read as undef[98]):
  | | |         2450: 62 00 02 00 00 00 04 00 00 00 00 00 00 00 00 00 [b...............]
  | | |         2460: 00 00 07 00 00 00 01 00 00 00 00 00 00 00 ff 7f [................]
  | | |         2470: ff 7f 03 00 02 00 00 00 04 00 00 00 34 10 fa 00 [............4...]
  | | |         2480: 37 00 01 00 a0 00 40 01 00 00 00 00 00 00 00 00 [7.....@.........]
  | | |         2490: 00 00 00 00 00 00 00 00 00 00 00 00 00 00 00 00 [................]
  | | |         24a0: 00 00 00 00 00 00 ff 7f 00 00 00 00 00 00 00 00 [................]
  | | |         24b0: 03 00                                           [..]
  | | | + [BinaryData directory, 98 bytes, Little-endian]
  | | | | MacroMode = 2
  | | | | - Tag 0x0001 (2 bytes, int16s[1]):
  | | | |     2452: 02 00                                           [..]
  | | | | SelfTimer = 0
  | | | | - Tag 0x0002 (2 bytes, int16s[1]):
  | | | |     2454: 00 00                                           [..]
  | | | | Quality = 4
  | | | | - Tag 0x0003 (2 bytes, int16s[1]):
  | | | |     2456: 04 00                                           [..]
  | | | | CanonFlashMode = 0
  | | | | - Tag 0x0004 (2 bytes, int16s[1]):
  | | | |     2458: 00 00                                           [..]
  | | | | ContinuousDrive = 0
  | | | | - Tag 0x0005 (2 bytes, int16s[1]):
  | | | |     245a: 00 00                                           [..]
  | | | | FocusMode = 0
  | | | | - Tag 0x0007 (2 bytes, int16s[1]):
  | | | |     245e: 00 00                                           [..]
  | | | | RecordMode = 7
  | | | | - Tag 0x0009 (2 bytes, int16s[1]):
  | | | |     2462: 07 00                                           [..]
  | | | | CanonImageSize = 0
  | | | | - Tag 0x000a (2 bytes, int16s[1]):
  | | | |     2464: 00 00                                           [..]
  | | | | EasyMode = 1
  | | | | - Tag 0x000b (2 bytes, int16s[1]):
  | | | |     2466: 01 00                                           [..]
  | | | | DigitalZoom = 0
  | | | | - Tag 0x000c (2 bytes, int16s[1]):
  | | | |     2468: 00 00                                           [..]
  | | | | Contrast = 0
  | | | | - Tag 0x000d (2 bytes, int16s[1]):
  | | | |     246a: 00 00                                           [..]
  | | | | Saturation = 0
  | | | | - Tag 0x000e (2 bytes, int16s[1]):
  | | | |     246c: 00 00                                           [..]
  | | | | Sharpness = 32767
  | | | | - Tag 0x000f (2 bytes, int16s[1]):
  | | | |     246e: ff 7f                                           [..]
  | | | | CameraISO = 32767
  | | | | - Tag 0x0010 (2 bytes, int16s[1]):
  | | | |     2470: ff 7f                                           [..]
  | | | | MeteringMode = 3
  | | | | - Tag 0x0011 (2 bytes, int16s[1]):
  | | | |     2472: 03 00                                           [..]
  | | | | FocusRange = 2
  | | | | - Tag 0x0012 (2 bytes, int16s[1]):
  | | | |     2474: 02 00                                           [..]
  | | | | AFPoint = 0
  | | | | - Tag 0x0013 (2 bytes, int16s[1]):
  | | | |     2476: 00 00                                           [..]
  | | | | CanonExposureMode = 4
  | | | | - Tag 0x0014 (2 bytes, int16s[1]):
  | | | |     2478: 04 00                                           [..]
  | | | | LensType = 4148
  | | | | - Tag 0x0016 (2 bytes, int16u[1]):
  | | | |     247c: 34 10                                           [4.]
  | | | | MaxFocalLength = 250
  | | | | - Tag 0x0017 (2 bytes, int16u[1]):
  | | | |     247e: fa 00                                           [..]
  | | | | MinFocalLength = 55
  | | | | - Tag 0x0018 (2 bytes, int16u[1]):
  | | | |     2480: 37 00                                           [7.]
  | | | | FocalUnits = 1
  | | | | - Tag 0x0019 (2 bytes, int16s[1]):
  | | | |     2482: 01 00                                           [..]
  | | | | MaxAperture = 160
  | | | | - Tag 0x001a (2 bytes, int16s[1]):
  | | | |     2484: a0 00                                           [..]
  | | | | MinAperture = 320
  | | | | - Tag 0x001b (2 bytes, int16s[1]):
  | | | |     2486: 40 01                                           [@.]
  | | | | FlashModel = 0
  | | | | - Tag 0x001c, mask 0x7f (2 bytes, int16s[1]):
  | | | |     2488: 00 00                                           [..]
  | | | | FlashBits = 0
  | | | | - Tag 0x001d (2 bytes, int16s[1]):
  | | | |     248a: 00 00                                           [..]
  | | | | FocusContinuous = 0
  | | | | - Tag 0x0020 (2 bytes, int16s[1]):
  | | | |     2490: 00 00                                           [..]
  | | | | AESetting = 0
  | | | | - Tag 0x0021 (2 bytes, int16s[1]):
  | | | |     2492: 00 00                                           [..]
  | | | | ImageStabilization = 0
  | | | | - Tag 0x0022 (2 bytes, int16s[1]):
  | | | |     2494: 00 00                                           [..]
  | | | | DisplayAperture = 0
  | | | | - Tag 0x0023 (2 bytes, int16s[1]):
  | | | |     2496: 00 00                                           [..]
  | | | | ZoomSourceWidth = 0
  | | | | - Tag 0x0024 (2 bytes, int16s[1]):
  | | | |     2498: 00 00                                           [..]
  | | | | ZoomTargetWidth = 0
  | | | | - Tag 0x0025 (2 bytes, int16s[1]):
  | | | |     249a: 00 00                                           [..]
  | | | | SpotMeteringMode = 0
  | | | | - Tag 0x0027 (2 bytes, int16s[1]):
  | | | |     249e: 00 00                                           [..]
  | | | | PhotoEffect = 0
  | | | | - Tag 0x0028 (2 bytes, int16s[1]):
  | | | |     24a0: 00 00                                           [..]
  | | | | ManualFlashOutput = 0
  | | | | - Tag 0x0029 (2 bytes, int16s[1]):
  | | | |     24a2: 00 00                                           [..]
  | | | | ColorTone = 0
  | | | | - Tag 0x002a (2 bytes, int16s[1]):
  | | | |     24a4: 00 00                                           [..]
  | | | | SRAWQuality = 0
  | | | | - Tag 0x002e (2 bytes, int16s[1]):
  | | | |     24ac: 00 00                                           [..]
  | | | 32) CanonFileInfo (SubDirectory) -->
  | | |     - Tag 0x0093 (64 bytes, int16u[32] read as undef[64]):
  | | |         24b2: 40 00 00 00 00 00 00 00 00 00 00 00 00 00 00 00 [@...............]
  | | |         24c2: ff ff 00 00 00 00 00 00 00 00 00 00 ff ff ff ff [................]
  | | |         24d2: 69 00 ff ff 00 00 00 00 5a 00 55 00 00 00 00 00 [i.......Z.U.....]
  | | |         24e2: 00 00 00 00 ff ff 00 00 00 00 3f 00 ff ff ff ff [..........?.....]
  | | | + [BinaryData directory, 64 bytes, Little-endian]
  | | | | BracketMode = 0
  | | | | - Tag 0x0003 (2 bytes, int16s[1]):
  | | | |     24b8: 00 00                                           [..]
  | | | | BracketValue = 0
  | | | | - Tag 0x0004 (2 bytes, int16s[1]):
  | | | |     24ba: 00 00                                           [..]
  | | | | BracketShotNumber = 0
  | | | | - Tag 0x0005 (2 bytes, int16s[1]):
  | | | |     24bc: 00 00                                           [..]
  | | | | RawJpgQuality = 0
  | | | | - Tag 0x0006 (2 bytes, int16s[1]):
  | | | |     24be: 00 00                                           [..]
  | | | | RawJpgSize = 0
  | | | | - Tag 0x0007 (2 bytes, int16s[1]):
  | | | |     24c0: 00 00                                           [..]
  | | | | LongExposureNoiseReduction2 = -1
  | | | | - Tag 0x0008 (2 bytes, int16s[1]):
  | | | |     24c2: ff ff                                           [..]
  | | | | WBBracketMode = 0
  | | | | - Tag 0x0009 (2 bytes, int16s[1]):
  | | | |     24c4: 00 00                                           [..]
  | | | | WBBracketValueAB = 0
  | | | | - Tag 0x000c (2 bytes, int16s[1]):
  | | | |     24ca: 00 00                                           [..]
  | | | | WBBracketValueGM = 0
  | | | | - Tag 0x000d (2 bytes, int16s[1]):
  | | | |     24cc: 00 00                                           [..]
  | | | | FilterEffect = -1
  | | | | - Tag 0x000e (2 bytes, int16s[1]):
  | | | |     24ce: ff ff                                           [..]
  | | | | ToningEffect = -1
  | | | | - Tag 0x000f (2 bytes, int16s[1]):
  | | | |     24d0: ff ff                                           [..]
  | | | | LiveViewShooting = 0
  | | | | - Tag 0x0013 (2 bytes, int16s[1]):
  | | | |     24d8: 00 00                                           [..]
  | | | | FocusDistanceUpper = 90
  | | | | - Tag 0x0014 (2 bytes, int16u[1]):
  | | | |     24da: 5a 00                                           [Z.]
  | | | | FocusDistanceLower = 85
  | | | | - Tag 0x0015 (2 bytes, int16u[1]):
  | | | |     24dc: 55 00                                           [U.]
  | | | | ShutterMode = 0
  | | | | - Tag 0x0017 (2 bytes, int16s[1]):
  | | | |     24e0: 00 00                                           [..]
  | | | | FlashExposureLock = 0
  | | | | - Tag 0x0019 (2 bytes, int16s[1]):
  | | | |     24e4: 00 00                                           [..]
  | | | 33) ProcessingInfo (SubDirectory) -->
  | | |     - Tag 0x00a0 (28 bytes, int16u[14] read as undef[28]):
  | | |         24f2: 1c 00 00 00 00 00 00 00 00 00 00 00 00 00 00 00 [................]
  | | |         2502: ff ff 28 0a 84 00 00 00 00 00 00 00             [..(.........]
  | | | + [BinaryData directory, 28 bytes, Little-endian]
  | | | | ToneCurve = 0
  | | | | - Tag 0x0001 (2 bytes, int16s[1]):
  | | | |     24f4: 00 00                                           [..]
  | | | | Sharpness = 0
  | | | | - Tag 0x0002 (2 bytes, int16s[1]):
  | | | |     24f6: 00 00                                           [..]
  | | | | SharpnessFrequency = 0
  | | | | - Tag 0x0003 (2 bytes, int16s[1]):
  | | | |     24f8: 00 00                                           [..]
  | | | | SensorRedLevel = 0
  | | | | - Tag 0x0004 (2 bytes, int16s[1]):
  | | | |     24fa: 00 00                                           [..]
  | | | | SensorBlueLevel = 0
  | | | | - Tag 0x0005 (2 bytes, int16s[1]):
  | | | |     24fc: 00 00                                           [..]
  | | | | WhiteBalanceRed = 0
  | | | | - Tag 0x0006 (2 bytes, int16s[1]):
  | | | |     24fe: 00 00                                           [..]
  | | | | WhiteBalanceBlue = 0
  | | | | - Tag 0x0007 (2 bytes, int16s[1]):
  | | | |     2500: 00 00                                           [..]
  | | | | WhiteBalance = -1
  | | | | - Tag 0x0008 (2 bytes, int16s[1]):
  | | | |     2502: ff ff                                           [..]
  | | | | ColorTemperature = 2600
  | | | | - Tag 0x0009 (2 bytes, int16s[1]):
  | | | |     2504: 28 0a                                           [(.]
  | | | | PictureStyle = 132
  | | | | - Tag 0x000a (2 bytes, int16s[1]):
  | | | |     2506: 84 00                                           [..]
  | | | | DigitalGain = 0
  | | | | - Tag 0x000b (2 bytes, int16s[1]):
  | | | |     2508: 00 00                                           [..]
  | | | | WBShiftAB = 0
  | | | | - Tag 0x000c (2 bytes, int16s[1]):
  | | | |     250a: 00 00                                           [..]
  | | | | WBShiftGM = 0
  | | | | - Tag 0x000d (2 bytes, int16s[1]):
  | | | |     250c: 00 00                                           [..]
  | | | 34) CanonShotInfo (SubDirectory) -->
  | | |     - Tag 0x0004 (68 bytes, int16u[34] read as undef[68]):
  | | |         250e: 44 00 00 00 cc 00 d4 00 b4 00 14 01 00 00 00 00 [D...............]
  | | |         251e: 03 00 00 00 08 00 08 00 98 00 00 00 00 00 00 00 [................]
  | | |         252e: 00 00 00 00 01 00 00 00 00 00 b4 00 14 01 91 00 [................]
  | | |         253e: 00 00 00 00 f8 00 ff ff ff ff ff ff ff ff 00 00 [................]
  | | |         254e: 00 00 00 00                                     [....]
  | | | + [BinaryData directory, 68 bytes, Little-endian]
  | | | | AutoISO = 0
  | | | | - Tag 0x0001 (2 bytes, int16s[1]):
  | | | |     2510: 00 00                                           [..]
  | | | | BaseISO = 204
  | | | | - Tag 0x0002 (2 bytes, int16s[1]):
  | | | |     2512: cc 00                                           [..]
  | | | | MeasuredEV = 212
  | | | | - Tag 0x0003 (2 bytes, int16s[1]):
  | | | |     2514: d4 00                                           [..]
  | | | | TargetAperture = 180
  | | | | - Tag 0x0004 (2 bytes, int16s[1]):
  | | | |     2516: b4 00                                           [..]
  | | | | TargetExposureTime = 276
  | | | | - Tag 0x0005 (2 bytes, int16s[1]):
  | | | |     2518: 14 01                                           [..]
  | | | | ExposureCompensation = 0
  | | | | - Tag 0x0006 (2 bytes, int16s[1]):
  | | | |     251a: 00 00                                           [..]
  | | | | WhiteBalance = 0
  | | | | - Tag 0x0007 (2 bytes, int16s[1]):
  | | | |     251c: 00 00                                           [..]
  | | | | SlowShutter = 3
  | | | | - Tag 0x0008 (2 bytes, int16s[1]):
  | | | |     251e: 03 00                                           [..]
  | | | | SequenceNumber = 0
  | | | | - Tag 0x0009 (2 bytes, int16s[1]):
  | | | |     2520: 00 00                                           [..]
  | | | | OpticalZoomCode = 8
  | | | | - Tag 0x000a (2 bytes, int16s[1]):
  | | | |     2522: 08 00                                           [..]
  | | | | CameraTemperature = 152
  | | | | - Tag 0x000c (2 bytes, int16s[1]):
  | | | |     2526: 98 00                                           [..]
  | | | | FlashGuideNumber = 0
  | | | | - Tag 0x000d (2 bytes, int16s[1]):
  | | | |     2528: 00 00                                           [..]
  | | | | AFPointsInFocus = 0
  | | | | - Tag 0x000e (2 bytes, int16s[1]):
  | | | |     252a: 00 00                                           [..]
  | | | | FlashExposureComp = 0
  | | | | - Tag 0x000f (2 bytes, int16s[1]):
  | | | |     252c: 00 00                                           [..]
  | | | | AutoExposureBracketing = 0
  | | | | - Tag 0x0010 (2 bytes, int16s[1]):
  | | | |     252e: 00 00                                           [..]
  | | | | AEBBracketValue = 0
  | | | | - Tag 0x0011 (2 bytes, int16s[1]):
  | | | |     2530: 00 00                                           [..]
  | | | | ControlMode = 1
  | | | | - Tag 0x0012 (2 bytes, int16s[1]):
  | | | |     2532: 01 00                                           [..]
  | | | | FocusDistanceUpper = 0
  | | | | - Tag 0x0013 (2 bytes, int16u[1]):
  | | | |     2534: 00 00                                           [..]
  | | | | FNumber = 180
  | | | | - Tag 0x0015 (2 bytes, int16s[1]):
  | | | |     2538: b4 00                                           [..]
  | | | | ExposureTime = 276
  | | | | - Tag 0x0016 (2 bytes, int16s[1]):
  | | | |     253a: 14 01                                           [..]
  | | | | MeasuredEV2 = 145
  | | | | - Tag 0x0017 (2 bytes, int16s[1]):
  | | | |     253c: 91 00                                           [..]
  | | | | BulbDuration = 0
  | | | | - Tag 0x0018 (2 bytes, int16s[1]):
  | | | |     253e: 00 00                                           [..]
  | | | | CameraType = 248
  | | | | - Tag 0x001a (2 bytes, int16s[1]):
  | | | |     2542: f8 00                                           [..]
  | | | | AutoRotate = -1
  | | | | - Tag 0x001b (2 bytes, int16s[1]):
  | | | |     2544: ff ff                                           [..]
  | | | | NDFilter = -1
  | | | | - Tag 0x001c (2 bytes, int16s[1]):
  | | | |     2546: ff ff                                           [..]
  | | | | SelfTimer2 = -1
  | | | | - Tag 0x001d (2 bytes, int16s[1]):
  | | | |     2548: ff ff                                           [..]
  | | | | FlashOutput = 0
  | | | | - Tag 0x0021 (2 bytes, int16s[1]):
  | | | |     2550: 00 00                                           [..]
  | | | 35) TimeInfo (SubDirectory) -->
  | | |     - Tag 0x0035 (16 bytes, int32s[4] read as undef[16]):
  | | |         2552: 10 00 00 00 b4 00 00 00 11 00 00 00 00 00 00 00 [................]
  | | | + [BinaryData directory, 16 bytes, Little-endian]
  | | | | TimeZone = 180
  | | | | - Tag 0x0001 (4 bytes, int32s[1]):
  | | | |     2556: b4 00 00 00                                     [....]
  | | | | TimeZoneCity = 17
  | | | | - Tag 0x0002 (4 bytes, int32s[1]):
  | | | |     255a: 11 00 00 00                                     [....]
  | | | | DaylightSavings = 0
  | | | | - Tag 0x0003 (4 bytes, int32s[1]):
  | | | |     255e: 00 00 00 00                                     [....]
  | | 17) SubSecTime = 47
  | |     - Tag 0x9290 (3 bytes, string[3]):
  | |         0230: 34 37 00                                        [47.]
  | | 18) SubSecTimeOriginal = 47
  | |     - Tag 0x9291 (3 bytes, string[3]):
  | |         023c: 34 37 00                                        [47.]
  | | 19) SubSecTimeDigitized = 47
  | |     - Tag 0x9292 (3 bytes, string[3]):
  | |         0248: 34 37 00                                        [47.]
  | | 20) FlashpixVersion = 0100
  | |     - Tag 0xa000 (4 bytes, undef[4]):
  | |         0254: 30 31 30 30                                     [0100]
  | | 21) ExifImageWidth = 4000
  | |     - Tag 0xa002 (4 bytes, int32u[1]):
  | |         0260: a0 0f 00 00                                     [....]
  | | 22) ExifImageHeight = 2670
  | |     - Tag 0xa003 (4 bytes, int32u[1]):
  | |         026c: 6e 0a 00 00                                     [n...]
  | | 23) FocalPlaneXResolution = 6086.76307 (5472000/899)
  | |     - Tag 0xa20e (8 bytes, rational64u[1]):
  | |         2562: 00 7f 53 00 83 03 00 00                         [..S.....]
  | | 24) FocalPlaneYResolution = 6090.15025 (3648000/599)
  | |     - Tag 0xa20f (8 bytes, rational64u[1]):
  | |         256a: 00 aa 37 00 57 02 00 00                         [..7.W...]
  | | 25) FocalPlaneResolutionUnit = 2
  | |     - Tag 0xa210 (2 bytes, int16u[1]):
  | |         0290: 02 00                                           [..]
  | | 26) CustomRendered = 0
  | |     - Tag 0xa401 (2 bytes, int16u[1]):
  | |         029c: 00 00                                           [..]
  | | 27) ExposureMode = 1
  | |     - Tag 0xa402 (2 bytes, int16u[1]):
  | |         02a8: 01 00                                           [..]
  | | 28) WhiteBalance = 0
  | |     - Tag 0xa403 (2 bytes, int16u[1]):
  | |         02b4: 00 00                                           [..]
  | | 29) SceneCaptureType = 0
  | |     - Tag 0xa406 (2 bytes, int16u[1]):
  | |         02c0: 00 00                                           [..]
  | | 30) SerialNumber = 103025021031
  | |     - Tag 0xa431 (13 bytes, string[13]):
  | |         2572: 31 30 33 30 32 35 30 32 31 30 33 31 00          [103025021031.]
  | | 31) LensInfo = 55 250 0 0 (55/1 250/1 0/1 0/1)
  | |     - Tag 0xa432 (32 bytes, rational64u[4]):
  | |         2580: 37 00 00 00 01 00 00 00 fa 00 00 00 01 00 00 00 [7...............]
  | |         2590: 00 00 00 00 01 00 00 00 00 00 00 00 01 00 00 00 [................]
  | | 32) LensModel = EF-S55-250mm f/4-5.6 IS STM
  | |     - Tag 0xa434 (28 bytes, string[28]):
  | |         25a0: 45 46 2d 53 35 35 2d 32 35 30 6d 6d 20 66 2f 34 [EF-S55-250mm f/4]
  | |         25b0: 2d 35 2e 36 20 49 53 20 53 54 4d 00             [-5.6 IS STM.]
  | | 33) LensSerialNumber = 0000800dcf
  | |     - Tag 0xa435 (11 bytes, string[11]):
  | |         25bc: 30 30 30 30 38 30 30 64 63 66 00                [0000800dcf.]
  | 16) GPSInfo (SubDirectory) -->
  |     - Tag 0x8825 (4 bytes, int32u[1]):
  |         00d2: c8 25 00 00                                     [.%..]
  | + [GPS directory with 5 entries, Little-endian]
  | | 0)  GPSVersionID = 2 2 0 0
  | |     - Tag 0x0000 (4 bytes, int8u[4]):
  | |         25d2: 02 02 00 00                                     [....]
  | | 1)  GPSLatitudeRef = N
  | |     - Tag 0x0001 (2 bytes, string[2]):
  | |         25de: 4e 00                                           [N.]
  | | 2)  GPSLatitude = 55 54.678955 0 (55/1 54678955/1000000 0/1)
  | |     - Tag 0x0002 (24 bytes, rational64u[3]):
  | |         260a: 37 00 00 00 01 00 00 00 ab 55 42 03 40 42 0f 00 [7........UB.@B..]
  | |         261a: 00 00 00 00 01 00 00 00                         [........]
  | | 3)  GPSLongitudeRef = E
  | |     - Tag 0x0003 (2 bytes, string[2]):
  | |         25f6: 45 00                                           [E.]
  | | 4)  GPSLongitude = 36 57.808914 0 (36/1 57808914/1000000 0/1)
  | |     - Tag 0x0004 (24 bytes, rational64u[3]):
  | |         2622: 24 00 00 00 01 00 00 00 12 18 72 03 40 42 0f 00 [$.........r.@B..]
  | |         2632: 00 00 00 00 01 00 00 00                         [........]
  | 17) DateTimeOriginal = 2019:07:14 09:21:11
  |     - Tag 0x9003 (20 bytes, string[20]):
  |         0146: 32 30 31 39 3a 30 37 3a 31 34 20 30 39 3a 32 31 [2019:07:14 09:21]
  |         0156: 3a 31 31 00                                     [:11.]
  + [IFD1 directory with 9 entries, Little-endian]
  | 0)  SubfileType = 1
  |     - Tag 0x00fe (4 bytes, int32u[1]):
  |         2644: 01 00 00 00                                     [....]
  | 1)  ImageWidth = 256
  |     - Tag 0x0100 (4 bytes, int32u[1]):
  |         2650: 00 01 00 00                                     [....]
  | 2)  ImageHeight = 171
  |     - Tag 0x0101 (4 bytes, int32u[1]):
  |         265c: ab 00 00 00                                     [....]
  | 3)  BitsPerSample = 8 8 8
  |     - Tag 0x0102 (6 bytes, int16u[3]):
  |         26ac: 08 00 08 00 08 00                               [......]
  | 4)  Compression = 6
  |     - Tag 0x0103 (2 bytes, int16u[1]):
  |         2674: 06 00                                           [..]
  | 5)  PhotometricInterpretation = 6
  |     - Tag 0x0106 (2 bytes, int16u[1]):
  |         2680: 06 00                                           [..]
  | 6)  SamplesPerPixel = 3
  |     - Tag 0x0115 (2 bytes, int16u[1]):
  |         268c: 03 00                                           [..]
  | 7)  ThumbnailOffset = 9906
  |     - Tag 0x0201 (4 bytes, int32u[1]):
  |         2698: b2 26 00 00                                     [.&..]
  | 8)  ThumbnailLength = 7278
  |     - Tag 0x0202 (4 bytes, int32u[1]):
  |         26a4: 6e 1c 00 00                                     [n...]
PNG zTXt (200 bytes):
      2c08: 52 61 77 20 70 72 6f 66 69 6c 65 20 74 79 70 65 [Raw profile type]
      2c18: 20 69 70 74 63 00 00 78 da 4d 50 41 0e c3 20 0c [ iptc..x.MPA.. .]
      2c28: bb f3 8a 3d 21 24 c1 21 cf a9 68 2b ed b6 c3 fe [...=!$.!..h+....]
      2c38: af 99 6e 6b 1b 04 04 3b b2 13 ca f3 f5 1e e5 31 [..nk...;.......1]
      2c48: a3 c2 8b 75 57 4f 5f c5 b9 ce c8 a8 43 34 ba 88 [...uWO_.....C4..]
      2c58: 2a 3a 76 6c 68 91 50 34 34 95 10 be 14 46 26 c9 [*:vlh.P44....F&.]
      2c68: 84 0a f6 82 8d 44 b2 60 70 ed 31 41 7c b3 59 3c [.....D.`p.1A|.Y<]
      2c78: e5 2c a8 bc 98 9a 70 9b ae bc db 71 f6 c9 d6 9c [.,....p....q....]
      2c88: be e8 e5 ef 46 81 c3 ef 24 81 4a 26 b1 f2 1e 37 [....F...$.J&...7]
      2c98: 94 3d 84 b1 d2 c2 4f 74 20 d9 51 60 7a 87 93 54 [.=....Ot .Q`z..T]
      2ca8: 36 5c 67 76 97 e3 20 09 a7 dc 85 da 65 7a fc 44 [6\gv.. .....ez.D]
      2cb8: 35 2f 47 f3 83 8f cd aa c1 16 73 0e b0 fc 86 38 [5/G.......s....8]
      2cc8: 11 91 f2 01 52 5a 4c 7f                         [....RZL.]
  + [Decompressed IPTC_Profile directory, 348 bytes]
  |     0000: 0a 69 70 74 63 0a 20 20 20 20 20 31 36 34 0a 33 [.iptc.     164.3]
  |     0010: 38 34 32 34 39 34 64 30 34 30 34 30 30 30 30 30 [842494d040400000]
  |     0020: 30 30 30 30 30 39 37 31 63 30 32 37 38 30 30 32 [00000971c0278002]
  |     0030: 32 36 38 36 66 36 65 36 35 37 39 36 32 36 35 36 [2686f6e657962656]
  |     0040: 35 32 30 37 30 36 35 37 32 36 33 36 38 36 39 36 [5207065726368696]
  |     0050: 65 36 37 32 30 36 66 0a 36 65 32 30 37 39 36 35 [e67206f.6e207965]
  |     0060: 36 63 36 63 36 66 37 37 32 30 36 36 36 63 36 66 [6c6c6f7720666c6f]
  |     0070: 37 37 36 35 37 32 31 63 30 32 33 37 30 30 30 61 [7765721c0237000a]
  |     0080: 33 32 33 30 33 32 33 33 32 64 33 30 33 35 32 64 [323032332d30352d]
  |     0090: 33 30 33 38 31 63 30 32 31 39 30 30 30 39 36 38 [30381c0219000968]
  |     00a0: 0a 36 66 36 65 36 35 37 39 32 30 36 32 36 35 36 [.6f6e65792062656]
  |     00b0: 35 31 63 30 32 31 39 30 30 30 36 36 31 36 65 36 [51c02190006616e6]
  |     00c0: 39 36 64 36 31 36 63 31 63 30 32 31 39 30 30 30 [96d616c1c0219000]
  |     00d0: 36 36 39 36 65 37 33 36 35 36 33 37 34 31 63 30 [6696e736563741c0]
  |     00e0: 32 31 39 30 30 30 63 36 39 0a 36 65 37 36 36 35 [219000c69.6e7665]
  |     00f0: 37 32 37 34 36 35 36 32 37 32 36 31 37 34 36 35 [7274656272617465]
  |     0100: 31 63 30 32 31 39 30 30 30 36 36 31 37 30 36 39 [1c02190006617069]
  |     0110: 36 34 36 31 36 35 31 63 30 32 31 39 30 30 30 33 [6461651c02190003]
  |     0120: 36 32 36 35 36 35 31 63 30 32 30 30 30 30 30 31 [6265651c02000001]
  |     0130: 33 34 0a 31 63 30 32 33 63 30 30 30 65 33 31 33 [34.1c023c000e313]
  |     0140: 36 33 61 33 34 33 32 33 61 33 32 33 33 32 64 33 [63a34323a32332d3]
  |     0150: 31 33 36 33 61 33 34 33 32 30 30 0a             [1363a343200.]
  + [Decoded IPTC_Profile directory, 164 bytes]
  |     0000: 38 42 49 4d 04 04 00 00 00 00 00 97 1c 02 78 00 [8BIM..........x.]
  |     0010: 22 68 6f 6e 65 79 62 65 65 20 70 65 72 63 68 69 ["honeybee perchi]
  |     0020: 6e 67 20 6f 6e 20 79 65 6c 6c 6f 77 20 66 6c 6f [ng on yellow flo]
  |     0030: 77 65 72 1c 02 37 00 0a 32 30 32 33 2d 30 35 2d [wer..7..2023-05-]
  |     0040: 30 38 1c 02 19 00 09 68 6f 6e 65 79 20 62 65 65 [08.....honey bee]
  |     0050: 1c 02 19 00 06 61 6e 69 6d 61 6c 1c 02 19 00 06 [.....animal.....]
  |     0060: 69 6e 73 65 63 74 1c 02 19 00 0c 69 6e 76 65 72 [insect.....inver]
  |     0070: 74 65 62 72 61 74 65 1c 02 19 00 06 61 70 69 64 [tebrate.....apid]
  |     0080: 61 65 1c 02 19 00 03 62 65 65 1c 02 00 00 01 34 [ae.....bee.....4]
  |     0090: 1c 02 3c 00 0e 31 36 3a 34 32 3a 32 33 2d 31 36 [..<..16:42:23-16]
  |     00a0: 3a 34 32 00                                     [:42.]
  + [Photoshop directory, 164 bytes]
  | IPTCData (SubDirectory) -->
  | - Tag 0x0404 (151 bytes):
  |     000c: 1c 02 78 00 22 68 6f 6e 65 79 62 65 65 20 70 65 [..x."honeybee pe]
  |     001c: 72 63 68 69 6e 67 20 6f 6e 20 79 65 6c 6c 6f 77 [rching on yellow]
  |     002c: 20 66 6c 6f 77 65 72 1c 02 37 00 0a 32 30 32 33 [ flower..7..2023]
  |     003c: 2d 30 35 2d 30 38 1c 02 19 00 09 68 6f 6e 65 79 [-05-08.....honey]
  |     004c: 20 62 65 65 1c 02 19 00 06 61 6e 69 6d 61 6c 1c [ bee.....animal.]
  |     005c: 02 19 00 06 69 6e 73 65 63 74 1c 02 19 00 0c 69 [....insect.....i]
  |     006c: 6e 76 65 72 74 65 62 72 61 74 65 1c 02 19 00 06 [nvertebrate.....]
  |     007c: 61 70 69 64 61 65 1c 02 19 00 03 62 65 65 1c 02 [apidae.....bee..]
  |     008c: 00 00 01 34 1c 02 3c 00 0e 31 36 3a 34 32 3a 32 [...4..<..16:42:2]
  |     009c: 33 2d 31 36 3a 34 32                            [3-16:42]
  | + [IPTC directory, 151 bytes]
  | | -- IPTCApplication record --
  | | Caption-Abstract = honeybee perching on yellow flower
  | | - Tag 0x0078, IPTCApplication record (34 bytes, string[0,2000]):
  | |     0011: 68 6f 6e 65 79 62 65 65 20 70 65 72 63 68 69 6e [honeybee perchin]
  | |     0021: 67 20 6f 6e 20 79 65 6c 6c 6f 77 20 66 6c 6f 77 [g on yellow flow]
  | |     0031: 65 72                                           [er]
  | | DateCreated = 2023-05-08
  | | - Tag 0x0037, IPTCApplication record (10 bytes, digits[8]):
  | |     0038: 32 30 32 33 2d 30 35 2d 30 38                   [2023-05-08]
  | | Keywords = honey bee
  | | - Tag 0x0019, IPTCApplication record (9 bytes, string[0,64]):
  | |     0047: 68 6f 6e 65 79 20 62 65 65                      [honey bee]
  | | Keywords = animal
  | | - Tag 0x0019, IPTCApplication record (6 bytes, string[0,64]):
  | |     0055: 61 6e 69 6d 61 6c                               [animal]
  | | Keywords = insect
  | | - Tag 0x0019, IPTCApplication record (6 bytes, string[0,64]):
  | |     0060: 69 6e 73 65 63 74                               [insect]
  | | Keywords = invertebrate
  | | - Tag 0x0019, IPTCApplication record (12 bytes, string[0,64]):
  | |     006b: 69 6e 76 65 72 74 65 62 72 61 74 65             [invertebrate]
  | | Keywords = apidae
  | | - Tag 0x0019, IPTCApplication record (6 bytes, string[0,64]):
  | |     007c: 61 70 69 64 61 65                               [apidae]
  | | Keywords = bee
  | | - Tag 0x0019, IPTCApplication record (3 bytes, string[0,64]):
  | |     0087: 62 65 65                                        [bee]
  | | ApplicationRecordVersion = 52
  | | - Tag 0x0000, IPTCApplication record (1 bytes, int16u):
  | |     008f: 34                                              [4]
  | | TimeCreated = 16:42:23-16:42
  | | - Tag 0x003c, IPTCApplication record (14 bytes, string[11]):
  | |     0095: 31 36 3a 34 32 3a 32 33 2d 31 36 3a 34 32       [16:42:23-16:42]
PNG iCCP (8453 bytes):
      2cdc: 49 43 43 20 70 72 6f 66 69 6c 65 00 00 78 9c b5 [ICC profile..x..]
      2cec: 93 65 5c 55 5f b7 ef e7 5a bb 1b 36 7b d3 dd 9b [.e\U_...Z..6{...]
      2cfc: ee ee ee 96 0e 69 a4 3b a4 4b 09 45 a5 25 44 94 [.....i.;.K.E.%D.]
      2d0c: 12 41 01 01 51 14 10 05 15 11 11 54 50 11 54 54 [.A..Q......TP.TT]
      2d1c: c0 c0 04 14 05 0f ff e7 f9 9c 7b ce 8b 73 5e dd [..........{..s^.]
      2d2c: 7b c7 9b f9 9d 63 8d cf 1c f5 5b 00 08 7e 0c f7 [{....c....[..~..]
      2d3c: 8f 88 83 99 00 88 88 8c 8f 75 30 35 e0 77 75 73 [.........u05.wus]
      2d4c: e7 c7 2c 03 0c a0 00 26 a0 06 14 7c fd e3 a2 f5 [..,....&...|....]
      2d5c: ed ec ac c0 ff 6a 9b 4f 00 f4 cf 39 2b fd cf 5b [.....j.O...9+..[]
      2d6c: ff 7b dc ff 68 44 ff e8 d8 78 00 20 da 1e b3 06 [.{..hD...x. ....]
      2d7c: 04 c6 f9 ef b1 d4 1e 87 07 44 44 06 ec 71 f5 1e [.........DD..q..]
      2d8c: 27 07 44 04 ec f1 3f 55 82 f0 a4 f8 e8 bd 78 38 ['.D...?U......x8]
      2d9c: 6d 8f 69 7e 61 ff e2 e3 ff 70 ec 5e e1 7b dc f4 [m.i~a....p.^.{..]
      2dac: 0f 07 ff 9b 07 fe 15 f3 6f 9e fc 57 8c 93 83 e1 [........o..W....]
      2dbc: 1e bf 04 80 9f 18 fc df d8 ef bf 71 7c 60 72 fc [...........q|`r.]
      2dcc: 3f 85 d9 25 f8 85 1f f0 e7 37 8a 8a f0 3d 10 b9 [?..%.....7...=..]
      2ddc: 77 ff 77 6d ff 32 54 dc de a0 fe b3 01 14 88 03 [w.wm.2T.........]
      2dec: 0e c0 14 fc 1f c7 ff 03 fb 6f b9 f0 46 be b1 61 [.........o..F..a]
      2dfc: f1 be 7e e1 81 ff f9 11 0f 8c 80 2f 88 05 61 20 [..~......../..a ]
      2e0c: 7e ef f4 03 e1 20 f0 7f 79 e6 ff 26 ef ff f7 1e [~.... ..y..&....]
      2e1c: ff d1 d9 bf e9 bb fd bf f4 03 b1 4e fe 97 ef 7f [...........N....]
      2e2c: 8a 8b 3a 0d 80 da 06 00 88 e3 ff e5 f3 ab 02 e0 [..:.............]
      2e3c: f2 61 00 d8 9f fe 97 4f b8 01 00 4a 1e 00 fd b7 [.a.....O...J....]
      2e4c: fc 13 62 13 ff ed fb 47 3a 7b 59 60 80 dc 6b 06 [..b....G:{Y`..k.]
      2e5c: bd a7 6e dc de 1c 09 80 08 c8 ff d2 39 33 60 01 [..n.........93`.]
      2e6c: 34 40 07 ac 80 1d 70 00 4e c0 05 b8 01 2f e0 03 [4@....p.N..../..]
      2e7c: fc 40 00 08 01 61 20 02 44 81 38 60 00 09 20 09 [.@...a .D.8`.. .]
      2e8c: a4 81 0c 90 05 72 40 01 28 02 25 a0 0c 54 f7 fe [.....r@.(.%..T..]
      2e9c: 12 75 a0 01 34 81 36 d0 01 ba 40 6f 6f 4c 86 7b [.u..4.6...@ooL.{]
      2eac: 3b 32 de 1b 98 19 30 07 16 c0 0a 58 03 1b 60 0b [;2....0....X..`.]
      2ebc: ec f7 86 e8 08 9c c0 3e e0 02 5c 81 1b 70 07 9e [.......>..\..p..]
      2ecc: c0 0b 78 03 9f 7f ed d1 1f 04 80 20 10 0c 42 c0 [..x........ ..B.]
      2edc: 81 bd dd 86 83 08 10 09 a2 40 cc de a6 e3 f6 36 [.........@.....6]
      2eec: 9d 08 92 40 32 48 01 a9 20 0d a4 83 0c 90 05 b2 [...@2H.. .......]
      2efc: 41 0e c8 05 f9 e0 10 38 0c 0a 40 21 28 06 47 c0 [A......8..@!(.G.]
      2f0c: 51 50 02 8e 83 13 a0 14 94 81 0a 50 09 aa 40 35 [QP.........P..@5]
      2f1c: a8 01 b5 a0 0e d4 83 06 70 1a 34 82 33 a0 09 34 [........p.4.3..4]
      2f2c: 83 16 d0 0a da 40 3b 38 0f 3a 40 27 b8 08 ba 40 [.....@;8.:@'...@]
      2f3c: 37 e8 01 bd a0 0f f4 83 cb e0 0a b8 0a 06 c1 35 [7..............5]
      2f4c: 30 04 86 c1 08 b8 01 46 c1 2d 30 06 c6 c1 6d 70 [0......F.-0...mp]
      2f5c: 17 4c 80 7b 60 12 4c 81 07 60 1a 3c 04 b3 e0 11 [.L.{`.L..`.<....]
      2f6c: 78 0c e6 c0 3c 78 0a 9e 81 05 f0 02 2c 82 97 e0 [x...<x......,...]
      2f7c: 15 78 0d de 80 b7 e0 1d 58 05 6b e0 3d f8 08 3e [.x......X.k.=..>]
      2f8c: 81 cf e0 0b f8 0a be 83 1f 60 13 6c 81 9f 60 1b [.........`.l..`.]
      2f9c: fc 06 3b 60 17 fc 85 20 08 86 90 10 0a c2 40 58 [..;`... ......@X]
      2fac: 08 0f 11 20 12 44 86 28 10 33 44 85 68 10 1d 62 [... .D.(.3D.h..b]
      2fbc: 83 d8 21 4e 88 0b e2 81 f8 20 7e 48 10 12 82 44 [..!N..... ~H...D]
      2fcc: 20 51 48 1c 62 40 92 90 34 24 03 c9 41 f2 90 22 [ QH.b@..4$..A.."]
      2fdc: a4 04 a9 40 6a 90 3a a4 09 69 41 3a 90 1e a4 0f [...@j.:..iA:....]
      2fec: 19 42 c6 90 09 64 06 59 40 96 90 35 64 0b d9 41 [.B...d.Y@..5d..A]
      2ffc: 0e 90 13 b4 0f 72 81 dc 20 77 c8 13 f2 86 f6 43 [.....r.. w.....C]
      300c: be 90 3f 14 08 05 43 21 50 28 14 0e 45 42 51 50 [..?...C!P(..EBQP]
      301c: 0c 14 07 25 40 89 50 32 74 10 4a 83 32 a0 4c 28 [...%@.P2t.J.2.L(]
      302c: 1b ca 85 f2 a1 c3 50 21 54 04 1d 81 4a a0 e3 50 [......P!T...J..P]
      303c: 29 54 0e 55 42 55 d0 49 a8 16 aa 87 1a a0 46 e8 [)T.UBU.I......F.]
      304c: 2c d4 0c b5 42 e7 a0 f3 50 07 74 01 ea 82 7a a0 [,...B...P.t...z.]
      305c: 5e a8 1f 1a 80 ae 42 d7 a0 21 68 04 1a 85 6e 41 [^.....B..!h...nA]
      306c: e3 d0 1d 68 02 9a 84 a6 a0 69 68 06 7a 04 3d 81 [...h.....ih.z.=.]
      307c: e6 a1 67 d0 02 b4 08 bd 82 96 a1 b7 d0 0a b4 06 [..g.............]
      308c: 7d 80 3e 41 9f a1 af d0 77 68 03 fa 09 6d 43 7f [}.>A....wh...mC.]
      309c: a0 5d 18 c0 30 8c 84 31 30 0e 26 c0 24 98 02 53 [.]..0..10.&.$..S]
      30ac: 61 1a cc 0a b3 c3 9c 30 0f cc 07 0b c0 42 b0 08 [a......0.....B..]
      30bc: 2c 0e 4b c0 52 b0 0c 2c 0f 2b c2 ca b0 1a ac 01 [,.K.R..,.+......]
      30cc: 6b c1 3a b0 3e 6c 08 1b c3 66 b0 05 6c 05 db c2 [k.:.>l...f..l...]
      30dc: f6 b0 23 ec 0c bb c2 ee b0 17 ec 03 fb c2 01 70 [..#............p]
      30ec: 10 7c 00 0e 83 23 e0 68 38 16 4e 80 93 e0 14 38 [.|...#.h8.N....8]
      30fc: 0d ce 80 b3 e1 5c f8 10 5c 00 17 c3 47 e1 e3 70 [.....\..\...G..p]
      310c: 29 5c 01 57 c1 35 70 1d dc 00 37 c2 4d 70 0b 7c [)\.W.5p...7.Mp.|]
      311c: 0e 3e 0f 5f 80 bb e0 4b 70 1f 3c 00 0f c2 d7 e1 [.>._...Kp.<.....]
      312c: 11 78 14 1e 83 ef c0 13 f0 7d f8 01 3c 03 3f 86 [.x.......}..<.?.]
      313c: e7 e0 67 f0 0b 78 09 7e 0d bf 81 57 e0 f7 f0 47 [..g..x.~...W...G]
      314c: f8 33 fc 0d de 80 b7 e0 6d 78 07 fe 8b 80 11 28 [.3......mx.....(]
      315c: 04 16 81 47 90 10 4c 08 16 04 1d c1 8e e0 42 f0 [...G..L.......B.]
      316c: 22 f8 11 42 08 51 04 03 21 85 90 41 c8 23 94 10 ["..B.Q..!..A.#..]
      317c: aa 08 0d 84 36 42 17 61 80 30 46 98 21 2c 11 36 [....6B.a.0F.!,.6]
      318c: 08 7b 84 13 c2 19 e1 86 f0 44 f8 20 fc 10 81 88 [.{.......D. ....]
      319c: 10 44 18 22 12 11 83 88 47 24 21 0e 22 d2 11 59 [.D."....G$!."..Y]
      31ac: 88 1c 44 3e a2 00 51 8c 28 41 9c 40 94 23 aa 11 [..D>..Q.(A.@.#..]
      31bc: b5 88 53 88 46 44 13 a2 15 d1 8e e8 44 74 21 2e [..S.FD......Dt!.]
      31cc: 21 fa 11 57 10 d7 10 c3 88 51 c4 18 e2 2e 62 12 [!..W.....Q....b.]
      31dc: f1 00 31 83 78 8c 98 47 3c 47 2c 21 5e 23 de 22 [..1.x..G<G,!^#."]
      31ec: 56 11 1f 10 eb 88 6f 88 0d c4 4f c4 6f c4 2e 12 [V.....o...O.o...]
      31fc: 46 a2 90 58 24 01 49 41 52 91 74 24 3b 92 1b c9 [F..X$.IAR.t$;...]
      320c: 87 14 44 8a 20 19 48 29 a4 2c 52 11 a9 82 54 47 [..D. .H).,R...TG]
      321c: 6a 23 f5 90 86 48 53 a4 05 d2 1a 69 8f 74 42 ba [j#...HS....i.tB.]
      322c: 20 3d 90 de 48 3f 64 20 32 04 19 8e 8c 42 c6 21 [ =..H?d 2....B.!]
      323c: 13 91 29 c8 74 64 16 32 0f 79 18 59 8c 2c 41 96 [..).td.2.y.Y.,A.]
      324c: 22 2b 90 27 91 75 c8 d3 c8 b3 c8 56 64 3b f2 02 ["+.'.u.....Vd;..]
      325c: b2 1b d9 87 1c 40 5e 43 0e 23 6f 22 c7 91 13 c8 [.....@^C.#o"....]
      326c: 29 e4 43 e4 63 e4 3c 72 01 f9 12 b9 8c 5c 41 be [).C.c.<r.....\A.]
      327c: 47 ae 23 bf 21 37 90 bf 90 3b 28 80 42 a2 b0 28 [G.#.!7...;(.B..(]
      328c: 02 8a 82 62 41 b1 a2 38 51 bc 28 41 94 08 8a 81 [...bA..8Q.(A....]
      329c: 92 46 c9 a3 94 50 6a 28 2d 94 1e ca 10 65 8a b2 [.F...Pj(-....e..]
      32ac: 44 d9 a2 1c 50 ce 28 77 94 37 ca 0f 15 84 3a 80 [D...P.(w.7....:.]
      32bc: 8a 40 c5 a0 12 50 29 a8 74 54 36 2a 0f 55 80 3a [.@...P).tT6*.U.:]
      32cc: 82 3a 8e 2a 47 55 a3 ea 50 a7 51 4d a8 36 54 07 [.:.*GU..P.QM.6T.]
      32dc: ea 22 ea 12 ea 32 6a 10 35 8c ba 89 ba 8d ba 87 [."...2j.5.......]
      32ec: 7a 80 9a 45 cd a1 9e a3 96 50 cb a8 15 d4 07 d4 [z..E.....P......]
      32fc: 67 d4 0f d4 4f d4 1f 34 40 23 d1 58 34 11 cd 84 [g...O..4@#.X4...]
      330c: a6 a1 d9 d1 dc 68 01 b4 08 9a 81 96 46 cb a3 95 [.....h......F...]
      331c: d1 ea 68 1d b4 01 da 04 6d 81 b6 41 3b a2 5d d0 [..h.....m..A;.].]
      332c: 1e 68 1f b4 3f 3a 04 1d 8e 8e 46 c7 a3 53 d0 e9 [.h..?:....F..S..]
      333c: e8 6c 74 3e ba 08 5d 82 2e 45 57 a1 6b d1 0d e8 [.lt>..]..EW.k...]
      334c: 26 74 1b ba 03 dd 8d ee 43 5f 41 0f a1 47 d1 e3 [&t......C_A..G..]
      335c: e8 7b e8 07 e8 47 e8 79 f4 02 fa 15 fa 2d fa 3d [.{...G.y.....-.=]
      336c: 7a 1d fd 0d bd 85 fe 8d 01 18 24 06 87 21 61 a8 [z.........$..!a.]
      337c: 18 56 0c 17 86 0f 23 8c 11 c7 48 63 e4 31 2a 18 [.V....#...Hc.1*.]
      338c: 0d 8c 2e c6 10 63 86 b1 c6 d8 63 9c 31 ee 18 1f [.....c....c.1...]
      339c: 8c 3f 26 04 13 81 89 c1 24 62 52 31 99 98 3c 4c [.?&.....$bR1..<L]
      33ac: 21 e6 28 a6 14 53 85 a9 c5 9c c6 34 63 ce 61 2e [!.(..S.....4c.a.]
      33bc: 60 2e 61 2e 63 ae 61 6e 60 c6 31 13 98 07 98 47 [`.a.c.an`.1....G]
      33cc: 98 a7 98 17 98 d7 98 15 cc 47 cc 57 cc 06 66 1b [.........G.W..f.]
      33dc: f3 17 8b c4 e2 b0 24 2c 15 cb 86 e5 c6 0a 60 45 [......$,......`E]
      33ec: b1 92 58 59 ac 12 56 1d ab 83 35 c4 9a 61 ad b1 [..XY..V...5..a..]
      33fc: 0e 58 17 ac 27 d6 17 1b 84 0d c3 46 63 13 b0 07 [.X..'......Fc...]
      340c: b1 99 d8 3c 6c 21 b6 04 5b 86 ad c6 d6 63 cf 60 [...<l!..[....c.`]
      341c: 5b b1 1d d8 6e 6c 3f 76 10 3b 82 1d c3 4e 60 1f [[...nl?v.;...N`.]
      342c: 60 1f 61 9f 62 97 b0 6f b0 6b d8 75 ec 77 ec 4f [`.a.b..o.k.u.w.O]
      343c: ec 0e 0e 81 c3 e2 48 38 2a 8e 0d c7 83 13 c4 89 [......H8*.......]
      344c: e1 a4 70 f2 38 55 9c 16 4e 1f 67 82 b3 c2 d9 e3 [..p.8U..N.g.....]
      345c: 9c 71 1e 38 5f 5c 10 2e 0c 17 83 4b c4 a5 e2 b2 [.q.8_\.....K....]
      346c: 71 87 70 c5 b8 13 b8 4a 5c 2d ae 11 d7 82 3b 8f [q.p....J\-....;.]
      347c: eb c6 f5 e3 ae e1 6e e0 c6 71 93 b8 87 b8 39 dc [......n..q....9.]
      348c: 02 ee 35 6e 05 f7 09 f7 0d f7 13 b7 83 87 f1 58 [..5n...........X]
      349c: 3c 09 cf 82 e7 c0 f3 e2 85 f1 0c bc 2c 5e 09 af [<...........,^..]
      34ac: 81 d7 c5 1b e3 2d f0 76 78 67 bc 07 de 17 1f 84 [.....-.vxg......]
      34bc: 0f c7 c7 e2 93 f0 e9 f8 5c 7c 01 be 04 5f 8e 3f [........\|..._.?]
      [snip 6421 bytes]
  + [iCCP directory]
  | ProfileName = ICC profile
  | - Tag 'iCCP-name' (11 bytes):
  |     0000: 49 43 43 20 70 72 6f 66 69 6c 65                [ICC profile]
  + [Decompressed ICC_Profile directory, 8940 bytes]
  |     0000: 00 00 22 ec 6c 63 6d 73 02 10 00 00 6d 6e 74 72 [..".lcms....mntr]
  |     0010: 52 47 42 20 58 59 5a 20 07 e3 00 07 00 0f 00 10 [RGB XYZ ........]
  |     0020: 00 38 00 32 61 63 73 70 41 50 50 4c 00 00 00 00 [.8.2acspAPPL....]
  |     0030: 00 00 00 00 00 00 00 00 00 00 00 00 00 00 00 00 [................]
  |     0040: 00 00 00 00 00 00 f6 d6 00 01 00 00 00 00 d3 2d [...............-]
  |     0050: 6c 63 6d 73 00 00 00 00 00 00 00 00 00 00 00 00 [lcms............]
  |     0060: 00 00 00 00 00 00 00 00 00 00 00 00 00 00 00 00 [................]
  |     0070: 00 00 00 00 00 00 00 00 00 00 00 00 00 00 00 00 [................]
  |     0080: 00 00 00 0c 63 70 72 74 00 00 01 14 00 00 00 16 [....cprt........]
  |     0090: 64 65 73 63 00 00 01 2c 00 00 00 6c 64 6d 6e 64 [desc...,...ldmnd]
  |     00a0: 00 00 01 98 00 00 00 78 64 6d 64 64 00 00 02 10 [.......xdmdd....]
  |     00b0: 00 00 00 6c 77 74 70 74 00 00 02 7c 00 00 00 14 [...lwtpt...|....]
  |     00c0: 62 6b 70 74 00 00 02 90 00 00 00 14 72 58 59 5a [bkpt........rXYZ]
  |     00d0: 00 00 02 a4 00 00 00 14 67 58 59 5a 00 00 02 b8 [........gXYZ....]
  |     00e0: 00 00 00 14 62 58 59 5a 00 00 02 cc 00 00 00 14 [....bXYZ........]
  |     00f0: 72 54 52 43 00 00 02 e0 00 00 20 0c 67 54 52 43 [rTRC...... .gTRC]
  |     0100: 00 00 02 e0 00 00 20 0c 62 54 52 43 00 00 02 e0 [...... .bTRC....]
  |     0110: 00 00 20 0c 74 65 78 74 00 00 00 00 50 75 62 6c [.. .text....Publ]
  |     0120: 69 63 20 44 6f 6d 61 69 6e 00 00 00 64 65 73 63 [ic Domain...desc]
  |     0130: 00 00 00 00 00 00 00 05 73 52 47 42 00 00 00 00 [........sRGB....]
  |     0140: 00 00 00 00 05 00 73 00 52 00 47 00 42 00 00 00 [......s.R.G.B...]
  |     0150: 00 00 00 00 00 00 00 00 00 00 00 00 00 00 00 00 [................]
  |     0160: 00 00 00 00 00 00 00 00 00 00 00 00 00 00 00 00 [................]
  |     0170: 00 00 00 00 00 00 00 00 00 00 00 00 00 00 00 00 [................]
  |     0180: 00 00 00 00 00 00 00 00 00 00 00 00 00 00 00 00 [................]
  |     0190: 00 00 00 00 00 00 00 00 64 65 73 63 00 00 00 00 [........desc....]
  |     01a0: 00 00 00 0a 44 61 72 6b 74 61 62 6c 65 00 00 00 [....Darktable...]
  |     01b0: 00 00 00 00 00 0a 00 44 00 61 00 72 00 6b 00 74 [.......D.a.r.k.t]
  |     01c0: 00 61 00 62 00 6c 00 65 00 00 00 00 00 00 00 00 [.a.b.l.e........]
  |     01d0: 00 00 00 00 00 00 00 00 00 00 00 00 00 00 00 00 [................]
  |     01e0: 00 00 00 00 00 00 00 00 00 00 00 00 00 00 00 00 [................]
  |     01f0: 00 00 00 00 00 00 00 00 00 00 00 00 00 00 00 00 [................]
  |     0200: 00 00 00 00 00 00 00 00 00 00 00 00 00 00 00 00 [................]
  |     0210: 64 65 73 63 00 00 00 00 00 00 00 05 73 52 47 42 [desc........sRGB]
  |     0220: 00 00 00 00 00 00 00 00 05 00 73 00 52 00 47 00 [..........s.R.G.]
  |     0230: 42 00 00 00 00 00 00 00 00 00 00 00 00 00 00 00 [B...............]
  |     0240: 00 00 00 00 00 00 00 00 00 00 00 00 00 00 00 00 [................]
  |     0250: 00 00 00 00 00 00 00 00 00 00 00 00 00 00 00 00 [................]
  |     0260: 00 00 00 00 00 00 00 00 00 00 00 00 00 00 00 00 [................]
  |     0270: 00 00 00 00 00 00 00 00 00 00 00 00 58 59 5a 20 [............XYZ ]
  |     0280: 00 00 00 00 00 00 f3 51 00 01 00 00 00 01 16 cc [.......Q........]
  |     0290: 58 59 5a 20 00 00 00 00 00 00 00 00 00 00 00 00 [XYZ ............]
  |     02a0: 00 00 00 00 58 59 5a 20 00 00 00 00 00 00 6f a0 [....XYZ ......o.]
  |     02b0: 00 00 38 f5 00 00 03 90 58 59 5a 20 00 00 00 00 [..8.....XYZ ....]
  |     02c0: 00 00 62 97 00 00 b7 87 00 00 18 d9 58 59 5a 20 [..b.........XYZ ]
  |     02d0: 00 00 00 00 00 00 24 9f 00 00 0f 84 00 00 b6 c4 [......$.........]
  |     02e0: 63 75 72 76 00 00 00 00 00 00 10 00 00 00 00 01 [curv............]
  |     02f0: 00 02 00 04 00 05 00 06 00 07 00 09 00 0a 00 0b [................]
  |     0300: 00 0c 00 0e 00 0f 00 10 00 11 00 13 00 14 00 15 [................]
  |     0310: 00 16 00 18 00 19 00 1a 00 1b 00 1c 00 1e 00 1f [................]
  |     0320: 00 20 00 21 00 23 00 24 00 25 00 26 00 28 00 29 [. .!.#.$.%.&.(.)]
  |     0330: 00 2a 00 2b 00 2d 00 2e 00 2f 00 30 00 32 00 33 [.*.+.-.../.0.2.3]
  |     0340: 00 34 00 35 00 37 00 38 00 39 00 3a 00 3b 00 3d [.4.5.7.8.9.:.;.=]
  |     0350: 00 3e 00 3f 00 40 00 42 00 43 00 44 00 45 00 47 [.>.?.@.B.C.D.E.G]
  |     0360: 00 48 00 49 00 4a 00 4c 00 4d 00 4e 00 4f 00 51 [.H.I.J.L.M.N.O.Q]
  |     0370: 00 52 00 53 00 54 00 55 00 57 00 58 00 59 00 5a [.R.S.T.U.W.X.Y.Z]
  |     0380: 00 5c 00 5d 00 5e 00 5f 00 61 00 62 00 63 00 64 [.\.].^._.a.b.c.d]
  |     0390: 00 66 00 67 00 68 00 69 00 6b 00 6c 00 6d 00 6e [.f.g.h.i.k.l.m.n]
  |     03a0: 00 6f 00 71 00 72 00 73 00 74 00 76 00 77 00 78 [.o.q.r.s.t.v.w.x]
  |     03b0: 00 79 00 7b 00 7c 00 7d 00 7e 00 80 00 81 00 82 [.y.{.|.}.~......]
  |     03c0: 00 83 00 85 00 86 00 87 00 88 00 89 00 8b 00 8c [................]
  |     03d0: 00 8d 00 8e 00 90 00 91 00 92 00 93 00 95 00 96 [................]
  |     03e0: 00 97 00 98 00 9a 00 9b 00 9c 00 9d 00 9f 00 a0 [................]
  |     03f0: 00 a1 00 a2 00 a4 00 a5 00 a6 00 a7 00 a8 00 aa [................]
  |     0400: 00 ab 00 ac 00 ad 00 af 00 b0 00 b1 00 b2 00 b4 [................]
  |     0410: 00 b5 00 b6 00 b7 00 b9 00 ba 00 bb 00 bc 00 be [................]
  |     0420: 00 bf 00 c0 00 c1 00 c2 00 c4 00 c5 00 c6 00 c7 [................]
  |     0430: 00 c9 00 ca 00 cb 00 cc 00 ce 00 cf 00 d0 00 d1 [................]
  |     0440: 00 d3 00 d4 00 d5 00 d7 00 d8 00 d9 00 da 00 dc [................]
  |     0450: 00 dd 00 de 00 e0 00 e1 00 e2 00 e4 00 e5 00 e6 [................]
  |     0460: 00 e8 00 e9 00 ea 00 ec 00 ed 00 ef 00 f0 00 f1 [................]
  |     0470: 00 f3 00 f4 00 f6 00 f7 00 f8 00 fa 00 fb 00 fd [................]
  |     0480: 00 fe 00 ff 01 01 01 02 01 04 01 05 01 07 01 08 [................]
  |     0490: 01 0a 01 0b 01 0d 01 0e 01 0f 01 11 01 12 01 14 [................]
  |     04a0: 01 15 01 17 01 18 01 1a 01 1b 01 1d 01 1f 01 20 [............... ]
  |     04b0: 01 22 01 23 01 25 01 26 01 28 01 29 01 2b 01 2d [.".#.%.&.(.).+.-]
  |     04c0: 01 2e 01 30 01 31 01 33 01 34 01 36 01 38 01 39 [...0.1.3.4.6.8.9]
  |     04d0: 01 3b 01 3c 01 3e 01 40 01 41 01 43 01 45 01 46 [.;.<.>.@.A.C.E.F]
  |     04e0: 01 48 01 4a 01 4b 01 4d 01 4f 01 50 01 52 01 54 [.H.J.K.M.O.P.R.T]
  |     04f0: 01 55 01 57 01 59 01 5a 01 5c 01 5e 01 60 01 61 [.U.W.Y.Z.\.^.`.a]
  |     0500: 01 63 01 65 01 67 01 68 01 6a 01 6c 01 6e 01 6f [.c.e.g.h.j.l.n.o]
  |     0510: 01 71 01 73 01 75 01 76 01 78 01 7a 01 7c 01 7e [.q.s.u.v.x.z.|.~]
  |     0520: 01 7f 01 81 01 83 01 85 01 87 01 89 01 8a 01 8c [................]
  |     0530: 01 8e 01 90 01 92 01 94 01 96 01 97 01 99 01 9b [................]
  |     0540: 01 9d 01 9f 01 a1 01 a3 01 a5 01 a7 01 a9 01 ab [................]
  |     0550: 01 ac 01 ae 01 b0 01 b2 01 b4 01 b6 01 b8 01 ba [................]
  |     0560: 01 bc 01 be 01 c0 01 c2 01 c4 01 c6 01 c8 01 ca [................]
  |     0570: 01 cc 01 ce 01 d0 01 d2 01 d4 01 d6 01 d8 01 da [................]
  |     0580: 01 dc 01 de 01 e1 01 e3 01 e5 01 e7 01 e9 01 eb [................]
  |     0590: 01 ed 01 ef 01 f1 01 f3 01 f5 01 f8 01 fa 01 fc [................]
  |     05a0: 01 fe 02 00 02 02 02 04 02 07 02 09 02 0b 02 0d [................]
  |     05b0: 02 0f 02 12 02 14 02 16 02 18 02 1a 02 1d 02 1f [................]
  |     05c0: 02 21 02 23 02 25 02 28 02 2a 02 2c 02 2e 02 31 [.!.#.%.(.*.,...1]
  |     05d0: 02 33 02 35 02 38 02 3a 02 3c 02 3e 02 41 02 43 [.3.5.8.:.<.>.A.C]
  |     05e0: 02 45 02 48 02 4a 02 4c 02 4f 02 51 02 53 02 56 [.E.H.J.L.O.Q.S.V]
  |     05f0: 02 58 02 5a 02 5d 02 5f 02 61 02 64 02 66 02 69 [.X.Z.]._.a.d.f.i]
  |     0600: 02 6b 02 6d 02 70 02 72 02 75 02 77 02 79 02 7c [.k.m.p.r.u.w.y.|]
  |     0610: 02 7e 02 81 02 83 02 86 02 88 02 8b 02 8d 02 90 [.~..............]
  |     0620: 02 92 02 95 02 97 02 9a 02 9c 02 9f 02 a1 02 a4 [................]
  |     0630: 02 a6 02 a9 02 ab 02 ae 02 b0 02 b3 02 b5 02 b8 [................]
  |     0640: 02 bb 02 bd 02 c0 02 c2 02 c5 02 c8 02 ca 02 cd [................]
  |     0650: 02 cf 02 d2 02 d5 02 d7 02 da 02 dd 02 df 02 e2 [................]
  |     0660: 02 e4 02 e7 02 ea 02 ec 02 ef 02 f2 02 f5 02 f7 [................]
  |     0670: 02 fa 02 fd 02 ff 03 02 03 05 03 08 03 0a 03 0d [................]
  |     0680: 03 10 03 13 03 15 03 18 03 1b 03 1e 03 20 03 23 [............. .#]
  |     0690: 03 26 03 29 03 2c 03 2e 03 31 03 34 03 37 03 3a [.&.).,...1.4.7.:]
  |     06a0: 03 3d 03 3f 03 42 03 45 03 48 03 4b 03 4e 03 51 [.=.?.B.E.H.K.N.Q]
  |     06b0: 03 54 03 56 03 59 03 5c 03 5f 03 62 03 65 03 68 [.T.V.Y.\._.b.e.h]
  |     06c0: 03 6b 03 6e 03 71 03 74 03 77 03 7a 03 7d 03 80 [.k.n.q.t.w.z.}..]
  |     06d0: 03 82 03 85 03 88 03 8b 03 8e 03 91 03 94 03 98 [................]
  |     06e0: 03 9b 03 9e 03 a1 03 a4 03 a7 03 aa 03 ad 03 b0 [................]
  |     06f0: 03 b3 03 b6 03 b9 03 bc 03 bf 03 c2 03 c5 03 c9 [................]
  |     0700: 03 cc 03 cf 03 d2 03 d5 03 d8 03 db 03 df 03 e2 [................]
  |     0710: 03 e5 03 e8 03 eb 03 ee 03 f2 03 f5 03 f8 03 fb [................]
  |     0720: 03 fe 04 02 04 05 04 08 04 0b 04 0f 04 12 04 15 [................]
  |     0730: 04 18 04 1c 04 1f 04 22 04 25 04 29 04 2c 04 2f [.......".%.).,./]
  |     0740: 04 33 04 36 04 39 04 3d 04 40 04 43 04 47 04 4a [.3.6.9.=.@.C.G.J]
  |     0750: 04 4d 04 51 04 54 04 57 04 5b 04 5e 04 62 04 65 [.M.Q.T.W.[.^.b.e]
  |     0760: 04 68 04 6c 04 6f 04 73 04 76 04 79 04 7d 04 80 [.h.l.o.s.v.y.}..]
  |     0770: 04 84 04 87 04 8b 04 8e 04 92 04 95 04 99 04 9c [................]
  |     0780: 04 a0 04 a3 04 a7 04 aa 04 ae 04 b1 04 b5 04 b8 [................]
  |     0790: 04 bc 04 bf 04 c3 04 c6 04 ca 04 ce 04 d1 04 d5 [................]
  |     07a0: 04 d8 04 dc 04 e0 04 e3 04 e7 04 ea 04 ee 04 f2 [................]
  |     07b0: 04 f5 04 f9 04 fd 05 00 05 04 05 08 05 0b 05 0f [................]
  |     07c0: 05 13 05 16 05 1a 05 1e 05 22 05 25 05 29 05 2d [.........".%.).-]
  |     07d0: 05 31 05 34 05 38 05 3c 05 40 05 43 05 47 05 4b [.1.4.8.<.@.C.G.K]
  |     07e0: 05 4f 05 52 05 56 05 5a 05 5e 05 62 05 66 05 69 [.O.R.V.Z.^.b.f.i]
  |     [snip 6908 bytes]
  + [ICC_Profile directory with 12 entries, 8940 bytes]
  | ProfileHeader (SubDirectory) -->
  | + [BinaryData directory, 128 bytes, Big-endian]
  | | ProfileCMMType = lcms
  | | - Tag 0x0004 (4 bytes, string[4]):
  | |     0004: 6c 63 6d 73                                     [lcms]
  | | ProfileVersion = 528
  | | - Tag 0x0008 (2 bytes, int16s[1]):
  | |     0008: 02 10                                           [..]
  | | ProfileClass = mntr
  | | - Tag 0x000c (4 bytes, string[4]):
  | |     000c: 6d 6e 74 72                                     [mntr]
  | | ColorSpaceData = RGB 
  | | - Tag 0x0010 (4 bytes, string[4]):
  | |     0010: 52 47 42 20                                     [RGB ]
  | | ProfileConnectionSpace = XYZ 
  | | - Tag 0x0014 (4 bytes, string[4]):
  | |     0014: 58 59 5a 20                                     [XYZ ]
  | | ProfileDateTime = 2019 7 15 16 56 50
  | | - Tag 0x0018 (12 bytes, int16u[6]):
  | |     0018: 07 e3 00 07 00 0f 00 10 00 38 00 32             [.........8.2]
  | | ProfileFileSignature = acsp
  | | - Tag 0x0024 (4 bytes, string[4]):
  | |     0024: 61 63 73 70                                     [acsp]
  | | PrimaryPlatform = APPL
  | | - Tag 0x0028 (4 bytes, string[4]):
  | |     0028: 41 50 50 4c                                     [APPL]
  | | CMMFlags = 0
  | | - Tag 0x002c (4 bytes, int32u[1]):
  | |     002c: 00 00 00 00                                     [....]
  | | DeviceManufacturer = 
  | | - Tag 0x0030 (4 bytes, string[4]):
  | |     0030: 00 00 00 00                                     [....]
  | | DeviceModel = 
  | | - Tag 0x0034 (4 bytes, string[4]):
  | |     0034: 00 00 00 00                                     [....]
  | | DeviceAttributes = 0 0
  | | - Tag 0x0038 (8 bytes, int32u[2]):
  | |     0038: 00 00 00 00 00 00 00 00                         [........]
  | | RenderingIntent = 0
  | | - Tag 0x0040 (4 bytes, int32u[1]):
  | |     0040: 00 00 00 00                                     [....]
  | | ConnectionSpaceIlluminant = 0.9642 1 0.82491
  | | - Tag 0x0044 (12 bytes, fixed32s[3]):
  | |     0044: 00 00 f6 d6 00 01 00 00 00 00 d3 2d             [...........-]
  | | ProfileCreator = lcms
  | | - Tag 0x0050 (4 bytes, string[4]):
  | |     0050: 6c 63 6d 73                                     [lcms]
  | | ProfileID = 0 0 0 0 0 0 0 0 0 0 0 0 0 0 0 0
  | | - Tag 0x0054 (16 bytes, int8u[16]):
  | |     0054: 00 00 00 00 00 00 00 00 00 00 00 00 00 00 00 00 [................]
  | 0)  ProfileCopyright = Public Domain
  |     - Tag 'cprt' (22 bytes, type 'text'):
  |         0114: 74 65 78 74 00 00 00 00 50 75 62 6c 69 63 20 44 [text....Public D]
  |         0124: 6f 6d 61 69 6e 00                               [omain.]
  | 1)  ProfileDescription = sRGB
  |     - Tag 'desc' (108 bytes, type 'desc'):
  |         012c: 64 65 73 63 00 00 00 00 00 00 00 05 73 52 47 42 [desc........sRGB]
  |         013c: 00 00 00 00 00 00 00 00 05 00 73 00 52 00 47 00 [..........s.R.G.]
  |         014c: 42 00 00 00 00 00 00 00 00 00 00 00 00 00 00 00 [B...............]
  |         015c: 00 00 00 00 00 00 00 00 00 00 00 00 00 00 00 00 [................]
  |         016c: 00 00 00 00 00 00 00 00 00 00 00 00 00 00 00 00 [................]
  |         017c: 00 00 00 00 00 00 00 00 00 00 00 00 00 00 00 00 [................]
  |         018c: 00 00 00 00 00 00 00 00 00 00 00 00             [............]
  | 2)  DeviceMfgDesc = Darktable
  |     - Tag 'dmnd' (120 bytes, type 'desc'):
  |         0198: 64 65 73 63 00 00 00 00 00 00 00 0a 44 61 72 6b [desc........Dark]
  |         01a8: 74 61 62 6c 65 00 00 00 00 00 00 00 00 0a 00 44 [table..........D]
  |         01b8: 00 61 00 72 00 6b 00 74 00 61 00 62 00 6c 00 65 [.a.r.k.t.a.b.l.e]
  |         01c8: 00 00 00 00 00 00 00 00 00 00 00 00 00 00 00 00 [................]
  |         01d8: 00 00 00 00 00 00 00 00 00 00 00 00 00 00 00 00 [................]
  |         01e8: 00 00 00 00 00 00 00 00 00 00 00 00 00 00 00 00 [................]
  |         01f8: 00 00 00 00 00 00 00 00 00 00 00 00 00 00 00 00 [................]
  |         0208: 00 00 00 00 00 00 00 00                         [........]
  | 3)  DeviceModelDesc = sRGB
  |     - Tag 'dmdd' (108 bytes, type 'desc'):
  |         0210: 64 65 73 63 00 00 00 00 00 00 00 05 73 52 47 42 [desc........sRGB]
  |         0220: 00 00 00 00 00 00 00 00 05 00 73 00 52 00 47 00 [..........s.R.G.]
  |         0230: 42 00 00 00 00 00 00 00 00 00 00 00 00 00 00 00 [B...............]
  |         0240: 00 00 00 00 00 00 00 00 00 00 00 00 00 00 00 00 [................]
  |         0250: 00 00 00 00 00 00 00 00 00 00 00 00 00 00 00 00 [................]
  |         0260: 00 00 00 00 00 00 00 00 00 00 00 00 00 00 00 00 [................]
  |         0270: 00 00 00 00 00 00 00 00 00 00 00 00             [............]
  | 4)  MediaWhitePoint = 0.95045 1 1.08905
  |     - Tag 'wtpt' (20 bytes, type 'XYZ '):
  |         027c: 58 59 5a 20 00 00 00 00 00 00 f3 51 00 01 00 00 [XYZ .......Q....]
  |         028c: 00 01 16 cc                                     [....]
  | 5)  MediaBlackPoint = 0 0 0
  |     - Tag 'bkpt' (20 bytes, type 'XYZ '):
  |         0290: 58 59 5a 20 00 00 00 00 00 00 00 00 00 00 00 00 [XYZ ............]
  |         02a0: 00 00 00 00                                     [....]
  | 6)  RedMatrixColumn = 0.43604 0.22249 0.01392
  |     - Tag 'rXYZ' (20 bytes, type 'XYZ '):
  |         02a4: 58 59 5a 20 00 00 00 00 00 00 6f a0 00 00 38 f5 [XYZ ......o...8.]
  |         02b4: 00 00 03 90                                     [....]
  | 7)  GreenMatrixColumn = 0.38512 0.7169 0.09706
  |     - Tag 'gXYZ' (20 bytes, type 'XYZ '):
  |         02b8: 58 59 5a 20 00 00 00 00 00 00 62 97 00 00 b7 87 [XYZ ......b.....]
  |         02c8: 00 00 18 d9                                     [....]
  | 8)  BlueMatrixColumn = 0.14305 0.06061 0.71393
  |     - Tag 'bXYZ' (20 bytes, type 'XYZ '):
  |         02cc: 58 59 5a 20 00 00 00 00 00 00 24 9f 00 00 0f 84 [XYZ ......$.....]
  |         02dc: 00 00 b6 c4                                     [....]
  | 9)  RedTRC = curv.......................... !#$%&()*+-./02345789:;=>?@BCDEGHIJLMNOQRSTUWXYZ\]^_abcdfghiklmnoqrstvwxy{|}~................................................................................................................................................ .".#.%.&.(.).+.-...0.1.3.4.6.8.9.;.<.>.@.A.C.E.F.H.J.K.M.O.P.R.T.U.W.Y.Z.\.^.`.a.c.e.g.h.j.l.n.o.q.s.u.v.x.z.|.~................................................................................................................................................................!.#.%.(.*.,...1.3.5.8.:.<.>.A.C.E.H.J.L.O.Q.S.V.X.Z.]._.a.d.f.i.k.m.p.r.u.w.y.|.~........................................................................................................................... .#.&.).,...1.4.7.:.=.?.B.E.H.K.N.Q.T.V.Y.\._.b.e.h.k.n.q.t.w.z.}.........................................................................................................".%.).,./.3.6.9.=.@.C.G.J.M.Q.T.W.[.^.b.e.h.l.o.s.v.y.}..........................................................................................".%.).-.1.4.8.<.@.C.G.K.O.R.V.Z.^.b.f.i.m.q.u.y.}................................................................................!.%.).-.1.5.9.>.B.F.J.N.S.W.[._.c.h.l.p.t.y.}..........................................................................$.(.-.1.6.:.?.C.H.M.Q.V.Z._.c.h.m.q.v.{.....................................................................!.&.+./.4.9.>.C.H.M.R.W.\.a.f.k.p.u.z.................................................................".'.,.1.7.<.A.F.L.Q.V.[.a.f.k.q.v.{.............................................................$.)./.4.:.?.E.J.P.V.[.a.f.l.r.w.}.........................................................$.*./.5.;.A.G.M.S.Y._.d.j.p.v.|..................................................... .&.,.2.8.>.E.K.Q.W.].d.j.p.v.}...................................................!.(...5.;.B.H.O.U.\.b.i.o.v.|.................................................".)./.6.=.D.J.Q.X._.f.l.s.z............................................... .'...5.<.C.J.Q.X._.f.m.t.{..........[snip]
  |     - Tag 'rTRC' (8204 bytes, type 'curv'):
  |         02e0: 63 75 72 76 00 00 00 00 00 00 10 00 00 00 00 01 [curv............]
  |         02f0: 00 02 00 04 00 05 00 06 00 07 00 09 00 0a 00 0b [................]
  |         0300: 00 0c 00 0e 00 0f 00 10 00 11 00 13 00 14 00 15 [................]
  |         0310: 00 16 00 18 00 19 00 1a 00 1b 00 1c 00 1e 00 1f [................]
  |         0320: 00 20 00 21 00 23 00 24 00 25 00 26 00 28 00 29 [. .!.#.$.%.&.(.)]
  |         0330: 00 2a 00 2b 00 2d 00 2e 00 2f 00 30 00 32 00 33 [.*.+.-.../.0.2.3]
  |         0340: 00 34 00 35 00 37 00 38 00 39 00 3a 00 3b 00 3d [.4.5.7.8.9.:.;.=]
  |         0350: 00 3e 00 3f 00 40 00 42 00 43 00 44 00 45 00 47 [.>.?.@.B.C.D.E.G]
  |         0360: 00 48 00 49 00 4a 00 4c 00 4d 00 4e 00 4f 00 51 [.H.I.J.L.M.N.O.Q]
  |         0370: 00 52 00 53 00 54 00 55 00 57 00 58 00 59 00 5a [.R.S.T.U.W.X.Y.Z]
  |         0380: 00 5c 00 5d 00 5e 00 5f 00 61 00 62 00 63 00 64 [.\.].^._.a.b.c.d]
  |         0390: 00 66 00 67 00 68 00 69 00 6b 00 6c 00 6d 00 6e [.f.g.h.i.k.l.m.n]
  |         03a0: 00 6f 00 71 00 72 00 73 00 74 00 76 00 77 00 78 [.o.q.r.s.t.v.w.x]
  |         03b0: 00 79 00 7b 00 7c 00 7d 00 7e 00 80 00 81 00 82 [.y.{.|.}.~......]
  |         03c0: 00 83 00 85 00 86 00 87 00 88 00 89 00 8b 00 8c [................]
  |         03d0: 00 8d 00 8e 00 90 00 91 00 92 00 93 00 95 00 96 [................]
  |         03e0: 00 97 00 98 00 9a 00 9b 00 9c 00 9d 00 9f 00 a0 [................]
  |         03f0: 00 a1 00 a2 00 a4 00 a5 00 a6 00 a7 00 a8 00 aa [................]
  |         0400: 00 ab 00 ac 00 ad 00 af 00 b0 00 b1 00 b2 00 b4 [................]
  |         0410: 00 b5 00 b6 00 b7 00 b9 00 ba 00 bb 00 bc 00 be [................]
  |         0420: 00 bf 00 c0 00 c1 00 c2 00 c4 00 c5 00 c6 00 c7 [................]
  |         0430: 00 c9 00 ca 00 cb 00 cc 00 ce 00 cf 00 d0 00 d1 [................]
  |         0440: 00 d3 00 d4 00 d5 00 d7 00 d8 00 d9 00 da 00 dc [................]
  |         0450: 00 dd 00 de 00 e0 00 e1 00 e2 00 e4 00 e5 00 e6 [................]
  |         0460: 00 e8 00 e9 00 ea 00 ec 00 ed 00 ef 00 f0 00 f1 [................]
  |         0470: 00 f3 00 f4 00 f6 00 f7 00 f8 00 fa 00 fb 00 fd [................]
  |         0480: 00 fe 00 ff 01 01 01 02 01 04 01 05 01 07 01 08 [................]
  |         0490: 01 0a 01 0b 01 0d 01 0e 01 0f 01 11 01 12 01 14 [................]
  |         04a0: 01 15 01 17 01 18 01 1a 01 1b 01 1d 01 1f 01 20 [............... ]
  |         04b0: 01 22 01 23 01 25 01 26 01 28 01 29 01 2b 01 2d [.".#.%.&.(.).+.-]
  |         04c0: 01 2e 01 30 01 31 01 33 01 34 01 36 01 38 01 39 [...0.1.3.4.6.8.9]
  |         04d0: 01 3b 01 3c 01 3e 01 40 01 41 01 43 01 45 01 46 [.;.<.>.@.A.C.E.F]
  |         04e0: 01 48 01 4a 01 4b 01 4d 01 4f 01 50 01 52 01 54 [.H.J.K.M.O.P.R.T]
  |         04f0: 01 55 01 57 01 59 01 5a 01 5c 01 5e 01 60 01 61 [.U.W.Y.Z.\.^.`.a]
  |         0500: 01 63 01 65 01 67 01 68 01 6a 01 6c 01 6e 01 6f [.c.e.g.h.j.l.n.o]
  |         0510: 01 71 01 73 01 75 01 76 01 78 01 7a 01 7c 01 7e [.q.s.u.v.x.z.|.~]
  |         0520: 01 7f 01 81 01 83 01 85 01 87 01 89 01 8a 01 8c [................]
  |         0530: 01 8e 01 90 01 92 01 94 01 96 01 97 01 99 01 9b [................]
  |         0540: 01 9d 01 9f 01 a1 01 a3 01 a5 01 a7 01 a9 01 ab [................]
  |         0550: 01 ac 01 ae 01 b0 01 b2 01 b4 01 b6 01 b8 01 ba [................]
  |         0560: 01 bc 01 be 01 c0 01 c2 01 c4 01 c6 01 c8 01 ca [................]
  |         0570: 01 cc 01 ce 01 d0 01 d2 01 d4 01 d6 01 d8 01 da [................]
  |         0580: 01 dc 01 de 01 e1 01 e3 01 e5 01 e7 01 e9 01 eb [................]
  |         0590: 01 ed 01 ef 01 f1 01 f3 01 f5 01 f8 01 fa 01 fc [................]
  |         05a0: 01 fe 02 00 02 02 02 04 02 07 02 09 02 0b 02 0d [................]
  |         05b0: 02 0f 02 12 02 14 02 16 02 18 02 1a 02 1d 02 1f [................]
  |         05c0: 02 21 02 23 02 25 02 28 02 2a 02 2c 02 2e 02 31 [.!.#.%.(.*.,...1]
  |         05d0: 02 33 02 35 02 38 02 3a 02 3c 02 3e 02 41 02 43 [.3.5.8.:.<.>.A.C]
  |         05e0: 02 45 02 48 02 4a 02 4c 02 4f 02 51 02 53 02 56 [.E.H.J.L.O.Q.S.V]
  |         05f0: 02 58 02 5a 02 5d 02 5f 02 61 02 64 02 66 02 69 [.X.Z.]._.a.d.f.i]
  |         0600: 02 6b 02 6d 02 70 02 72 02 75 02 77 02 79 02 7c [.k.m.p.r.u.w.y.|]
  |         0610: 02 7e 02 81 02 83 02 86 02 88 02 8b 02 8d 02 90 [.~..............]
  |         0620: 02 92 02 95 02 97 02 9a 02 9c 02 9f 02 a1 02 a4 [................]
  |         0630: 02 a6 02 a9 02 ab 02 ae 02 b0 02 b3 02 b5 02 b8 [................]
  |         0640: 02 bb 02 bd 02 c0 02 c2 02 c5 02 c8 02 ca 02 cd [................]
  |         0650: 02 cf 02 d2 02 d5 02 d7 02 da 02 dd 02 df 02 e2 [................]
  |         0660: 02 e4 02 e7 02 ea 02 ec 02 ef 02 f2 02 f5 02 f7 [................]
  |         0670: 02 fa 02 fd 02 ff 03 02 03 05 03 08 03 0a 03 0d [................]
  |         0680: 03 10 03 13 03 15 03 18 03 1b 03 1e 03 20 03 23 [............. .#]
  |         0690: 03 26 03 29 03 2c 03 2e 03 31 03 34 03 37 03 3a [.&.).,...1.4.7.:]
  |         06a0: 03 3d 03 3f 03 42 03 45 03 48 03 4b 03 4e 03 51 [.=.?.B.E.H.K.N.Q]
  |         06b0: 03 54 03 56 03 59 03 5c 03 5f 03 62 03 65 03 68 [.T.V.Y.\._.b.e.h]
  |         06c0: 03 6b 03 6e 03 71 03 74 03 77 03 7a 03 7d 03 80 [.k.n.q.t.w.z.}..]
  |         06d0: 03 82 03 85 03 88 03 8b 03 8e 03 91 03 94 03 98 [................]
  |         06e0: 03 9b 03 9e 03 a1 03 a4 03 a7 03 aa 03 ad 03 b0 [................]
  |         06f0: 03 b3 03 b6 03 b9 03 bc 03 bf 03 c2 03 c5 03 c9 [................]
  |         0700: 03 cc 03 cf 03 d2 03 d5 03 d8 03 db 03 df 03 e2 [................]
  |         0710: 03 e5 03 e8 03 eb 03 ee 03 f2 03 f5 03 f8 03 fb [................]
  |         0720: 03 fe 04 02 04 05 04 08 04 0b 04 0f 04 12 04 15 [................]
  |         0730: 04 18 04 1c 04 1f 04 22 04 25 04 29 04 2c 04 2f [.......".%.).,./]
  |         0740: 04 33 04 36 04 39 04 3d 04 40 04 43 04 47 04 4a [.3.6.9.=.@.C.G.J]
  |         0750: 04 4d 04 51 04 54 04 57 04 5b 04 5e 04 62 04 65 [.M.Q.T.W.[.^.b.e]
  |         0760: 04 68 04 6c 04 6f 04 73 04 76 04 79 04 7d 04 80 [.h.l.o.s.v.y.}..]
  |         0770: 04 84 04 87 04 8b 04 8e 04 92 04 95 04 99 04 9c [................]
  |         0780: 04 a0 04 a3 04 a7 04 aa 04 ae 04 b1 04 b5 04 b8 [................]
  |         0790: 04 bc 04 bf 04 c3 04 c6 04 ca 04 ce 04 d1 04 d5 [................]
  |         07a0: 04 d8 04 dc 04 e0 04 e3 04 e7 04 ea 04 ee 04 f2 [................]
  |         07b0: 04 f5 04 f9 04 fd 05 00 05 04 05 08 05 0b 05 0f [................]
  |         07c0: 05 13 05 16 05 1a 05 1e 05 22 05 25 05 29 05 2d [.........".%.).-]
  |         07d0: 05 31 05 34 05 38 05 3c 05 40 05 43 05 47 05 4b [.1.4.8.<.@.C.G.K]
  |         07e0: 05 4f 05 52 05 56 05 5a 05 5e 05 62 05 66 05 69 [.O.R.V.Z.^.b.f.i]
  |         07f0: 05 6d 05 71 05 75 05 79 05 7d 05 81 05 84 05 88 [.m.q.u.y.}......]
  |         0800: 05 8c 05 90 05 94 05 98 05 9c 05 a0 05 a4 05 a8 [................]
  |         0810: 05 ac 05 af 05 b3 05 b7 05 bb 05 bf 05 c3 05 c7 [................]
  |         0820: 05 cb 05 cf 05 d3 05 d7 05 db 05 df 05 e3 05 e7 [................]
  |         0830: 05 eb 05 ef 05 f4 05 f8 05 fc 06 00 06 04 06 08 [................]
  |         0840: 06 0c 06 10 06 14 06 18 06 1c 06 21 06 25 06 29 [...........!.%.)]
  |         0850: 06 2d 06 31 06 35 06 39 06 3e 06 42 06 46 06 4a [.-.1.5.9.>.B.F.J]
  |         0860: 06 4e 06 53 06 57 06 5b 06 5f 06 63 06 68 06 6c [.N.S.W.[._.c.h.l]
  |         0870: 06 70 06 74 06 79 06 7d 06 81 06 85 06 8a 06 8e [.p.t.y.}........]
  |         0880: 06 92 06 97 06 9b 06 9f 06 a4 06 a8 06 ac 06 b1 [................]
  |         0890: 06 b5 06 b9 06 be 06 c2 06 c6 06 cb 06 cf 06 d4 [................]
  |         08a0: 06 d8 06 dc 06 e1 06 e5 06 ea 06 ee 06 f2 06 f7 [................]
  |         08b0: 06 fb 07 00 07 04 07 09 07 0d 07 12 07 16 07 1b [................]
  |         08c0: 07 1f 07 24 07 28 07 2d 07 31 07 36 07 3a 07 3f [...$.(.-.1.6.:.?]
  |         08d0: 07 43 07 48 07 4d 07 51 07 56 07 5a 07 5f 07 63 [.C.H.M.Q.V.Z._.c]
  |         08e0: 07 68 07 6d 07 71 07 76 07 7b 07 7f 07 84 07 89 [.h.m.q.v.{......]
  |         08f0: 07 8d 07 92 07 97 07 9b 07 a0 07 a5 07 a9 07 ae [................]
  |         0900: 07 b3 07 b7 07 bc 07 c1 07 c6 07 ca 07 cf 07 d4 [................]
  |         0910: 07 d9 07 dd 07 e2 07 e7 07 ec 07 f1 07 f5 07 fa [................]
  |         0920: 07 ff 08 04 08 09 08 0d 08 12 08 17 08 1c 08 21 [...............!]
  |         0930: 08 26 08 2b 08 2f 08 34 08 39 08 3e 08 43 08 48 [.&.+./.4.9.>.C.H]
  |         0940: 08 4d 08 52 08 57 08 5c 08 61 08 66 08 6b 08 70 [.M.R.W.\.a.f.k.p]
  |         0950: 08 75 08 7a 08 7f 08 84 08 89 08 8e 08 93 08 98 [.u.z............]
  |         0960: 08 9d 08 a2 08 a7 08 ac 08 b1 08 b6 08 bb 08 c0 [................]
  |         0970: 08 c5 08 ca 08 cf 08 d4 08 d9 08 df 08 e4 08 e9 [................]
  |         0980: 08 ee 08 f3 08 f8 08 fd 09 03 09 08 09 0d 09 12 [................]
  |         0990: 09 17 09 1d 09 22 09 27 09 2c 09 31 09 37 09 3c [.....".'.,.1.7.<]
  |         09a0: 09 41 09 46 09 4c 09 51 09 56 09 5b 09 61 09 66 [.A.F.L.Q.V.[.a.f]
  |         09b0: 09 6b 09 71 09 76 09 7b 09 81 09 86 09 8b 09 91 [.k.q.v.{........]
  |         09c0: 09 96 09 9b 09 a1 09 a6 09 ab 09 b1 09 b6 09 bc [................]
  |         09d0: 09 c1 09 c6 09 cc 09 d1 09 d7 09 dc 09 e2 09 e7 [................]
  |         09e0: 09 ed 09 f2 09 f8 09 fd 0a 02 0a 08 0a 0d 0a 13 [................]
  |         09f0: 0a 19 0a 1e 0a 24 0a 29 0a 2f 0a 34 0a 3a 0a 3f [.....$.)./.4.:.?]
  |         0a00: 0a 45 0a 4a 0a 50 0a 56 0a 5b 0a 61 0a 66 0a 6c [.E.J.P.V.[.a.f.l]
  |         0a10: 0a 72 0a 77 0a 7d 0a 83 0a 88 0a 8e 0a 94 0a 99 [.r.w.}..........]
  |         0a20: 0a 9f 0a a5 0a aa 0a b0 0a b6 0a bc 0a c1 0a c7 [................]
  |         0a30: 0a cd 0a d3 0a d8 0a de 0a e4 0a ea 0a ef 0a f5 [................]
  |         0a40: 0a fb 0b 01 0b 07 0b 0c 0b 12 0b 18 0b 1e 0b 24 [...............$]
  |         0a50: 0b 2a 0b 2f 0b 35 0b 3b 0b 41 0b 47 0b 4d 0b 53 [.*./.5.;.A.G.M.S]
  |         0a60: 0b 59 0b 5f 0b 64 0b 6a 0b 70 0b 76 0b 7c 0b 82 [.Y._.d.j.p.v.|..]
  |         0a70: 0b 88 0b 8e 0b 94 0b 9a 0b a0 0b a6 0b ac 0b b2 [................]
  |         0a80: 0b b8 0b be 0b c4 0b ca 0b d0 0b d6 0b dc 0b e2 [................]
  |         0a90: 0b e9 0b ef 0b f5 0b fb 0c 01 0c 07 0c 0d 0c 13 [................]
  |         0aa0: 0c 19 0c 20 0c 26 0c 2c 0c 32 0c 38 0c 3e 0c 45 [... .&.,.2.8.>.E]
  |         0ab0: 0c 4b 0c 51 0c 57 0c 5d 0c 64 0c 6a 0c 70 0c 76 [.K.Q.W.].d.j.p.v]
  |         0ac0: 0c 7d 0c 83 0c 89 0c 8f 0c 96 0c 9c 0c a2 0c a8 [.}..............]
  |         [snip 6172 bytes]
  | 10) GreenTRC = curv.......................... !#$%&()*+-./02345789:;=>?@BCDEGHIJLMNOQRSTUWXYZ\]^_abcdfghiklmnoqrstvwxy{|}~................................................................................................................................................ .".#.%.&.(.).+.-...0.1.3.4.6.8.9.;.<.>.@.A.C.E.F.H.J.K.M.O.P.R.T.U.W.Y.Z.\.^.`.a.c.e.g.h.j.l.n.o.q.s.u.v.x.z.|.~................................................................................................................................................................!.#.%.(.*.,...1.3.5.8.:.<.>.A.C.E.H.J.L.O.Q.S.V.X.Z.]._.a.d.f.i.k.m.p.r.u.w.y.|.~........................................................................................................................... .#.&.).,...1.4.7.:.=.?.B.E.H.K.N.Q.T.V.Y.\._.b.e.h.k.n.q.t.w.z.}.........................................................................................................".%.).,./.3.6.9.=.@.C.G.J.M.Q.T.W.[.^.b.e.h.l.o.s.v.y.}..........................................................................................".%.).-.1.4.8.<.@.C.G.K.O.R.V.Z.^.b.f.i.m.q.u.y.}................................................................................!.%.).-.1.5.9.>.B.F.J.N.S.W.[._.c.h.l.p.t.y.}..........................................................................$.(.-.1.6.:.?.C.H.M.Q.V.Z._.c.h.m.q.v.{.....................................................................!.&.+./.4.9.>.C.H.M.R.W.\.a.f.k.p.u.z.................................................................".'.,.1.7.<.A.F.L.Q.V.[.a.f.k.q.v.{.............................................................$.)./.4.:.?.E.J.P.V.[.a.f.l.r.w.}.........................................................$.*./.5.;.A.G.M.S.Y._.d.j.p.v.|..................................................... .&.,.2.8.>.E.K.Q.W.].d.j.p.v.}...................................................!.(...5.;.B.H.O.U.\.b.i.o.v.|.................................................".)./.6.=.D.J.Q.X._.f.l.s.z............................................... .'...5.<.C.J.Q.X._.f.m.t.{..........[snip]
  |     - Tag 'gTRC' (8204 bytes, type 'curv'):
  |         02e0: 63 75 72 76 00 00 00 00 00 00 10 00 00 00 00 01 [curv............]
  |         02f0: 00 02 00 04 00 05 00 06 00 07 00 09 00 0a 00 0b [................]
  |         0300: 00 0c 00 0e 00 0f 00 10 00 11 00 13 00 14 00 15 [................]
  |         0310: 00 16 00 18 00 19 00 1a 00 1b 00 1c 00 1e 00 1f [................]
  |         0320: 00 20 00 21 00 23 00 24 00 25 00 26 00 28 00 29 [. .!.#.$.%.&.(.)]
  |         0330: 00 2a 00 2b 00 2d 00 2e 00 2f 00 30 00 32 00 33 [.*.+.-.../.0.2.3]
  |         0340: 00 34 00 35 00 37 00 38 00 39 00 3a 00 3b 00 3d [.4.5.7.8.9.:.;.=]
  |         0350: 00 3e 00 3f 00 40 00 42 00 43 00 44 00 45 00 47 [.>.?.@.B.C.D.E.G]
  |         0360: 00 48 00 49 00 4a 00 4c 00 4d 00 4e 00 4f 00 51 [.H.I.J.L.M.N.O.Q]
  |         0370: 00 52 00 53 00 54 00 55 00 57 00 58 00 59 00 5a [.R.S.T.U.W.X.Y.Z]
  |         0380: 00 5c 00 5d 00 5e 00 5f 00 61 00 62 00 63 00 64 [.\.].^._.a.b.c.d]
  |         0390: 00 66 00 67 00 68 00 69 00 6b 00 6c 00 6d 00 6e [.f.g.h.i.k.l.m.n]
  |         03a0: 00 6f 00 71 00 72 00 73 00 74 00 76 00 77 00 78 [.o.q.r.s.t.v.w.x]
  |         03b0: 00 79 00 7b 00 7c 00 7d 00 7e 00 80 00 81 00 82 [.y.{.|.}.~......]
  |         03c0: 00 83 00 85 00 86 00 87 00 88 00 89 00 8b 00 8c [................]
  |         03d0: 00 8d 00 8e 00 90 00 91 00 92 00 93 00 95 00 96 [................]
  |         03e0: 00 97 00 98 00 9a 00 9b 00 9c 00 9d 00 9f 00 a0 [................]
  |         03f0: 00 a1 00 a2 00 a4 00 a5 00 a6 00 a7 00 a8 00 aa [................]
  |         0400: 00 ab 00 ac 00 ad 00 af 00 b0 00 b1 00 b2 00 b4 [................]
  |         0410: 00 b5 00 b6 00 b7 00 b9 00 ba 00 bb 00 bc 00 be [................]
  |         0420: 00 bf 00 c0 00 c1 00 c2 00 c4 00 c5 00 c6 00 c7 [................]
  |         0430: 00 c9 00 ca 00 cb 00 cc 00 ce 00 cf 00 d0 00 d1 [................]
  |         0440: 00 d3 00 d4 00 d5 00 d7 00 d8 00 d9 00 da 00 dc [................]
  |         0450: 00 dd 00 de 00 e0 00 e1 00 e2 00 e4 00 e5 00 e6 [................]
  |         0460: 00 e8 00 e9 00 ea 00 ec 00 ed 00 ef 00 f0 00 f1 [................]
  |         0470: 00 f3 00 f4 00 f6 00 f7 00 f8 00 fa 00 fb 00 fd [................]
  |         0480: 00 fe 00 ff 01 01 01 02 01 04 01 05 01 07 01 08 [................]
  |         0490: 01 0a 01 0b 01 0d 01 0e 01 0f 01 11 01 12 01 14 [................]
  |         04a0: 01 15 01 17 01 18 01 1a 01 1b 01 1d 01 1f 01 20 [............... ]
  |         04b0: 01 22 01 23 01 25 01 26 01 28 01 29 01 2b 01 2d [.".#.%.&.(.).+.-]
  |         04c0: 01 2e 01 30 01 31 01 33 01 34 01 36 01 38 01 39 [...0.1.3.4.6.8.9]
  |         04d0: 01 3b 01 3c 01 3e 01 40 01 41 01 43 01 45 01 46 [.;.<.>.@.A.C.E.F]
  |         04e0: 01 48 01 4a 01 4b 01 4d 01 4f 01 50 01 52 01 54 [.H.J.K.M.O.P.R.T]
  |         04f0: 01 55 01 57 01 59 01 5a 01 5c 01 5e 01 60 01 61 [.U.W.Y.Z.\.^.`.a]
  |         0500: 01 63 01 65 01 67 01 68 01 6a 01 6c 01 6e 01 6f [.c.e.g.h.j.l.n.o]
  |         0510: 01 71 01 73 01 75 01 76 01 78 01 7a 01 7c 01 7e [.q.s.u.v.x.z.|.~]
  |         0520: 01 7f 01 81 01 83 01 85 01 87 01 89 01 8a 01 8c [................]
  |         0530: 01 8e 01 90 01 92 01 94 01 96 01 97 01 99 01 9b [................]
  |         0540: 01 9d 01 9f 01 a1 01 a3 01 a5 01 a7 01 a9 01 ab [................]
  |         0550: 01 ac 01 ae 01 b0 01 b2 01 b4 01 b6 01 b8 01 ba [................]
  |         0560: 01 bc 01 be 01 c0 01 c2 01 c4 01 c6 01 c8 01 ca [................]
  |         0570: 01 cc 01 ce 01 d0 01 d2 01 d4 01 d6 01 d8 01 da [................]
  |         0580: 01 dc 01 de 01 e1 01 e3 01 e5 01 e7 01 e9 01 eb [................]
  |         0590: 01 ed 01 ef 01 f1 01 f3 01 f5 01 f8 01 fa 01 fc [................]
  |         05a0: 01 fe 02 00 02 02 02 04 02 07 02 09 02 0b 02 0d [................]
  |         05b0: 02 0f 02 12 02 14 02 16 02 18 02 1a 02 1d 02 1f [................]
  |         05c0: 02 21 02 23 02 25 02 28 02 2a 02 2c 02 2e 02 31 [.!.#.%.(.*.,...1]
  |         05d0: 02 33 02 35 02 38 02 3a 02 3c 02 3e 02 41 02 43 [.3.5.8.:.<.>.A.C]
  |         05e0: 02 45 02 48 02 4a 02 4c 02 4f 02 51 02 53 02 56 [.E.H.J.L.O.Q.S.V]
  |         05f0: 02 58 02 5a 02 5d 02 5f 02 61 02 64 02 66 02 69 [.X.Z.]._.a.d.f.i]
  |         0600: 02 6b 02 6d 02 70 02 72 02 75 02 77 02 79 02 7c [.k.m.p.r.u.w.y.|]
  |         0610: 02 7e 02 81 02 83 02 86 02 88 02 8b 02 8d 02 90 [.~..............]
  |         0620: 02 92 02 95 02 97 02 9a 02 9c 02 9f 02 a1 02 a4 [................]
  |         0630: 02 a6 02 a9 02 ab 02 ae 02 b0 02 b3 02 b5 02 b8 [................]
  |         0640: 02 bb 02 bd 02 c0 02 c2 02 c5 02 c8 02 ca 02 cd [................]
  |         0650: 02 cf 02 d2 02 d5 02 d7 02 da 02 dd 02 df 02 e2 [................]
  |         0660: 02 e4 02 e7 02 ea 02 ec 02 ef 02 f2 02 f5 02 f7 [................]
  |         0670: 02 fa 02 fd 02 ff 03 02 03 05 03 08 03 0a 03 0d [................]
  |         0680: 03 10 03 13 03 15 03 18 03 1b 03 1e 03 20 03 23 [............. .#]
  |         0690: 03 26 03 29 03 2c 03 2e 03 31 03 34 03 37 03 3a [.&.).,...1.4.7.:]
  |         06a0: 03 3d 03 3f 03 42 03 45 03 48 03 4b 03 4e 03 51 [.=.?.B.E.H.K.N.Q]
  |         06b0: 03 54 03 56 03 59 03 5c 03 5f 03 62 03 65 03 68 [.T.V.Y.\._.b.e.h]
  |         06c0: 03 6b 03 6e 03 71 03 74 03 77 03 7a 03 7d 03 80 [.k.n.q.t.w.z.}..]
  |         06d0: 03 82 03 85 03 88 03 8b 03 8e 03 91 03 94 03 98 [................]
  |         06e0: 03 9b 03 9e 03 a1 03 a4 03 a7 03 aa 03 ad 03 b0 [................]
  |         06f0: 03 b3 03 b6 03 b9 03 bc 03 bf 03 c2 03 c5 03 c9 [................]
  |         0700: 03 cc 03 cf 03 d2 03 d5 03 d8 03 db 03 df 03 e2 [................]
  |         0710: 03 e5 03 e8 03 eb 03 ee 03 f2 03 f5 03 f8 03 fb [................]
  |         0720: 03 fe 04 02 04 05 04 08 04 0b 04 0f 04 12 04 15 [................]
  |         0730: 04 18 04 1c 04 1f 04 22 04 25 04 29 04 2c 04 2f [.......".%.).,./]
  |         0740: 04 33 04 36 04 39 04 3d 04 40 04 43 04 47 04 4a [.3.6.9.=.@.C.G.J]
  |         0750: 04 4d 04 51 04 54 04 57 04 5b 04 5e 04 62 04 65 [.M.Q.T.W.[.^.b.e]
  |         0760: 04 68 04 6c 04 6f 04 73 04 76 04 79 04 7d 04 80 [.h.l.o.s.v.y.}..]
  |         0770: 04 84 04 87 04 8b 04 8e 04 92 04 95 04 99 04 9c [................]
  |         0780: 04 a0 04 a3 04 a7 04 aa 04 ae 04 b1 04 b5 04 b8 [................]
  |         0790: 04 bc 04 bf 04 c3 04 c6 04 ca 04 ce 04 d1 04 d5 [................]
  |         07a0: 04 d8 04 dc 04 e0 04 e3 04 e7 04 ea 04 ee 04 f2 [................]
  |         07b0: 04 f5 04 f9 04 fd 05 00 05 04 05 08 05 0b 05 0f [................]
  |         07c0: 05 13 05 16 05 1a 05 1e 05 22 05 25 05 29 05 2d [.........".%.).-]
  |         07d0: 05 31 05 34 05 38 05 3c 05 40 05 43 05 47 05 4b [.1.4.8.<.@.C.G.K]
  |         07e0: 05 4f 05 52 05 56 05 5a 05 5e 05 62 05 66 05 69 [.O.R.V.Z.^.b.f.i]
  |         07f0: 05 6d 05 71 05 75 05 79 05 7d 05 81 05 84 05 88 [.m.q.u.y.}......]
  |         0800: 05 8c 05 90 05 94 05 98 05 9c 05 a0 05 a4 05 a8 [................]
  |         0810: 05 ac 05 af 05 b3 05 b7 05 bb 05 bf 05 c3 05 c7 [................]
  |         0820: 05 cb 05 cf 05 d3 05 d7 05 db 05 df 05 e3 05 e7 [................]
  |         0830: 05 eb 05 ef 05 f4 05 f8 05 fc 06 00 06 04 06 08 [................]
  |         0840: 06 0c 06 10 06 14 06 18 06 1c 06 21 06 25 06 29 [...........!.%.)]
  |         0850: 06 2d 06 31 06 35 06 39 06 3e 06 42 06 46 06 4a [.-.1.5.9.>.B.F.J]
  |         0860: 06 4e 06 53 06 57 06 5b 06 5f 06 63 06 68 06 6c [.N.S.W.[._.c.h.l]
  |         0870: 06 70 06 74 06 79 06 7d 06 81 06 85 06 8a 06 8e [.p.t.y.}........]
  |         0880: 06 92 06 97 06 9b 06 9f 06 a4 06 a8 06 ac 06 b1 [................]
  |         0890: 06 b5 06 b9 06 be 06 c2 06 c6 06 cb 06 cf 06 d4 [................]
  |         08a0: 06 d8 06 dc 06 e1 06 e5 06 ea 06 ee 06 f2 06 f7 [................]
  |         08b0: 06 fb 07 00 07 04 07 09 07 0d 07 12 07 16 07 1b [................]
  |         08c0: 07 1f 07 24 07 28 07 2d 07 31 07 36 07 3a 07 3f [...$.(.-.1.6.:.?]
  |         08d0: 07 43 07 48 07 4d 07 51 07 56 07 5a 07 5f 07 63 [.C.H.M.Q.V.Z._.c]
  |         08e0: 07 68 07 6d 07 71 07 76 07 7b 07 7f 07 84 07 89 [.h.m.q.v.{......]
  |         08f0: 07 8d 07 92 07 97 07 9b 07 a0 07 a5 07 a9 07 ae [................]
  |         0900: 07 b3 07 b7 07 bc 07 c1 07 c6 07 ca 07 cf 07 d4 [................]
  |         0910: 07 d9 07 dd 07 e2 07 e7 07 ec 07 f1 07 f5 07 fa [................]
  |         0920: 07 ff 08 04 08 09 08 0d 08 12 08 17 08 1c 08 21 [...............!]
  |         0930: 08 26 08 2b 08 2f 08 34 08 39 08 3e 08 43 08 48 [.&.+./.4.9.>.C.H]
  |         0940: 08 4d 08 52 08 57 08 5c 08 61 08 66 08 6b 08 70 [.M.R.W.\.a.f.k.p]
  |         0950: 08 75 08 7a 08 7f 08 84 08 89 08 8e 08 93 08 98 [.u.z............]
  |         0960: 08 9d 08 a2 08 a7 08 ac 08 b1 08 b6 08 bb 08 c0 [................]
  |         0970: 08 c5 08 ca 08 cf 08 d4 08 d9 08 df 08 e4 08 e9 [................]
  |         0980: 08 ee 08 f3 08 f8 08 fd 09 03 09 08 09 0d 09 12 [................]
  |         0990: 09 17 09 1d 09 22 09 27 09 2c 09 31 09 37 09 3c [.....".'.,.1.7.<]
  |         09a0: 09 41 09 46 09 4c 09 51 09 56 09 5b 09 61 09 66 [.A.F.L.Q.V.[.a.f]
  |         09b0: 09 6b 09 71 09 76 09 7b 09 81 09 86 09 8b 09 91 [.k.q.v.{........]
  |         09c0: 09 96 09 9b 09 a1 09 a6 09 ab 09 b1 09 b6 09 bc [................]
  |         09d0: 09 c1 09 c6 09 cc 09 d1 09 d7 09 dc 09 e2 09 e7 [................]
  |         09e0: 09 ed 09 f2 09 f8 09 fd 0a 02 0a 08 0a 0d 0a 13 [................]
  |         09f0: 0a 19 0a 1e 0a 24 0a 29 0a 2f 0a 34 0a 3a 0a 3f [.....$.)./.4.:.?]
  |         0a00: 0a 45 0a 4a 0a 50 0a 56 0a 5b 0a 61 0a 66 0a 6c [.E.J.P.V.[.a.f.l]
  |         0a10: 0a 72 0a 77 0a 7d 0a 83 0a 88 0a 8e 0a 94 0a 99 [.r.w.}..........]
  |         0a20: 0a 9f 0a a5 0a aa 0a b0 0a b6 0a bc 0a c1 0a c7 [................]
  |         0a30: 0a cd 0a d3 0a d8 0a de 0a e4 0a ea 0a ef 0a f5 [................]
  |         0a40: 0a fb 0b 01 0b 07 0b 0c 0b 12 0b 18 0b 1e 0b 24 [...............$]
  |         0a50: 0b 2a 0b 2f 0b 35 0b 3b 0b 41 0b 47 0b 4d 0b 53 [.*./.5.;.A.G.M.S]
  |         0a60: 0b 59 0b 5f 0b 64 0b 6a 0b 70 0b 76 0b 7c 0b 82 [.Y._.d.j.p.v.|..]
  |         0a70: 0b 88 0b 8e 0b 94 0b 9a 0b a0 0b a6 0b ac 0b b2 [................]
  |         0a80: 0b b8 0b be 0b c4 0b ca 0b d0 0b d6 0b dc 0b e2 [................]
  |         0a90: 0b e9 0b ef 0b f5 0b fb 0c 01 0c 07 0c 0d 0c 13 [................]
  |         0aa0: 0c 19 0c 20 0c 26 0c 2c 0c 32 0c 38 0c 3e 0c 45 [... .&.,.2.8.>.E]
  |         0ab0: 0c 4b 0c 51 0c 57 0c 5d 0c 64 0c 6a 0c 70 0c 76 [.K.Q.W.].d.j.p.v]
  |         0ac0: 0c 7d 0c 83 0c 89 0c 8f 0c 96 0c 9c 0c a2 0c a8 [.}..............]
  |         [snip 6172 bytes]
  | 11) BlueTRC = curv.......................... !#$%&()*+-./02345789:;=>?@BCDEGHIJLMNOQRSTUWXYZ\]^_abcdfghiklmnoqrstvwxy{|}~................................................................................................................................................ .".#.%.&.(.).+.-...0.1.3.4.6.8.9.;.<.>.@.A.C.E.F.H.J.K.M.O.P.R.T.U.W.Y.Z.\.^.`.a.c.e.g.h.j.l.n.o.q.s.u.v.x.z.|.~................................................................................................................................................................!.#.%.(.*.,...1.3.5.8.:.<.>.A.C.E.H.J.L.O.Q.S.V.X.Z.]._.a.d.f.i.k.m.p.r.u.w.y.|.~........................................................................................................................... .#.&.).,...1.4.7.:.=.?.B.E.H.K.N.Q.T.V.Y.\._.b.e.h.k.n.q.t.w.z.}.........................................................................................................".%.).,./.3.6.9.=.@.C.G.J.M.Q.T.W.[.^.b.e.h.l.o.s.v.y.}..........................................................................................".%.).-.1.4.8.<.@.C.G.K.O.R.V.Z.^.b.f.i.m.q.u.y.}................................................................................!.%.).-.1.5.9.>.B.F.J.N.S.W.[._.c.h.l.p.t.y.}..........................................................................$.(.-.1.6.:.?.C.H.M.Q.V.Z._.c.h.m.q.v.{.....................................................................!.&.+./.4.9.>.C.H.M.R.W.\.a.f.k.p.u.z.................................................................".'.,.1.7.<.A.F.L.Q.V.[.a.f.k.q.v.{.............................................................$.)./.4.:.?.E.J.P.V.[.a.f.l.r.w.}.........................................................$.*./.5.;.A.G.M.S.Y._.d.j.p.v.|..................................................... .&.,.2.8.>.E.K.Q.W.].d.j.p.v.}...................................................!.(...5.;.B.H.O.U.\.b.i.o.v.|.................................................".)./.6.=.D.J.Q.X._.f.l.s.z............................................... .'...5.<.C.J.Q.X._.f.m.t.{..........[snip]
  |     - Tag 'bTRC' (8204 bytes, type 'curv'):
  |         02e0: 63 75 72 76 00 00 00 00 00 00 10 00 00 00 00 01 [curv............]
  |         02f0: 00 02 00 04 00 05 00 06 00 07 00 09 00 0a 00 0b [................]
  |         0300: 00 0c 00 0e 00 0f 00 10 00 11 00 13 00 14 00 15 [................]
  |         0310: 00 16 00 18 00 19 00 1a 00 1b 00 1c 00 1e 00 1f [................]
  |         0320: 00 20 00 21 00 23 00 24 00 25 00 26 00 28 00 29 [. .!.#.$.%.&.(.)]
  |         0330: 00 2a 00 2b 00 2d 00 2e 00 2f 00 30 00 32 00 33 [.*.+.-.../.0.2.3]
  |         0340: 00 34 00 35 00 37 00 38 00 39 00 3a 00 3b 00 3d [.4.5.7.8.9.:.;.=]
  |         0350: 00 3e 00 3f 00 40 00 42 00 43 00 44 00 45 00 47 [.>.?.@.B.C.D.E.G]
  |         0360: 00 48 00 49 00 4a 00 4c 00 4d 00 4e 00 4f 00 51 [.H.I.J.L.M.N.O.Q]
  |         0370: 00 52 00 53 00 54 00 55 00 57 00 58 00 59 00 5a [.R.S.T.U.W.X.Y.Z]
  |         0380: 00 5c 00 5d 00 5e 00 5f 00 61 00 62 00 63 00 64 [.\.].^._.a.b.c.d]
  |         0390: 00 66 00 67 00 68 00 69 00 6b 00 6c 00 6d 00 6e [.f.g.h.i.k.l.m.n]
  |         03a0: 00 6f 00 71 00 72 00 73 00 74 00 76 00 77 00 78 [.o.q.r.s.t.v.w.x]
  |         03b0: 00 79 00 7b 00 7c 00 7d 00 7e 00 80 00 81 00 82 [.y.{.|.}.~......]
  |         03c0: 00 83 00 85 00 86 00 87 00 88 00 89 00 8b 00 8c [................]
  |         03d0: 00 8d 00 8e 00 90 00 91 00 92 00 93 00 95 00 96 [................]
  |         03e0: 00 97 00 98 00 9a 00 9b 00 9c 00 9d 00 9f 00 a0 [................]
  |         03f0: 00 a1 00 a2 00 a4 00 a5 00 a6 00 a7 00 a8 00 aa [................]
  |         0400: 00 ab 00 ac 00 ad 00 af 00 b0 00 b1 00 b2 00 b4 [................]
  |         0410: 00 b5 00 b6 00 b7 00 b9 00 ba 00 bb 00 bc 00 be [................]
  |         0420: 00 bf 00 c0 00 c1 00 c2 00 c4 00 c5 00 c6 00 c7 [................]
  |         0430: 00 c9 00 ca 00 cb 00 cc 00 ce 00 cf 00 d0 00 d1 [................]
  |         0440: 00 d3 00 d4 00 d5 00 d7 00 d8 00 d9 00 da 00 dc [................]
  |         0450: 00 dd 00 de 00 e0 00 e1 00 e2 00 e4 00 e5 00 e6 [................]
  |         0460: 00 e8 00 e9 00 ea 00 ec 00 ed 00 ef 00 f0 00 f1 [................]
  |         0470: 00 f3 00 f4 00 f6 00 f7 00 f8 00 fa 00 fb 00 fd [................]
  |         0480: 00 fe 00 ff 01 01 01 02 01 04 01 05 01 07 01 08 [................]
  |         0490: 01 0a 01 0b 01 0d 01 0e 01 0f 01 11 01 12 01 14 [................]
  |         04a0: 01 15 01 17 01 18 01 1a 01 1b 01 1d 01 1f 01 20 [............... ]
  |         04b0: 01 22 01 23 01 25 01 26 01 28 01 29 01 2b 01 2d [.".#.%.&.(.).+.-]
  |         04c0: 01 2e 01 30 01 31 01 33 01 34 01 36 01 38 01 39 [...0.1.3.4.6.8.9]
  |         04d0: 01 3b 01 3c 01 3e 01 40 01 41 01 43 01 45 01 46 [.;.<.>.@.A.C.E.F]
  |         04e0: 01 48 01 4a 01 4b 01 4d 01 4f 01 50 01 52 01 54 [.H.J.K.M.O.P.R.T]
  |         04f0: 01 55 01 57 01 59 01 5a 01 5c 01 5e 01 60 01 61 [.U.W.Y.Z.\.^.`.a]
  |         0500: 01 63 01 65 01 67 01 68 01 6a 01 6c 01 6e 01 6f [.c.e.g.h.j.l.n.o]
  |         0510: 01 71 01 73 01 75 01 76 01 78 01 7a 01 7c 01 7e [.q.s.u.v.x.z.|.~]
  |         0520: 01 7f 01 81 01 83 01 85 01 87 01 89 01 8a 01 8c [................]
  |         0530: 01 8e 01 90 01 92 01 94 01 96 01 97 01 99 01 9b [................]
  |         0540: 01 9d 01 9f 01 a1 01 a3 01 a5 01 a7 01 a9 01 ab [................]
  |         0550: 01 ac 01 ae 01 b0 01 b2 01 b4 01 b6 01 b8 01 ba [................]
  |         0560: 01 bc 01 be 01 c0 01 c2 01 c4 01 c6 01 c8 01 ca [................]
  |         0570: 01 cc 01 ce 01 d0 01 d2 01 d4 01 d6 01 d8 01 da [................]
  |         0580: 01 dc 01 de 01 e1 01 e3 01 e5 01 e7 01 e9 01 eb [................]
  |         0590: 01 ed 01 ef 01 f1 01 f3 01 f5 01 f8 01 fa 01 fc [................]
  |         05a0: 01 fe 02 00 02 02 02 04 02 07 02 09 02 0b 02 0d [................]
  |         05b0: 02 0f 02 12 02 14 02 16 02 18 02 1a 02 1d 02 1f [................]
  |         05c0: 02 21 02 23 02 25 02 28 02 2a 02 2c 02 2e 02 31 [.!.#.%.(.*.,...1]
  |         05d0: 02 33 02 35 02 38 02 3a 02 3c 02 3e 02 41 02 43 [.3.5.8.:.<.>.A.C]
  |         05e0: 02 45 02 48 02 4a 02 4c 02 4f 02 51 02 53 02 56 [.E.H.J.L.O.Q.S.V]
  |         05f0: 02 58 02 5a 02 5d 02 5f 02 61 02 64 02 66 02 69 [.X.Z.]._.a.d.f.i]
  |         0600: 02 6b 02 6d 02 70 02 72 02 75 02 77 02 79 02 7c [.k.m.p.r.u.w.y.|]
  |         0610: 02 7e 02 81 02 83 02 86 02 88 02 8b 02 8d 02 90 [.~..............]
  |         0620: 02 92 02 95 02 97 02 9a 02 9c 02 9f 02 a1 02 a4 [................]
  |         0630: 02 a6 02 a9 02 ab 02 ae 02 b0 02 b3 02 b5 02 b8 [................]
  |         0640: 02 bb 02 bd 02 c0 02 c2 02 c5 02 c8 02 ca 02 cd [................]
  |         0650: 02 cf 02 d2 02 d5 02 d7 02 da 02 dd 02 df 02 e2 [................]
  |         0660: 02 e4 02 e7 02 ea 02 ec 02 ef 02 f2 02 f5 02 f7 [................]
  |         0670: 02 fa 02 fd 02 ff 03 02 03 05 03 08 03 0a 03 0d [................]
  |         0680: 03 10 03 13 03 15 03 18 03 1b 03 1e 03 20 03 23 [............. .#]
  |         0690: 03 26 03 29 03 2c 03 2e 03 31 03 34 03 37 03 3a [.&.).,...1.4.7.:]
  |         06a0: 03 3d 03 3f 03 42 03 45 03 48 03 4b 03 4e 03 51 [.=.?.B.E.H.K.N.Q]
  |         06b0: 03 54 03 56 03 59 03 5c 03 5f 03 62 03 65 03 68 [.T.V.Y.\._.b.e.h]
  |         06c0: 03 6b 03 6e 03 71 03 74 03 77 03 7a 03 7d 03 80 [.k.n.q.t.w.z.}..]
  |         06d0: 03 82 03 85 03 88 03 8b 03 8e 03 91 03 94 03 98 [................]
  |         06e0: 03 9b 03 9e 03 a1 03 a4 03 a7 03 aa 03 ad 03 b0 [................]
  |         06f0: 03 b3 03 b6 03 b9 03 bc 03 bf 03 c2 03 c5 03 c9 [................]
  |         0700: 03 cc 03 cf 03 d2 03 d5 03 d8 03 db 03 df 03 e2 [................]
  |         0710: 03 e5 03 e8 03 eb 03 ee 03 f2 03 f5 03 f8 03 fb [................]
  |         0720: 03 fe 04 02 04 05 04 08 04 0b 04 0f 04 12 04 15 [................]
  |         0730: 04 18 04 1c 04 1f 04 22 04 25 04 29 04 2c 04 2f [.......".%.).,./]
  |         0740: 04 33 04 36 04 39 04 3d 04 40 04 43 04 47 04 4a [.3.6.9.=.@.C.G.J]
  |         0750: 04 4d 04 51 04 54 04 57 04 5b 04 5e 04 62 04 65 [.M.Q.T.W.[.^.b.e]
  |         0760: 04 68 04 6c 04 6f 04 73 04 76 04 79 04 7d 04 80 [.h.l.o.s.v.y.}..]
  |         0770: 04 84 04 87 04 8b 04 8e 04 92 04 95 04 99 04 9c [................]
  |         0780: 04 a0 04 a3 04 a7 04 aa 04 ae 04 b1 04 b5 04 b8 [................]
  |         0790: 04 bc 04 bf 04 c3 04 c6 04 ca 04 ce 04 d1 04 d5 [................]
  |         07a0: 04 d8 04 dc 04 e0 04 e3 04 e7 04 ea 04 ee 04 f2 [................]
  |         07b0: 04 f5 04 f9 04 fd 05 00 05 04 05 08 05 0b 05 0f [................]
  |         07c0: 05 13 05 16 05 1a 05 1e 05 22 05 25 05 29 05 2d [.........".%.).-]
  |         07d0: 05 31 05 34 05 38 05 3c 05 40 05 43 05 47 05 4b [.1.4.8.<.@.C.G.K]
  |         07e0: 05 4f 05 52 05 56 05 5a 05 5e 05 62 05 66 05 69 [.O.R.V.Z.^.b.f.i]
  |         07f0: 05 6d 05 71 05 75 05 79 05 7d 05 81 05 84 05 88 [.m.q.u.y.}......]
  |         0800: 05 8c 05 90 05 94 05 98 05 9c 05 a0 05 a4 05 a8 [................]
  |         0810: 05 ac 05 af 05 b3 05 b7 05 bb 05 bf 05 c3 05 c7 [................]
  |         0820: 05 cb 05 cf 05 d3 05 d7 05 db 05 df 05 e3 05 e7 [................]
  |         0830: 05 eb 05 ef 05 f4 05 f8 05 fc 06 00 06 04 06 08 [................]
  |         0840: 06 0c 06 10 06 14 06 18 06 1c 06 21 06 25 06 29 [...........!.%.)]
  |         0850: 06 2d 06 31 06 35 06 39 06 3e 06 42 06 46 06 4a [.-.1.5.9.>.B.F.J]
  |         0860: 06 4e 06 53 06 57 06 5b 06 5f 06 63 06 68 06 6c [.N.S.W.[._.c.h.l]
  |         0870: 06 70 06 74 06 79 06 7d 06 81 06 85 06 8a 06 8e [.p.t.y.}........]
  |         0880: 06 92 06 97 06 9b 06 9f 06 a4 06 a8 06 ac 06 b1 [................]
  |         0890: 06 b5 06 b9 06 be 06 c2 06 c6 06 cb 06 cf 06 d4 [................]
  |         08a0: 06 d8 06 dc 06 e1 06 e5 06 ea 06 ee 06 f2 06 f7 [................]
  |         08b0: 06 fb 07 00 07 04 07 09 07 0d 07 12 07 16 07 1b [................]
  |         08c0: 07 1f 07 24 07 28 07 2d 07 31 07 36 07 3a 07 3f [...$.(.-.1.6.:.?]
  |         08d0: 07 43 07 48 07 4d 07 51 07 56 07 5a 07 5f 07 63 [.C.H.M.Q.V.Z._.c]
  |         08e0: 07 68 07 6d 07 71 07 76 07 7b 07 7f 07 84 07 89 [.h.m.q.v.{......]
  |         08f0: 07 8d 07 92 07 97 07 9b 07 a0 07 a5 07 a9 07 ae [................]
  |         0900: 07 b3 07 b7 07 bc 07 c1 07 c6 07 ca 07 cf 07 d4 [................]
  |         0910: 07 d9 07 dd 07 e2 07 e7 07 ec 07 f1 07 f5 07 fa [................]
  |         0920: 07 ff 08 04 08 09 08 0d 08 12 08 17 08 1c 08 21 [...............!]
  |         0930: 08 26 08 2b 08 2f 08 34 08 39 08 3e 08 43 08 48 [.&.+./.4.9.>.C.H]
  |         0940: 08 4d 08 52 08 57 08 5c 08 61 08 66 08 6b 08 70 [.M.R.W.\.a.f.k.p]
  |         0950: 08 75 08 7a 08 7f 08 84 08 89 08 8e 08 93 08 98 [.u.z............]
  |         0960: 08 9d 08 a2 08 a7 08 ac 08 b1 08 b6 08 bb 08 c0 [................]
  |         0970: 08 c5 08 ca 08 cf 08 d4 08 d9 08 df 08 e4 08 e9 [................]
  |         0980: 08 ee 08 f3 08 f8 08 fd 09 03 09 08 09 0d 09 12 [................]
  |         0990: 09 17 09 1d 09 22 09 27 09 2c 09 31 09 37 09 3c [.....".'.,.1.7.<]
  |         09a0: 09 41 09 46 09 4c 09 51 09 56 09 5b 09 61 09 66 [.A.F.L.Q.V.[.a.f]
  |         09b0: 09 6b 09 71 09 76 09 7b 09 81 09 86 09 8b 09 91 [.k.q.v.{........]
  |         09c0: 09 96 09 9b 09 a1 09 a6 09 ab 09 b1 09 b6 09 bc [................]
  |         09d0: 09 c1 09 c6 09 cc 09 d1 09 d7 09 dc 09 e2 09 e7 [................]
  |         09e0: 09 ed 09 f2 09 f8 09 fd 0a 02 0a 08 0a 0d 0a 13 [................]
  |         09f0: 0a 19 0a 1e 0a 24 0a 29 0a 2f 0a 34 0a 3a 0a 3f [.....$.)./.4.:.?]
  |         0a00: 0a 45 0a 4a 0a 50 0a 56 0a 5b 0a 61 0a 66 0a 6c [.E.J.P.V.[.a.f.l]
  |         0a10: 0a 72 0a 77 0a 7d 0a 83 0a 88 0a 8e 0a 94 0a 99 [.r.w.}..........]
  |         0a20: 0a 9f 0a a5 0a aa 0a b0 0a b6 0a bc 0a c1 0a c7 [................]
  |         0a30: 0a cd 0a d3 0a d8 0a de 0a e4 0a ea 0a ef 0a f5 [................]
  |         0a40: 0a fb 0b 01 0b 07 0b 0c 0b 12 0b 18 0b 1e 0b 24 [...............$]
  |         0a50: 0b 2a 0b 2f 0b 35 0b 3b 0b 41 0b 47 0b 4d 0b 53 [.*./.5.;.A.G.M.S]
  |         0a60: 0b 59 0b 5f 0b 64 0b 6a 0b 70 0b 76 0b 7c 0b 82 [.Y._.d.j.p.v.|..]
  |         0a70: 0b 88 0b 8e 0b 94 0b 9a 0b a0 0b a6 0b ac 0b b2 [................]
  |         0a80: 0b b8 0b be 0b c4 0b ca 0b d0 0b d6 0b dc 0b e2 [................]
  |         0a90: 0b e9 0b ef 0b f5 0b fb 0c 01 0c 07 0c 0d 0c 13 [................]
  |         0aa0: 0c 19 0c 20 0c 26 0c 2c 0c 32 0c 38 0c 3e 0c 45 [... .&.,.2.8.>.E]
  |         0ab0: 0c 4b 0c 51 0c 57 0c 5d 0c 64 0c 6a 0c 70 0c 76 [.K.Q.W.].d.j.p.v]
  |         0ac0: 0c 7d 0c 83 0c 89 0c 8f 0c 96 0c 9c 0c a2 0c a8 [.}..............]
  |         [snip 6172 bytes]
PNG iTXt (8468 bytes):
      4ded: 58 4d 4c 3a 63 6f 6d 2e 61 64 6f 62 65 2e 78 6d [XML:com.adobe.xm]
      4dfd: 70 00 00 00 00 00 3c 3f 78 70 61 63 6b 65 74 20 [p.....<?xpacket ]
      4e0d: 62 65 67 69 6e 3d 22 ef bb bf 22 20 69 64 3d 22 [begin="..." id="]
      4e1d: 57 35 4d 30 4d 70 43 65 68 69 48 7a 72 65 53 7a [W5M0MpCehiHzreSz]
      4e2d: 4e 54 63 7a 6b 63 39 64 22 3f 3e 0a 3c 78 3a 78 [NTczkc9d"?>.<x:x]
      4e3d: 6d 70 6d 65 74 61 20 78 6d 6c 6e 73 3a 78 3d 22 [mpmeta xmlns:x="]
      4e4d: 61 64 6f 62 65 3a 6e 73 3a 6d 65 74 61 2f 22 20 [adobe:ns:meta/" ]
      4e5d: 78 3a 78 6d 70 74 6b 3d 22 58 4d 50 20 43 6f 72 [x:xmptk="XMP Cor]
      4e6d: 65 20 34 2e 34 2e 30 2d 45 78 69 76 32 22 3e 0a [e 4.4.0-Exiv2">.]
      4e7d: 20 3c 72 64 66 3a 52 44 46 20 78 6d 6c 6e 73 3a [ <rdf:RDF xmlns:]
      4e8d: 72 64 66 3d 22 68 74 74 70 3a 2f 2f 77 77 77 2e [rdf="http://www.]
      4e9d: 77 33 2e 6f 72 67 2f 31 39 39 39 2f 30 32 2f 32 [w3.org/1999/02/2]
      4ead: 32 2d 72 64 66 2d 73 79 6e 74 61 78 2d 6e 73 23 [2-rdf-syntax-ns#]
      4ebd: 22 3e 0a 20 20 3c 72 64 66 3a 44 65 73 63 72 69 [">.  <rdf:Descri]
      4ecd: 70 74 69 6f 6e 20 72 64 66 3a 61 62 6f 75 74 3d [ption rdf:about=]
      4edd: 22 22 0a 20 20 20 20 78 6d 6c 6e 73 3a 64 61 72 ["".    xmlns:dar]
      4eed: 6b 74 61 62 6c 65 3d 22 68 74 74 70 3a 2f 2f 64 [ktable="http://d]
      4efd: 61 72 6b 74 61 62 6c 65 2e 73 66 2e 6e 65 74 2f [arktable.sf.net/]
      4f0d: 22 0a 20 20 20 20 78 6d 6c 6e 73 3a 78 6d 70 4d [".    xmlns:xmpM]
      4f1d: 4d 3d 22 68 74 74 70 3a 2f 2f 6e 73 2e 61 64 6f [M="http://ns.ado]
      4f2d: 62 65 2e 63 6f 6d 2f 78 61 70 2f 31 2e 30 2f 6d [be.com/xap/1.0/m]
      4f3d: 6d 2f 22 0a 20 20 20 20 78 6d 6c 6e 73 3a 73 74 [m/".    xmlns:st]
      4f4d: 45 76 74 3d 22 68 74 74 70 3a 2f 2f 6e 73 2e 61 [Evt="http://ns.a]
      4f5d: 64 6f 62 65 2e 63 6f 6d 2f 78 61 70 2f 31 2e 30 [dobe.com/xap/1.0]
      4f6d: 2f 73 54 79 70 65 2f 52 65 73 6f 75 72 63 65 45 [/sType/ResourceE]
      4f7d: 76 65 6e 74 23 22 0a 20 20 20 20 78 6d 6c 6e 73 [vent#".    xmlns]
      4f8d: 3a 64 63 3d 22 68 74 74 70 3a 2f 2f 70 75 72 6c [:dc="http://purl]
      4f9d: 2e 6f 72 67 2f 64 63 2f 65 6c 65 6d 65 6e 74 73 [.org/dc/elements]
      4fad: 2f 31 2e 31 2f 22 0a 20 20 20 20 78 6d 6c 6e 73 [/1.1/".    xmlns]
      4fbd: 3a 65 78 69 66 3d 22 68 74 74 70 3a 2f 2f 6e 73 [:exif="http://ns]
      4fcd: 2e 61 64 6f 62 65 2e 63 6f 6d 2f 65 78 69 66 2f [.adobe.com/exif/]
      4fdd: 31 2e 30 2f 22 0a 20 20 20 20 78 6d 6c 6e 73 3a [1.0/".    xmlns:]
      4fed: 47 49 4d 50 3d 22 68 74 74 70 3a 2f 2f 77 77 77 [GIMP="http://www]
      4ffd: 2e 67 69 6d 70 2e 6f 72 67 2f 78 6d 70 2f 22 0a [.gimp.org/xmp/".]
      500d: 20 20 20 20 78 6d 6c 6e 73 3a 6c 72 3d 22 68 74 [    xmlns:lr="ht]
      501d: 74 70 3a 2f 2f 6e 73 2e 61 64 6f 62 65 2e 63 6f [tp://ns.adobe.co]
      502d: 6d 2f 6c 69 67 68 74 72 6f 6f 6d 2f 31 2e 30 2f [m/lightroom/1.0/]
      503d: 22 0a 20 20 20 20 78 6d 6c 6e 73 3a 74 69 66 66 [".    xmlns:tiff]
      504d: 3d 22 68 74 74 70 3a 2f 2f 6e 73 2e 61 64 6f 62 [="http://ns.adob]
      505d: 65 2e 63 6f 6d 2f 74 69 66 66 2f 31 2e 30 2f 22 [e.com/tiff/1.0/"]
      506d: 0a 20 20 20 20 78 6d 6c 6e 73 3a 78 6d 70 3d 22 [.    xmlns:xmp="]
      507d: 68 74 74 70 3a 2f 2f 6e 73 2e 61 64 6f 62 65 2e [http://ns.adobe.]
      508d: 63 6f 6d 2f 78 61 70 2f 31 2e 30 2f 22 0a 20 20 [com/xap/1.0/".  ]
      509d: 20 64 61 72 6b 74 61 62 6c 65 3a 61 75 74 6f 5f [ darktable:auto_]
      50ad: 70 72 65 73 65 74 73 5f 61 70 70 6c 69 65 64 3d [presets_applied=]
      50bd: 22 31 22 0a 20 20 20 64 61 72 6b 74 61 62 6c 65 ["1".   darktable]
      50cd: 3a 68 69 73 74 6f 72 79 5f 65 6e 64 3d 22 31 32 [:history_end="12]
      50dd: 22 0a 20 20 20 64 61 72 6b 74 61 62 6c 65 3a 72 [".   darktable:r]
      50ed: 61 77 5f 70 61 72 61 6d 73 3d 22 30 22 0a 20 20 [aw_params="0".  ]
      50fd: 20 64 61 72 6b 74 61 62 6c 65 3a 78 6d 70 5f 76 [ darktable:xmp_v]
      510d: 65 72 73 69 6f 6e 3d 22 32 22 0a 20 20 20 78 6d [ersion="2".   xm]
      511d: 70 4d 4d 3a 44 65 72 69 76 65 64 46 72 6f 6d 3d [pMM:DerivedFrom=]
      512d: 22 5f 4d 47 5f 39 36 30 34 2e 43 52 32 22 0a 20 ["_MG_9604.CR2". ]
      513d: 20 20 78 6d 70 4d 4d 3a 44 6f 63 75 6d 65 6e 74 [  xmpMM:Document]
      514d: 49 44 3d 22 67 69 6d 70 3a 64 6f 63 69 64 3a 67 [ID="gimp:docid:g]
      515d: 69 6d 70 3a 64 61 62 35 36 65 65 63 2d 34 65 37 [imp:dab56eec-4e7]
      516d: 39 2d 34 64 30 34 2d 38 62 33 63 2d 33 64 30 30 [9-4d04-8b3c-3d00]
      517d: 30 62 63 61 62 63 30 61 22 0a 20 20 20 78 6d 70 [0bcabc0a".   xmp]
      518d: 4d 4d 3a 49 6e 73 74 61 6e 63 65 49 44 3d 22 78 [MM:InstanceID="x]
      519d: 6d 70 2e 69 69 64 3a 66 31 34 38 38 62 63 35 2d [mp.iid:f1488bc5-]
      51ad: 61 31 61 30 2d 34 38 36 61 2d 39 64 63 32 2d 34 [a1a0-486a-9dc2-4]
      51bd: 63 62 32 36 32 31 61 31 61 63 64 22 0a 20 20 20 [cb2621a1acd".   ]
      51cd: 78 6d 70 4d 4d 3a 4f 72 69 67 69 6e 61 6c 44 6f [xmpMM:OriginalDo]
      51dd: 63 75 6d 65 6e 74 49 44 3d 22 78 6d 70 2e 64 69 [cumentID="xmp.di]
      51ed: 64 3a 63 62 39 37 61 62 39 63 2d 38 30 64 30 2d [d:cb97ab9c-80d0-]
      51fd: 34 65 65 30 2d 61 61 33 66 2d 39 36 66 30 66 64 [4ee0-aa3f-96f0fd]
      520d: 61 66 62 61 33 65 22 0a 20 20 20 64 63 3a 46 6f [afba3e".   dc:Fo]
      521d: 72 6d 61 74 3d 22 69 6d 61 67 65 2f 70 6e 67 22 [rmat="image/png"]
      522d: 0a 20 20 20 65 78 69 66 3a 47 50 53 4c 61 74 69 [.   exif:GPSLati]
      523d: 74 75 64 65 3d 22 35 35 2c 35 34 2e 36 37 38 39 [tude="55,54.6789]
      524d: 35 35 4e 22 0a 20 20 20 65 78 69 66 3a 47 50 53 [55N".   exif:GPS]
      525d: 4c 6f 6e 67 69 74 75 64 65 3d 22 33 36 2c 35 37 [Longitude="36,57]
      526d: 2e 38 30 38 39 31 34 45 22 0a 20 20 20 65 78 69 [.808914E".   exi]
      527d: 66 3a 47 50 53 56 65 72 73 69 6f 6e 49 44 3d 22 [f:GPSVersionID="]
      528d: 32 2e 32 2e 30 2e 30 22 0a 20 20 20 47 49 4d 50 [2.2.0.0".   GIMP]
      529d: 3a 41 50 49 3d 22 32 2e 30 22 0a 20 20 20 47 49 [:API="2.0".   GI]
      52ad: 4d 50 3a 50 6c 61 74 66 6f 72 6d 3d 22 4d 61 63 [MP:Platform="Mac]
      52bd: 20 4f 53 22 0a 20 20 20 47 49 4d 50 3a 54 69 6d [ OS".   GIMP:Tim]
      52cd: 65 53 74 61 6d 70 3d 22 31 36 38 33 35 35 36 39 [eStamp="16835569]
      52dd: 34 39 31 37 39 34 33 34 22 0a 20 20 20 47 49 4d [49179434".   GIM]
      52ed: 50 3a 56 65 72 73 69 6f 6e 3d 22 32 2e 31 30 2e [P:Version="2.10.]
      52fd: 33 30 22 0a 20 20 20 74 69 66 66 3a 4f 72 69 65 [30".   tiff:Orie]
      530d: 6e 74 61 74 69 6f 6e 3d 22 31 22 0a 20 20 20 78 [ntation="1".   x]
      531d: 6d 70 3a 43 72 65 61 74 6f 72 54 6f 6f 6c 3d 22 [mp:CreatorTool="]
      532d: 47 49 4d 50 20 32 2e 31 30 22 0a 20 20 20 78 6d [GIMP 2.10".   xm]
      533d: 70 3a 52 61 74 69 6e 67 3d 22 30 22 3e 0a 20 20 [p:Rating="0">.  ]
      534d: 20 3c 64 61 72 6b 74 61 62 6c 65 3a 68 69 73 74 [ <darktable:hist]
      535d: 6f 72 79 3e 0a 20 20 20 20 3c 72 64 66 3a 42 61 [ory>.    <rdf:Ba]
      536d: 67 3e 0a 20 20 20 20 20 3c 72 64 66 3a 6c 69 0a [g>.     <rdf:li.]
      537d: 20 20 20 20 20 20 64 61 72 6b 74 61 62 6c 65 3a [      darktable:]
      538d: 62 6c 65 6e 64 6f 70 5f 70 61 72 61 6d 73 3d 22 [blendop_params="]
      539d: 67 7a 31 31 65 4a 78 6a 59 47 42 67 6b 47 41 41 [gz11eJxjYGBgkGAA]
      53ad: 67 52 4e 4f 44 47 69 41 45 56 30 41 4a 32 69 77 [gRNODGiAEV0AJ2iw]
      53bd: 68 2b 43 52 78 51 63 41 35 71 49 5a 42 41 3d 3d [h+CRxQcA5qIZBA==]
      53cd: 22 0a 20 20 20 20 20 20 64 61 72 6b 74 61 62 6c [".      darktabl]
      53dd: 65 3a 62 6c 65 6e 64 6f 70 5f 76 65 72 73 69 6f [e:blendop_versio]
      53ed: 6e 3d 22 38 22 0a 20 20 20 20 20 20 64 61 72 6b [n="8".      dark]
      53fd: 74 61 62 6c 65 3a 65 6e 61 62 6c 65 64 3d 22 31 [table:enabled="1]
      540d: 22 0a 20 20 20 20 20 20 64 61 72 6b 74 61 62 6c [".      darktabl]
      541d: 65 3a 6d 6f 64 76 65 72 73 69 6f 6e 3d 22 31 22 [e:modversion="1"]
      542d: 0a 20 20 20 20 20 20 64 61 72 6b 74 61 62 6c 65 [.      darktable]
      543d: 3a 6d 75 6c 74 69 5f 70 72 69 6f 72 69 74 79 3d [:multi_priority=]
      544d: 22 30 22 0a 20 20 20 20 20 20 64 61 72 6b 74 61 ["0".      darkta]
      545d: 62 6c 65 3a 6f 70 65 72 61 74 69 6f 6e 3d 22 73 [ble:operation="s]
      546d: 68 61 72 70 65 6e 22 0a 20 20 20 20 20 20 64 61 [harpen".      da]
      547d: 72 6b 74 61 62 6c 65 3a 70 61 72 61 6d 73 3d 22 [rktable:params="]
      548d: 30 30 30 30 30 30 34 30 30 30 30 30 30 30 33 66 [000000400000003f]
      549d: 30 30 30 30 30 30 33 66 22 2f 3e 0a 20 20 20 20 [0000003f"/>.    ]
      54ad: 20 3c 72 64 66 3a 6c 69 0a 20 20 20 20 20 20 64 [ <rdf:li.      d]
      54bd: 61 72 6b 74 61 62 6c 65 3a 62 6c 65 6e 64 6f 70 [arktable:blendop]
      54cd: 5f 70 61 72 61 6d 73 3d 22 67 7a 31 31 65 4a 78 [_params="gz11eJx]
      54dd: 6a 59 47 42 67 6b 47 41 41 67 52 4e 4f 44 47 69 [jYGBgkGAAgRNODGi]
      54ed: 41 45 56 30 41 4a 32 69 77 68 2b 43 52 78 51 63 [AEV0AJ2iwh+CRxQc]
      54fd: 41 35 71 49 5a 42 41 3d 3d 22 0a 20 20 20 20 20 [A5qIZBA==".     ]
      550d: 20 64 61 72 6b 74 61 62 6c 65 3a 62 6c 65 6e 64 [ darktable:blend]
      551d: 6f 70 5f 76 65 72 73 69 6f 6e 3d 22 38 22 0a 20 [op_version="8". ]
      552d: 20 20 20 20 20 64 61 72 6b 74 61 62 6c 65 3a 65 [     darktable:e]
      553d: 6e 61 62 6c 65 64 3d 22 31 22 0a 20 20 20 20 20 [nabled="1".     ]
      554d: 20 64 61 72 6b 74 61 62 6c 65 3a 6d 6f 64 76 65 [ darktable:modve]
      555d: 72 73 69 6f 6e 3d 22 32 22 0a 20 20 20 20 20 20 [rsion="2".      ]
      556d: 64 61 72 6b 74 61 62 6c 65 3a 6d 75 6c 74 69 5f [darktable:multi_]
      557d: 70 72 69 6f 72 69 74 79 3d 22 30 22 0a 20 20 20 [priority="0".   ]
      558d: 20 20 20 64 61 72 6b 74 61 62 6c 65 3a 6f 70 65 [   darktable:ope]
      559d: 72 61 74 69 6f 6e 3d 22 66 6c 69 70 22 0a 20 20 [ration="flip".  ]
      55ad: 20 20 20 20 64 61 72 6b 74 61 62 6c 65 3a 70 61 [    darktable:pa]
      55bd: 72 61 6d 73 3d 22 66 66 66 66 66 66 66 66 22 2f [rams="ffffffff"/]
      55cd: 3e 0a 20 20 20 20 20 3c 72 64 66 3a 6c 69 0a 20 [>.     <rdf:li. ]
      [snip 6436 bytes]
  + [XMP directory, 8446 bytes]
  | XMPToolkit = XMP Core 4.4.0-Exiv2
  | Auto_presets_applied = 1
  | - Tag 'x:xmpmeta/rdf:RDF/rdf:Description/darktable:auto_presets_applied'
  | [adding XMP-darktable:auto_presets_applied]
  | History_end = 12
  | - Tag 'x:xmpmeta/rdf:RDF/rdf:Description/darktable:history_end'
  | [adding XMP-darktable:history_end]
  | Raw_params = 0
  | - Tag 'x:xmpmeta/rdf:RDF/rdf:Description/darktable:raw_params'
  | [adding XMP-darktable:raw_params]
  | Xmp_version = 2
  | - Tag 'x:xmpmeta/rdf:RDF/rdf:Description/darktable:xmp_version'
  | [adding XMP-darktable:xmp_version]
  | DerivedFrom = _MG_9604.CR2
  | - Tag 'x:xmpmeta/rdf:RDF/rdf:Description/xmpMM:DerivedFrom'
  | DocumentID = gimp:docid:gimp:dab56eec-4e79-4d04-8b3c-3d000bcabc0a
  | - Tag 'x:xmpmeta/rdf:RDF/rdf:Description/xmpMM:DocumentID'
  | InstanceID = xmp.iid:f1488bc5-a1a0-486a-9dc2-4cb2621a1acd
  | - Tag 'x:xmpmeta/rdf:RDF/rdf:Description/xmpMM:InstanceID'
  | OriginalDocumentID = xmp.did:cb97ab9c-80d0-4ee0-aa3f-96f0fdafba3e
  | - Tag 'x:xmpmeta/rdf:RDF/rdf:Description/xmpMM:OriginalDocumentID'
  | Format = image/png
  | - Tag 'x:xmpmeta/rdf:RDF/rdf:Description/dc:Format'
  | [adding XMP-dc:Format]
  | GPSLatitude = 55,54.678955N
  | - Tag 'x:xmpmeta/rdf:RDF/rdf:Description/exif:GPSLatitude'
  | GPSLongitude = 36,57.808914E
  | - Tag 'x:xmpmeta/rdf:RDF/rdf:Description/exif:GPSLongitude'
  | GPSVersionID = 2.2.0.0
  | - Tag 'x:xmpmeta/rdf:RDF/rdf:Description/exif:GPSVersionID'
  | Api = 2.0
  | - Tag 'x:xmpmeta/rdf:RDF/rdf:Description/GIMP:API'
  | [adding XMP-GIMP:api]
  | Platform = Mac OS
  | - Tag 'x:xmpmeta/rdf:RDF/rdf:Description/GIMP:Platform'
  | [adding XMP-GIMP:Platform]
  | TimeStamp = 1683556949179434
  | - Tag 'x:xmpmeta/rdf:RDF/rdf:Description/GIMP:TimeStamp'
  | [adding XMP-GIMP:TimeStamp]
  | Version = 2.10.30
  | - Tag 'x:xmpmeta/rdf:RDF/rdf:Description/GIMP:Version'
  | [adding XMP-GIMP:Version]
  | Orientation = 1
  | - Tag 'x:xmpmeta/rdf:RDF/rdf:Description/tiff:Orientation'
  | CreatorTool = GIMP 2.10
  | - Tag 'x:xmpmeta/rdf:RDF/rdf:Description/xmp:CreatorTool'
  | Rating = 0
  | - Tag 'x:xmpmeta/rdf:RDF/rdf:Description/xmp:Rating'
  | HistoryBlendop_params = gz11eJxjYGBgkGAAgRNODGiAEV0AJ2iwh+CRxQcA5qIZBA==
  | - Tag 'x:xmpmeta/rdf:RDF/rdf:Description/darktable:history/rdf:Bag/rdf:li 10/darktable:blendop_params'
  | [adding XMP-darktable:historyBlendop_params] (history/blendop_params)
  | HistoryBlendop_version = 8
  | - Tag 'x:xmpmeta/rdf:RDF/rdf:Description/darktable:history/rdf:Bag/rdf:li 10/darktable:blendop_version'
  | [adding XMP-darktable:historyBlendop_version] (history/blendop_version)
  | HistoryEnabled = 1
  | - Tag 'x:xmpmeta/rdf:RDF/rdf:Description/darktable:history/rdf:Bag/rdf:li 10/darktable:enabled'
  | [adding XMP-darktable:historyEnabled] (history/enabled)
  | HistoryModversion = 1
  | - Tag 'x:xmpmeta/rdf:RDF/rdf:Description/darktable:history/rdf:Bag/rdf:li 10/darktable:modversion'
  | [adding XMP-darktable:historyModversion] (history/modversion)
  | HistoryMulti_priority = 0
  | - Tag 'x:xmpmeta/rdf:RDF/rdf:Description/darktable:history/rdf:Bag/rdf:li 10/darktable:multi_priority'
  | [adding XMP-darktable:historyMulti_priority] (history/multi_priority)
  | HistoryOperation = sharpen
  | - Tag 'x:xmpmeta/rdf:RDF/rdf:Description/darktable:history/rdf:Bag/rdf:li 10/darktable:operation'
  | [adding XMP-darktable:historyOperation] (history/operation)
  | HistoryParams = 000000400000003f0000003f
  | - Tag 'x:xmpmeta/rdf:RDF/rdf:Description/darktable:history/rdf:Bag/rdf:li 10/darktable:params'
  | [adding XMP-darktable:historyParams] (history/params)
  | HistoryBlendop_params = gz11eJxjYGBgkGAAgRNODGiAEV0AJ2iwh+CRxQcA5qIZBA==
  | - Tag 'x:xmpmeta/rdf:RDF/rdf:Description/darktable:history/rdf:Bag/rdf:li 11/darktable:blendop_params'
  | HistoryBlendop_version = 8
  | - Tag 'x:xmpmeta/rdf:RDF/rdf:Description/darktable:history/rdf:Bag/rdf:li 11/darktable:blendop_version'
  | HistoryEnabled = 1
  | - Tag 'x:xmpmeta/rdf:RDF/rdf:Description/darktable:history/rdf:Bag/rdf:li 11/darktable:enabled'
  | HistoryModversion = 2
  | - Tag 'x:xmpmeta/rdf:RDF/rdf:Description/darktable:history/rdf:Bag/rdf:li 11/darktable:modversion'
  | HistoryMulti_priority = 0
  | - Tag 'x:xmpmeta/rdf:RDF/rdf:Description/darktable:history/rdf:Bag/rdf:li 11/darktable:multi_priority'
  | HistoryOperation = flip
  | - Tag 'x:xmpmeta/rdf:RDF/rdf:Description/darktable:history/rdf:Bag/rdf:li 11/darktable:operation'
  | HistoryParams = ffffffff
  | - Tag 'x:xmpmeta/rdf:RDF/rdf:Description/darktable:history/rdf:Bag/rdf:li 11/darktable:params'
  | HistoryBlendop_params = gz11eJxjYGBgkGAAgRNODGiAEV0AJ2iwh+CRxQcA5qIZBA==
  | - Tag 'x:xmpmeta/rdf:RDF/rdf:Description/darktable:history/rdf:Bag/rdf:li 12/darktable:blendop_params'
  | HistoryBlendop_version = 8
  | - Tag 'x:xmpmeta/rdf:RDF/rdf:Description/darktable:history/rdf:Bag/rdf:li 12/darktable:blendop_version'
  | HistoryEnabled = 1
  | - Tag 'x:xmpmeta/rdf:RDF/rdf:Description/darktable:history/rdf:Bag/rdf:li 12/darktable:enabled'
  | HistoryModversion = 5
  | - Tag 'x:xmpmeta/rdf:RDF/rdf:Description/darktable:history/rdf:Bag/rdf:li 12/darktable:modversion'
  | HistoryMulti_priority = 0
  | - Tag 'x:xmpmeta/rdf:RDF/rdf:Description/darktable:history/rdf:Bag/rdf:li 12/darktable:multi_priority'
  | HistoryOperation = basecurve
  | - Tag 'x:xmpmeta/rdf:RDF/rdf:Description/darktable:history/rdf:Bag/rdf:li 12/darktable:operation'
  | HistoryParams = gz09eJxjYIAAM6vnNnqyn22E9n235b6aa3cy6rVdRaK9/Y970fYf95bbMzA0QPEoGEqADYnNhCELiVMAudcSGA==
  | - Tag 'x:xmpmeta/rdf:RDF/rdf:Description/darktable:history/rdf:Bag/rdf:li 12/darktable:params'
  | HistoryBlendop_params = gz11eJxjYGBgkGAAgRNODGiAEV0AJ2iwh+CRxQcA5qIZBA==
  | - Tag 'x:xmpmeta/rdf:RDF/rdf:Description/darktable:history/rdf:Bag/rdf:li 13/darktable:blendop_params'
  | HistoryBlendop_version = 8
  | - Tag 'x:xmpmeta/rdf:RDF/rdf:Description/darktable:history/rdf:Bag/rdf:li 13/darktable:blendop_version'
  | HistoryEnabled = 1
  | - Tag 'x:xmpmeta/rdf:RDF/rdf:Description/darktable:history/rdf:Bag/rdf:li 13/darktable:enabled'
  | HistoryModversion = 5
  | - Tag 'x:xmpmeta/rdf:RDF/rdf:Description/darktable:history/rdf:Bag/rdf:li 13/darktable:modversion'
  | HistoryMulti_priority = 0
  | - Tag 'x:xmpmeta/rdf:RDF/rdf:Description/darktable:history/rdf:Bag/rdf:li 13/darktable:multi_priority'
  | HistoryOperation = clipping
  | - Tag 'x:xmpmeta/rdf:RDF/rdf:Description/darktable:history/rdf:Bag/rdf:li 13/darktable:operation'
  | HistoryParams = 00000000e040f23c4ee4053efce6413f80c75b3f0000000000000000cdcc4c3ecdcc4c3ecdcc4c3fcdcc4c3ecdcc4c3fcdcc4c3fcdcc4c3ecdcc4c3f000000000000000000000000010000000000000001000000
  | - Tag 'x:xmpmeta/rdf:RDF/rdf:Description/darktable:history/rdf:Bag/rdf:li 13/darktable:params'
  | HistoryBlendop_params = gz11eJxjYGBgkGAAgRNODGiAEV0AJ2iwh+CRxQcA5qIZBA==
  | - Tag 'x:xmpmeta/rdf:RDF/rdf:Description/darktable:history/rdf:Bag/rdf:li 14/darktable:blendop_params'
  | HistoryBlendop_version = 8
  | - Tag 'x:xmpmeta/rdf:RDF/rdf:Description/darktable:history/rdf:Bag/rdf:li 14/darktable:blendop_version'
  | HistoryEnabled = 1
  | - Tag 'x:xmpmeta/rdf:RDF/rdf:Description/darktable:history/rdf:Bag/rdf:li 14/darktable:enabled'
  | HistoryModversion = 5
  | - Tag 'x:xmpmeta/rdf:RDF/rdf:Description/darktable:history/rdf:Bag/rdf:li 14/darktable:modversion'
  | HistoryMulti_priority = 0
  | - Tag 'x:xmpmeta/rdf:RDF/rdf:Description/darktable:history/rdf:Bag/rdf:li 14/darktable:multi_priority'
  | HistoryOperation = clipping
  | - Tag 'x:xmpmeta/rdf:RDF/rdf:Description/darktable:history/rdf:Bag/rdf:li 14/darktable:operation'
  | HistoryParams = 00000000501a1c3d0c5cb53d9a16443feef9503f0000000000000000cdcc4c3ecdcc4c3ecdcc4c3fcdcc4c3ecdcc4c3fcdcc4c3fcdcc4c3ecdcc4c3f000000000000000000000000010000000000000001000000
  | - Tag 'x:xmpmeta/rdf:RDF/rdf:Description/darktable:history/rdf:Bag/rdf:li 14/darktable:params'
  | HistoryBlendop_params = gz11eJxjYGBgkGAAgRNODGiAEV0AJ2iwh+CRxQcA5qIZBA==
  | - Tag 'x:xmpmeta/rdf:RDF/rdf:Description/darktable:history/rdf:Bag/rdf:li 15/darktable:blendop_params'
  | HistoryBlendop_version = 8
  | - Tag 'x:xmpmeta/rdf:RDF/rdf:Description/darktable:history/rdf:Bag/rdf:li 15/darktable:blendop_version'
  | HistoryEnabled = 1
  | - Tag 'x:xmpmeta/rdf:RDF/rdf:Description/darktable:history/rdf:Bag/rdf:li 15/darktable:enabled'
  | HistoryModversion = 1
  | - Tag 'x:xmpmeta/rdf:RDF/rdf:Description/darktable:history/rdf:Bag/rdf:li 15/darktable:modversion'
  | HistoryMulti_priority = 0
  | - Tag 'x:xmpmeta/rdf:RDF/rdf:Description/darktable:history/rdf:Bag/rdf:li 15/darktable:multi_priority'
  | HistoryOperation = colisa
  | - Tag 'x:xmpmeta/rdf:RDF/rdf:Description/darktable:history/rdf:Bag/rdf:li 15/darktable:operation'
  | HistoryParams = d0ccccbdd0cccc3dd0cc4cbd
  | - Tag 'x:xmpmeta/rdf:RDF/rdf:Description/darktable:history/rdf:Bag/rdf:li 15/darktable:params'
  | HistoryBlendop_params = gz11eJxjYGBgkGAAgRNODGiAEV0AJ2iwh+CRxQcA5qIZBA==
  | - Tag 'x:xmpmeta/rdf:RDF/rdf:Description/darktable:history/rdf:Bag/rdf:li 16/darktable:blendop_params'
  | HistoryBlendop_version = 8
  | - Tag 'x:xmpmeta/rdf:RDF/rdf:Description/darktable:history/rdf:Bag/rdf:li 16/darktable:blendop_version'
  | HistoryEnabled = 1
  | - Tag 'x:xmpmeta/rdf:RDF/rdf:Description/darktable:history/rdf:Bag/rdf:li 16/darktable:enabled'
  | HistoryModversion = 3
  | - Tag 'x:xmpmeta/rdf:RDF/rdf:Description/darktable:history/rdf:Bag/rdf:li 16/darktable:modversion'
  | HistoryMulti_priority = 0
  | - Tag 'x:xmpmeta/rdf:RDF/rdf:Description/darktable:history/rdf:Bag/rdf:li 16/darktable:multi_priority'
  | HistoryOperation = bilat
  | - Tag 'x:xmpmeta/rdf:RDF/rdf:Description/darktable:history/rdf:Bag/rdf:li 16/darktable:operation'
  | HistoryParams = 01000000cdcccc3ecdcc8c3f0000803ecdcc4c3e
  | - Tag 'x:xmpmeta/rdf:RDF/rdf:Description/darktable:history/rdf:Bag/rdf:li 16/darktable:params'
  | HistoryBlendop_params = gz11eJxjYGBgkGAAgRNODGiAEV0AJ2iwh+CRxQcA5qIZBA==
  | - Tag 'x:xmpmeta/rdf:RDF/rdf:Description/darktable:history/rdf:Bag/rdf:li 17/darktable:blendop_params'
  | HistoryBlendop_version = 8
  | - Tag 'x:xmpmeta/rdf:RDF/rdf:Description/darktable:history/rdf:Bag/rdf:li 17/darktable:blendop_version'
  | HistoryEnabled = 1
  | - Tag 'x:xmpmeta/rdf:RDF/rdf:Description/darktable:history/rdf:Bag/rdf:li 17/darktable:enabled'
  | HistoryModversion = 1
  | - Tag 'x:xmpmeta/rdf:RDF/rdf:Description/darktable:history/rdf:Bag/rdf:li 17/darktable:modversion'
  | HistoryMulti_priority = 0
  | - Tag 'x:xmpmeta/rdf:RDF/rdf:Description/darktable:history/rdf:Bag/rdf:li 17/darktable:multi_priority'
  | HistoryOperation = sharpen
  | - Tag 'x:xmpmeta/rdf:RDF/rdf:Description/darktable:history/rdf:Bag/rdf:li 17/darktable:operation'
  | HistoryParams = 000000400000803f0000003f
  | - Tag 'x:xmpmeta/rdf:RDF/rdf:Description/darktable:history/rdf:Bag/rdf:li 17/darktable:params'
  | HistoryBlendop_params = gz11eJxjYGBgkGAAgRNODGiAEV0AJ2iwh+CRxQcA5qIZBA==
  | - Tag 'x:xmpmeta/rdf:RDF/rdf:Description/darktable:history/rdf:Bag/rdf:li 18/darktable:blendop_params'
  | HistoryBlendop_version = 8
  | - Tag 'x:xmpmeta/rdf:RDF/rdf:Description/darktable:history/rdf:Bag/rdf:li 18/darktable:blendop_version'
  | HistoryEnabled = 1
  | - Tag 'x:xmpmeta/rdf:RDF/rdf:Description/darktable:history/rdf:Bag/rdf:li 18/darktable:enabled'
  | HistoryModversion = 3
  | - Tag 'x:xmpmeta/rdf:RDF/rdf:Description/darktable:history/rdf:Bag/rdf:li 18/darktable:modversion'
  | HistoryMulti_priority = 0
  | - Tag 'x:xmpmeta/rdf:RDF/rdf:Description/darktable:history/rdf:Bag/rdf:li 18/darktable:multi_priority'
  | HistoryOperation = bilat
  | - Tag 'x:xmpmeta/rdf:RDF/rdf:Description/darktable:history/rdf:Bag/rdf:li 18/darktable:operation'
  | HistoryParams = 01000000cdcccc3ecdcc8c3f9a99993ecdcc4c3e
  | - Tag 'x:xmpmeta/rdf:RDF/rdf:Description/darktable:history/rdf:Bag/rdf:li 18/darktable:params'
  | HistoryBlendop_params = gz11eJxjYGBgkGAAgRNODGiAEV0AJ2iwh+CRxQcA5qIZBA==
  | - Tag 'x:xmpmeta/rdf:RDF/rdf:Description/darktable:history/rdf:Bag/rdf:li 19/darktable:blendop_params'
  | HistoryBlendop_version = 8
  | - Tag 'x:xmpmeta/rdf:RDF/rdf:Description/darktable:history/rdf:Bag/rdf:li 19/darktable:blendop_version'
  | HistoryEnabled = 1
  | - Tag 'x:xmpmeta/rdf:RDF/rdf:Description/darktable:history/rdf:Bag/rdf:li 19/darktable:enabled'
  | HistoryModversion = 2
  | - Tag 'x:xmpmeta/rdf:RDF/rdf:Description/darktable:history/rdf:Bag/rdf:li 19/darktable:modversion'
  | HistoryMulti_priority = 0
  | - Tag 'x:xmpmeta/rdf:RDF/rdf:Description/darktable:history/rdf:Bag/rdf:li 19/darktable:multi_priority'
  | HistoryOperation = levels
  | - Tag 'x:xmpmeta/rdf:RDF/rdf:Description/darktable:history/rdf:Bag/rdf:li 19/darktable:operation'
  | HistoryParams = 0000000000000000000048420000c842d9899d3dc332d53e8bac483f
  | - Tag 'x:xmpmeta/rdf:RDF/rdf:Description/darktable:history/rdf:Bag/rdf:li 19/darktable:params'
  | HistoryBlendop_params = gz11eJxjYGBgkGAAgRNODGiAEV0AJ2iwh+CRxQcA5qIZBA==
  | - Tag 'x:xmpmeta/rdf:RDF/rdf:Description/darktable:history/rdf:Bag/rdf:li 210/darktable:blendop_params'
  | HistoryBlendop_version = 8
  | - Tag 'x:xmpmeta/rdf:RDF/rdf:Description/darktable:history/rdf:Bag/rdf:li 210/darktable:blendop_version'
  | HistoryEnabled = 1
  | - Tag 'x:xmpmeta/rdf:RDF/rdf:Description/darktable:history/rdf:Bag/rdf:li 210/darktable:enabled'
  | HistoryModversion = 3
  | - Tag 'x:xmpmeta/rdf:RDF/rdf:Description/darktable:history/rdf:Bag/rdf:li 210/darktable:modversion'
  | HistoryMulti_priority = 0
  | - Tag 'x:xmpmeta/rdf:RDF/rdf:Description/darktable:history/rdf:Bag/rdf:li 210/darktable:multi_priority'
  | HistoryOperation = demosaic
  | - Tag 'x:xmpmeta/rdf:RDF/rdf:Description/darktable:history/rdf:Bag/rdf:li 210/darktable:operation'
  | HistoryParams = 0000000000000000000000000100000000000000
  | - Tag 'x:xmpmeta/rdf:RDF/rdf:Description/darktable:history/rdf:Bag/rdf:li 210/darktable:params'
  | HistoryBlendop_params = gz11eJxjYGBgkGAAgRNODGiAEV0AJ2iwh+CRxQcA5qIZBA==
  | - Tag 'x:xmpmeta/rdf:RDF/rdf:Description/darktable:history/rdf:Bag/rdf:li 211/darktable:blendop_params'
  | HistoryBlendop_version = 8
  | - Tag 'x:xmpmeta/rdf:RDF/rdf:Description/darktable:history/rdf:Bag/rdf:li 211/darktable:blendop_version'
  | HistoryEnabled = 1
  | - Tag 'x:xmpmeta/rdf:RDF/rdf:Description/darktable:history/rdf:Bag/rdf:li 211/darktable:enabled'
  | HistoryModversion = 1
  | - Tag 'x:xmpmeta/rdf:RDF/rdf:Description/darktable:history/rdf:Bag/rdf:li 211/darktable:modversion'
  | HistoryMulti_priority = 0
  | - Tag 'x:xmpmeta/rdf:RDF/rdf:Description/darktable:history/rdf:Bag/rdf:li 211/darktable:multi_priority'
  | HistoryOperation = cacorrect
  | - Tag 'x:xmpmeta/rdf:RDF/rdf:Description/darktable:history/rdf:Bag/rdf:li 211/darktable:operation'
  | HistoryParams = 32000000
  | - Tag 'x:xmpmeta/rdf:RDF/rdf:Description/darktable:history/rdf:Bag/rdf:li 211/darktable:params'
  | HistoryAction = saved
  | - Tag 'x:xmpmeta/rdf:RDF/rdf:Description/xmpMM:History/rdf:Seq/rdf:li 10/stEvt:action'
  | HistoryChanged = /
  | - Tag 'x:xmpmeta/rdf:RDF/rdf:Description/xmpMM:History/rdf:Seq/rdf:li 10/stEvt:changed'
  | HistoryInstanceID = xmp.iid:4ddb99b5-d320-4bd0-918a-8f68cea699a6
  | - Tag 'x:xmpmeta/rdf:RDF/rdf:Description/xmpMM:History/rdf:Seq/rdf:li 10/stEvt:instanceID'
  | HistorySoftwareAgent = Gimp 2.10 (Mac OS)
  | - Tag 'x:xmpmeta/rdf:RDF/rdf:Description/xmpMM:History/rdf:Seq/rdf:li 10/stEvt:softwareAgent'
  | HistoryWhen = 2023-05-08T16:42:29+02:00
  | - Tag 'x:xmpmeta/rdf:RDF/rdf:Description/xmpMM:History/rdf:Seq/rdf:li 10/stEvt:when'
  | Creator = dxfoto.ru
  | - Tag 'x:xmpmeta/rdf:RDF/rdf:Description/dc:creator/rdf:Seq/rdf:li 10'
  | Rights = CC-BY 3.0
  | - Tag 'x:xmpmeta/rdf:RDF/rdf:Description/dc:rights/rdf:Alt/rdf:li 10'
  | Subject = dxfoto
  | - Tag 'x:xmpmeta/rdf:RDF/rdf:Description/dc:subject/rdf:Bag/rdf:li 10'
  | Subject = published
  | - Tag 'x:xmpmeta/rdf:RDF/rdf:Description/dc:subject/rdf:Bag/rdf:li 11'
  | HierarchicalSubject = dxfoto|published
  | - Tag 'x:xmpmeta/rdf:RDF/rdf:Description/lr:hierarchicalSubject/rdf:Bag/rdf:li 10'
PNG bKGD (6 bytes):
      6f0d: 00 00 00 a4 00 ef                               [......]
  BackgroundColor = ..
  - Tag 'bKGD' (6 bytes):
      0000: 00 00 00 a4 00 ef                               [......]
PNG pHYs (9 bytes):
      6f1f: 00 00 2e 23 00 00 2e 23 01                      [...#...#.]
  + [BinaryData directory, 9 bytes, Big-endian]
  | PixelsPerUnitX = 11811
  | - Tag 0x0000 (4 bytes, int32u[1]):
  |     0000: 00 00 2e 23                                     [...#]
  | PixelsPerUnitY = 11811
  | - Tag 0x0004 (4 bytes, int32u[1]):
  |     0004: 00 00 2e 23                                     [...#]
  | PixelUnits = 1
  | - Tag 0x0008 (1 bytes, int8u[1]):
  |     0008: 01                                              [.]
PNG tIME (7 bytes):
      6f34: 07 e7 05 08 0e 2a 1c                            [.....*.]
  ModifyDate = .....*.
  - Tag 'tIME' (7 bytes):
      0000: 07 e7 05 08 0e 2a 1c                            [.....*.]
PNG IDAT (146 chunks, total 1192691 bytes)
PNG IEND (end of image)
