  ExifToolVersion = 13.59
  FileName = media_39.jpg
  Directory = C:/Users/micro/IdeaProjects/kim/src/commonTest/resources/de/stefan_oltmann/kim/testdata/full
  FileSize = 1217894
  FileModifyDate = 1776264331.86237
  FileAccessDate = 1786601300.46399
  FileCreateDate = 1776264331.85937
  FilePermissions = 33206
  FileType = JPEG
  FileTypeExtension = JPG
  MIMEType = image/jpeg
JPEG APP1 (22778 bytes):
      0006: 45 78 69 66 00 00 49 49 2a 00 08 00 00 00 0f 00 [Exif..II*.......]
      0016: 0e 01 02 00 20 00 00 00 c2 00 00 00 0f 01 02 00 [.... ...........]
      0026: 18 00 00 00 e2 00 00 00 10 01 02 00 11 00 00 00 [................]
      0036: fa 00 00 00 12 01 03 00 01 00 00 00 01 00 00 00 [................]
      0046: 1a 01 05 00 01 00 00 00 0c 01 00 00 1b 01 05 00 [................]
      0056: 01 00 00 00 14 01 00 00 28 01 03 00 01 00 00 00 [........(.......]
      0066: 02 00 00 00 31 01 02 00 20 00 00 00 1c 01 00 00 [....1... .......]
      [snip 22666 bytes]
  ExifByteOrder = II
  + [IFD0 directory with 15 entries, Little-endian]
  | 0)  ImageDescription = OLYMPUS DIGITAL CAMERA         
  |     - Tag 0x010e (32 bytes, string[32]):
  |         00ce: 4f 4c 59 4d 50 55 53 20 44 49 47 49 54 41 4c 20 [OLYMPUS DIGITAL ]
  |         00de: 43 41 4d 45 52 41 20 20 20 20 20 20 20 20 20 00 [CAMERA         .]
  | 1)  Make = OLYMPUS IMAGING CORP.  
  |     - Tag 0x010f (24 bytes, string[24]):
  |         00ee: 4f 4c 59 4d 50 55 53 20 49 4d 41 47 49 4e 47 20 [OLYMPUS IMAGING ]
  |         00fe: 43 4f 52 50 2e 20 20 00                         [CORP.  .]
  | 2)  Model = E-M10           
  |     - Tag 0x0110 (17 bytes, string[17]):
  |         0106: 45 2d 4d 31 30 20 20 20 20 20 20 20 20 20 20 20 [E-M10           ]
  |         0116: 00                                              [.]
  | 3)  Orientation = 1
  |     - Tag 0x0112 (2 bytes, int16u[1]):
  |         0042: 01 00                                           [..]
  | 4)  XResolution = 350 (350/1)
  |     - Tag 0x011a (8 bytes, rational64u[1]):
  |         0118: 5e 01 00 00 01 00 00 00                         [^.......]
  | 5)  YResolution = 350 (350/1)
  |     - Tag 0x011b (8 bytes, rational64u[1]):
  |         0120: 5e 01 00 00 01 00 00 00                         [^.......]
  | 6)  ResolutionUnit = 2
  |     - Tag 0x0128 (2 bytes, int16u[1]):
  |         0066: 02 00                                           [..]
  | 7)  Software = Version 1.2                    
  |     - Tag 0x0131 (32 bytes, string[32]):
  |         0128: 56 65 72 73 69 6f 6e 20 31 2e 32 20 20 20 20 20 [Version 1.2     ]
  |         0138: 20 20 20 20 20 20 20 20 20 20 20 20 20 20 20 00 [               .]
  | 8)  ModifyDate = 2016:06:18 16:38:46
  |     - Tag 0x0132 (20 bytes, string[20]):
  |         0148: 32 30 31 36 3a 30 36 3a 31 38 20 31 36 3a 33 38 [2016:06:18 16:38]
  |         0158: 3a 34 36 00                                     [:46.]
  | 9)  Artist = Fleur Hocking                                                  
  |     - Tag 0x013b (64 bytes, string[64]):
  |         015c: 46 6c 65 75 72 20 48 6f 63 6b 69 6e 67 20 20 20 [Fleur Hocking   ]
  |         016c: 20 20 20 20 20 20 20 20 20 20 20 20 20 20 20 20 [                ]
  |         017c: 20 20 20 20 20 20 20 20 20 20 20 20 20 20 20 20 [                ]
  |         018c: 20 20 20 20 20 20 20 20 20 20 20 20 20 20 20 00 [               .]
  | 10) YCbCrPositioning = 2
  |     - Tag 0x0213 (2 bytes, int16u[1]):
  |         0096: 02 00                                           [..]
  | 11) Copyright = Fleur Hocking                                                  
  |     - Tag 0x8298 (64 bytes, string[64] read as undef[64]):
  |         019c: 46 6c 65 75 72 20 48 6f 63 6b 69 6e 67 20 20 20 [Fleur Hocking   ]
  |         01ac: 20 20 20 20 20 20 20 20 20 20 20 20 20 20 20 20 [                ]
  |         01bc: 20 20 20 20 20 20 20 20 20 20 20 20 20 20 20 20 [                ]
  |         01cc: 20 20 20 20 20 20 20 20 20 20 20 20 20 20 20 00 [               .]
  | 12) ExifOffset (SubDirectory) -->
  |     - Tag 0x8769 (4 bytes, int32u[1]):
  |         00ae: e0 03 00 00                                     [....]
  | + [ExifIFD directory with 34 entries, Little-endian]
  | | 0)  ExposureTime = 0.0125 (1/80)
  | |     - Tag 0x829a (8 bytes, rational64u[1]):
  | |         058a: 01 00 00 00 50 00 00 00                         [....P...]
  | | 1)  FNumber = 5 (50/10)
  | |     - Tag 0x829d (8 bytes, rational64u[1]):
  | |         0592: 32 00 00 00 0a 00 00 00                         [2.......]
  | | 2)  ExposureProgram = 4
  | |     - Tag 0x8822 (2 bytes, int16u[1]):
  | |         040e: 04 00                                           [..]
  | | 3)  ISO = 400
  | |     - Tag 0x8827 (2 bytes, int16u[1]):
  | |         041a: 90 01                                           [..]
  | | 4)  SensitivityType = 1
  | |     - Tag 0x8830 (2 bytes, int16u[1]):
  | |         0426: 01 00                                           [..]
  | | 5)  ExifVersion = 0230
  | |     - Tag 0x9000 (4 bytes, undef[4]):
  | |         0432: 30 32 33 30                                     [0230]
  | | 6)  DateTimeOriginal = 2016:06:18 16:38:46
  | |     - Tag 0x9003 (20 bytes, string[20]):
  | |         059a: 32 30 31 36 3a 30 36 3a 31 38 20 31 36 3a 33 38 [2016:06:18 16:38]
  | |         05aa: 3a 34 36 00                                     [:46.]
  | | 7)  CreateDate = 2016:06:18 16:38:46
  | |     - Tag 0x9004 (20 bytes, string[20]):
  | |         05ae: 32 30 31 36 3a 30 36 3a 31 38 20 31 36 3a 33 38 [2016:06:18 16:38]
  | |         05be: 3a 34 36 00                                     [:46.]
  | | 8)  ComponentsConfiguration = 1 2 3 0
  | |     - Tag 0x9101 (4 bytes, undef[4] read as int8u[4]):
  | |         0456: 01 02 03 00                                     [....]
  | | 9)  ExposureCompensation = -1 (-10/10)
  | |     - Tag 0x9204 (8 bytes, rational64s[1]):
  | |         05c2: f6 ff ff ff 0a 00 00 00                         [........]
  | | 10) MaxApertureValue = 4 (1024/256)
  | |     - Tag 0x9205 (8 bytes, rational64u[1]):
  | |         05ca: 00 04 00 00 00 01 00 00                         [........]
  | | 11) MeteringMode = 5
  | |     - Tag 0x9207 (2 bytes, int16u[1]):
  | |         047a: 05 00                                           [..]
  | | 12) LightSource = 0
  | |     - Tag 0x9208 (2 bytes, int16u[1]):
  | |         0486: 00 00                                           [..]
  | | 13) Flash = 8
  | |     - Tag 0x9209 (2 bytes, int16u[1]):
  | |         0492: 08 00                                           [..]
  | | 14) FocalLength = 102 (102/1)
  | |     - Tag 0x920a (8 bytes, rational64u[1]):
  | |         05d2: 66 00 00 00 01 00 00 00                         [f.......]
  | | 15) MakerNoteOlympus2 (SubDirectory) -->
  | |     - Tag 0x927c (11914 bytes, undef[11914]):
  | |         05da: 4f 4c 59 4d 50 55 53 00 49 49 03 00 07 00 00 02 [OLYMPUS.II......]
  | |         05ea: 04 00 03 00 00 00 66 00 00 00 09 02 07 00 20 00 [......f....... .]
  | |         05fa: 00 00 72 00 00 00 10 20 0d 00 01 00 00 00 92 00 [..r.... ........]
  | |         060a: 00 00 20 20 0d 00 01 00 00 00 de 02 00 00 30 20 [..  ..........0 ]
  | |         061a: 0d 00 01 00 00 00 9e 09 00 00 40 20 0d 00 01 00 [..........@ ....]
  | |         062a: 00 00 6c 0a 00 00 50 20 0d 00 01 00 00 00 60 16 [..l...P ......`.]
  | |         063a: 00 00 00 00 00 00 00 00 00 00 00 00 00 00 00 00 [................]
  | |         064a: 00 00 4f 4c 59 4d 50 55 53 20 44 49 47 49 54 41 [..OLYMPUS DIGITA]
  | |         065a: 4c 20 43 41 4d 45 52 41 20 20 20 20 20 20 20 20 [L CAMERA        ]
  | |         066a: 20 00 19 00 00 00 07 00 04 00 00 00 30 31 30 30 [ ...........0100]
  | |         067a: 00 01 02 00 06 00 00 00 c4 01 00 00 01 01 02 00 [................]
  | |         068a: 20 00 00 00 ca 01 00 00 02 01 02 00 20 00 00 00 [ ........... ...]
  | |         069a: ea 01 00 00 03 01 05 00 01 00 00 00 0a 02 00 00 [................]
  | |         06aa: 04 01 04 00 01 00 00 00 01 12 00 00 01 02 01 00 [................]
  | |         06ba: 06 00 00 00 12 02 00 00 02 02 02 00 20 00 00 00 [............ ...]
  | |         06ca: 18 02 00 00 03 02 02 00 20 00 00 00 38 02 00 00 [........ ...8...]
  | |         06da: 04 02 04 00 01 00 00 00 04 10 00 00 05 02 03 00 [................]
  | |         06ea: 01 00 00 00 00 04 00 00 06 02 03 00 01 00 00 00 [................]
  | |         06fa: f9 04 00 00 07 02 03 00 01 00 00 00 28 00 00 00 [............(...]
  | |         070a: 08 02 03 00 01 00 00 00 96 00 00 00 0a 02 03 00 [................]
  | |         071a: 01 00 00 00 c2 04 00 00 0b 02 03 00 01 00 00 00 [................]
  | |         072a: 40 c1 00 00 01 03 01 00 06 00 00 00 58 02 00 00 [@...........X...]
  | |         073a: 02 03 02 00 20 00 00 00 5e 02 00 00 03 03 02 00 [.... ...^.......]
  | |         074a: 20 00 00 00 7e 02 00 00 04 03 04 00 01 00 00 00 [ ...~...........]
  | |         075a: 00 00 00 00 03 04 02 00 20 00 00 00 9e 02 00 00 [........ .......]
  | |         076a: 00 10 03 00 01 00 00 00 00 00 00 00 01 10 03 00 [................]
  | |         077a: 01 00 00 00 00 00 00 00 02 10 04 00 01 00 00 00 [................]
  | |         078a: 00 00 00 00 03 10 02 00 20 00 00 00 be 02 00 00 [........ .......]
  | |         079a: 00 00 00 00 53 30 30 35 31 00 56 35 50 46 31 37 [....S0051.V5PF17]
  | |         07aa: 35 32 33 20 20 20 20 20 20 20 20 20 20 20 20 20 [523             ]
  | |         07ba: 20 20 20 20 20 20 20 20 20 00 34 31 35 38 34 30 [         .415840]
  | |         07ca: 31 30 30 30 30 35 30 30 30 31 20 20 20 20 20 20 [1000050001      ]
  | |         07da: 20 20 20 20 20 20 20 20 20 00 70 08 00 00 64 00 [         .p...d.]
  | |         07ea: 00 00 00 00 14 10 00 00 41 42 4a 42 37 31 31 36 [........ABJB7116]
  | |         07fa: 38 00 00 00 00 00 00 00 00 00 00 00 00 00 00 00 [8...............]
  | |         080a: 00 00 00 00 00 00 00 00 4f 4c 59 4d 50 55 53 20 [........OLYMPUS ]
  | |         081a: 4d 2e 34 30 2d 31 35 30 6d 6d 20 46 34 2e 30 2d [M.40-150mm F4.0-]
  | |         082a: 35 2e 36 20 52 00 00 00 00 00 00 00 00 00 00 00 [5.6 R...........]
  | |         083a: 00 00 00 00 00 00 00 00 00 00 00 00 00 00 00 00 [................]
  | |         084a: 00 00 00 00 00 00 00 00 00 00 00 00 00 00 00 00 [................]
  | |         085a: 00 00 00 00 00 00 00 00 00 00 00 00 00 00 00 00 [................]
  | |         086a: 00 00 00 00 00 00 00 00 00 00 00 00 00 00 00 00 [................]
  | |         087a: 00 00 00 00 00 00 00 00 00 00 00 00 00 00 00 00 [................]
  | |         088a: 00 00 00 00 00 00 00 00 00 00 00 00 00 00 00 00 [................]
  | |         089a: 00 00 00 00 00 00 00 00 00 00 00 00 00 00 00 00 [................]
  | |         08aa: 00 00 00 00 00 00 00 00 00 00 00 00 00 00 43 00 [..............C.]
  | |         08ba: 00 00 07 00 04 00 00 00 30 31 30 30 00 01 04 00 [........0100....]
  | |         08ca: 01 00 00 00 01 00 00 00 01 01 04 00 01 00 00 00 [................]
  | |         08da: 8c 8f 12 00 02 01 04 00 01 00 00 00 af 7b 08 00 [.............{..]
  | |         08ea: 00 02 03 00 01 00 00 00 04 00 00 00 01 02 03 00 [................]
  | |         08fa: 01 00 00 00 00 00 00 00 02 02 03 00 01 00 00 00 [................]
  | |         090a: 05 00 00 00 03 02 0a 00 01 00 00 00 08 06 00 00 [................]
  | |         091a: 00 03 03 00 01 00 00 00 00 00 00 00 01 03 03 00 [................]
  | |         092a: 02 00 00 00 00 00 41 00 02 03 03 00 02 00 00 00 [......A.........]
  | |         093a: 01 00 40 00 03 03 03 00 01 00 00 00 01 00 00 00 [..@.............]
  | |         094a: 04 03 04 00 40 00 00 00 10 06 00 00 05 03 0a 00 [....@...........]
  | |         095a: 05 00 00 00 10 07 00 00 06 03 01 00 01 00 00 00 [................]
  | |         096a: 00 00 00 00 07 03 08 00 03 00 00 00 38 07 00 00 [............8...]
  | |         097a: 00 04 03 00 01 00 00 00 02 00 00 00 01 04 0a 00 [................]
  | |         098a: 01 00 00 00 3e 07 00 00 02 04 03 00 01 00 00 00 [....>...........]
  | |         099a: 00 00 00 00 03 04 03 00 01 00 00 00 00 00 00 00 [................]
  | |         09aa: 04 04 03 00 04 00 00 00 46 07 00 00 05 04 0a 00 [........F.......]
  | |         09ba: 04 00 00 00 4e 07 00 00 06 04 0a 00 04 00 00 00 [....N...........]
  | |         09ca: 6e 07 00 00 00 05 03 00 01 00 00 00 00 00 00 00 [n...............]
  | |         09da: 01 05 03 00 01 00 00 00 00 00 00 00 02 05 08 00 [................]
  | |         09ea: 02 00 00 00 00 00 00 00 03 05 08 00 03 00 00 00 [................]
  | |         09fa: 8e 07 00 00 04 05 03 00 01 00 00 00 00 00 00 00 [................]
  | |         0a0a: 05 05 08 00 03 00 00 00 94 07 00 00 06 05 08 00 [................]
  | |         0a1a: 03 00 00 00 9a 07 00 00 07 05 03 00 01 00 00 00 [................]
  | |         0a2a: 00 00 00 00 08 05 03 00 01 00 00 00 00 00 00 00 [................]
  | |         0a3a: 09 05 03 00 01 00 00 00 00 00 00 00 0a 05 03 00 [................]
  | |         0a4a: 01 00 00 00 08 00 00 00 0b 05 03 00 01 00 00 00 [................]
  | |         0a5a: 00 00 00 00 0c 05 03 00 01 00 00 00 00 00 00 00 [................]
  | |         0a6a: 0d 05 05 00 01 00 00 00 a0 07 00 00 0e 05 03 00 [................]
  | |         0a7a: 01 00 00 00 00 00 00 00 0f 05 08 00 04 00 00 00 [................]
  | |         0a8a: a8 07 00 00 20 05 03 00 02 00 00 00 02 00 02 00 [.... ...........]
  | |         0a9a: 21 05 08 00 03 00 00 00 b0 07 00 00 22 05 03 00 [!..........."...]
  | |         0aaa: 01 00 00 00 00 00 00 00 23 05 08 00 03 00 00 00 [........#.......]
  | |         0aba: b6 07 00 00 24 05 08 00 03 00 00 00 bc 07 00 00 [....$...........]
  | |         0aca: 25 05 08 00 01 00 00 00 00 00 00 00 26 05 08 00 [%...........&...]
  | |         0ada: 01 00 00 00 00 00 00 00 27 05 08 00 03 00 00 00 [........'.......]
  | |         0aea: c2 07 00 00 28 05 03 00 01 00 00 00 00 00 00 00 [....(...........]
  | |         0afa: 29 05 03 00 04 00 00 00 c8 07 00 00 2a 05 04 00 [)...........*...]
  | |         0b0a: 02 00 00 00 d0 07 00 00 2b 05 03 00 1e 00 00 00 [........+.......]
  | |         0b1a: d8 07 00 00 2d 05 08 00 03 00 00 00 14 08 00 00 [....-...........]
  | |         0b2a: 2e 05 08 00 0c 00 00 00 1a 08 00 00 2f 05 03 00 [............/...]
  | |         0b3a: 14 00 00 00 32 08 00 00 30 05 03 00 80 00 00 00 [....2...0.......]
  | |         0b4a: 5a 08 00 00 31 05 03 00 05 00 00 00 5a 09 00 00 [Z...1.......Z...]
  | |         0b5a: 32 05 08 00 06 00 00 00 64 09 00 00 00 06 03 00 [2.......d.......]
  | |         0b6a: 05 00 00 00 70 09 00 00 01 06 03 00 02 00 00 00 [....p...........]
  | |         0b7a: 00 00 00 00 04 06 04 00 01 00 00 00 04 00 00 00 [................]
  | |         0b8a: 05 06 04 00 02 00 00 00 7a 09 00 00 00 08 03 00 [........z.......]
  | |         0b9a: 01 00 00 00 01 00 00 00 02 08 03 00 01 00 00 00 [................]
  | |         0baa: 00 00 00 00 00 09 03 00 01 00 00 00 00 00 00 00 [................]
  | |         0bba: 01 09 09 00 02 00 00 00 82 09 00 00 02 09 03 00 [................]
  | |         0bca: 01 00 00 00 00 00 00 00 08 09 02 00 14 00 00 00 [................]
  | |         0bda: 8a 09 00 00 00 00 00 00 00 00 00 00 64 00 00 00 [............d...]
  | |         0bea: 89 8a 75 73 00 00 00 00 00 00 00 00 00 00 00 00 [..us............]
  | |         0bfa: 00 00 00 00 00 00 00 00 00 00 00 00 00 00 00 00 [................]
  | |         0c0a: 00 00 00 00 00 00 00 00 00 00 00 00 00 00 00 00 [................]
  | |         0c1a: 00 00 00 00 00 00 00 00 00 00 00 00 00 00 00 00 [................]
  | |         0c2a: 00 00 00 00 00 00 00 00 00 00 00 00 00 00 00 00 [................]
  | |         0c3a: 00 00 00 00 00 00 00 00 00 00 00 00 00 00 00 00 [................]
  | |         0c4a: 00 00 00 00 00 00 00 00 00 00 00 00 00 00 00 00 [................]
  | |         0c5a: 00 00 00 00 00 00 00 00 00 00 00 00 00 00 00 00 [................]
  | |         0c6a: 00 00 00 00 00 00 00 00 00 00 00 00 00 00 00 00 [................]
  | |         0c7a: 00 00 00 00 00 00 00 00 00 00 00 00 00 00 00 00 [................]
  | |         0c8a: 00 00 00 00 00 00 00 00 00 00 00 00 00 00 00 00 [................]
  | |         0c9a: 00 00 00 00 00 00 00 00 00 00 00 00 00 00 00 00 [................]
  | |         0caa: 00 00 00 00 00 00 00 00 00 00 00 00 00 00 00 00 [................]
  | |         0cba: 00 00 00 00 00 00 00 00 00 00 00 00 00 00 00 00 [................]
  | |         0cca: 00 00 00 00 00 00 00 00 00 00 00 00 00 00 00 00 [................]
  | |         0cda: 00 00 00 00 00 00 00 00 00 00 00 00 00 00 00 00 [................]
  | |         0cea: 00 00 00 00 00 00 00 00 3f 01 00 00 80 02 00 00 [........?.......]
  | |         0cfa: ef 00 00 00 e0 01 00 00 3f 01 00 00 80 02 00 00 [........?.......]
  | |         0d0a: ef 00 00 00 e0 01 00 00 00 00 00 00 00 00 00 00 [................]
  | |         0d1a: 00 00 00 01 00 00 00 00 00 00 00 00 00 00 00 00 [................]
  | |         0d2a: 00 00 00 00 00 00 00 00 00 00 00 00 00 00 00 00 [................]
  | |         0d3a: 00 00 00 00 00 00 00 00 00 00 00 00 00 00 00 00 [................]
  | |         0d4a: 00 00 00 00 00 00 00 00 00 00 00 00 00 00 00 00 [................]
  | |         0d5a: 00 00 00 00 00 00 00 00 00 00 00 00 00 00 00 00 [................]
  | |         0d6a: fb ff 05 00 00 00 fb ff 05 00 00 00 fb ff 05 00 [................]
  | |         0d7a: 1b 00 00 00 0a 00 00 00 00 00 ff ff 01 00 00 00 [................]
  | |         0d8a: 00 00 fe ff 02 00 00 00 fe ff 02 00 00 00 fe ff [................]
  | |         0d9a: 02 00 00 00 fe ff 01 00 00 00 00 00 00 00 00 00 [................]
  | |         0daa: 3f 23 08 01 01 00 00 00 00 00 00 10 00 00 02 10 [?#..............]
  | |         0dba: b4 14 00 00 4c 1d 00 00 70 17 00 00 b8 0b 01 00 [....L...p.......]
  | |         [snip 9882 bytes]
  | | + [MakerNotes directory with 7 entries, Little-endian]
  | | | 0)  SpecialMode = 0 0 0
  | | |     - Tag 0x0200 (12 bytes, int32u[3]):
  | | |         0640: 00 00 00 00 00 00 00 00 00 00 00 00             [............]
  | | | 1)  CameraID = OLYMPUS DIGITAL CAMERA         
  | | |     - Tag 0x0209 (32 bytes, undef[32] read as string[32]):
  | | |         064c: 4f 4c 59 4d 50 55 53 20 44 49 47 49 54 41 4c 20 [OLYMPUS DIGITAL ]
  | | |         065c: 43 41 4d 45 52 41 20 20 20 20 20 20 20 20 20 00 [CAMERA         .]
  | | | 2)  EquipmentIFD (SubDirectory) -->
  | | |     - Tag 0x2010 (4 bytes, ifd[1]):
  | | |         0608: 92 00 00 00                                     [....]
  | | | + [MakerNotes directory with 25 entries, Little-endian]
  | | | | 0)  EquipmentVersion = 0100
  | | | |     - Tag 0x0000 (4 bytes, undef[4]):
  | | | |         0676: 30 31 30 30                                     [0100]
  | | | | 1)  CameraType2 = S0051
  | | | |     - Tag 0x0100 (6 bytes, string[6]):
  | | | |         079e: 53 30 30 35 31 00                               [S0051.]
  | | | | 2)  SerialNumber = V5PF17523                      
  | | | |     - Tag 0x0101 (32 bytes, string[32]):
  | | | |         07a4: 56 35 50 46 31 37 35 32 33 20 20 20 20 20 20 20 [V5PF17523       ]
  | | | |         07b4: 20 20 20 20 20 20 20 20 20 20 20 20 20 20 20 00 [               .]
  | | | | 3)  InternalSerialNumber = 4158401000050001               
  | | | |     - Tag 0x0102 (32 bytes, string[32]):
  | | | |         07c4: 34 31 35 38 34 30 31 30 30 30 30 35 30 30 30 31 [4158401000050001]
  | | | |         07d4: 20 20 20 20 20 20 20 20 20 20 20 20 20 20 20 00 [               .]
  | | | | 4)  FocalPlaneDiagonal = 21.6 (2160/100)
  | | | |     - Tag 0x0103 (8 bytes, rational64u[1]):
  | | | |         07e4: 70 08 00 00 64 00 00 00                         [p...d...]
  | | | | 5)  BodyFirmwareVersion = 4609
  | | | |     - Tag 0x0104 (4 bytes, int32u[1]):
  | | | |         06b2: 01 12 00 00                                     [....]
  | | | | 6)  LensType = 0 0 20 16 0 0
  | | | |     - Tag 0x0201 (6 bytes, int8u[6]):
  | | | |         07ec: 00 00 14 10 00 00                               [......]
  | | | | 7)  LensSerialNumber = ABJB71168
  | | | |     - Tag 0x0202 (32 bytes, string[32]):
  | | | |         07f2: 41 42 4a 42 37 31 31 36 38 00 00 00 00 00 00 00 [ABJB71168.......]
  | | | |         0802: 00 00 00 00 00 00 00 00 00 00 00 00 00 00 00 00 [................]
  | | | | 8)  LensModel = OLYMPUS M.40-150mm F4.0-5.6 R
  | | | |     - Tag 0x0203 (32 bytes, string[32]):
  | | | |         0812: 4f 4c 59 4d 50 55 53 20 4d 2e 34 30 2d 31 35 30 [OLYMPUS M.40-150]
  | | | |         0822: 6d 6d 20 46 34 2e 30 2d 35 2e 36 20 52 00 00 00 [mm F4.0-5.6 R...]
  | | | | 9)  LensFirmwareVersion = 4100
  | | | |     - Tag 0x0204 (4 bytes, int32u[1]):
  | | | |         06e2: 04 10 00 00                                     [....]
  | | | | 10) MaxApertureAtMinFocal = 1024
  | | | |     - Tag 0x0205 (2 bytes, int16u[1]):
  | | | |         06ee: 00 04                                           [..]
  | | | | 11) MaxApertureAtMaxFocal = 1273
  | | | |     - Tag 0x0206 (2 bytes, int16u[1]):
  | | | |         06fa: f9 04                                           [..]
  | | | | 12) MinFocalLength = 40
  | | | |     - Tag 0x0207 (2 bytes, int16u[1]):
  | | | |         0706: 28 00                                           [(.]
  | | | | 13) MaxFocalLength = 150
  | | | |     - Tag 0x0208 (2 bytes, int16u[1]):
  | | | |         0712: 96 00                                           [..]
  | | | | 14) MaxAperture = 1218
  | | | |     - Tag 0x020a (2 bytes, int16u[1]):
  | | | |         071e: c2 04                                           [..]
  | | | | 15) LensProperties = 49472
  | | | |     - Tag 0x020b (2 bytes, int16u[1]):
  | | | |         072a: 40 c1                                           [@.]
  | | | | 16) Extender = 0 0 0 0 0 0
  | | | |     - Tag 0x0301 (6 bytes, int8u[6]):
  | | | |         0832: 00 00 00 00 00 00                               [......]
  | | | | 17) ExtenderSerialNumber = 
  | | | |     - Tag 0x0302 (32 bytes, string[32]):
  | | | |         0838: 00 00 00 00 00 00 00 00 00 00 00 00 00 00 00 00 [................]
  | | | |         0848: 00 00 00 00 00 00 00 00 00 00 00 00 00 00 00 00 [................]
  | | | | 18) ExtenderModel = 
  | | | |     - Tag 0x0303 (32 bytes, string[32]):
  | | | |         0858: 00 00 00 00 00 00 00 00 00 00 00 00 00 00 00 00 [................]
  | | | |         0868: 00 00 00 00 00 00 00 00 00 00 00 00 00 00 00 00 [................]
  | | | | 19) ExtenderFirmwareVersion = 0
  | | | |     - Tag 0x0304 (4 bytes, int32u[1]):
  | | | |         075a: 00 00 00 00                                     [....]
  | | | | 20) ConversionLens = 
  | | | |     - Tag 0x0403 (32 bytes, string[32]):
  | | | |         0878: 00 00 00 00 00 00 00 00 00 00 00 00 00 00 00 00 [................]
  | | | |         0888: 00 00 00 00 00 00 00 00 00 00 00 00 00 00 00 00 [................]
  | | | | 21) FlashType = 0
  | | | |     - Tag 0x1000 (2 bytes, int16u[1]):
  | | | |         0772: 00 00                                           [..]
  | | | | 22) FlashModel = 0
  | | | |     - Tag 0x1001 (2 bytes, int16u[1]):
  | | | |         077e: 00 00                                           [..]
  | | | | 23) FlashFirmwareVersion = 0
  | | | |     - Tag 0x1002 (4 bytes, int32u[1]):
  | | | |         078a: 00 00 00 00                                     [....]
  | | | | 24) FlashSerialNumber = 
  | | | |     - Tag 0x1003 (32 bytes, string[32]):
  | | | |         0898: 00 00 00 00 00 00 00 00 00 00 00 00 00 00 00 00 [................]
  | | | |         08a8: 00 00 00 00 00 00 00 00 00 00 00 00 00 00 00 00 [................]
  | | | 3)  CameraSettingsIFD (SubDirectory) -->
  | | |     - Tag 0x2020 (4 bytes, ifd[1]):
  | | |         0614: de 02 00 00                                     [....]
  | | | + [MakerNotes directory with 67 entries, Little-endian]
  | | | | 0)  CameraSettingsVersion = 0100
  | | | |     - Tag 0x0000 (4 bytes, undef[4]):
  | | | |         08c2: 30 31 30 30                                     [0100]
  | | | | 1)  PreviewImageValid = 1
  | | | |     - Tag 0x0100 (4 bytes, int32u[1]):
  | | | |         08ce: 01 00 00 00                                     [....]
  | | | | 2)  PreviewImageStart = 1216396
  | | | |     - Tag 0x0101 (4 bytes, int32u[1]):
  | | | |         08da: 8c 8f 12 00                                     [....]
  | | | | 3)  PreviewImageLength = 555951
  | | | |     - Tag 0x0102 (4 bytes, int32u[1]):
  | | | |         08e6: af 7b 08 00                                     [.{..]
  | | | | 4)  ExposureMode = 4
  | | | |     - Tag 0x0200 (2 bytes, int16u[1]):
  | | | |         08f2: 04 00                                           [..]
  | | | | 5)  AELock = 0
  | | | |     - Tag 0x0201 (2 bytes, int16u[1]):
  | | | |         08fe: 00 00                                           [..]
  | | | | 6)  MeteringMode = 5
  | | | |     - Tag 0x0202 (2 bytes, int16u[1]):
  | | | |         090a: 05 00                                           [..]
  | | | | 7)  ExposureShift = 0 (0/100)
  | | | |     - Tag 0x0203 (8 bytes, rational64s[1]):
  | | | |         0be2: 00 00 00 00 64 00 00 00                         [....d...]
  | | | | 8)  MacroMode = 0
  | | | |     - Tag 0x0300 (2 bytes, int16u[1]):
  | | | |         0922: 00 00                                           [..]
  | | | | 9)  FocusMode = 0 65
  | | | |     - Tag 0x0301 (4 bytes, int16u[2]):
  | | | |         092e: 00 00 41 00                                     [..A.]
  | | | | 10) FocusProcess = 1 64
  | | | |     - Tag 0x0302 (4 bytes, int16u[2]):
  | | | |         093a: 01 00 40 00                                     [..@.]
  | | | | 11) AFSearch = 1
  | | | |     - Tag 0x0303 (2 bytes, int16u[1]):
  | | | |         0946: 01 00                                           [..]
  | | | | 12) AFAreas = 1937083017 0 0 0 0 0 0 0 0 0 0 0 0 0 0 0 0 0 0 0 0 0 0 0 0 0 0 0 0 0 0 0 0 0 0 0 0 0 0 0 0 0 0 0 0 0 0 0 0 0 0 0 0 0 0 0 0 0 0 0 0 0 0 0
  | | | |     - Tag 0x0304 (256 bytes, int32u[64]):
  | | | |         0bea: 89 8a 75 73 00 00 00 00 00 00 00 00 00 00 00 00 [..us............]
  | | | |         0bfa: 00 00 00 00 00 00 00 00 00 00 00 00 00 00 00 00 [................]
  | | | |         0c0a: 00 00 00 00 00 00 00 00 00 00 00 00 00 00 00 00 [................]
  | | | |         0c1a: 00 00 00 00 00 00 00 00 00 00 00 00 00 00 00 00 [................]
  | | | |         0c2a: 00 00 00 00 00 00 00 00 00 00 00 00 00 00 00 00 [................]
  | | | |         0c3a: 00 00 00 00 00 00 00 00 00 00 00 00 00 00 00 00 [................]
  | | | |         0c4a: 00 00 00 00 00 00 00 00 00 00 00 00 00 00 00 00 [................]
  | | | |         0c5a: 00 00 00 00 00 00 00 00 00 00 00 00 00 00 00 00 [................]
  | | | |         0c6a: 00 00 00 00 00 00 00 00 00 00 00 00 00 00 00 00 [................]
  | | | |         0c7a: 00 00 00 00 00 00 00 00 00 00 00 00 00 00 00 00 [................]
  | | | |         0c8a: 00 00 00 00 00 00 00 00 00 00 00 00 00 00 00 00 [................]
  | | | |         0c9a: 00 00 00 00 00 00 00 00 00 00 00 00 00 00 00 00 [................]
  | | | |         0caa: 00 00 00 00 00 00 00 00 00 00 00 00 00 00 00 00 [................]
  | | | |         0cba: 00 00 00 00 00 00 00 00 00 00 00 00 00 00 00 00 [................]
  | | | |         0cca: 00 00 00 00 00 00 00 00 00 00 00 00 00 00 00 00 [................]
  | | | |         0cda: 00 00 00 00 00 00 00 00 00 00 00 00 00 00 00 00 [................]
  | | | | 13) AFPointSelected = undef 0.4984375 0.4979166667 0.4984375 0.4979166667 (0/0 319/640 239/480 319/640 239/480)
  | | | |     - Tag 0x0305 (40 bytes, rational64s[5]):
  | | | |         0cea: 00 00 00 00 00 00 00 00 3f 01 00 00 80 02 00 00 [........?.......]
  | | | |         0cfa: ef 00 00 00 e0 01 00 00 3f 01 00 00 80 02 00 00 [........?.......]
  | | | |         0d0a: ef 00 00 00 e0 01 00 00                         [........]
  | | | | 14) AFFineTune = 0
  | | | |     - Tag 0x0306 (1 bytes, int8u[1]):
  | | | |         096a: 00                                              [.]
  | | | | 15) AFFineTuneAdj = 0 0 0
  | | | |     - Tag 0x0307 (6 bytes, int16s[3]):
  | | | |         0d12: 00 00 00 00 00 00                               [......]
  | | | | 16) FlashMode = 2
  | | | |     - Tag 0x0400 (2 bytes, int16u[1]):
  | | | |         0982: 02 00                                           [..]
  | | | | 17) FlashExposureComp = 0 (0/256)
  | | | |     - Tag 0x0401 (8 bytes, rational64s[1]):
  | | | |         0d18: 00 00 00 00 00 01 00 00                         [........]
  | | | | 18) Olympus_CameraSettings_0x0402 = 0
  | | | |     - Tag 0x0402 (2 bytes, int16u[1]):
  | | | |         099a: 00 00                                           [..]
  | | | | 19) FlashRemoteControl = 0
  | | | |     - Tag 0x0403 (2 bytes, int16u[1]):
  | | | |         09a6: 00 00                                           [..]
  | | | | 20) FlashControlMode = 0 0 0 0
  | | | |     - Tag 0x0404 (8 bytes, int16u[4]):
  | | | |         0d20: 00 00 00 00 00 00 00 00                         [........]
  | | | | 21) FlashIntensity = undef undef undef undef (0/0 0/0 0/0 0/0)
  | | | |     - Tag 0x0405 (32 bytes, rational64s[4]):
  | | | |         0d28: 00 00 00 00 00 00 00 00 00 00 00 00 00 00 00 00 [................]
  | | | |         0d38: 00 00 00 00 00 00 00 00 00 00 00 00 00 00 00 00 [................]
  | | | | 22) ManualFlashStrength = undef undef undef undef (0/0 0/0 0/0 0/0)
  | | | |     - Tag 0x0406 (32 bytes, rational64s[4]):
  | | | |         0d48: 00 00 00 00 00 00 00 00 00 00 00 00 00 00 00 00 [................]
  | | | |         0d58: 00 00 00 00 00 00 00 00 00 00 00 00 00 00 00 00 [................]
  | | | | 23) WhiteBalance2 = 0
  | | | |     - Tag 0x0500 (2 bytes, int16u[1]):
  | | | |         09d6: 00 00                                           [..]
  | | | | 24) WhiteBalanceTemperature = 0
  | | | |     - Tag 0x0501 (2 bytes, int16u[1]):
  | | | |         09e2: 00 00                                           [..]
  | | | | 25) WhiteBalanceBracket = 0 0
  | | | |     - Tag 0x0502 (4 bytes, int16s[2]):
  | | | |         09ee: 00 00 00 00                                     [....]
  | | | | 26) CustomSaturation = 0 -5 5
  | | | |     - Tag 0x0503 (6 bytes, int16s[3]):
  | | | |         0d68: 00 00 fb ff 05 00                               [......]
  | | | | 27) ModifiedSaturation = 0
  | | | |     - Tag 0x0504 (2 bytes, int16u[1]):
  | | | |         0a06: 00 00                                           [..]
  | | | | 28) ContrastSetting = 0 -5 5
  | | | |     - Tag 0x0505 (6 bytes, int16s[3]):
  | | | |         0d6e: 00 00 fb ff 05 00                               [......]
  | | | | 29) SharpnessSetting = 0 -5 5
  | | | |     - Tag 0x0506 (6 bytes, int16s[3]):
  | | | |         0d74: 00 00 fb ff 05 00                               [......]
  | | | | 30) ColorSpace = 0
  | | | |     - Tag 0x0507 (2 bytes, int16u[1]):
  | | | |         0a2a: 00 00                                           [..]
  | | | | 31) Olympus_CameraSettings_0x0508 = 0
  | | | |     - Tag 0x0508 (2 bytes, int16u[1]):
  | | | |         0a36: 00 00                                           [..]
  | | | | 32) SceneMode = 0
  | | | |     - Tag 0x0509 (2 bytes, int16u[1]):
  | | | |         0a42: 00 00                                           [..]
  | | | | 33) NoiseReduction = 8
  | | | |     - Tag 0x050a (2 bytes, int16u[1]):
  | | | |         0a4e: 08 00                                           [..]
  | | | | 34) DistortionCorrection = 0
  | | | |     - Tag 0x050b (2 bytes, int16u[1]):
  | | | |         0a5a: 00 00                                           [..]
  | | | | 35) ShadingCompensation = 0
  | | | |     - Tag 0x050c (2 bytes, int16u[1]):
  | | | |         0a66: 00 00                                           [..]
  | | | | 36) CompressionFactor = 2.7 (27/10)
  | | | |     - Tag 0x050d (8 bytes, rational64u[1]):
  | | | |         0d7a: 1b 00 00 00 0a 00 00 00                         [........]
  | | | | 37) Olympus_CameraSettings_0x050e = 0
  | | | |     - Tag 0x050e (2 bytes, int16u[1]):
  | | | |         0a7e: 00 00                                           [..]
  | | | | 38) Gradation = 0 -1 1 0
  | | | |     - Tag 0x050f (8 bytes, int16s[4]):
  | | | |         0d82: 00 00 ff ff 01 00 00 00                         [........]
  | | | | 39) PictureMode = 2 2
  | | | |     - Tag 0x0520 (4 bytes, int16u[2]):
  | | | |         0a96: 02 00 02 00                                     [....]
  | | | | 40) PictureModeSaturation = 0 -2 2
  | | | |     - Tag 0x0521 (6 bytes, int16s[3]):
  | | | |         0d8a: 00 00 fe ff 02 00                               [......]
  | | | | 41) PictureModeHue = 0
  | | | |     - Tag 0x0522 (2 bytes, int16u[1]):
  | | | |         0aae: 00 00                                           [..]
  | | | | 42) PictureModeContrast = 0 -2 2
  | | | |     - Tag 0x0523 (6 bytes, int16s[3]):
  | | | |         0d90: 00 00 fe ff 02 00                               [......]
  | | | | 43) PictureModeSharpness = 0 -2 2
  | | | |     - Tag 0x0524 (6 bytes, int16s[3]):
  | | | |         0d96: 00 00 fe ff 02 00                               [......]
  | | | | 44) PictureModeBWFilter = 0
  | | | |     - Tag 0x0525 (2 bytes, int16s[1]):
  | | | |         0ad2: 00 00                                           [..]
  | | | | 45) PictureModeTone = 0
  | | | |     - Tag 0x0526 (2 bytes, int16s[1]):
  | | | |         0ade: 00 00                                           [..]
  | | | | 46) NoiseFilter = 0 -2 1
  | | | |     - Tag 0x0527 (6 bytes, int16s[3]):
  | | | |         0d9c: 00 00 fe ff 01 00                               [......]
  | | | | 47) Olympus_CameraSettings_0x0528 = 0
  | | | |     - Tag 0x0528 (2 bytes, int16u[1]):
  | | | |         0af6: 00 00                                           [..]
  | | | | 48) ArtFilter = 0 0 0 0
  | | | |     - Tag 0x0529 (8 bytes, int16u[4]):
  | | | |         0da2: 00 00 00 00 00 00 00 00                         [........]
  | | | | 49) Olympus_CameraSettings_0x052a = 17310527 1
  | | | |     - Tag 0x052a (8 bytes, int32u[2]):
  | | | |         0daa: 3f 23 08 01 01 00 00 00                         [?#......]
  | | | | 50) Olympus_CameraSettings_0x052b = 0 4096 0 4098 5300 0 7500 0 6000 0 3000 1 4000 2 0 4097 5500 3 0 8193 0 8194 0 0 0 0 0 0 0 0
  | | | |     - Tag 0x052b (60 bytes, int16u[30]):
  | | | |         0db2: 00 00 00 10 00 00 02 10 b4 14 00 00 4c 1d 00 00 [............L...]
  | | | |         0dc2: 70 17 00 00 b8 0b 01 00 a0 0f 02 00 00 00 01 10 [p...............]
  | | | |         0dd2: 7c 15 03 00 00 00 01 20 00 00 02 20 00 00 00 00 [|...... ... ....]
  | | | |         0de2: 00 00 00 00 00 00 00 00 00 00 00 00             [............]
  | | | | 51) PictureModeEffect = 0 -1 1
  | | | |     - Tag 0x052d (6 bytes, int16s[3]):
  | | | |         0dee: 00 00 ff ff 01 00                               [......]
  | | | | 52) ToneLevel = -31999 0 -7 7 -31998 0 -7 7 0 0 0 0
  | | | |     - Tag 0x052e (24 bytes, int16s[12]):
  | | | |         0df4: 01 83 00 00 f9 ff 07 00 02 83 00 00 f9 ff 07 00 [................]
  | | | |         0e04: 00 00 00 00 00 00 00 00                         [........]
  | | | | 53) ArtFilterEffect = 0 0 0 0 0 0 0 0 0 0 0 0 0 0 0 0 0 0 0 0
  | | | |     - Tag 0x052f (40 bytes, int16u[20]):
  | | | |         0e0c: 00 00 00 00 00 00 00 00 00 00 00 00 00 00 00 00 [................]
  | | | |         0e1c: 00 00 00 00 00 00 00 00 00 00 00 00 00 00 00 00 [................]
  | | | |         0e2c: 00 00 00 00 00 00 00 00                         [........]
  | | | | 54) Olympus_CameraSettings_0x0530 = 2 2 16 65534 32832 32800 32848 32816 32784 32896 32897 65535 1 65534 32848 32784 65535 3 15 65534 32832 32800 32848 32816 32896 32897 65535 4 65534 32816 32896 32897 65535 6 19 65534 32800 32848 32816 32864 32880 65535 5 17 18 65534 32816 65535 9 35 65534 32816 65535 10 31 65534 32800 32848 32816 32896 32897 65535 14 65534 32832 32800 32848 32816 32896 32897 65535 20 32 32864 32880 65534 32800 32848 32816 32784 32896 32897 65535 25 26 65534 32832 32800 32848 32816 32784 65535 33 34 65534 32832 32800 32848 32816 65535 0 0 0 0 0 0 0 0 0 0 0 0 0 0 0 0 0 0 0 0 0 0 0 0 0 0 0 0
  | | | |     - Tag 0x0530 (256 bytes, int16u[128]):
  | | | |         0e34: 02 00 02 00 10 00 fe ff 40 80 20 80 50 80 30 80 [........@. .P.0.]
  | | | |         0e44: 10 80 80 80 81 80 ff ff 01 00 fe ff 50 80 10 80 [............P...]
  | | | |         0e54: ff ff 03 00 0f 00 fe ff 40 80 20 80 50 80 30 80 [........@. .P.0.]
  | | | |         0e64: 80 80 81 80 ff ff 04 00 fe ff 30 80 80 80 81 80 [..........0.....]
  | | | |         0e74: ff ff 06 00 13 00 fe ff 20 80 50 80 30 80 60 80 [........ .P.0.`.]
  | | | |         0e84: 70 80 ff ff 05 00 11 00 12 00 fe ff 30 80 ff ff [p...........0...]
  | | | |         0e94: 09 00 23 00 fe ff 30 80 ff ff 0a 00 1f 00 fe ff [..#...0.........]
  | | | |         0ea4: 20 80 50 80 30 80 80 80 81 80 ff ff 0e 00 fe ff [ .P.0...........]
  | | | |         0eb4: 40 80 20 80 50 80 30 80 80 80 81 80 ff ff 14 00 [@. .P.0.........]
  | | | |         0ec4: 20 00 60 80 70 80 fe ff 20 80 50 80 30 80 10 80 [ .`.p... .P.0...]
  | | | |         0ed4: 80 80 81 80 ff ff 19 00 1a 00 fe ff 40 80 20 80 [............@. .]
  | | | |         0ee4: 50 80 30 80 10 80 ff ff 21 00 22 00 fe ff 40 80 [P.0.....!."...@.]
  | | | |         0ef4: 20 80 50 80 30 80 ff ff 00 00 00 00 00 00 00 00 [ .P.0...........]
  | | | |         0f04: 00 00 00 00 00 00 00 00 00 00 00 00 00 00 00 00 [................]
  | | | |         0f14: 00 00 00 00 00 00 00 00 00 00 00 00 00 00 00 00 [................]
  | | | |         0f24: 00 00 00 00 00 00 00 00 00 00 00 00 00 00 00 00 [................]
  | | | | 55) Olympus_CameraSettings_0x0531 = 0 0 0 0 0
  | | | |     - Tag 0x0531 (10 bytes, int16u[5]):
  | | | |         0f34: 00 00 00 00 00 00 00 00 00 00                   [..........]
  | | | | 56) ColorCreatorEffect = 0 0 29 0 -4 3
  | | | |     - Tag 0x0532 (12 bytes, int16s[6]):
  | | | |         0f3e: 00 00 00 00 1d 00 00 00 fc ff 03 00             [............]
  | | | | 57) DriveMode = 0 0 0 0 0
  | | | |     - Tag 0x0600 (10 bytes, int16u[5]):
  | | | |         0f4a: 00 00 00 00 00 00 00 00 00 00                   [..........]
  | | | | 58) PanoramaMode = 0 0
  | | | |     - Tag 0x0601 (4 bytes, int16u[2]):
  | | | |         0b7a: 00 00 00 00                                     [....]
  | | | | 59) ImageStabilization = 4
  | | | |     - Tag 0x0604 (4 bytes, int32u[1]):
  | | | |         0b86: 04 00 00 00                                     [....]
  | | | | 60) Olympus_CameraSettings_0x0605 = 0 0
  | | | |     - Tag 0x0605 (8 bytes, int32u[2]):
  | | | |         0f54: 00 00 00 00 00 00 00 00                         [........]
  | | | | 61) Olympus_CameraSettings_0x0800 = 1
  | | | |     - Tag 0x0800 (2 bytes, int16u[1]):
  | | | |         0b9e: 01 00                                           [..]
  | | | | 62) Olympus_CameraSettings_0x0802 = 0
  | | | |     - Tag 0x0802 (2 bytes, int16u[1]):
  | | | |         0baa: 00 00                                           [..]
  | | | | 63) ManometerPressure = 0
  | | | |     - Tag 0x0900 (2 bytes, int16u[1]):
  | | | |         0bb6: 00 00                                           [..]
  | | | | 64) ManometerReading = 0 0
  | | | |     - Tag 0x0901 (8 bytes, int32s[2]):
  | | | |         0f5c: 00 00 00 00 00 00 00 00                         [........]
  | | | | 65) ExtendedWBDetect = 0
  | | | |     - Tag 0x0902 (2 bytes, int16u[1]):
  | | | |         0bce: 00 00                                           [..]
  | | | | 66) DateTimeUTC = 0000:00:00 00:00:00
  | | | |     - Tag 0x0908 (20 bytes, string[20]):
  | | | |         0f64: 30 30 30 30 3a 30 30 3a 30 30 20 30 30 3a 30 30 [0000:00:00 00:00]
  | | | |         0f74: 3a 30 30 00                                     [:00.]
  | | | 4)  RawDevelopmentIFD (SubDirectory) -->
  | | |     - Tag 0x2030 (4 bytes, ifd[1]):
  | | |         0620: 9e 09 00 00                                     [....]
  | | | + [MakerNotes directory with 14 entries, Little-endian]
  | | | | 0)  RawDevVersion = 0100
  | | | |     - Tag 0x0000 (4 bytes, undef[4]):
  | | | |         0f82: 30 31 30 30                                     [0100]
  | | | | 1)  RawDevExposureBiasValue = 0 (0/1)
  | | | |     - Tag 0x0100 (8 bytes, rational64s[1]):
  | | | |         1026: 00 00 00 00 01 00 00 00                         [........]
  | | | | 2)  RawDevWhiteBalanceValue = 0
  | | | |     - Tag 0x0101 (2 bytes, int16u[1]):
  | | | |         0f9a: 00 00                                           [..]
  | | | | 3)  RawDevWBFineAdjustment = 0
  | | | |     - Tag 0x0102 (2 bytes, int16s[1]):
  | | | |         0fa6: 00 00                                           [..]
  | | | | 4)  RawDevGrayPoint = 0 0 0
  | | | |     - Tag 0x0103 (6 bytes, int16u[3]):
  | | | |         102e: 00 00 00 00 00 00                               [......]
  | | | | 5)  RawDevSaturationEmphasis = 0 0 0
  | | | |     - Tag 0x0104 (6 bytes, int16s[3]):
  | | | |         1034: 00 00 00 00 00 00                               [......]
  | | | | 6)  RawDevMemoryColorEmphasis = 0
  | | | |     - Tag 0x0105 (2 bytes, int16u[1]):
  | | | |         0fca: 00 00                                           [..]
  | | | | 7)  RawDevContrastValue = 0 0 0
  | | | |     - Tag 0x0106 (6 bytes, int16s[3]):
  | | | |         103a: 00 00 00 00 00 00                               [......]
  | | | | 8)  RawDevSharpnessValue = 0 0 0
  | | | |     - Tag 0x0107 (6 bytes, int16s[3]):
  | | | |         1040: 00 00 00 00 00 00                               [......]
  | | | | 9)  RawDevColorSpace = 0
  | | | |     - Tag 0x0108 (2 bytes, int16u[1]):
  | | | |         0fee: 00 00                                           [..]
  | | | | 10) RawDevEngine = 0
  | | | |     - Tag 0x0109 (2 bytes, int16u[1]):
  | | | |         0ffa: 00 00                                           [..]
  | | | | 11) RawDevNoiseReduction = 0
  | | | |     - Tag 0x010a (2 bytes, int16u[1]):
  | | | |         1006: 00 00                                           [..]
  | | | | 12) RawDevEditStatus = 0
  | | | |     - Tag 0x010b (2 bytes, int16u[1]):
  | | | |         1012: 00 00                                           [..]
  | | | | 13) RawDevSettings = 0
  | | | |     - Tag 0x010c (2 bytes, int16u[1]):
  | | | |         101e: 00 00                                           [..]
  | | | 5)  ImageProcessingIFD (SubDirectory) -->
  | | |     - Tag 0x2040 (4 bytes, ifd[1]):
  | | |         062c: 6c 0a 00 00                                     [l...]
  | | | + [MakerNotes directory with 107 entries, Little-endian]
  | | | | 0)  ImageProcessingVersion = 0112
  | | | |     - Tag 0x0000 (4 bytes, undef[4]):
  | | | |         1050: 30 31 31 32                                     [0112]
  | | | | 1)  WB_RBLevels = 540 480 256 256
  | | | |     - Tag 0x0100 (8 bytes, int16u[4]):
  | | | |         1550: 1c 02 e0 01 00 01 00 01                         [........]
  | | | | 2)  ColorMatrix = 420 -148 -16 -56 352 -40 18 -116 354
  | | | |     - Tag 0x0200 (18 bytes, int16u[9] read as int16s[9]):
  | | | |         1558: a4 01 6c ff f0 ff c8 ff 60 01 d8 ff 12 00 8c ff [..l.....`.......]
  | | | |         1568: 62 01                                           [b.]
  | | | | 3)  BlackLevel2 = 254 254 254 254
  | | | |     - Tag 0x0600 (8 bytes, int16u[4]):
  | | | |         156a: fe 00 fe 00 fe 00 fe 00                         [........]
  | | | | 4)  GainBase = 256
  | | | |     - Tag 0x0610 (2 bytes, int16u[1]):
  | | | |         1080: 00 01                                           [..]
  | | | | 5)  CropLeft = 8 0
  | | | |     - Tag 0x0612 (4 bytes, int16u[2]):
  | | | |         108c: 08 00 00 00                                     [....]
  | | | | 6)  CropTop = 8 0
  | | | |     - Tag 0x0613 (4 bytes, int16u[2]):
  | | | |         1098: 08 00 00 00                                     [....]
  | | | | 7)  CropWidth = 4608
  | | | |     - Tag 0x0614 (4 bytes, int32u[1]):
  | | | |         10a4: 00 12 00 00                                     [....]
  | | | | 8)  CropHeight = 3456
  | | | |     - Tag 0x0615 (4 bytes, int32u[1]):
  | | | |         10b0: 80 0d 00 00                                     [....]
  | | | | 9)  Olympus_ImageProcessing_0x0617 = 65535
  | | | |     - Tag 0x0617 (2 bytes, int16u[1]):
  | | | |         10bc: ff ff                                           [..]
  | | | | 10) Olympus_ImageProcessing_0x0638 = 1320
  | | | |     - Tag 0x0638 (4 bytes, int32u[1]):
  | | | |         10c8: 28 05 00 00                                     [(...]
  | | | | 11) Olympus_ImageProcessing_0x0800 = 0 0 0 0 0 0 0 0 0
  | | | |     - Tag 0x0800 (36 bytes, float[9]):
  | | | |         1572: 00 00 00 00 00 00 00 00 00 00 00 00 00 00 00 00 [................]
  | | | |         1582: 00 00 00 00 00 00 00 00 00 00 00 00 00 00 00 00 [................]
  | | | |         1592: 00 00 00 00                                     [....]
  | | | | 12) Olympus_ImageProcessing_0x0801 = 8193 8192 8198 8201 8223 8285 8411 8589 8804 9061 9587 10233 11145 12352 13795 15780
  | | | |     - Tag 0x0801 (32 bytes, int16u[16]):
  | | | |         1596: 01 20 00 20 06 20 09 20 1f 20 5d 20 db 20 8d 21 [. . . . . ] . .!]
  | | | |         15a6: 64 22 65 23 73 25 f9 27 89 2b 40 30 e3 35 a4 3d [d"e#s%.'.+@0.5.=]
  | | | | 13) Olympus_ImageProcessing_0x0802 = 188.1756757 (11140000/59200)
  | | | |     - Tag 0x0802 (8 bytes, rational64u[1]):
  | | | |         15b6: a0 fb a9 00 40 e7 00 00                         [....@...]
  | | | | 14) Olympus_ImageProcessing_0x0804 = 1 333
  | | | |     - Tag 0x0804 (4 bytes, int16u[2]):
  | | | |         10f8: 01 00 4d 01                                     [..M.]
  | | | | 15) SensorCalibration = 4094 256
  | | | |     - Tag 0x0805 (4 bytes, int16s[2]):
  | | | |         1104: fe 0f 00 01                                     [....]
  | | | | 16) Olympus_ImageProcessing_0x1003 = 8
  | | | |     - Tag 0x1003 (2 bytes, int16u[1]):
  | | | |         1110: 08 00                                           [..]
  | | | | 17) Olympus_ImageProcessing_0x1004 = 1280
  | | | |     - Tag 0x1004 (2 bytes, int16u[1]):
  | | | |         111c: 00 05                                           [..]
  | | | | 18) NoiseReduction2 = 0
  | | | |     - Tag 0x1010 (2 bytes, int16u[1]):
  | | | |         1128: 00 00                                           [..]
  | | | | 19) DistortionCorrection2 = 0
  | | | |     - Tag 0x1011 (2 bytes, int16u[1]):
  | | | |         1134: 00 00                                           [..]
  | | | | 20) ShadingCompensation2 = 0
  | | | |     - Tag 0x1012 (2 bytes, int16u[1]):
  | | | |         1140: 00 00                                           [..]
  | | | | 21) Olympus_ImageProcessing_0x101b = 0 0
  | | | |     - Tag 0x101b (4 bytes, int16s[2]):
  | | | |         114c: 00 00 00 00                                     [....]
  | | | | 22) MultipleExposureMode = 0 1
  | | | |     - Tag 0x101c (4 bytes, int16u[2]):
  | | | |         1158: 00 00 01 00                                     [....]
  | | | | 23) Olympus_ImageProcessing_0x101d = 0
  | | | |     - Tag 0x101d (1 bytes, undef[1]):
  | | | |         1164: 00                                              [.]
  | | | | 24) Olympus_ImageProcessing_0x101e = 0 0
  | | | |     - Tag 0x101e (4 bytes, int16u[2]):
  | | | |         1170: 00 00 00 00                                     [....]
  | | | | 25) Olympus_ImageProcessing_0x1107 = 121 136
  | | | |     - Tag 0x1107 (4 bytes, int16u[2]):
  | | | |         117c: 79 00 88 00                                     [y...]
  | | | | 26) Olympus_ImageProcessing_0x1108 = 21 0 0 4 272 217 177 22
  | | | |     - Tag 0x1108 (16 bytes, int16u[8]):
  | | | |         15be: 15 00 00 00 00 00 04 00 10 01 d9 00 b1 00 16 00 [................]
  | | | | 27) Olympus_ImageProcessing_0x1109 = 153 130 0 0 0 0 137 95 119 119 120 127 119 163 118 169 0 0
  | | | |     - Tag 0x1109 (36 bytes, int16u[18]):
  | | | |         15ce: 99 00 82 00 00 00 00 00 00 00 00 00 89 00 5f 00 [.............._.]
  | | | |         15de: 77 00 77 00 78 00 7f 00 77 00 a3 00 76 00 a9 00 [w.w.x...w...v...]
  | | | |         15ee: 00 00 00 00                                     [....]
  | | | | 28) Olympus_ImageProcessing_0x110a = 718
  | | | |     - Tag 0x110a (2 bytes, int16s[1]):
  | | | |         11a0: ce 02                                           [..]
  | | | | 29) Olympus_ImageProcessing_0x110b = 0 0 19 92 0
  | | | |     - Tag 0x110b (10 bytes, int16u[5]):
  | | | |         15f2: 00 00 00 00 13 00 5c 00 00 00                   [......\...]
  | | | | 30) Olympus_ImageProcessing_0x110c = 898 0 0 0 0
  | | | |     - Tag 0x110c (10 bytes, int16u[5]):
  | | | |         15fc: 82 03 00 00 00 00 00 00 00 00                   [..........]
  | | | | 31) Olympus_ImageProcessing_0x110d = 1314
  | | | |     - Tag 0x110d (2 bytes, int16u[1]):
  | | | |         11c4: 22 05                                           [".]
  | | | | 32) Olympus_ImageProcessing_0x110e = 10 0 0 4 272 217 177 19 0
  | | | |     - Tag 0x110e (18 bytes, int16u[9]):
  | | | |         1606: 0a 00 00 00 00 00 04 00 10 01 d9 00 b1 00 13 00 [................]
  | | | |         1616: 00 00                                           [..]
  | | | | 33) Olympus_ImageProcessing_0x110f = 0 152 21
  | | | |     - Tag 0x110f (6 bytes, int16u[3]):
  | | | |         1618: 00 00 98 00 15 00                               [......]
  | | | | 34) Olympus_ImageProcessing_0x1110 = 3 3 11 4 734 123 124 28 125 153
  | | | |     - Tag 0x1110 (20 bytes, int16u[10]):
  | | | |         161e: 03 00 03 00 0b 00 04 00 de 02 7b 00 7c 00 1c 00 [..........{.|...]
  | | | |         162e: 7d 00 99 00                                     [}...]
  | | | | 35) AspectRatio = 1 1
  | | | |     - Tag 0x1112 (2 bytes, int8u[2]):
  | | | |         11f4: 01 01                                           [..]
  | | | | 36) AspectFrame = 0 0 4607 3455
  | | | |     - Tag 0x1113 (8 bytes, int16u[4]):
  | | | |         1632: 00 00 00 00 ff 11 7f 0d                         [........]
  | | | | 37) Olympus_ImageProcessing_0x1114 = 0
  | | | |     - Tag 0x1114 (1 bytes, int8u[1]):
  | | | |         120c: 00                                              [.]
  | | | | 38) Olympus_ImageProcessing_0x1115 = 0 0
  | | | |     - Tag 0x1115 (4 bytes, int16u[2]):
  | | | |         1218: 00 00 00 00                                     [....]
  | | | | 39) Olympus_ImageProcessing_0x1116 = 0 0
  | | | |     - Tag 0x1116 (4 bytes, int16u[2]):
  | | | |         1224: 00 00 00 00                                     [....]
  | | | | 40) Olympus_ImageProcessing_0x1117 = 0 0
  | | | |     - Tag 0x1117 (8 bytes, int32u[2]):
  | | | |         163a: 00 00 00 00 00 00 00 00                         [........]
  | | | | 41) Olympus_ImageProcessing_0x1118 = 0 0
  | | | |     - Tag 0x1118 (4 bytes, int16s[2]):
  | | | |         123c: 00 00 00 00                                     [....]
  | | | | 42) Olympus_ImageProcessing_0x1119 = 0 0
  | | | |     - Tag 0x1119 (2 bytes, int8u[2]):
  | | | |         1248: 00 00                                           [..]
  | | | | 43) Olympus_ImageProcessing_0x111a = 0 0
  | | | |     - Tag 0x111a (2 bytes, int8u[2]):
  | | | |         1254: 00 00                                           [..]
  | | | | 44) Olympus_ImageProcessing_0x111b = 
  | | | |     - Tag 0x111b (256 bytes, undef[256]):
  | | | |         1642: 00 00 00 00 00 00 00 00 00 00 00 00 00 00 00 00 [................]
  | | | |         1652: 00 00 00 00 00 00 00 00 00 00 00 00 00 00 00 00 [................]
  | | | |         1662: 00 00 00 00 00 00 00 00 00 00 00 00 00 00 00 00 [................]
  | | | |         1672: 00 00 00 00 00 00 00 00 00 00 00 00 00 00 00 00 [................]
  | | | |         1682: 00 00 00 00 00 00 00 00 00 00 00 00 00 00 00 00 [................]
  | | | |         1692: 00 00 00 00 00 00 00 00 00 00 00 00 00 00 00 00 [................]
  | | | |         16a2: 00 00 00 00 00 00 00 00 00 00 00 00 00 00 00 00 [................]
  | | | |         16b2: 00 00 00 00 00 00 00 00 00 00 00 00 00 00 00 00 [................]
  | | | |         16c2: 00 00 00 00 00 00 00 00 00 00 00 00 00 00 00 00 [................]
  | | | |         16d2: 00 00 00 00 00 00 00 00 00 00 00 00 00 00 00 00 [................]
  | | | |         16e2: 00 00 00 00 00 00 00 00 00 00 00 00 00 00 00 00 [................]
  | | | |         16f2: 00 00 00 00 00 00 00 00 00 00 00 00 00 00 00 00 [................]
  | | | |         1702: 00 00 00 00 00 00 00 00 00 00 00 00 00 00 00 00 [................]
  | | | |         1712: 00 00 00 00 00 00 00 00 00 00 00 00 00 00 00 00 [................]
  | | | |         1722: 00 00 00 00 00 00 00 00 00 00 00 00 00 00 00 00 [................]
  | | | |         1732: 00 00 00 00 00 00 00 00 00 00 00 00 00 00 00 00 [................]
  | | | | 45) Olympus_ImageProcessing_0x111d = 1200 123 126 0 0 4970 132 0 121 136
  | | | |     - Tag 0x111d (20 bytes, int16u[10]):
  | | | |         1742: b0 04 7b 00 7e 00 00 00 00 00 6a 13 84 00 00 00 [..{.~.....j.....]
  | | | |         1752: 79 00 88 00                                     [y...]
  | | | | 46) Olympus_ImageProcessing_0x111e = 112 188 120 159 129 144 141 128 163 108 207 77 116 151 135 124 132 102
  | | | |     - Tag 0x111e (36 bytes, int16u[18]):
  | | | |         1756: 70 00 bc 00 78 00 9f 00 81 00 90 00 8d 00 80 00 [p...x...........]
  | | | |         1766: a3 00 6c 00 cf 00 4d 00 74 00 97 00 87 00 7c 00 [..l...M.t.....|.]
  | | | |         1776: 84 00 66 00                                     [..f.]
  | | | | 47) Olympus_ImageProcessing_0x111f = 0 0 0 0
  | | | |     - Tag 0x111f (8 bytes, int16u[4]):
  | | | |         177a: 00 00 00 00 00 00 00 00                         [........]
  | | | | 48) Olympus_ImageProcessing_0x1120 = 0
  | | | |     - Tag 0x1120 (1 bytes, int8u[1]):
  | | | |         1290: 00                                              [.]
  | | | | 49) Olympus_ImageProcessing_0x1121 = 0 0 0 0 0 0 0 0
  | | | |     - Tag 0x1121 (8 bytes, int8u[8]):
  | | | |         1782: 00 00 00 00 00 00 00 00                         [........]
  | | | | 50) Olympus_ImageProcessing_0x1122 = 0 0 0 0 0
  | | | |     - Tag 0x1122 (10 bytes, int16s[5]):
  | | | |         178a: 00 00 00 00 00 00 00 00 00 00                   [..........]
  | | | | 51) Olympus_ImageProcessing_0x1123 = 0
  | | | |     - Tag 0x1123 (1 bytes, int8u[1]):
  | | | |         12b4: 00                                              [.]
  | | | | 52) Olympus_ImageProcessing_0x1124 = 0 0
  | | | |     - Tag 0x1124 (4 bytes, int16s[2]):
  | | | |         12c0: 00 00 00 00                                     [....]
  | | | | 53) Olympus_ImageProcessing_0x1125 = 0 0 0 0
  | | | |     - Tag 0x1125 (8 bytes, int16s[4]):
  | | | |         1794: 00 00 00 00 00 00 00 00                         [........]
  | | | | 54) Olympus_ImageProcessing_0x1126 = 0 0 0
  | | | |     - Tag 0x1126 (3 bytes, int8u[3]):
  | | | |         12d8: 00 00 00                                        [...]
  | | | | 55) Olympus_ImageProcessing_0x1127 = 0 0
  | | | |     - Tag 0x1127 (4 bytes, int16s[2]):
  | | | |         12e4: 00 00 00 00                                     [....]
  | | | | 56) FacesDetected = 0 0 0
  | | | |     - Tag 0x1200 (12 bytes, int32u[3]):
  | | | |         179c: 00 00 00 00 00 00 00 00 00 00 00 00             [............]
  | | | | 57) FaceDetectArea = 0 0 0 0 0 0 0 0 0 0 0 0 0 0 0 0 0 0 0 0 0 0 0 0 0 0 0 0 0 0 0 0 0 0 0 0 0 0 0 0 0 0 0 0 0 0 0 0 0 0 0 0 0 0 0 0 0 0 0 0 0 0 0 0 0 0 0 0 0 0 0 0 0 0 0 0 0 0 0 0 0 0 0 0 0 0 0 0 0 0 0 0 0 0 0 0 0 0 0 0 0 0 0 0 0 0 0 0 0 0 0 0 0 0 0 0 0 0 0 0 0 0 0 0 0 0 0 0 0 0 0 0 0 0 0 0 0 0 0 0 0 0 0 0 0 0 0 0 0 0 0 0 0 0 0 0 0 0 0 0 0 0 0 0 0 0 0 0 0 0 0 0 0 0 0 0 0 0 0 0 0 0 0 0 0 0 0 0 0 0 0 0
  | | | |     - Tag 0x1201 (384 bytes, int16u[192]):
  | | | |         17a8: 00 00 00 00 00 00 00 00 00 00 00 00 00 00 00 00 [................]
  | | | |         17b8: 00 00 00 00 00 00 00 00 00 00 00 00 00 00 00 00 [................]
  | | | |         17c8: 00 00 00 00 00 00 00 00 00 00 00 00 00 00 00 00 [................]
  | | | |         17d8: 00 00 00 00 00 00 00 00 00 00 00 00 00 00 00 00 [................]
  | | | |         17e8: 00 00 00 00 00 00 00 00 00 00 00 00 00 00 00 00 [................]
  | | | |         17f8: 00 00 00 00 00 00 00 00 00 00 00 00 00 00 00 00 [................]
  | | | |         1808: 00 00 00 00 00 00 00 00 00 00 00 00 00 00 00 00 [................]
  | | | |         1818: 00 00 00 00 00 00 00 00 00 00 00 00 00 00 00 00 [................]
  | | | |         1828: 00 00 00 00 00 00 00 00 00 00 00 00 00 00 00 00 [................]
  | | | |         1838: 00 00 00 00 00 00 00 00 00 00 00 00 00 00 00 00 [................]
  | | | |         1848: 00 00 00 00 00 00 00 00 00 00 00 00 00 00 00 00 [................]
  | | | |         1858: 00 00 00 00 00 00 00 00 00 00 00 00 00 00 00 00 [................]
  | | | |         1868: 00 00 00 00 00 00 00 00 00 00 00 00 00 00 00 00 [................]
  | | | |         1878: 00 00 00 00 00 00 00 00 00 00 00 00 00 00 00 00 [................]
  | | | |         1888: 00 00 00 00 00 00 00 00 00 00 00 00 00 00 00 00 [................]
  | | | |         1898: 00 00 00 00 00 00 00 00 00 00 00 00 00 00 00 00 [................]
  | | | |         18a8: 00 00 00 00 00 00 00 00 00 00 00 00 00 00 00 00 [................]
  | | | |         18b8: 00 00 00 00 00 00 00 00 00 00 00 00 00 00 00 00 [................]
  | | | |         18c8: 00 00 00 00 00 00 00 00 00 00 00 00 00 00 00 00 [................]
  | | | |         18d8: 00 00 00 00 00 00 00 00 00 00 00 00 00 00 00 00 [................]
  | | | |         18e8: 00 00 00 00 00 00 00 00 00 00 00 00 00 00 00 00 [................]
  | | | |         18f8: 00 00 00 00 00 00 00 00 00 00 00 00 00 00 00 00 [................]
  | | | |         1908: 00 00 00 00 00 00 00 00 00 00 00 00 00 00 00 00 [................]
  | | | |         1918: 00 00 00 00 00 00 00 00 00 00 00 00 00 00 00 00 [................]
  | | | | 58) MaxFaces = 8 8 0
  | | | |     - Tag 0x1202 (12 bytes, int32u[3]):
  | | | |         1928: 08 00 00 00 08 00 00 00 00 00 00 00             [............]
  | | | | 59) FaceDetectFrameSize = 640 480 640 480 0 0
  | | | |     - Tag 0x1203 (12 bytes, int16u[6]):
  | | | |         1934: 80 02 e0 01 80 02 e0 01 00 00 00 00             [............]
  | | | | 60) Olympus_ImageProcessing_0x1204 = 2 0
  | | | |     - Tag 0x1204 (4 bytes, int16s[2]):
  | | | |         1320: 02 00 00 00                                     [....]
  | | | | 61) Olympus_ImageProcessing_0x1205 = 1
  | | | |     - Tag 0x1205 (2 bytes, int16s[1]):
  | | | |         132c: 01 00                                           [..]
  | | | | 62) Olympus_ImageProcessing_0x1206 = 2 120 0 200 0
  | | | |     - Tag 0x1206 (10 bytes, int16s[5]):
  | | | |         1940: 02 00 78 00 00 00 c8 00 00 00                   [..x.......]
  | | | | 63) FaceDetectFrameCrop = 0 0 640 480 0 0 640 480 0 0 0 0
  | | | |     - Tag 0x1207 (24 bytes, int16s[12]):
  | | | |         194a: 00 00 00 00 80 02 e0 01 00 00 00 00 80 02 e0 01 [................]
  | | | |         195a: 00 00 00 00 00 00 00 00                         [........]
  | | | | 64) Olympus_ImageProcessing_0x1208 = 0 0 0 0 0 0 0 0
  | | | |     - Tag 0x1208 (16 bytes, int16s[8]):
  | | | |         1962: 00 00 00 00 00 00 00 00 00 00 00 00 00 00 00 00 [................]
  | | | | 65) Olympus_ImageProcessing_0x1209 = 0
  | | | |     - Tag 0x1209 (1 bytes, int8u[1]):
  | | | |         135c: 00                                              [.]
  | | | | 66) Olympus_ImageProcessing_0x120a = 0 0
  | | | |     - Tag 0x120a (4 bytes, int16u[2]):
  | | | |         1368: 00 00 00 00                                     [....]
  | | | | 67) Olympus_ImageProcessing_0x120b = 0
  | | | |     - Tag 0x120b (2 bytes, int16s[1]):
  | | | |         1374: 00 00                                           [..]
  | | | | 68) Olympus_ImageProcessing_0x1300 = 0 0 0 0
  | | | |     - Tag 0x1300 (8 bytes, int16s[4]):
  | | | |         1972: 00 00 00 00 00 00 00 00                         [........]
  | | | | 69) Olympus_ImageProcessing_0x1301 = 0 0
  | | | |     - Tag 0x1301 (4 bytes, int16u[2]):
  | | | |         138c: 00 00 00 00                                     [....]
  | | | | 70) Olympus_ImageProcessing_0x1302 = 853 0
  | | | |     - Tag 0x1302 (4 bytes, int16s[2]):
  | | | |         1398: 55 03 00 00                                     [U...]
  | | | | 71) Olympus_ImageProcessing_0x1303 = 709 0
  | | | |     - Tag 0x1303 (4 bytes, int16s[2]):
  | | | |         13a4: c5 02 00 00                                     [....]
  | | | | 72) Olympus_ImageProcessing_0x1304 = 709 0
  | | | |     - Tag 0x1304 (4 bytes, int16s[2]):
  | | | |         13b0: c5 02 00 00                                     [....]
  | | | | 73) Olympus_ImageProcessing_0x1305 = 85 85 0 0
  | | | |     - Tag 0x1305 (8 bytes, int16u[4]):
  | | | |         197a: 55 00 55 00 00 00 00 00                         [U.U.....]
  | | | | 74) CameraTemperature = 0
  | | | |     - Tag 0x1306 (2 bytes, int16u[1] read as int16s[1]):
  | | | |         13c8: 00 00                                           [..]
  | | | | 75) Olympus_ImageProcessing_0x1307 = 0
  | | | |     - Tag 0x1307 (2 bytes, int16u[1]):
  | | | |         13d4: 00 00                                           [..]
  | | | | 76) Olympus_ImageProcessing_0x1308 = 0
  | | | |     - Tag 0x1308 (2 bytes, int16s[1]):
  | | | |         13e0: 00 00                                           [..]
  | | | | 77) Olympus_ImageProcessing_0x1401 = 7 30 7 30
  | | | |     - Tag 0x1401 (8 bytes, int16u[4]):
  | | | |         1982: 07 00 1e 00 07 00 1e 00                         [........]
  | | | | 78) Olympus_ImageProcessing_0x1402 = 60 50 60 50
  | | | |     - Tag 0x1402 (8 bytes, int16s[4]):
  | | | |         198a: 3c 00 32 00 3c 00 32 00                         [<.2.<.2.]
  | | | | 79) Olympus_ImageProcessing_0x1404 = 70 70
  | | | |     - Tag 0x1404 (4 bytes, int16u[2]):
  | | | |         1404: 46 00 46 00                                     [F.F.]
  | | | | 80) Olympus_ImageProcessing_0x1405 = 21 30
  | | | |     - Tag 0x1405 (4 bytes, int16u[2]):
  | | | |         1410: 15 00 1e 00                                     [....]
  | | | | 81) Olympus_ImageProcessing_0x1406 = 0 0
  | | | |     - Tag 0x1406 (4 bytes, int16u[2]):
  | | | |         141c: 00 00 00 00                                     [....]
  | | | | 82) Olympus_ImageProcessing_0x1409 = 1024 2048 3072 4096 5120 6144 7168 512 512 512 512 512 512 512 512
  | | | |     - Tag 0x1409 (30 bytes, int16u[15]):
  | | | |         1992: 00 04 00 08 00 0c 00 10 00 14 00 18 00 1c 00 02 [................]
  | | | |         19a2: 00 02 00 02 00 02 00 02 00 02 00 02 00 02       [..............]
  | | | | 83) Olympus_ImageProcessing_0x1500 = 119 136 135
  | | | |     - Tag 0x1500 (3 bytes, int8u[3]):
  | | | |         1434: 77 88 87                                        [w..]
  | | | | 84) Olympus_ImageProcessing_0x1501 = 5 10 10
  | | | |     - Tag 0x1501 (3 bytes, int8u[3]):
  | | | |         1440: 05 0a 0a                                        [...]
  | | | | 85) Olympus_ImageProcessing_0x1502 = 35
  | | | |     - Tag 0x1502 (1 bytes, int8u[1]):
  | | | |         144c: 23                                              [#]
  | | | | 86) Olympus_ImageProcessing_0x1503 = 273 -8 -3 294 -8 -2 240 -10 -3 261 -10 -3
  | | | |     - Tag 0x1503 (24 bytes, int16s[12]):
  | | | |         19b0: 11 01 f8 ff fd ff 26 01 f8 ff fe ff f0 00 f6 ff [......&.........]
  | | | |         19c0: fd ff 05 01 f6 ff fd ff                         [........]
  | | | | 87) Olympus_ImageProcessing_0x1504 = 0 0 0 0
  | | | |     - Tag 0x1504 (4 bytes, int8u[4]):
  | | | |         1464: 00 00 00 00                                     [....]
  | | | | 88) Olympus_ImageProcessing_0x1505 = -9 -9 -9 -9
  | | | |     - Tag 0x1505 (8 bytes, int16s[4]):
  | | | |         19c8: f7 ff f7 ff f7 ff f7 ff                         [........]
  | | | | 89) Olympus_ImageProcessing_0x1506 = 0 0 0 0 0 0 0 0 0 0 0 0
  | | | |     - Tag 0x1506 (24 bytes, int16u[12]):
  | | | |         19d0: 00 00 00 00 00 00 00 00 00 00 00 00 00 00 00 00 [................]
  | | | |         19e0: 00 00 00 00 00 00 00 00                         [........]
  | | | | 90) Olympus_ImageProcessing_0x1507 = 0
  | | | |     - Tag 0x1507 (2 bytes, int16u[1]):
  | | | |         1488: 00 00                                           [..]
  | | | | 91) Olympus_ImageProcessing_0x1508 = 0 0 0
  | | | |     - Tag 0x1508 (6 bytes, int16s[3]):
  | | | |         19e8: 00 00 00 00 00 00                               [......]
  | | | | 92) Olympus_ImageProcessing_0x1509 = 0
  | | | |     - Tag 0x1509 (2 bytes, int16u[1]):
  | | | |         14a0: 00 00                                           [..]
  | | | | 93) Olympus_ImageProcessing_0x150a = 0 0 0 0.9912109375
  | | | |     - Tag 0x150a (16 bytes, float[4]):
  | | | |         19ee: 00 00 00 00 00 00 00 00 00 00 00 00 00 c0 7d 3f [..............}?]
  | | | | 94) Olympus_ImageProcessing_0x150b = 1
  | | | |     - Tag 0x150b (1 bytes, int8u[1]):
  | | | |         14b8: 01                                              [.]
  | | | | 95) Olympus_ImageProcessing_0x150c = -0.000230073928833008 0.000382423400878906 -1.83582305908203e-05 0.000230312347412109 -0.000821113586425781 0.000110149383544922
  | | | |     - Tag 0x150c (24 bytes, float[6]):
  | | | |         19fe: 00 40 71 b9 00 80 c8 39 00 00 9a b7 00 80 71 39 [.@q....9......q9]
  | | | |         1a0e: 00 40 57 ba 00 00 e7 38                         [.@W....8]
  | | | | 96) Olympus_ImageProcessing_0x150d = 1
  | | | |     - Tag 0x150d (1 bytes, int8u[1]):
  | | | |         14d0: 01                                              [.]
  | | | | 97) Olympus_ImageProcessing_0x150e = 16
  | | | |     - Tag 0x150e (1 bytes, int8u[1]):
  | | | |         14dc: 10                                              [.]
  | | | | 98) Olympus_ImageProcessing_0x150f = 10
  | | | |     - Tag 0x150f (1 bytes, int8u[1]):
  | | | |         14e8: 0a                                              [.]
  | | | | 99) Olympus_ImageProcessing_0x1600 = 1223
  | | | |     - Tag 0x1600 (2 bytes, int16u[1]):
  | | | |         14f4: c7 04                                           [..]
  | | | | 100) Olympus_ImageProcessing_0x1601 = 5
  | | | |     - Tag 0x1601 (1 bytes, int8u[1]):
  | | | |         1500: 05                                              [.]
  | | | | 101) Olympus_ImageProcessing_0x1602 = 20 60 100 150 250 0
  | | | |     - Tag 0x1602 (12 bytes, int16u[6]):
  | | | |         1a16: 14 00 3c 00 64 00 96 00 fa 00 00 00             [..<.d.......]
  | | | | 102) Olympus_ImageProcessing_0x1603 = 86 53 32 19 6 0 66 34 20 10 2 0
  | | | |     - Tag 0x1603 (12 bytes, int8u[12]):
  | | | |         1a22: 56 35 20 13 06 00 42 22 14 0a 02 00             [V5 ...B"....]
  | | | | 103) Olympus_ImageProcessing_0x1604 = 83 51 31 17 3 0 63 25 11 4 0 0
  | | | |     - Tag 0x1604 (12 bytes, int8u[12]):
  | | | |         1a2e: 53 33 1f 11 03 00 3f 19 0b 04 00 00             [S3....?.....]
  | | | | 104) Olympus_ImageProcessing_0x1700 = 
  | | | |     - Tag 0x1700 (512 bytes, undef[512]):
  | | | |         1a3a: 00 00 00 00 00 00 00 00 00 00 00 00 00 00 00 00 [................]
  | | | |         1a4a: 00 00 00 00 00 00 00 00 00 00 00 00 00 00 00 00 [................]
  | | | |         1a5a: 00 00 00 00 00 00 00 00 00 00 00 00 00 00 00 00 [................]
  | | | |         1a6a: 00 00 00 00 00 00 00 00 00 00 00 00 00 00 00 00 [................]
  | | | |         1a7a: 00 00 00 00 00 00 00 00 00 00 00 00 00 00 00 00 [................]
  | | | |         1a8a: 00 00 00 00 00 00 00 00 00 00 00 00 00 00 00 00 [................]
  | | | |         1a9a: 00 00 00 00 00 00 00 00 00 00 00 00 00 00 00 00 [................]
  | | | |         1aaa: 00 00 00 00 00 00 00 00 00 00 00 00 00 00 00 00 [................]
  | | | |         1aba: 00 00 00 00 00 00 00 00 00 00 00 00 00 00 00 00 [................]
  | | | |         1aca: 00 00 00 00 00 00 00 00 00 00 00 00 00 00 00 00 [................]
  | | | |         1ada: 00 00 00 00 00 00 00 00 00 00 00 00 00 00 00 00 [................]
  | | | |         1aea: 00 00 00 00 00 00 00 00 00 00 00 00 00 00 00 00 [................]
  | | | |         1afa: 00 00 00 00 00 00 00 00 00 00 00 00 00 00 00 00 [................]
  | | | |         1b0a: 00 00 00 00 00 00 00 00 00 00 00 00 00 00 00 00 [................]
  | | | |         1b1a: 00 00 00 00 00 00 00 00 00 00 00 00 00 00 00 00 [................]
  | | | |         1b2a: 00 00 00 00 00 00 00 00 00 00 00 00 00 00 00 00 [................]
  | | | |         1b3a: 00 00 00 00 00 00 00 00 00 00 00 00 00 00 00 00 [................]
  | | | |         1b4a: 00 00 00 00 00 00 00 00 00 00 00 00 00 00 00 00 [................]
  | | | |         1b5a: 00 00 00 00 00 00 00 00 00 00 00 00 00 00 00 00 [................]
  | | | |         1b6a: 00 00 00 00 00 00 00 00 00 00 00 00 00 00 00 00 [................]
  | | | |         1b7a: 00 00 00 00 00 00 00 00 00 00 00 00 00 00 00 00 [................]
  | | | |         1b8a: 00 00 00 00 00 00 00 00 00 00 00 00 00 00 00 00 [................]
  | | | |         1b9a: 00 00 00 00 00 00 00 00 00 00 00 00 00 00 00 00 [................]
  | | | |         1baa: 00 00 00 00 00 00 00 00 00 00 00 00 00 00 00 00 [................]
  | | | |         1bba: 00 00 00 00 00 00 00 00 00 00 00 00 00 00 00 00 [................]
  | | | |         1bca: 00 00 00 00 00 00 00 00 00 00 00 00 00 00 00 00 [................]
  | | | |         1bda: 00 00 00 00 00 00 00 00 00 00 00 00 00 00 00 00 [................]
  | | | |         1bea: 00 00 00 00 00 00 00 00 00 00 00 00 00 00 00 00 [................]
  | | | |         1bfa: 00 00 00 00 00 00 00 00 00 00 00 00 00 00 00 00 [................]
  | | | |         1c0a: 00 00 00 00 00 00 00 00 00 00 00 00 00 00 00 00 [................]
  | | | |         1c1a: 00 00 00 00 00 00 00 00 00 00 00 00 00 00 00 00 [................]
  | | | |         1c2a: 00 00 00 00 00 00 00 00 00 00 00 00 00 00 00 00 [................]
  | | | | 105) Olympus_ImageProcessing_0x1800 = 0 0
  | | | |     - Tag 0x1800 (2 bytes, int8u[2]):
  | | | |         153c: 00 00                                           [..]
  | | | | 106) Olympus_ImageProcessing_0x1801 = 0
  | | | |     - Tag 0x1801 (2 bytes, int16u[1]):
  | | | |         1548: 00 00                                           [..]
  | | | 6)  FocusInfoIFD (SubDirectory) -->
  | | |     - Tag 0x2050 (4 bytes, ifd[1]):
  | | |         0638: 60 16 00 00                                     [`...]
  | | | + [MakerNotes directory with 88 entries, Little-endian]
  | | | | 0)  FocusInfoVersion = 0100
  | | | |     - Tag 0x0000 (4 bytes, undef[4]):
  | | | |         1c44: 30 31 30 30                                     [0100]
  | | | | 1)  Olympus_FocusInfo_0x0200 = 1621 1587
  | | | |     - Tag 0x0200 (4 bytes, int16s[2]):
  | | | |         1c50: 55 06 33 06                                     [U.3.]
  | | | | 2)  Olympus_FocusInfo_0x0201 = 1459 1451 1784
  | | | |     - Tag 0x0201 (6 bytes, int16s[3]):
  | | | |         2060: b3 05 ab 05 f8 06                               [......]
  | | | | 3)  Olympus_FocusInfo_0x0202 = 1189 1223
  | | | |     - Tag 0x0202 (4 bytes, int16s[2]):
  | | | |         1c68: a5 04 c7 04                                     [....]
  | | | | 4)  Olympus_FocusInfo_0x0203 = 709 256
  | | | |     - Tag 0x0203 (4 bytes, int16s[2]):
  | | | |         1c74: c5 02 00 01                                     [....]
  | | | | 5)  Olympus_FocusInfo_0x0204 = 783 674 0 0 0 0 0 0 0 0 0 0 0 0 0 0 0 0 0 0 0 0 0 0 0 0 0 0 0 0 0 0 0 0 0 0 0 0 0 0 0 0 0 0 0 0 0 0 0 0 0 0 0 0 0 0 0 0 0 0 0 0 0 0 0 0 0 0 0 0 0 0 0 0 0 0 0 0 0 0 0 0 0 0 0 0 0 0 0 0 0 0 0 0 0 0 0 0 0 0 0 0 0 0 0 0 0 0 0 0 0 0 0 0 0 0 0 0 0 0 0 0 0 0 0 0 0 0 0 0 0 0 0 0 0 0 0 0 0 0 0 0 0 0 0 0 0 0 0 0 0 0 0 0 0 0 0 0 0 0 0 0 0 0 0 0 0 0 0 0 0 0 0 0 0 0 0 0 0 0 0 0 0 0 0 0 0 0 0 0 0 0 0 0 0 0 0 0 0 0 0 0 0 0 0 0 0 0 0 0 0 0 0 0 0 0 0 0 0 0 0 0 0 0 0 0 0 0 0 0 0 0 0 0 0 0 0 0 0 0 0 0 0 0 0 0 0 0 0 0 0 0 0 0 0 0 0 0 0 0 0 0 0 0 0 0 0 0 0 0 0 0 0 0 0 0 0 0 0 0 0 0 0 0 0 0 0 0 0 0 0 0 0 0 0 0 0 0 0 0 0 0 0 0 0 0 0 0 0 0 0 0 0 0 0 0 0 0 0 0 0 0 0 0 0 0 0 0 0 0 0 0 0 0 0 0 0 0 0
  | | | |     - Tag 0x0204 (678 bytes, int16s[339]):
  | | | |         2066: 0f 03 a2 02 00 00 00 00 00 00 00 00 00 00 00 00 [................]
  | | | |         2076: 00 00 00 00 00 00 00 00 00 00 00 00 00 00 00 00 [................]
  | | | |         2086: 00 00 00 00 00 00 00 00 00 00 00 00 00 00 00 00 [................]
  | | | |         2096: 00 00 00 00 00 00 00 00 00 00 00 00 00 00 00 00 [................]
  | | | |         20a6: 00 00 00 00 00 00 00 00 00 00 00 00 00 00 00 00 [................]
  | | | |         20b6: 00 00 00 00 00 00 00 00 00 00 00 00 00 00 00 00 [................]
  | | | |         20c6: 00 00 00 00 00 00 00 00 00 00 00 00 00 00 00 00 [................]
  | | | |         20d6: 00 00 00 00 00 00 00 00 00 00 00 00 00 00 00 00 [................]
  | | | |         20e6: 00 00 00 00 00 00 00 00 00 00 00 00 00 00 00 00 [................]
  | | | |         20f6: 00 00 00 00 00 00 00 00 00 00 00 00 00 00 00 00 [................]
  | | | |         2106: 00 00 00 00 00 00 00 00 00 00 00 00 00 00 00 00 [................]
  | | | |         2116: 00 00 00 00 00 00 00 00 00 00 00 00 00 00 00 00 [................]
  | | | |         2126: 00 00 00 00 00 00 00 00 00 00 00 00 00 00 00 00 [................]
  | | | |         2136: 00 00 00 00 00 00 00 00 00 00 00 00 00 00 00 00 [................]
  | | | |         2146: 00 00 00 00 00 00 00 00 00 00 00 00 00 00 00 00 [................]
  | | | |         2156: 00 00 00 00 00 00 00 00 00 00 00 00 00 00 00 00 [................]
  | | | |         2166: 00 00 00 00 00 00 00 00 00 00 00 00 00 00 00 00 [................]
  | | | |         2176: 00 00 00 00 00 00 00 00 00 00 00 00 00 00 00 00 [................]
  | | | |         2186: 00 00 00 00 00 00 00 00 00 00 00 00 00 00 00 00 [................]
  | | | |         2196: 00 00 00 00 00 00 00 00 00 00 00 00 00 00 00 00 [................]
  | | | |         21a6: 00 00 00 00 00 00 00 00 00 00 00 00 00 00 00 00 [................]
  | | | |         21b6: 00 00 00 00 00 00 00 00 00 00 00 00 00 00 00 00 [................]
  | | | |         21c6: 00 00 00 00 00 00 00 00 00 00 00 00 00 00 00 00 [................]
  | | | |         21d6: 00 00 00 00 00 00 00 00 00 00 00 00 00 00 00 00 [................]
  | | | |         21e6: 00 00 00 00 00 00 00 00 00 00 00 00 00 00 00 00 [................]
  | | | |         21f6: 00 00 00 00 00 00 00 00 00 00 00 00 00 00 00 00 [................]
  | | | |         2206: 00 00 00 00 00 00 00 00 00 00 00 00 00 00 00 00 [................]
  | | | |         2216: 00 00 00 00 00 00 00 00 00 00 00 00 00 00 00 00 [................]
  | | | |         2226: 00 00 00 00 00 00 00 00 00 00 00 00 00 00 00 00 [................]
  | | | |         2236: 00 00 00 00 00 00 00 00 00 00 00 00 00 00 00 00 [................]
  | | | |         2246: 00 00 00 00 00 00 00 00 00 00 00 00 00 00 00 00 [................]
  | | | |         2256: 00 00 00 00 00 00 00 00 00 00 00 00 00 00 00 00 [................]
  | | | |         2266: 00 00 00 00 00 00 00 00 00 00 00 00 00 00 00 00 [................]
  | | | |         2276: 00 00 00 00 00 00 00 00 00 00 00 00 00 00 00 00 [................]
  | | | |         2286: 00 00 00 00 00 00 00 00 00 00 00 00 00 00 00 00 [................]
  | | | |         2296: 00 00 00 00 00 00 00 00 00 00 00 00 00 00 00 00 [................]
  | | | |         22a6: 00 00 00 00 00 00 00 00 00 00 00 00 00 00 00 00 [................]
  | | | |         22b6: 00 00 00 00 00 00 00 00 00 00 00 00 00 00 00 00 [................]
  | | | |         22c6: 00 00 00 00 00 00 00 00 00 00 00 00 00 00 00 00 [................]
  | | | |         22d6: 00 00 00 00 00 00 00 00 00 00 00 00 00 00 00 00 [................]
  | | | |         22e6: 00 00 00 00 00 00 00 00 00 00 00 00 00 00 00 00 [................]
  | | | |         22f6: 00 00 00 00 00 00 00 00 00 00 00 00 00 00 00 00 [................]
  | | | |         2306: 00 00 00 00 00 00                               [......]
  | | | | 6)  Olympus_FocusInfo_0x0205 = 0
  | | | |     - Tag 0x0205 (2 bytes, int16s[1]):
  | | | |         1c8c: 00 00                                           [..]
  | | | | 7)  Olympus_FocusInfo_0x0206 = 0
  | | | |     - Tag 0x0206 (2 bytes, int16s[1]):
  | | | |         1c98: 00 00                                           [..]
  | | | | 8)  Olympus_FocusInfo_0x0207 = 0
  | | | |     - Tag 0x0207 (2 bytes, int16u[1]):
  | | | |         1ca4: 00 00                                           [..]
  | | | | 9)  AutoFocus = 0
  | | | |     - Tag 0x0209 (2 bytes, int16u[1]):
  | | | |         1cb0: 00 00                                           [..]
  | | | | 10) Olympus_FocusInfo_0x020a = 0
  | | | |     - Tag 0x020a (2 bytes, int16u[1]):
  | | | |         1cbc: 00 00                                           [..]
  | | | | 11) Olympus_FocusInfo_0x020b = 256
  | | | |     - Tag 0x020b (2 bytes, int16u[1]):
  | | | |         1cc8: 00 01                                           [..]
  | | | | 12) Olympus_FocusInfo_0x020c = 0 0
  | | | |     - Tag 0x020c (4 bytes, int16s[2]):
  | | | |         1cd4: 00 00 00 00                                     [....]
  | | | | 13) Olympus_FocusInfo_0x020d = 0
  | | | |     - Tag 0x020d (4 bytes, int32u[1]):
  | | | |         1ce0: 00 00 00 00                                     [....]
  | | | | 14) Olympus_FocusInfo_0x020e = 0 0 0 0 0
  | | | |     - Tag 0x020e (20 bytes, int32u[5]):
  | | | |         230c: 00 00 00 00 00 00 00 00 00 00 00 00 00 00 00 00 [................]
  | | | |         231c: 00 00 00 00                                     [....]
  | | | | 15) Olympus_FocusInfo_0x020f = 0 0 106235315 46465024 77922309
  | | | |     - Tag 0x020f (20 bytes, int32u[5]):
  | | | |         2320: 00 00 00 00 00 00 00 00 b3 05 55 06 00 00 c5 02 [..........U.....]
  | | | |         2330: 05 00 a5 04                                     [....]
  | | | | 16) SceneDetect = 0
  | | | |     - Tag 0x0210 (2 bytes, int16u[1]):
  | | | |         1d04: 00 00                                           [..]
  | | | | 17) SceneArea = 0 0 0 0 0 0 0 2046824464
  | | | |     - Tag 0x0211 (32 bytes, int32u[8]):
  | | | |         2334: 00 00 00 00 00 00 00 00 00 00 00 00 00 00 00 00 [................]
  | | | |         2344: 00 00 00 00 00 00 00 00 00 00 00 00 10 10 00 7a [...............z]
  | | | | 18) SceneDetectData = 0 0 0 0 0 0 0 0 0 0 0 0 0 0 0 0 0 0 0 0 0 0 0 0 0 0 0 0 0 0 0 0 0 0 0 0 0 0 0 0 0 0 0 0 0 0 0 0 0 0 0 0 0 0 0 0 0 0 0 0 0 0 0 0 0 0 0 0 0 0 0 0 0 0 0 0 0 0 0 0 0 0 0 0 0 0 0 0 0 0 0 0 0 0 0 0 0 0 0 0 0 0 0 0 0 0 0 0 0 0 0 0 0 0 0 0 0 0 0 0 0 0 0 0 0 0 0 0 0 0 0 0 0 0 0 0 0 0 0 0 0 0 0 0 0 0 0 0 0 0 0 0 0 0 0 0 0 0 0 0 0 0 0 0 0 0 0 0 0 0 0 0 0 0 0 0 0 0 0 0 0 0 0 0 0 0 0 0 0 0 0 0 0 0 0 0 0 0 0 0 0 0 0 0 0 0 0 0 0 0 0 0 0 0 0 0 0 0 0 0 0 0 0 0 0 0 0 0 0 0 0 0 0 0 0 0 0 0 0 0 0 0 0 0 0 0 0 0 0 0 0 0 0 0 0 0 0 0 0 0 0 0 0 0 0 0 0 0 0 0 0 0 0 0 0 0 0 0 0 0 0 0 0 0 0 0 0 0 0 0 0 0 0 0 0 0 0 0 0 0 0 0 0 0 0 0 0 0 0 0 0 0 0 0 0 0 0 0 0 0 0 0 0 0 0 0 0 0 0 0 0 0 0 0 0 0 0 0 0 0 0 0 0 0 0 0 0 0 0 0 0 0 0 0 0 0 0 0 0 0 0 0 0 0 0 0 0 0 0 0 0 0 0 0 0 0 0 0 0 0 0 0 0 0 0 0 0 0 0 0 0 0 0 0 0 0 0 0 0 0 0 0 0 0 0 0 0 0 0 0 0 0 0 0 0 0 0 0 0 0 0 0 0 0 0 0 0 0 0 0 0 0 0 0 0 0 0 0 0 0 0 0 0 0 0 0 0 0 0 0 0 0 0 0 0 0 0 0 0 0 0 0 0 0 0 0 0 0 0 0 0 0 0 0 0 0 0 0 0 0 0 0 0 0 0 0 0 0 0 0 0 0 0 0 0 0 0 0 0 0 0 0 0 0 0 0 0 0 0 0 0 0 0 0 0 0 0 0 0 0 0 0 0 0 0 0 0 0 0 0 0 0 0 0 0 0 5 0 0 513 116850949 0 1 16 0 0 0 0 0 0 0 0 692 2147516416 2147516416 2147516416 2147516416 46465757 43254333 48038618 51249948 50529000 49152755 48431859 49873617 49152766 36373167 46072381 54330145 56034143 55182123 52167471 45875971 47645356 49480424 38142652 47055425 55444262 58327915 57869155 52495165 43909870 48038541 49480424 38994623 46269043 52167433 58590026 56558439 51905337 43254484 49152656 49873683 39781039 43451024 47841986 54592280 52822831 53150511 41812683 49152660 49873716 41353883 44827304 45023909 50528983 52167406 54592428 40043208 49480333 47842105 39518819 47055545 43254444 47841960 65536718 62456841 41353909 49480340 46072595 37814862 45875887 42533544 43909769 62653086 61145997 45876063 50201282 44565219 39256683 41812621 42533513 40043123 68354655 61342538 50529165 49152727 42992316 38404742 37814871 40043091 38142538 64619138 52495151 36045530 44171985 40043138 33423955 36635164 34800142 34800137 56295955 42533591 38404780 410917[snip]
  | | | |     - Tag 0x0212 (3200 bytes, int32u[800]):
  | | | |         2354: 00 00 00 00 00 00 00 00 00 00 00 00 00 00 00 00 [................]
  | | | |         2364: 00 00 00 00 00 00 00 00 00 00 00 00 00 00 00 00 [................]
  | | | |         2374: 00 00 00 00 00 00 00 00 00 00 00 00 00 00 00 00 [................]
  | | | |         2384: 00 00 00 00 00 00 00 00 00 00 00 00 00 00 00 00 [................]
  | | | |         2394: 00 00 00 00 00 00 00 00 00 00 00 00 00 00 00 00 [................]
  | | | |         23a4: 00 00 00 00 00 00 00 00 00 00 00 00 00 00 00 00 [................]
  | | | |         23b4: 00 00 00 00 00 00 00 00 00 00 00 00 00 00 00 00 [................]
  | | | |         23c4: 00 00 00 00 00 00 00 00 00 00 00 00 00 00 00 00 [................]
  | | | |         23d4: 00 00 00 00 00 00 00 00 00 00 00 00 00 00 00 00 [................]
  | | | |         23e4: 00 00 00 00 00 00 00 00 00 00 00 00 00 00 00 00 [................]
  | | | |         23f4: 00 00 00 00 00 00 00 00 00 00 00 00 00 00 00 00 [................]
  | | | |         2404: 00 00 00 00 00 00 00 00 00 00 00 00 00 00 00 00 [................]
  | | | |         2414: 00 00 00 00 00 00 00 00 00 00 00 00 00 00 00 00 [................]
  | | | |         2424: 00 00 00 00 00 00 00 00 00 00 00 00 00 00 00 00 [................]
  | | | |         2434: 00 00 00 00 00 00 00 00 00 00 00 00 00 00 00 00 [................]
  | | | |         2444: 00 00 00 00 00 00 00 00 00 00 00 00 00 00 00 00 [................]
  | | | |         2454: 00 00 00 00 00 00 00 00 00 00 00 00 00 00 00 00 [................]
  | | | |         2464: 00 00 00 00 00 00 00 00 00 00 00 00 00 00 00 00 [................]
  | | | |         2474: 00 00 00 00 00 00 00 00 00 00 00 00 00 00 00 00 [................]
  | | | |         2484: 00 00 00 00 00 00 00 00 00 00 00 00 00 00 00 00 [................]
  | | | |         2494: 00 00 00 00 00 00 00 00 00 00 00 00 00 00 00 00 [................]
  | | | |         24a4: 00 00 00 00 00 00 00 00 00 00 00 00 00 00 00 00 [................]
  | | | |         24b4: 00 00 00 00 00 00 00 00 00 00 00 00 00 00 00 00 [................]
  | | | |         24c4: 00 00 00 00 00 00 00 00 00 00 00 00 00 00 00 00 [................]
  | | | |         24d4: 00 00 00 00 00 00 00 00 00 00 00 00 00 00 00 00 [................]
  | | | |         24e4: 00 00 00 00 00 00 00 00 00 00 00 00 00 00 00 00 [................]
  | | | |         24f4: 00 00 00 00 00 00 00 00 00 00 00 00 00 00 00 00 [................]
  | | | |         2504: 00 00 00 00 00 00 00 00 00 00 00 00 00 00 00 00 [................]
  | | | |         2514: 00 00 00 00 00 00 00 00 00 00 00 00 00 00 00 00 [................]
  | | | |         2524: 00 00 00 00 00 00 00 00 00 00 00 00 00 00 00 00 [................]
  | | | |         2534: 00 00 00 00 00 00 00 00 00 00 00 00 00 00 00 00 [................]
  | | | |         2544: 00 00 00 00 00 00 00 00 00 00 00 00 00 00 00 00 [................]
  | | | |         2554: 00 00 00 00 00 00 00 00 00 00 00 00 00 00 00 00 [................]
  | | | |         2564: 00 00 00 00 00 00 00 00 00 00 00 00 00 00 00 00 [................]
  | | | |         2574: 00 00 00 00 00 00 00 00 00 00 00 00 00 00 00 00 [................]
  | | | |         2584: 00 00 00 00 00 00 00 00 00 00 00 00 00 00 00 00 [................]
  | | | |         2594: 00 00 00 00 00 00 00 00 00 00 00 00 00 00 00 00 [................]
  | | | |         25a4: 00 00 00 00 00 00 00 00 00 00 00 00 00 00 00 00 [................]
  | | | |         25b4: 00 00 00 00 00 00 00 00 00 00 00 00 00 00 00 00 [................]
  | | | |         25c4: 00 00 00 00 00 00 00 00 00 00 00 00 00 00 00 00 [................]
  | | | |         25d4: 00 00 00 00 00 00 00 00 00 00 00 00 00 00 00 00 [................]
  | | | |         25e4: 00 00 00 00 00 00 00 00 00 00 00 00 00 00 00 00 [................]
  | | | |         25f4: 00 00 00 00 00 00 00 00 00 00 00 00 00 00 00 00 [................]
  | | | |         2604: 00 00 00 00 00 00 00 00 00 00 00 00 00 00 00 00 [................]
  | | | |         2614: 00 00 00 00 00 00 00 00 00 00 00 00 00 00 00 00 [................]
  | | | |         2624: 00 00 00 00 00 00 00 00 00 00 00 00 00 00 00 00 [................]
  | | | |         2634: 00 00 00 00 00 00 00 00 00 00 00 00 00 00 00 00 [................]
  | | | |         2644: 00 00 00 00 00 00 00 00 00 00 00 00 00 00 00 00 [................]
  | | | |         2654: 00 00 00 00 00 00 00 00 00 00 00 00 00 00 00 00 [................]
  | | | |         2664: 00 00 00 00 00 00 00 00 00 00 00 00 00 00 00 00 [................]
  | | | |         2674: 00 00 00 00 00 00 00 00 00 00 00 00 00 00 00 00 [................]
  | | | |         2684: 00 00 00 00 00 00 00 00 00 00 00 00 00 00 00 00 [................]
  | | | |         2694: 00 00 00 00 00 00 00 00 00 00 00 00 00 00 00 00 [................]
  | | | |         26a4: 00 00 00 00 00 00 00 00 00 00 00 00 00 00 00 00 [................]
  | | | |         26b4: 00 00 00 00 00 00 00 00 00 00 00 00 00 00 00 00 [................]
  | | | |         26c4: 00 00 00 00 00 00 00 00 00 00 00 00 00 00 00 00 [................]
  | | | |         26d4: 00 00 00 00 00 00 00 00 00 00 00 00 00 00 00 00 [................]
  | | | |         26e4: 00 00 00 00 00 00 00 00 00 00 00 00 00 00 00 00 [................]
  | | | |         26f4: 00 00 00 00 00 00 00 00 00 00 00 00 00 00 00 00 [................]
  | | | |         2704: 00 00 00 00 00 00 00 00 00 00 00 00 00 00 00 00 [................]
  | | | |         2714: 00 00 00 00 00 00 00 00 00 00 00 00 00 00 00 00 [................]
  | | | |         2724: 00 00 00 00 00 00 00 00 00 00 00 00 00 00 00 00 [................]
  | | | |         2734: 00 00 00 00 00 00 00 00 00 00 00 00 00 00 00 00 [................]
  | | | |         2744: 00 00 00 00 00 00 00 00 00 00 00 00 00 00 00 00 [................]
  | | | |         2754: 00 00 00 00 00 00 00 00 00 00 00 00 00 00 00 00 [................]
  | | | |         2764: 00 00 00 00 00 00 00 00 00 00 00 00 00 00 00 00 [................]
  | | | |         2774: 00 00 00 00 00 00 00 00 00 00 00 00 00 00 00 00 [................]
  | | | |         2784: 00 00 00 00 00 00 00 00 00 00 00 00 00 00 00 00 [................]
  | | | |         2794: 00 00 00 00 00 00 00 00 00 00 00 00 00 00 00 00 [................]
  | | | |         27a4: 00 00 00 00 00 00 00 00 00 00 00 00 00 00 00 00 [................]
  | | | |         27b4: 00 00 00 00 00 00 00 00 00 00 00 00 00 00 00 00 [................]
  | | | |         27c4: 00 00 00 00 00 00 00 00 00 00 00 00 00 00 00 00 [................]
  | | | |         27d4: 00 00 00 00 00 00 00 00 00 00 00 00 00 00 00 00 [................]
  | | | |         27e4: 00 00 00 00 00 00 00 00 00 00 00 00 00 00 00 00 [................]
  | | | |         27f4: 00 00 00 00 00 00 00 00 00 00 00 00 00 00 00 00 [................]
  | | | |         2804: 00 00 00 00 00 00 00 00 00 00 00 00 00 00 00 00 [................]
  | | | |         2814: 00 00 00 00 00 00 00 00 00 00 00 00 00 00 00 00 [................]
  | | | |         2824: 00 00 00 00 00 00 00 00 00 00 00 00 00 00 00 00 [................]
  | | | |         2834: 00 00 00 00 00 00 00 00 00 00 00 00 00 00 00 00 [................]
  | | | |         2844: 00 00 00 00 00 00 00 00 00 00 00 00 00 00 00 00 [................]
  | | | |         2854: 00 00 00 00 00 00 00 00 00 00 00 00 00 00 00 00 [................]
  | | | |         2864: 00 00 00 00 00 00 00 00 00 00 00 00 00 00 00 00 [................]
  | | | |         2874: 00 00 00 00 00 00 00 00 00 00 00 00 00 00 00 00 [................]
  | | | |         2884: 00 00 00 00 00 00 00 00 00 00 00 00 00 00 00 00 [................]
  | | | |         2894: 00 00 00 00 00 00 00 00 00 00 00 00 00 00 00 00 [................]
  | | | |         28a4: 00 00 00 00 00 00 00 00 00 00 00 00 00 00 00 00 [................]
  | | | |         28b4: 00 00 00 00 00 00 00 00 00 00 00 00 00 00 00 00 [................]
  | | | |         28c4: 00 00 00 00 00 00 00 00 00 00 00 00 00 00 00 00 [................]
  | | | |         28d4: 00 00 00 00 00 00 00 00 00 00 00 00 00 00 00 00 [................]
  | | | |         28e4: 00 00 00 00 00 00 00 00 00 00 00 00 00 00 00 00 [................]
  | | | |         28f4: 00 00 00 00 00 00 00 00 00 00 00 00 00 00 00 00 [................]
  | | | |         2904: 00 00 00 00 00 00 00 00 00 00 00 00 00 00 00 00 [................]
  | | | |         2914: 00 00 00 00 00 00 00 00 00 00 00 00 00 00 00 00 [................]
  | | | |         2924: 00 00 00 00 00 00 00 00 00 00 00 00 00 00 00 00 [................]
  | | | |         2934: 00 00 00 00 00 00 00 00 00 00 00 00 00 00 00 00 [................]
  | | | |         2944: 00 00 00 00 00 00 00 00 00 00 00 00 00 00 00 00 [................]
  | | | |         2954: 00 00 00 00 00 00 00 00 00 00 00 00 00 00 00 00 [................]
  | | | |         2964: 00 00 00 00 00 00 00 00 00 00 00 00 00 00 00 00 [................]
  | | | |         2974: 00 00 00 00 00 00 00 00 00 00 00 00 00 00 00 00 [................]
  | | | |         2984: 00 00 00 00 00 00 00 00 00 00 00 00 00 00 00 00 [................]
  | | | |         2994: 00 00 00 00 00 00 00 00 00 00 00 00 00 00 00 00 [................]
  | | | |         29a4: 00 00 00 00 00 00 00 00 00 00 00 00 00 00 00 00 [................]
  | | | |         29b4: 00 00 00 00 00 00 00 00 00 00 00 00 00 00 00 00 [................]
  | | | |         29c4: 00 00 00 00 00 00 00 00 00 00 00 00 00 00 00 00 [................]
  | | | |         29d4: 00 00 00 00 00 00 00 00 00 00 00 00 00 00 00 00 [................]
  | | | |         29e4: 00 00 00 00 00 00 00 00 00 00 00 00 00 00 00 00 [................]
  | | | |         29f4: 00 00 00 00 00 00 00 00 00 00 00 00 00 00 00 00 [................]
  | | | |         2a04: 00 00 00 00 00 00 00 00 00 00 00 00 00 00 00 00 [................]
  | | | |         2a14: 00 00 00 00 00 00 00 00 00 00 00 00 00 00 00 00 [................]
  | | | |         2a24: 00 00 00 00 00 00 00 00 00 00 00 00 00 00 00 00 [................]
  | | | |         2a34: 00 00 00 00 00 00 00 00 00 00 00 00 00 00 00 00 [................]
  | | | |         2a44: 00 00 00 00 00 00 00 00 00 00 00 00 00 00 00 00 [................]
  | | | |         2a54: 00 00 00 00 00 00 00 00 00 00 00 00 00 00 00 00 [................]
  | | | |         2a64: 00 00 00 00 00 00 00 00 00 00 00 00 00 00 00 00 [................]
  | | | |         2a74: 00 00 00 00 00 00 00 00 00 00 00 00 00 00 00 00 [................]
  | | | |         2a84: 00 00 00 00 00 00 00 00 00 00 00 00 00 00 00 00 [................]
  | | | |         2a94: 00 00 00 00 00 00 00 00 00 00 00 00 00 00 00 00 [................]
  | | | |         2aa4: 00 00 00 00 00 00 00 00 00 00 00 00 00 00 00 00 [................]
  | | | |         2ab4: 00 00 00 00 00 00 00 00 00 00 00 00 00 00 00 00 [................]
  | | | |         2ac4: 00 00 00 00 00 00 00 00 00 00 00 00 00 00 00 00 [................]
  | | | |         2ad4: 00 00 00 00 00 00 00 00 00 00 00 00 00 00 00 00 [................]
  | | | |         2ae4: 00 00 00 00 00 00 00 00 00 00 00 00 00 00 00 00 [................]
  | | | |         2af4: 00 00 00 00 00 00 00 00 00 00 00 00 00 00 00 00 [................]
  | | | |         2b04: 00 00 00 00 00 00 00 00 00 00 00 00 00 00 00 00 [................]
  | | | |         2b14: 00 00 00 00 00 00 00 00 00 00 00 00 00 00 00 00 [................]
  | | | |         2b24: 00 00 00 00 00 00 00 00 00 00 00 00 00 00 00 00 [................]
  | | | |         2b34: 00 00 00 00 00 00 00 00 00 00 00 00 00 00 00 00 [................]
  | | | |         [snip 1168 bytes]
  | | | | 19) Olympus_FocusInfo_0x0213 = 0
  | | | |     - Tag 0x0213 (2 bytes, int16u[1]):
  | | | |         1d28: 00 00                                           [..]
  | | | | 20) Olympus_FocusInfo_0x0214 = 0
  | | | |     - Tag 0x0214 (2 bytes, int16u[1]):
  | | | |         1d34: 00 00                                           [..]
  | | | | 21) Olympus_FocusInfo_0x0215 = 0
  | | | |     - Tag 0x0215 (2 bytes, int16u[1]):
  | | | |         1d40: 00 00                                           [..]
  | | | | 22) Olympus_FocusInfo_0x0219 = 0 0 0 0
  | | | |     - Tag 0x0219 (8 bytes, int16s[4]):
  | | | |         2fd4: 00 00 00 00 00 00 00 00                         [........]
  | | | | 23) Olympus_FocusInfo_0x021a = 743 714 608 475
  | | | |     - Tag 0x021a (8 bytes, int16s[4]):
  | | | |         2fdc: e7 02 ca 02 60 02 db 01                         [....`...]
  | | | | 24) Olympus_FocusInfo_0x021b = 728 661 541
  | | | |     - Tag 0x021b (6 bytes, int16s[3]):
  | | | |         2fe4: d8 02 95 02 1d 02                               [......]
  | | | | 25) ZoomStepCount = 16
  | | | |     - Tag 0x0300 (2 bytes, int16u[1]):
  | | | |         1d70: 10 00                                           [..]
  | | | | 26) FocusStepCount = 906
  | | | |     - Tag 0x0301 (2 bytes, int16u[1]):
  | | | |         1d7c: 8a 03                                           [..]
  | | | | 27) Olympus_FocusInfo_0x0302 = 0
  | | | |     - Tag 0x0302 (2 bytes, int16u[1]):
  | | | |         1d88: 00 00                                           [..]
  | | | | 28) FocusStepInfinity = 0
  | | | |     - Tag 0x0303 (2 bytes, int16u[1]):
  | | | |         1d94: 00 00                                           [..]
  | | | | 29) FocusStepNear = 0
  | | | |     - Tag 0x0304 (2 bytes, int16u[1]):
  | | | |         1da0: 00 00                                           [..]
  | | | | 30) FocusDistance = 1320 10
  | | | |     - Tag 0x0305 (8 bytes, rational64u[1] read as int32u[2]):
  | | | |         2fea: 28 05 00 00 0a 00 00 00                         [(.......]
  | | | | 31) Olympus_FocusInfo_0x0307 = 0
  | | | |     - Tag 0x0307 (2 bytes, int16u[1]):
  | | | |         1db8: 00 00                                           [..]
  | | | | 32) AFPoint = 0
  | | | |     - Tag 0x0308 (2 bytes, int16u[1]):
  | | | |         1dc4: 00 00                                           [..]
  | | | | 33) Olympus_FocusInfo_0x0309 = 0
  | | | |     - Tag 0x0309 (2 bytes, int16u[1]):
  | | | |         1dd0: 00 00                                           [..]
  | | | | 34) Olympus_FocusInfo_0x030a = 0 0 0 0 0 0 0 0 0 0 0 0 0 0 0 0 0 0 0 0
  | | | |     - Tag 0x030a (40 bytes, int16s[20]):
  | | | |         2ff2: 00 00 00 00 00 00 00 00 00 00 00 00 00 00 00 00 [................]
  | | | |         3002: 00 00 00 00 00 00 00 00 00 00 00 00 00 00 00 00 [................]
  | | | |         3012: 00 00 00 00 00 00 00 00                         [........]
  | | | | 35) Olympus_FocusInfo_0x030b = 0
  | | | |     - Tag 0x030b (2 bytes, int16u[1]):
  | | | |         1de8: 00 00                                           [..]
  | | | | 36) Olympus_FocusInfo_0x030c = 0 0
  | | | |     - Tag 0x030c (4 bytes, int16u[2]):
  | | | |         1df4: 00 00 00 00                                     [....]
  | | | | 37) Olympus_FocusInfo_0x030d = 0 0 0 0 0 0 0 0 0 0 0 0 0 0 0 0 0 0 0 0 0 0
  | | | |     - Tag 0x030d (44 bytes, int16u[22]):
  | | | |         301a: 00 00 00 00 00 00 00 00 00 00 00 00 00 00 00 00 [................]
  | | | |         302a: 00 00 00 00 00 00 00 00 00 00 00 00 00 00 00 00 [................]
  | | | |         303a: 00 00 00 00 00 00 00 00 00 00 00 00             [............]
  | | | | 38) Olympus_FocusInfo_0x030e = 0
  | | | |     - Tag 0x030e (2 bytes, int16u[1]):
  | | | |         1e0c: 00 00                                           [..]
  | | | | 39) Olympus_FocusInfo_0x030f = 400 0 0 0
  | | | |     - Tag 0x030f (8 bytes, int16s[4]):
  | | | |         3046: 90 01 00 00 00 00 00 00                         [........]
  | | | | 40) Olympus_FocusInfo_0x0310 = 0
  | | | |     - Tag 0x0310 (2 bytes, int16u[1]):
  | | | |         1e24: 00 00                                           [..]
  | | | | 41) Olympus_FocusInfo_0x0311 = 0
  | | | |     - Tag 0x0311 (2 bytes, int16u[1]):
  | | | |         1e30: 00 00                                           [..]
  | | | | 42) Olympus_FocusInfo_0x0312 = 0 0
  | | | |     - Tag 0x0312 (4 bytes, int16u[2]):
  | | | |         1e3c: 00 00 00 00                                     [....]
  | | | | 43) Olympus_FocusInfo_0x0313 = 907
  | | | |     - Tag 0x0313 (2 bytes, int16s[1]):
  | | | |         1e48: 8b 03                                           [..]
  | | | | 44) Olympus_FocusInfo_0x0314 = 0
  | | | |     - Tag 0x0314 (2 bytes, int16u[1]):
  | | | |         1e54: 00 00                                           [..]
  | | | | 45) Olympus_FocusInfo_0x0315 = 0
  | | | |     - Tag 0x0315 (2 bytes, int16s[1]):
  | | | |         1e60: 00 00                                           [..]
  | | | | 46) Olympus_FocusInfo_0x0316 = 0 0 0 0 0 0 0 0 0 0 0 0 0 0 0 0 0 0 0 0 0 0 0 0 0 0 0 0 0 0 0 0 0 0 0 0
  | | | |     - Tag 0x0316 (72 bytes, int16s[36]):
  | | | |         304e: 00 00 00 00 00 00 00 00 00 00 00 00 00 00 00 00 [................]
  | | | |         305e: 00 00 00 00 00 00 00 00 00 00 00 00 00 00 00 00 [................]
  | | | |         306e: 00 00 00 00 00 00 00 00 00 00 00 00 00 00 00 00 [................]
  | | | |         307e: 00 00 00 00 00 00 00 00 00 00 00 00 00 00 00 00 [................]
  | | | |         308e: 00 00 00 00 00 00 00 00                         [........]
  | | | | 47) Olympus_FocusInfo_0x0318 = 1
  | | | |     - Tag 0x0318 (2 bytes, int16u[1]):
  | | | |         1e78: 01 00                                           [..]
  | | | | 48) Olympus_FocusInfo_0x0319 = 0
  | | | |     - Tag 0x0319 (2 bytes, int16u[1]):
  | | | |         1e84: 00 00                                           [..]
  | | | | 49) Olympus_FocusInfo_0x031a = 0 0 0 0 0 0 0 0 0 0 0 0 0 0 0 0 0 0 52561 0 0 0 0 0 0 0 0 0 0 0 0 0 0 0 0 0 0 0 0 0 0 0 0 0 0 0 0 0 0 0 0 0 0 0 0 0 0 0 0 0 0 0 0 0 0 0 0 0 0 0 0 0 0 0 0 0 0 0 0 0 0 0 0 0
  | | | |     - Tag 0x031a (168 bytes, int16u[84]):
  | | | |         3096: 00 00 00 00 00 00 00 00 00 00 00 00 00 00 00 00 [................]
  | | | |         30a6: 00 00 00 00 00 00 00 00 00 00 00 00 00 00 00 00 [................]
  | | | |         30b6: 00 00 00 00 51 cd 00 00 00 00 00 00 00 00 00 00 [....Q...........]
  | | | |         30c6: 00 00 00 00 00 00 00 00 00 00 00 00 00 00 00 00 [................]
  | | | |         30d6: 00 00 00 00 00 00 00 00 00 00 00 00 00 00 00 00 [................]
  | | | |         30e6: 00 00 00 00 00 00 00 00 00 00 00 00 00 00 00 00 [................]
  | | | |         30f6: 00 00 00 00 00 00 00 00 00 00 00 00 00 00 00 00 [................]
  | | | |         3106: 00 00 00 00 00 00 00 00 00 00 00 00 00 00 00 00 [................]
  | | | |         3116: 00 00 00 00 00 00 00 00 00 00 00 00 00 00 00 00 [................]
  | | | |         3126: 00 00 00 00 00 00 00 00 00 00 00 00 00 00 00 00 [................]
  | | | |         3136: 00 00 00 00 00 00 00 00                         [........]
  | | | | 50) AFPointDetails = 0
  | | | |     - Tag 0x031b (2 bytes, int16u[1]):
  | | | |         1e9c: 00 00                                           [..]
  | | | | 51) Olympus_FocusInfo_0x031c = 0
  | | | |     - Tag 0x031c (4 bytes, int32s[1]):
  | | | |         1ea8: 00 00 00 00                                     [....]
  | | | | 52) Olympus_FocusInfo_0x031d = 0
  | | | |     - Tag 0x031d (4 bytes, int32s[1]):
  | | | |         1eb4: 00 00 00 00                                     [....]
  | | | | 53) Olympus_FocusInfo_0x031e = 0
  | | | |     - Tag 0x031e (4 bytes, int32s[1]):
  | | | |         1ec0: 00 00 00 00                                     [....]
  | | | | 54) Olympus_FocusInfo_0x0320 = 0 0 0 0 0 0 0 0 0 0 0 0 0 0 0 0
  | | | |     - Tag 0x0320 (32 bytes, int16u[16]):
  | | | |         313e: 00 00 00 00 00 00 00 00 00 00 00 00 00 00 00 00 [................]
  | | | |         314e: 00 00 00 00 00 00 00 00 00 00 00 00 00 00 00 00 [................]
  | | | | 55) Olympus_FocusInfo_0x0321 = 0
  | | | |     - Tag 0x0321 (2 bytes, int16s[1]):
  | | | |         1ed8: 00 00                                           [..]
  | | | | 56) Olympus_FocusInfo_0x0324 = 0
  | | | |     - Tag 0x0324 (2 bytes, int16s[1]):
  | | | |         1ee4: 00 00                                           [..]
  | | | | 57) Olympus_FocusInfo_0x0325 = 0 0 0 0 0 0 0 0
  | | | |     - Tag 0x0325 (16 bytes, int16u[8]):
  | | | |         315e: 00 00 00 00 00 00 00 00 00 00 00 00 00 00 00 00 [................]
  | | | | 58) Olympus_FocusInfo_0x0326 = 0 0 0 0 0 0 0 0
  | | | |     - Tag 0x0326 (16 bytes, int16u[8]):
  | | | |         316e: 00 00 00 00 00 00 00 00 00 00 00 00 00 00 00 00 [................]
  | | | | 59) Olympus_FocusInfo_0x0327 = 0
  | | | |     - Tag 0x0327 (2 bytes, int16u[1]):
  | | | |         1f08: 00 00                                           [..]
  | | | | 60) AFInfo (SubDirectory) -->
  | | | |     - Tag 0x0328 (512 bytes, undef[512]):
  | | | |         317e: 01 09 64 00 bb 02 a5 04 00 06 f7 06 e5 02 a5 04 [..d.............]
  | | | |         318e: 00 07 f7 07 81 c9 55 ca f7 01 e1 03 f8 01 eb 01 [......U.........]
  | | | |         319e: c2 03 ee 01 dd 01 a5 03 e3 01 00 00 51 99 00 00 [............Q...]
  | | | |         31ae: d0 02 88 00 5b 00 0d 00 00 00 00 00 a2 00 56 05 [....[.........V.]
  | | | |         31be: 8b 03 81 c9 38 01 8a 03 87 03 aa 03 89 03 67 03 [....8.........g.]
  | | | |         31ce: 74 3a 09 00 53 eb 04 00 7a 20 07 00 50 cb 06 00 [t:..S...z ..P...]
  | | | |         31de: a3 55 07 00 42 24 07 00 50 cb 06 00 e3 73 04 00 [.U..B$..P....s..]
  | | | |         31ee: 0c 20 07 00 11 12 13 21 31 33 14 15 00 00 00 00 [. .....!13......]
  | | | |         31fe: 00 00 00 00 00 00 00 00 00 00 00 00 00 00 00 00 [................]
  | | | |         320e: 00 00 00 00 81 c9 81 c9 ca 03 00 00 82 c9 cb c9 [................]
  | | | |         321e: d0 c9 ca 03 e0 c9 aa 03 f1 c9 67 03 8a 03 00 00 [..........g.....]
  | | | |         322e: f5 c9 55 ca 00 00 00 00 00 00 00 00 00 00 00 00 [..U.............]
  | | | |         323e: 00 00 00 00 00 00 00 00 00 00 00 00 00 00 00 00 [................]
  | | | |         324e: 00 00 00 00 00 00 00 00 00 00 00 00 00 00 00 00 [................]
  | | | |         325e: 00 00 00 00 00 00 00 00 00 00 00 00 00 00 00 00 [................]
  | | | |         326e: 00 00 00 00 00 00 00 00 00 00 00 00 00 00 00 00 [................]
  | | | |         327e: 00 00 00 00 00 00 00 00 00 00 00 00 00 00 00 00 [................]
  | | | |         328e: 00 00 00 00 00 00 10 f0 22 00 00 00 fe 83 02 00 [........".......]
  | | | |         329e: ff ff ff ff ff ff ff ff ff ff fd ff 00 00 00 00 [................]
  | | | |         32ae: 00 00 00 00 00 00 00 00 00 00 00 00 00 00 00 00 [................]
  | | | |         32be: 00 00 00 00 00 00 00 00 01 28 10 00 00 00 00 00 [.........(......]
  | | | |         32ce: 00 00 00 00 00 00 00 00 00 00 02 00 d3 79 03 00 [.............y..]
  | | | |         32de: 00 00 00 00 00 00 00 00 00 00 00 00 00 00 00 00 [................]
  | | | |         32ee: 00 00 00 00 00 00 00 00 00 00 00 00 00 00 00 00 [................]
  | | | |         32fe: 00 00 00 00 00 00 00 00 00 00 00 00 00 00 00 00 [................]
  | | | |         330e: 00 00 00 00 00 00 00 00 00 00 00 00 00 00 00 00 [................]
  | | | |         331e: 00 00 00 00 00 00 00 00 00 00 00 00 00 00 00 00 [................]
  | | | |         332e: 00 00 00 00 00 00 00 00 00 00 00 00 00 00 00 00 [................]
  | | | |         333e: 00 00 00 00 00 00 00 00 00 00 00 00 00 00 00 00 [................]
  | | | |         334e: 00 00 00 00 00 00 00 00 00 00 00 00 00 00 00 00 [................]
  | | | |         335e: 00 00 00 00 00 00 00 00 00 00 00 00 00 00 00 00 [................]
  | | | |         336e: 00 00 00 00 00 00 00 00 00 00 00 00 00 00 00 00 [................]
  | | | | + [BinaryData directory, 512 bytes, Little-endian]
  | | | | 61) Olympus_FocusInfo_0x0329 = 
  | | | |     - Tag 0x0329 (4 bytes, undef[4]):
  | | | |         1f20: 00 00 00 00                                     [....]
  | | | | 62) Olympus_FocusInfo_0x032a = 0
  | | | |     - Tag 0x032a (2 bytes, int16s[1]):
  | | | |         1f2c: 00 00                                           [..]
  | | | | 63) Olympus_FocusInfo_0x032b = 0
  | | | |     - Tag 0x032b (2 bytes, int16s[1]):
  | | | |         1f38: 00 00                                           [..]
  | | | | 64) Olympus_FocusInfo_0x032c = 0
  | | | |     - Tag 0x032c (2 bytes, int16s[1]):
  | | | |         1f44: 00 00                                           [..]
  | | | | 65) Olympus_FocusInfo_0x032d = 0
  | | | |     - Tag 0x032d (1 bytes, int8u[1]):
  | | | |         1f50: 00                                              [.]
  | | | | 66) Olympus_FocusInfo_0x032e = 0
  | | | |     - Tag 0x032e (4 bytes, int32u[1]):
  | | | |         1f5c: 00 00 00 00                                     [....]
  | | | | 67) Olympus_FocusInfo_0x0402 = 57408
  | | | |     - Tag 0x0402 (2 bytes, int16u[1]):
  | | | |         1f68: 40 e0                                           [@.]
  | | | | 68) Olympus_FocusInfo_0x1200 = 2
  | | | |     - Tag 0x1200 (2 bytes, int16u[1]):
  | | | |         1f74: 02 00                                           [..]
  | | | | 69) ExternalFlash = 0 0
  | | | |     - Tag 0x1201 (4 bytes, int16u[2]):
  | | | |         1f80: 00 00 00 00                                     [....]
  | | | | 70) Olympus_FocusInfo_0x1202 = 0
  | | | |     - Tag 0x1202 (2 bytes, int16u[1]):
  | | | |         1f8c: 00 00                                           [..]
  | | | | 71) ExternalFlashGuideNumber = 0 (0/1)
  | | | |     - Tag 0x1203 (8 bytes, rational64s[1]):
  | | | |         337e: 00 00 00 00 01 00 00 00                         [........]
  | | | | 72) ExternalFlashBounce = 0
  | | | |     - Tag 0x1204 (2 bytes, int16u[1]):
  | | | |         1fa4: 00 00                                           [..]
  | | | | 73) ExternalFlashZoom = 0 (0/1)
  | | | |     - Tag 0x1205 (8 bytes, rational64u[1]):
  | | | |         3386: 00 00 00 00 01 00 00 00                         [........]
  | | | | 74) Olympus_FocusInfo_0x1206 = 0
  | | | |     - Tag 0x1206 (2 bytes, int16u[1]):
  | | | |         1fbc: 00 00                                           [..]
  | | | | 75) Olympus_FocusInfo_0x1207 = 0
  | | | |     - Tag 0x1207 (2 bytes, int16u[1]):
  | | | |         1fc8: 00 00                                           [..]
  | | | | 76) InternalFlash = 0
  | | | |     - Tag 0x1208 (2 bytes, int16u[1]):
  | | | |         1fd4: 00 00                                           [..]
  | | | | 77) ManualFlash = 0 0
  | | | |     - Tag 0x1209 (4 bytes, int16u[2]):
  | | | |         1fe0: 00 00 00 00                                     [....]
  | | | | 78) MacroLED = 0
  | | | |     - Tag 0x120a (2 bytes, int16u[1]):
  | | | |         1fec: 00 00                                           [..]
  | | | | 79) SensorTemperature = 29 29 0
  | | | |     - Tag 0x1500 (6 bytes, int16s[3]):
  | | | |         338e: 1d 00 1d 00 00 00                               [......]
  | | | | 80) Olympus_FocusInfo_0x1501 = 0 0
  | | | |     - Tag 0x1501 (8 bytes, int32u[2]):
  | | | |         3394: 00 00 00 00 00 00 00 00                         [........]
  | | | | 81) Olympus_FocusInfo_0x1502 = 0
  | | | |     - Tag 0x1502 (2 bytes, int16u[1]):
  | | | |         2010: 00 00                                           [..]
  | | | | 82) Olympus_FocusInfo_0x1600 = ..................x.....r1.........E............I.......c.K....................5H...808080
  | | | |     - Tag 0x1600 (192 bytes, undef[192]):
  | | | |         339c: 01 08 08 00 04 e7 0c 07 a9 00 1d 00 dc 02 dc 02 [................]
  | | | |         33ac: a8 00 cc fd 06 f6 78 03 c4 01 b0 01 72 00 31 fd [......x.....r.1.]
  | | | |         33bc: 8f fc 8d 01 16 01 e5 fd 45 fc 01 00 89 13 85 13 [........E.......]
  | | | |         33cc: 88 13 9a 14 e3 0f 49 10 87 14 ee 14 e2 0f 63 10 [......I.......c.]
  | | | |         33dc: 4b 10 11 11 0a 00 f1 ff 09 00 f7 ff 03 00 fd ff [K...............]
  | | | |         33ec: 01 00 00 00 00 00 e1 fe fc ff b2 00 84 ff 35 00 [..............5.]
  | | | |         33fc: 48 00 04 00 04 00 05 00 38 30 38 30 38 30 00 00 [H.......808080..]
  | | | |         340c: 00 00 00 00 00 00 00 00 00 00 00 00 00 00 00 00 [................]
  | | | |         341c: 00 00 00 00 00 00 00 00 00 00 00 00 00 00 00 00 [................]
  | | | |         342c: 00 00 00 00 00 00 00 00 00 00 00 00 00 00 00 00 [................]
  | | | |         343c: 00 00 00 00 00 00 00 00 00 00 00 00 00 00 00 00 [................]
  | | | |         344c: 00 00 00 00 00 00 00 00 00 00 00 00 00 00 00 00 [................]
  | | | | 83) Olympus_FocusInfo_0x1700 = 0 0 0 0
  | | | |     - Tag 0x1700 (4 bytes, int8u[4]):
  | | | |         2028: 00 00 00 00                                     [....]
  | | | | 84) Olympus_FocusInfo_0x1800 = 0
  | | | |     - Tag 0x1800 (4 bytes, int32u[1]):
  | | | |         2034: 00 00 00 00                                     [....]
  | | | | 85) Olympus_FocusInfo_0x1801 = 0
  | | | |     - Tag 0x1801 (4 bytes, int32u[1]):
  | | | |         2040: 00 00 00 00                                     [....]
  | | | | 86) Olympus_FocusInfo_0x1802 = 0 0
  | | | |     - Tag 0x1802 (8 bytes, int32u[2]):
  | | | |         345c: 00 00 00 00 00 00 00 00                         [........]
  | | | | 87) Olympus_FocusInfo_0x1900 = 28 9
  | | | |     - Tag 0x1900 (4 bytes, int16u[2]):
  | | | |         2058: 1c 00 09 00                                     [....]
  | | 16) UserComment =                                                                                                                      
  | |     - Tag 0x9286 (125 bytes, undef[125]):
  | |         3464: 00 00 00 00 00 00 00 00 20 20 20 20 20 20 20 20 [........        ]
  | |         3474: 20 20 20 20 20 20 20 20 20 20 20 20 20 20 20 20 [                ]
  | |         3484: 20 20 20 20 20 20 20 20 20 20 20 20 20 20 20 20 [                ]
  | |         3494: 20 20 20 20 20 20 20 20 20 20 20 20 20 20 20 20 [                ]
  | |         34a4: 20 20 20 20 20 20 20 20 20 20 20 20 20 20 20 20 [                ]
  | |         34b4: 20 20 20 20 20 20 20 20 20 20 20 20 20 20 20 20 [                ]
  | |         34c4: 20 20 20 20 20 20 20 20 20 20 20 20 20 20 20 20 [                ]
  | |         34d4: 20 20 20 20 20 20 20 20 20 20 20 20 20          [             ]
  | | 17) FlashpixVersion = 0100
  | |     - Tag 0xa000 (4 bytes, undef[4]):
  | |         04c2: 30 31 30 30                                     [0100]
  | | 18) ColorSpace = 1
  | |     - Tag 0xa001 (2 bytes, int16u[1]):
  | |         04ce: 01 00                                           [..]
  | | 19) ExifImageWidth = 4608
  | |     - Tag 0xa002 (4 bytes, int32u[1]):
  | |         04da: 00 12 00 00                                     [....]
  | | 20) ExifImageHeight = 3456
  | |     - Tag 0xa003 (4 bytes, int32u[1]):
  | |         04e6: 80 0d 00 00                                     [....]
  | | 21) InteropOffset (SubDirectory) -->
  | |     - Tag 0xa005 (4 bytes, int32u[1]):
  | |         04f2: 1e 35 00 00                                     [.5..]
  | | + [InteropIFD directory with 2 entries, Little-endian]
  | | | 0)  InteropIndex = R98
  | | |     - Tag 0x0001 (4 bytes, string[4]):
  | | |         3534: 52 39 38 00                                     [R98.]
  | | | 1)  InteropVersion = 0100
  | | |     - Tag 0x0002 (4 bytes, undef[4]):
  | | |         3540: 30 31 30 30                                     [0100]
  | | 22) FileSource = 3
  | |     - Tag 0xa300 (1 bytes, undef[1]):
  | |         04fe: 03                                              [.]
  | | 23) CustomRendered = 0
  | |     - Tag 0xa401 (2 bytes, int16u[1]):
  | |         050a: 00 00                                           [..]
  | | 24) ExposureMode = 1
  | |     - Tag 0xa402 (2 bytes, int16u[1]):
  | |         0516: 01 00                                           [..]
  | | 25) WhiteBalance = 0
  | |     - Tag 0xa403 (2 bytes, int16u[1]):
  | |         0522: 00 00                                           [..]
  | | 26) DigitalZoomRatio = 1 (100/100)
  | |     - Tag 0xa404 (8 bytes, rational64u[1]):
  | |         34e2: 64 00 00 00 64 00 00 00                         [d...d...]
  | | 27) SceneCaptureType = 0
  | |     - Tag 0xa406 (2 bytes, int16u[1]):
  | |         053a: 00 00                                           [..]
  | | 28) GainControl = 2
  | |     - Tag 0xa407 (2 bytes, int16u[1]):
  | |         0546: 02 00                                           [..]
  | | 29) Contrast = 0
  | |     - Tag 0xa408 (2 bytes, int16u[1]):
  | |         0552: 00 00                                           [..]
  | | 30) Saturation = 0
  | |     - Tag 0xa409 (2 bytes, int16u[1]):
  | |         055e: 00 00                                           [..]
  | | 31) Sharpness = 0
  | |     - Tag 0xa40a (2 bytes, int16u[1]):
  | |         056a: 00 00                                           [..]
  | | 32) LensInfo = 40 150 4 5.6 (40/1 150/1 40/10 56/10)
  | |     - Tag 0xa432 (32 bytes, rational64u[4]):
  | |         34ea: 28 00 00 00 01 00 00 00 96 00 00 00 01 00 00 00 [(...............]
  | |         34fa: 28 00 00 00 0a 00 00 00 38 00 00 00 0a 00 00 00 [(.......8.......]
  | | 33) LensModel = OLYMPUS M.40-150mm F4.0-5.6 R
  | |     - Tag 0xa434 (32 bytes, string[32]):
  | |         350a: 4f 4c 59 4d 50 55 53 20 4d 2e 34 30 2d 31 35 30 [OLYMPUS M.40-150]
  | |         351a: 6d 6d 20 46 34 2e 30 2d 35 2e 36 20 52 00 00 00 [mm F4.0-5.6 R...]
  | 13) GPSInfo (SubDirectory) -->
  |     - Tag 0x8825 (4 bytes, int32u[1]):
  |         00ba: 3c 35 00 00                                     [<5..]
  | + [GPS directory with 1 entries, Little-endian]
  | | 0)  GPSVersionID = 2 3 0 0
  | |     - Tag 0x0000 (4 bytes, int8u[4]):
  | |         3552: 02 03 00 00                                     [....]
  | 14) PrintIM (SubDirectory) -->
  |     - Tag 0xc4a5 (528 bytes, undef[528]):
  |         01dc: 50 72 69 6e 74 49 4d 00 30 33 30 30 00 00 25 00 [PrintIM.0300..%.]
  |         01ec: 01 00 14 00 14 00 02 00 01 00 00 00 03 00 f0 00 [................]
  |         01fc: 00 00 07 00 00 00 00 00 08 00 00 00 00 00 09 00 [................]
  |         020c: 00 00 00 00 0a 00 00 00 00 00 0b 00 38 01 00 00 [............8...]
  |         021c: 0c 00 00 00 00 00 0d 00 00 00 00 00 0e 00 50 01 [..............P.]
  |         022c: 00 00 10 00 60 01 00 00 20 00 b4 01 00 00 00 01 [....`... .......]
  |         023c: 03 00 00 00 01 01 ff 00 00 00 02 01 83 00 00 00 [................]
  |         024c: 03 01 80 00 00 00 04 01 83 00 00 00 05 01 83 00 [................]
  |         025c: 00 00 06 01 83 00 00 00 07 01 80 80 80 00 10 01 [................]
  |         026c: 82 00 00 00 00 02 00 00 00 00 07 02 00 00 00 00 [................]
  |         027c: 08 02 00 00 00 00 09 02 00 00 00 00 0a 02 00 00 [................]
  |         028c: 00 00 0b 02 f8 01 00 00 0d 02 00 00 00 00 20 02 [.............. .]
  |         029c: d6 01 00 00 00 03 03 00 00 00 01 03 ff 00 00 00 [................]
  |         02ac: 02 03 83 00 00 00 03 03 83 00 00 00 06 03 83 00 [................]
  |         02bc: 00 00 10 03 82 00 00 00 00 04 00 00 00 00 00 00 [................]
  |         02cc: 09 11 00 00 10 27 00 00 0b 0f 00 00 10 27 00 00 [.....'.......'..]
  |         02dc: 97 05 00 00 10 27 00 00 b0 08 00 00 10 27 00 00 [.....'.......'..]
  |         02ec: 01 1c 00 00 10 27 00 00 5e 02 00 00 10 27 00 00 [.....'..^....'..]
  |         02fc: 8b 00 00 00 10 27 00 00 cb 03 00 00 10 27 00 00 [.....'.......'..]
  |         030c: e5 1b 00 00 10 27 00 00 00 00 00 00 00 00 00 00 [.....'..........]
  |         031c: 00 00 00 00 00 00 00 00 00 00 00 00 00 00 00 00 [................]
  |         032c: 00 00 00 00 00 00 00 00 00 00 00 00 00 00 00 00 [................]
  |         033c: 04 00 00 00 00 00 00 00 00 00 00 00 00 00 00 00 [................]
  |         034c: 00 00 00 00 00 00 00 00 00 00 00 00 00 00 00 00 [................]
  |         035c: 00 00 00 00 00 00 00 00 00 00 00 00 00 00 00 00 [................]
  |         036c: 00 00 00 00 00 00 00 00 00 00 00 00 00 00 00 00 [................]
  |         037c: 00 00 00 00 00 00 00 00 00 00 00 00 00 00 00 00 [................]
  |         038c: 00 00 00 00 05 05 05 00 00 00 40 40 80 80 c0 c0 [..........@@....]
  |         039c: ff ff 00 00 40 40 80 80 c0 c0 ff ff 00 00 40 40 [....@@........@@]
  |         03ac: 80 80 c0 c0 ff ff 05 05 05 00 00 00 40 40 80 80 [............@@..]
  |         03bc: c0 c0 ff ff 00 00 40 40 80 80 c0 c0 ff ff 00 00 [......@@........]
  |         03cc: 40 40 80 80 c0 c0 ff ff 00 00 00 00 00 00 00 00 [@@..............]
  |         03dc: 00 00 00 00 00 00 00 00 00 00 00 00 00 00 00 00 [................]
  | + [PrintIM directory with 37 entries]
  | | PrintIMVersion = 0300
  | | - Tag 'PrintIMVersion' (4 bytes):
  | |     01d8: 30 33 30 30                                     [0300]
  | | 0)  PrintIM_0x0001 = 1310740
  | |     - Tag 0x0001 (4 bytes):
  | |         01e2: 14 00 14 00                                     [....]
  | | 1)  PrintIM_0x0002 = 1
  | |     - Tag 0x0002 (4 bytes):
  | |         01e8: 01 00 00 00                                     [....]
  | | 2)  PrintIM_0x0003 = 240
  | |     - Tag 0x0003 (4 bytes):
  | |         01ee: f0 00 00 00                                     [....]
  | | 3)  PrintIM_0x0007 = 0
  | |     - Tag 0x0007 (4 bytes):
  | |         01f4: 00 00 00 00                                     [....]
  | | 4)  PrintIM_0x0008 = 0
  | |     - Tag 0x0008 (4 bytes):
  | |         01fa: 00 00 00 00                                     [....]
  | | 5)  PrintIM_0x0009 = 0
  | |     - Tag 0x0009 (4 bytes):
  | |         0200: 00 00 00 00                                     [....]
  | | 6)  PrintIM_0x000a = 0
  | |     - Tag 0x000a (4 bytes):
  | |         0206: 00 00 00 00                                     [....]
  | | 7)  PrintIM_0x000b = 312
  | |     - Tag 0x000b (4 bytes):
  | |         020c: 38 01 00 00                                     [8...]
  | | 8)  PrintIM_0x000c = 0
  | |     - Tag 0x000c (4 bytes):
  | |         0212: 00 00 00 00                                     [....]
  | | 9)  PrintIM_0x000d = 0
  | |     - Tag 0x000d (4 bytes):
  | |         0218: 00 00 00 00                                     [....]
  | | 10) PrintIM_0x000e = 336
  | |     - Tag 0x000e (4 bytes):
  | |         021e: 50 01 00 00                                     [P...]
  | | 11) PrintIM_0x0010 = 352
  | |     - Tag 0x0010 (4 bytes):
  | |         0224: 60 01 00 00                                     [`...]
  | | 12) PrintIM_0x0020 = 436
  | |     - Tag 0x0020 (4 bytes):
  | |         022a: b4 01 00 00                                     [....]
  | | 13) PrintIM_0x0100 = 3
  | |     - Tag 0x0100 (4 bytes):
  | |         0230: 03 00 00 00                                     [....]
  | | 14) PrintIM_0x0101 = 255
  | |     - Tag 0x0101 (4 bytes):
  | |         0236: ff 00 00 00                                     [....]
  | | 15) PrintIM_0x0102 = 131
  | |     - Tag 0x0102 (4 bytes):
  | |         023c: 83 00 00 00                                     [....]
  | | 16) PrintIM_0x0103 = 128
  | |     - Tag 0x0103 (4 bytes):
  | |         0242: 80 00 00 00                                     [....]
  | | 17) PrintIM_0x0104 = 131
  | |     - Tag 0x0104 (4 bytes):
  | |         0248: 83 00 00 00                                     [....]
  | | 18) PrintIM_0x0105 = 131
  | |     - Tag 0x0105 (4 bytes):
  | |         024e: 83 00 00 00                                     [....]
  | | 19) PrintIM_0x0106 = 131
  | |     - Tag 0x0106 (4 bytes):
  | |         0254: 83 00 00 00                                     [....]
  | | 20) PrintIM_0x0107 = 8421504
  | |     - Tag 0x0107 (4 bytes):
  | |         025a: 80 80 80 00                                     [....]
  | | 21) PrintIM_0x0110 = 130
  | |     - Tag 0x0110 (4 bytes):
  | |         0260: 82 00 00 00                                     [....]
  | | 22) PrintIM_0x0200 = 0
  | |     - Tag 0x0200 (4 bytes):
  | |         0266: 00 00 00 00                                     [....]
  | | 23) PrintIM_0x0207 = 0
  | |     - Tag 0x0207 (4 bytes):
  | |         026c: 00 00 00 00                                     [....]
  | | 24) PrintIM_0x0208 = 0
  | |     - Tag 0x0208 (4 bytes):
  | |         0272: 00 00 00 00                                     [....]
  | | 25) PrintIM_0x0209 = 0
  | |     - Tag 0x0209 (4 bytes):
  | |         0278: 00 00 00 00                                     [....]
  | | 26) PrintIM_0x020a = 0
  | |     - Tag 0x020a (4 bytes):
  | |         027e: 00 00 00 00                                     [....]
  | | 27) PrintIM_0x020b = 504
  | |     - Tag 0x020b (4 bytes):
  | |         0284: f8 01 00 00                                     [....]
  | | 28) PrintIM_0x020d = 0
  | |     - Tag 0x020d (4 bytes):
  | |         028a: 00 00 00 00                                     [....]
  | | 29) PrintIM_0x0220 = 470
  | |     - Tag 0x0220 (4 bytes):
  | |         0290: d6 01 00 00                                     [....]
  | | 30) PrintIM_0x0300 = 3
  | |     - Tag 0x0300 (4 bytes):
  | |         0296: 03 00 00 00                                     [....]
  | | 31) PrintIM_0x0301 = 255
  | |     - Tag 0x0301 (4 bytes):
  | |         029c: ff 00 00 00                                     [....]
  | | 32) PrintIM_0x0302 = 131
  | |     - Tag 0x0302 (4 bytes):
  | |         02a2: 83 00 00 00                                     [....]
  | | 33) PrintIM_0x0303 = 131
  | |     - Tag 0x0303 (4 bytes):
  | |         02a8: 83 00 00 00                                     [....]
  | | 34) PrintIM_0x0306 = 131
  | |     - Tag 0x0306 (4 bytes):
  | |         02ae: 83 00 00 00                                     [....]
  | | 35) PrintIM_0x0310 = 130
  | |     - Tag 0x0310 (4 bytes):
  | |         02b4: 82 00 00 00                                     [....]
  | | 36) PrintIM_0x0400 = 0
  | |     - Tag 0x0400 (4 bytes):
  | |         02ba: 00 00 00 00                                     [....]
  + [IFD1 directory with 6 entries, Little-endian]
  | 0)  Compression = 6
  |     - Tag 0x0103 (2 bytes, int16u[1]):
  |         3564: 06 00                                           [..]
  | 1)  XResolution = 72 (72/1)
  |     - Tag 0x011a (8 bytes, rational64u[1]):
  |         35a8: 48 00 00 00 01 00 00 00                         [H.......]
  | 2)  YResolution = 72 (72/1)
  |     - Tag 0x011b (8 bytes, rational64u[1]):
  |         35b0: 48 00 00 00 01 00 00 00                         [H.......]
  | 3)  ResolutionUnit = 2
  |     - Tag 0x0128 (2 bytes, int16u[1]):
  |         3588: 02 00                                           [..]
  | 4)  ThumbnailOffset = 13740
  |     - Tag 0x0201 (4 bytes, int32u[1]):
  |         3594: ac 35 00 00                                     [.5..]
  | 5)  ThumbnailLength = 9032
  |     - Tag 0x0202 (4 bytes, int32u[1]):
  |         35a0: 48 23 00 00                                     [H#..]
JPEG APP1 (2810 bytes):
      5904: 68 74 74 70 3a 2f 2f 6e 73 2e 61 64 6f 62 65 2e [http://ns.adobe.]
      5914: 63 6f 6d 2f 78 61 70 2f 31 2e 30 2f 00 3c 3f 78 [com/xap/1.0/.<?x]
      5924: 70 61 63 6b 65 74 20 62 65 67 69 6e 3d 27 ef bb [packet begin='..]
      5934: bf 27 20 69 64 3d 27 57 35 4d 30 4d 70 43 65 68 [.' id='W5M0MpCeh]
      5944: 69 48 7a 72 65 53 7a 4e 54 63 7a 6b 63 39 64 27 [iHzreSzNTczkc9d']
      5954: 3f 3e 0a 3c 78 3a 78 6d 70 6d 65 74 61 20 78 6d [?>.<x:xmpmeta xm]
      5964: 6c 6e 73 3a 78 3d 27 61 64 6f 62 65 3a 6e 73 3a [lns:x='adobe:ns:]
      [snip 2698 bytes]
  + [XMP directory, 2781 bytes]
  | XMPToolkit = Image::ExifTool 12.27
  | Rating = 1
  | - Tag 'x:xmpmeta/rdf:RDF/rdf:Description/xmp:Rating'
JPEG COM (50 bytes):
      6402: 4f 70 74 69 6d 69 7a 65 64 20 62 79 20 4a 50 45 [Optimized by JPE]
      6412: 47 6d 69 6e 69 20 33 2e 31 34 2e 31 32 2e 37 31 [Gmini 3.14.12.71]
      6422: 39 30 31 37 30 36 20 30 78 32 61 36 34 34 34 36 [901706 0x2a64446]
      6432: 33 00                                           [3.]
  Comment = Optimized by JPEGmini 3.14.12.71901706 0x2a644463
JPEG DQT (65 bytes):
      6438: 00 04 03 03 04 03 03 04 04 03 04 04 04 04 05 06 [................]
      6448: 09 06 06 05 05 06 0b 08 09 07 09 0d 0c 0e 0e 0d [................]
      6458: 0c 0d 0d 0f 10 15 12 0f 10 14 10 0d 0d 12 19 12 [................]
      6468: 14 16 16 17 17 17 0e 12 19 1b 19 17 1b 15 17 17 [................]
      6478: 16                                              [.]
JPEG DQT (65 bytes):
      647d: 01 04 04 04 06 05 06 0b 06 06 0b 16 0f 0d 0f 16 [................]
      648d: 16 16 16 16 16 16 16 16 16 16 16 16 16 16 16 16 [................]
      649d: 16 16 16 16 16 16 16 16 16 16 16 16 16 16 16 16 [................]
      64ad: 16 16 16 16 16 16 16 16 16 16 16 16 16 16 16 16 [................]
      64bd: 16                                              [.]
JPEG SOF0 (15 bytes):
      64c2: 08 0d 80 12 00 03 01 21 00 02 11 01 03 11 01    [.......!.......]
  ImageWidth = 4608
  ImageHeight = 3456
  EncodingProcess = 0
  BitsPerSample = 8
  ColorComponents = 3
  YCbCrSubSampling = 2 1
JPEG DHT (27 bytes):
      64d5: 00 00 03 00 03 01 01 01 01 00 00 00 00 00 00 00 [................]
      64e5: 00 00 01 02 03 04 05 06 07 08 09                [...........]
JPEG DHT (75 bytes):
      64f4: 10 00 01 03 03 03 03 02 04 04 04 04 05 03 01 01 [................]
      6504: 11 01 00 02 11 03 04 21 12 31 41 05 22 51 13 61 [.......!.1A."Q.a]
      6514: 06 32 71 81 14 42 91 a1 23 52 62 b1 07 15 33 c1 [.2q..B..#Rb...3.]
      6524: 24 72 d1 e1 f0 43 82 f1 16 25 34 53 92 a2 63 44 [$r...C...%4S..cD]
      6534: 73 b2 08 17 35 54 26 e2 64 83 d2                [s...5T&.d..]
JPEG DHT (24 bytes):
      6543: 01 01 01 01 01 01 01 01 00 00 00 00 00 00 00 00 [................]
      6553: 00 00 01 02 03 04 05 06                         [........]
JPEG DHT (40 bytes):
      655f: 11 01 01 01 01 00 03 01 01 01 01 00 02 03 00 00 [................]
      656f: 07 00 01 11 02 21 31 41 03 12 04 22 32 51 05 13 [.....!1A..."2Q..]
      657f: 61 42 14 23 33 71 52 91                         [aB.#3qR.]
JPEG SOS
JPEG EOI
  Warning = [minor] Error reading PreviewImage from file
