  ExifToolVersion = 13.59
  FileName = media_64.rw2
  Directory = C:/Users/micro/IdeaProjects/kim/src/commonTest/resources/de/stefan_oltmann/kim/testdata/full
  FileSize = 12250624
  FileModifyDate = 1776264336.97913
  FileAccessDate = 1786601584.38777
  FileCreateDate = 1776264336.91562
  FilePermissions = 33206
  FileType = RW2
  FileTypeExtension = RW2
  MIMEType = image/x-panasonic-rw2
  ExifByteOrder = II
  + [IFD0 directory with 40 entries, Little-endian]
  | 0)  PanasonicRawVersion = 0310
  |     - Tag 0x0001 (4 bytes, undef[4]):
  |         0022: 30 33 31 30                                     [0310]
  | 1)  SensorWidth = 3696
  |     - Tag 0x0002 (2 bytes, int16u[1]):
  |         002e: 70 0e                                           [p.]
  | 2)  SensorHeight = 2752
  |     - Tag 0x0003 (2 bytes, int16u[1]):
  |         003a: c0 0a                                           [..]
  | 3)  SensorTopBorder = 8
  |     - Tag 0x0004 (2 bytes, int16u[1]):
  |         0046: 08 00                                           [..]
  | 4)  SensorLeftBorder = 8
  |     - Tag 0x0005 (2 bytes, int16u[1]):
  |         0052: 08 00                                           [..]
  | 5)  SensorBottomBorder = 2744
  |     - Tag 0x0006 (2 bytes, int16u[1]):
  |         005e: b8 0a                                           [..]
  | 6)  SensorRightBorder = 3656
  |     - Tag 0x0007 (2 bytes, int16u[1]):
  |         006a: 48 0e                                           [H.]
  | 7)  SamplesPerPixel = 1
  |     - Tag 0x0008 (2 bytes, int16u[1]):
  |         0076: 01 00                                           [..]
  | 8)  CFAPattern = 2
  |     - Tag 0x0009 (2 bytes, int16u[1]):
  |         0082: 02 00                                           [..]
  | 9)  BitsPerSample = 12
  |     - Tag 0x000a (2 bytes, int16u[1]):
  |         008e: 0c 00                                           [..]
  | 10) Compression = 34316
  |     - Tag 0x000b (2 bytes, int16u[1]):
  |         009a: 0c 86                                           [..]
  | 11) PanasonicRaw_0x000d = 1
  |     - Tag 0x000d (2 bytes, int16u[1]):
  |         00a6: 01 00                                           [..]
  | 12) LinearityLimitRed = 4095
  |     - Tag 0x000e (2 bytes, int16u[1]):
  |         00b2: ff 0f                                           [..]
  | 13) LinearityLimitGreen = 4095
  |     - Tag 0x000f (2 bytes, int16u[1]):
  |         00be: ff 0f                                           [..]
  | 14) LinearityLimitBlue = 4095
  |     - Tag 0x0010 (2 bytes, int16u[1]):
  |         00ca: ff 0f                                           [..]
  | 15) ISO = 160
  |     - Tag 0x0017 (2 bytes, int16u[1]):
  |         00d6: a0 00                                           [..]
  | 16) HighISOMultiplierRed = 0
  |     - Tag 0x0018 (2 bytes, int16u[1]):
  |         00e2: 00 00                                           [..]
  | 17) HighISOMultiplierGreen = 0
  |     - Tag 0x0019 (2 bytes, int16u[1]):
  |         00ee: 00 00                                           [..]
  | 18) HighISOMultiplierBlue = 0
  |     - Tag 0x001a (2 bytes, int16u[1]):
  |         00fa: 00 00                                           [..]
  | 19) NoiseReductionParams = 3 100 1 1 1 200 2 2 2 400 4 4 4
  |     - Tag 0x001b (26 bytes, undef[26] read as int16u[13]):
  |         01fe: 03 00 64 00 01 00 01 00 01 00 c8 00 02 00 02 00 [..d.............]
  |         020e: 02 00 90 01 04 00 04 00 04 00                   [..........]
  | 20) BlackLevelRed = 128
  |     - Tag 0x001c (2 bytes, int16u[1]):
  |         0112: 80 00                                           [..]
  | 21) BlackLevelGreen = 128
  |     - Tag 0x001d (2 bytes, int16u[1]):
  |         011e: 80 00                                           [..]
  | 22) BlackLevelBlue = 128
  |     - Tag 0x001e (2 bytes, int16u[1]):
  |         012a: 80 00                                           [..]
  | 23) WBRedLevel = 461
  |     - Tag 0x0024 (2 bytes, int16u[1]):
  |         0136: cd 01                                           [..]
  | 24) WBGreenLevel = 265
  |     - Tag 0x0025 (2 bytes, int16u[1]):
  |         0142: 09 01                                           [..]
  | 25) WBBlueLevel = 482
  |     - Tag 0x0026 (2 bytes, int16u[1]):
  |         014e: e2 01                                           [..]
  | 26) WBInfo2 (SubDirectory) -->
  |     - Tag 0x0027 (58 bytes, undef[58]):
  |         0218: 07 00 09 00 fb 01 00 01 b5 01 0a 00 20 02 00 01 [............ ...]
  |         0228: 91 01 0b 00 43 02 00 01 77 01 03 00 5b 01 00 01 [....C...w...[...]
  |         0238: ad 02 04 00 31 02 00 01 9d 01 14 00 fb 01 00 01 [....1...........]
  |         0248: c0 01 18 00 5e 01 00 01 90 02                   [....^.....]
  | + [BinaryData directory, 58 bytes, Little-endian]
  | | NumWBEntries = 7
  | | - Tag 0x0000 (2 bytes, int16u[1]):
  | |     0218: 07 00                                           [..]
  | | WBType1 = 9
  | | - Tag 0x0001 (2 bytes, int16u[1]):
  | |     021a: 09 00                                           [..]
  | | WB_RGBLevels1 = 507 256 437
  | | - Tag 0x0002 (6 bytes, int16u[3]):
  | |     021c: fb 01 00 01 b5 01                               [......]
  | | WBType2 = 10
  | | - Tag 0x0005 (2 bytes, int16u[1]):
  | |     0222: 0a 00                                           [..]
  | | WB_RGBLevels2 = 544 256 401
  | | - Tag 0x0006 (6 bytes, int16u[3]):
  | |     0224: 20 02 00 01 91 01                               [ .....]
  | | WBType3 = 11
  | | - Tag 0x0009 (2 bytes, int16u[1]):
  | |     022a: 0b 00                                           [..]
  | | WB_RGBLevels3 = 579 256 375
  | | - Tag 0x000a (6 bytes, int16u[3]):
  | |     022c: 43 02 00 01 77 01                               [C...w.]
  | | WBType4 = 3
  | | - Tag 0x000d (2 bytes, int16u[1]):
  | |     0232: 03 00                                           [..]
  | | WB_RGBLevels4 = 347 256 685
  | | - Tag 0x000e (6 bytes, int16u[3]):
  | |     0234: 5b 01 00 01 ad 02                               [[.....]
  | | WBType5 = 4
  | | - Tag 0x0011 (2 bytes, int16u[1]):
  | |     023a: 04 00                                           [..]
  | | WB_RGBLevels5 = 561 256 413
  | | - Tag 0x0012 (6 bytes, int16u[3]):
  | |     023c: 31 02 00 01 9d 01                               [1.....]
  | | WBType6 = 20
  | | - Tag 0x0015 (2 bytes, int16u[1]):
  | |     0242: 14 00                                           [..]
  | | WB_RGBLevels6 = 507 256 448
  | | - Tag 0x0016 (6 bytes, int16u[3]):
  | |     0244: fb 01 00 01 c0 01                               [......]
  | | WBType7 = 24
  | | - Tag 0x0019 (2 bytes, int16u[1]):
  | |     024a: 18 00                                           [..]
  | | WB_RGBLevels7 = 350 256 656
  | | - Tag 0x001a (6 bytes, int16u[3]):
  | |     024c: 5e 01 00 01 90 02                               [^.....]
  | 27) RawFormat = 4
  |     - Tag 0x002d (2 bytes, int16u[1]):
  |         0166: 04 00                                           [..]
  | 28) JpgFromRaw (SubDirectory) -->
  |     - Tag 0x002e (616448 bytes, undef[616448]):
  |         0600: ff d8 ff e1 7d fe 45 78 69 66 00 00 49 49 2a 00 [....}.Exif..II*.]
  |         0610: 08 00 00 00 0e 00 0f 01 02 00 0a 00 00 00 b6 00 [................]
  |         0620: 00 00 10 01 02 00 08 00 00 00 c0 00 00 00 12 01 [................]
  |         0630: 03 00 01 00 00 00 01 00 00 00 1a 01 05 00 01 00 [................]
  |         0640: 00 00 c8 00 00 00 1b 01 05 00 01 00 00 00 d0 00 [................]
  |         0650: 00 00 28 01 03 00 01 00 00 00 02 00 00 00 31 01 [..(...........1.]
  |         0660: 02 00 0a 00 00 00 d8 00 00 00 32 01 02 00 14 00 [..........2.....]
  |         0670: 00 00 e2 00 00 00 3b 01 02 00 0c 00 00 00 f6 00 [......;.........]
  |         0680: 00 00 13 02 03 00 01 00 00 00 02 00 00 00 69 87 [..............i.]
  |         0690: 04 00 01 00 00 00 ca 02 00 00 a5 c4 07 00 d0 00 [................]
  |         06a0: 00 00 3a 01 00 00 d2 c6 07 00 40 00 00 00 0a 02 [..:.......@.....]
  |         06b0: 00 00 d3 c6 07 00 80 00 00 00 4a 02 00 00 e2 2b [..........J....+]
  |         06c0: 00 00 50 61 6e 61 73 6f 6e 69 63 00 44 4d 43 2d [..Panasonic.DMC-]
  |         06d0: 4c 58 37 00 b4 00 00 00 01 00 00 00 b4 00 00 00 [LX7.............]
  |         06e0: 01 00 00 00 56 65 72 2e 31 2e 30 20 20 00 32 30 [....Ver.1.0  .20]
  |         06f0: 31 34 3a 31 31 3a 31 39 20 32 33 3a 30 37 3a 34 [14:11:19 23:07:4]
  |         0700: 34 00 44 72 65 77 20 4e 6f 61 6b 65 73 00 00 00 [4.Drew Noakes...]
  |         0710: 00 00 00 00 00 00 00 00 00 00 00 00 00 00 00 00 [................]
  |         0720: 00 00 00 00 00 00 00 00 00 00 00 00 00 00 00 00 [................]
  |         0730: 00 00 00 00 00 00 00 00 00 00 00 00 00 00 00 00 [................]
  |         0740: 00 00 00 00 00 00 50 72 69 6e 74 49 4d 00 30 32 [......PrintIM.02]
  |         0750: 35 30 00 00 0e 00 01 00 16 00 16 00 02 00 00 00 [50..............]
  |         0760: 00 00 03 00 64 00 00 00 07 00 00 00 00 00 08 00 [....d...........]
  |         0770: 00 00 00 00 09 00 00 00 00 00 0a 00 00 00 00 00 [................]
  |         0780: 0b 00 ac 00 00 00 0c 00 00 00 00 00 0d 00 00 00 [................]
  |         0790: 00 00 0e 00 c4 00 00 00 00 01 05 00 00 00 01 01 [................]
  |         07a0: 01 00 00 00 10 01 80 00 00 00 09 11 00 00 10 27 [...............']
  |         07b0: 00 00 0b 0f 00 00 10 27 00 00 97 05 00 00 10 27 [.......'.......']
  |         07c0: 00 00 b0 08 00 00 10 27 00 00 01 1c 00 00 10 27 [.......'.......']
  |         07d0: 00 00 5e 02 00 00 10 27 00 00 8b 00 00 00 10 27 [..^....'.......']
  |         07e0: 00 00 cb 03 00 00 10 27 00 00 e5 1b 00 00 10 27 [.......'.......']
  |         07f0: 00 00 00 00 00 00 00 00 00 00 00 00 00 00 00 00 [................]
  |         0800: 00 00 00 00 00 00 00 00 00 00 00 00 00 00 00 00 [................]
  |         0810: 00 00 00 00 00 00 00 00 00 00 00 00 00 00 00 00 [................]
  |         0820: 00 00 00 00 00 00 00 00 00 00 00 00 00 00 00 00 [................]
  |         0830: 00 00 00 00 00 00 00 00 00 00 00 00 00 00 00 00 [................]
  |         0840: 00 00 00 00 00 00 00 00 00 00 00 00 00 00 00 00 [................]
  |         0850: 00 00 00 00 00 00 00 00 00 00 00 00 00 00 00 00 [................]
  |         0860: 00 00 00 00 00 00 00 00 00 00 00 00 00 00 00 00 [................]
  |         0870: 00 00 00 00 00 00 00 00 00 00 00 00 00 00 00 00 [................]
  |         0880: 00 00 00 00 00 00 00 00 00 00 00 00 00 00 00 00 [................]
  |         0890: 00 00 00 00 00 00 00 00 00 00 00 00 00 00 00 00 [................]
  |         08a0: 00 00 00 00 00 00 00 00 00 00 00 00 00 00 00 00 [................]
  |         08b0: 00 00 00 00 00 00 00 00 00 00 00 00 00 00 00 00 [................]
  |         08c0: 00 00 00 00 00 00 00 00 00 00 00 00 00 00 00 00 [................]
  |         08d0: 00 00 00 00 00 00 23 00 9a 82 05 00 01 00 00 00 [......#.........]
  |         08e0: 74 04 00 00 9d 82 05 00 01 00 00 00 7c 04 00 00 [t...........|...]
  |         08f0: 22 88 03 00 01 00 00 00 02 00 00 00 27 88 03 00 ["...........'...]
  |         0900: 01 00 00 00 a0 00 00 00 30 88 03 00 01 00 00 00 [........0.......]
  |         0910: 01 00 00 00 00 90 07 00 04 00 00 00 30 32 33 30 [............0230]
  |         0920: 03 90 02 00 14 00 00 00 84 04 00 00 04 90 02 00 [................]
  |         0930: 14 00 00 00 98 04 00 00 01 91 07 00 04 00 00 00 [................]
  |         0940: 01 02 03 00 02 91 05 00 01 00 00 00 ac 04 00 00 [................]
  |         0950: 04 92 0a 00 01 00 00 00 b4 04 00 00 05 92 05 00 [................]
  |         0960: 01 00 00 00 bc 04 00 00 07 92 03 00 01 00 00 00 [................]
  |         0970: 05 00 00 00 08 92 03 00 01 00 00 00 00 00 00 00 [................]
  |         0980: 09 92 03 00 01 00 00 00 10 00 00 00 0a 92 05 00 [................]
  |         0990: 01 00 00 00 c4 04 00 00 7c 92 07 00 f0 26 00 00 [........|....&..]
  |         09a0: cc 04 00 00 00 a0 07 00 04 00 00 00 30 31 30 30 [............0100]
  |         09b0: 01 a0 03 00 01 00 00 00 01 00 00 00 02 a0 04 00 [................]
  |         09c0: 01 00 00 00 80 07 00 00 03 a0 04 00 01 00 00 00 [................]
  |         09d0: a0 05 00 00 05 a0 04 00 01 00 00 00 c4 2b 00 00 [.............+..]
  |         09e0: 17 a2 03 00 01 00 00 00 02 00 00 00 00 a3 07 00 [................]
  |         09f0: 01 00 00 00 03 00 00 00 01 a3 07 00 01 00 00 00 [................]
  |         0a00: 01 00 00 00 01 a4 03 00 01 00 00 00 00 00 00 00 [................]
  |         0a10: 02 a4 03 00 01 00 00 00 00 00 00 00 03 a4 03 00 [................]
  |         0a20: 01 00 00 00 00 00 00 00 04 a4 05 00 01 00 00 00 [................]
  |         0a30: bc 2b 00 00 05 a4 03 00 01 00 00 00 18 00 00 00 [.+..............]
  |         0a40: 06 a4 03 00 01 00 00 00 00 00 00 00 07 a4 03 00 [................]
  |         0a50: 01 00 00 00 01 00 00 00 08 a4 03 00 01 00 00 00 [................]
  |         0a60: 00 00 00 00 09 a4 03 00 01 00 00 00 00 00 00 00 [................]
  |         0a70: 0a a4 03 00 01 00 00 00 00 00 00 00 00 00 00 00 [................]
  |         0a80: 0a 00 00 00 58 02 00 00 0e 00 00 00 0a 00 00 00 [....X...........]
  |         0a90: 32 30 31 34 3a 31 31 3a 31 39 20 32 33 3a 30 37 [2014:11:19 23:07]
  |         0aa0: 3a 34 34 00 32 30 31 34 3a 31 31 3a 31 39 20 32 [:44.2014:11:19 2]
  |         0ab0: 33 3a 30 37 3a 34 34 00 02 00 00 00 01 00 00 00 [3:07:44.........]
  |         0ac0: 00 00 00 00 64 00 00 00 7c 00 00 00 80 00 00 00 [....d...|.......]
  |         0ad0: 2f 00 00 00 0a 00 00 00 50 61 6e 61 73 6f 6e 69 [/.......Panasoni]
  |         0ae0: 63 00 00 00 6a 00 01 00 03 00 01 00 00 00 07 00 [c...j...........]
  |         0af0: 00 00 02 00 07 00 04 00 00 00 00 01 00 00 03 00 [................]
  |         0b00: 03 00 01 00 00 00 01 00 00 00 07 00 03 00 01 00 [................]
  |         0b10: 00 00 01 00 00 00 0f 00 01 00 02 00 00 00 10 00 [................]
  |         0b20: 00 00 1a 00 03 00 01 00 00 00 02 00 00 00 1c 00 [................]
  |         0b30: 03 00 01 00 00 00 01 00 00 00 1f 00 03 00 01 00 [................]
  |         0b40: 00 00 06 00 00 00 20 00 03 00 01 00 00 00 02 00 [...... .........]
  |         0b50: 00 00 21 00 07 00 08 20 00 00 d2 09 00 00 22 00 [..!.... ......".]
  |         0b60: 03 00 01 00 00 00 00 00 00 00 24 00 03 00 01 00 [..........$.....]
  |         0b70: 00 00 00 00 00 00 25 00 07 00 10 00 00 00 da 29 [......%........)]
  |         0b80: 00 00 26 00 07 00 04 00 00 00 30 34 30 31 27 00 [..&.......0401'.]
  |         0b90: 03 00 01 00 00 00 00 00 00 00 28 00 03 00 01 00 [..........(.....]
  |         0ba0: 00 00 01 00 00 00 29 00 04 00 01 00 00 00 d7 20 [......)........ ]
  |         0bb0: 00 00 2a 00 03 00 01 00 00 00 00 00 00 00 2b 00 [..*...........+.]
  |         0bc0: 04 00 01 00 00 00 00 00 00 00 2c 00 03 00 01 00 [..........,.....]
  |         0bd0: 00 00 00 00 00 00 2d 00 03 00 01 00 00 00 00 00 [......-.........]
  |         0be0: 00 00 2e 00 03 00 01 00 00 00 01 00 00 00 2f 00 [............../.]
  |         0bf0: 03 00 01 00 00 00 01 00 00 00 30 00 03 00 01 00 [..........0.....]
  |         0c00: 00 00 01 00 00 00 31 00 03 00 01 00 00 00 02 00 [......1.........]
  |         0c10: 00 00 32 00 03 00 01 00 00 00 00 00 00 00 33 00 [..2...........3.]
  |         0c20: 02 00 14 00 00 00 ea 29 00 00 34 00 03 00 01 00 [.......)..4.....]
  |         0c30: 00 00 01 00 00 00 35 00 03 00 01 00 00 00 01 00 [......5.........]
  |         0c40: 00 00 36 00 03 00 01 00 00 00 ff ff 00 00 37 00 [..6...........7.]
  |         0c50: 03 00 01 00 00 00 01 01 00 00 38 00 03 00 01 00 [..........8.....]
  |         0c60: 00 00 02 00 00 00 39 00 03 00 01 00 00 00 00 00 [......9.........]
  |         0c70: 00 00 3a 00 03 00 01 00 00 00 01 00 00 00 3b 00 [..:...........;.]
  |         0c80: 03 00 01 00 00 00 01 00 00 00 3c 00 03 00 01 00 [..........<.....]
  |         0c90: 00 00 ff ff 00 00 3d 00 03 00 01 00 00 00 01 00 [......=.........]
  |         0ca0: 00 00 3e 00 03 00 01 00 00 00 01 00 00 00 3f 00 [..>...........?.]
  |         0cb0: 03 00 01 00 00 00 00 00 00 00 40 00 03 00 01 00 [..........@.....]
  |         0cc0: 00 00 00 00 00 00 41 00 03 00 01 00 00 00 00 00 [......A.........]
  |         0cd0: 00 00 42 00 03 00 01 00 00 00 00 00 00 00 43 00 [..B...........C.]
  |         0ce0: 03 00 01 00 00 00 03 00 00 00 44 00 03 00 01 00 [..........D.....]
  |         0cf0: 00 00 00 00 00 00 46 00 03 00 01 00 00 00 00 00 [......F.........]
  |         0d00: 00 00 47 00 03 00 01 00 00 00 00 00 00 00 48 00 [..G...........H.]
  |         0d10: 03 00 01 00 00 00 00 00 00 00 4a 00 03 00 01 00 [..........J.....]
  |         0d20: 00 00 00 00 00 00 4b 00 04 00 01 00 00 00 40 0e [......K.......@.]
  |         0d30: 00 00 4c 00 04 00 01 00 00 00 b0 0a 00 00 4d 00 [..L...........M.]
  |         0d40: 05 00 02 00 00 00 fe 29 00 00 4e 00 07 00 2a 00 [.......)..N...*.]
  |         0d50: 00 00 0e 2a 00 00 4f 00 03 00 01 00 00 00 00 00 [...*..O.........]
  |         0d60: 00 00 50 00 03 00 01 00 00 00 00 00 00 00 55 00 [..P...........U.]
  |         0d70: 03 00 01 00 00 00 01 00 00 00 57 00 03 00 01 00 [..........W.....]
  |         0d80: 00 00 00 00 00 00 5a 00 03 00 01 00 00 00 00 00 [......Z.........]
  |         0d90: 00 00 5b 00 03 00 01 00 00 00 00 00 00 00 5c 00 [..[...........\.]
  |         0da0: 03 00 01 00 00 00 00 00 00 00 5e 00 07 00 04 00 [..........^.....]
  |         0db0: 00 00 00 00 00 10 61 00 07 00 94 00 00 00 38 2a [......a.......8*]
  |         0dc0: 00 00 62 00 03 00 01 00 00 00 00 00 00 00 63 00 [..b...........c.]
  |         0dd0: 07 00 04 00 00 00 00 00 00 00 65 00 07 00 40 00 [..........e...@.]
  |         0de0: 00 00 cc 2a 00 00 66 00 07 00 40 00 00 00 0c 2b [...*..f...@....+]
  |         [snip 614416 bytes]
--- DOC1:JpgFromRaw --------------------------------------------------------
JPEG APP1 (32252 bytes):
      0006: 45 78 69 66 00 00 49 49 2a 00 08 00 00 00 0e 00 [Exif..II*.......]
      0016: 0f 01 02 00 0a 00 00 00 b6 00 00 00 10 01 02 00 [................]
      0026: 08 00 00 00 c0 00 00 00 12 01 03 00 01 00 00 00 [................]
      0036: 01 00 00 00 1a 01 05 00 01 00 00 00 c8 00 00 00 [................]
      0046: 1b 01 05 00 01 00 00 00 d0 00 00 00 28 01 03 00 [............(...]
      0056: 01 00 00 00 02 00 00 00 31 01 02 00 0a 00 00 00 [........1.......]
      0066: d8 00 00 00 32 01 02 00 14 00 00 00 e2 00 00 00 [....2...........]
      [snip 32140 bytes]
  ExifByteOrder = II
  + [IFD0 directory with 14 entries, Little-endian]
  | 0)  Make = Panasonic
  |     - Tag 0x010f (10 bytes, string[10]):
  |         00c2: 50 61 6e 61 73 6f 6e 69 63 00                   [Panasonic.]
  | 1)  Model = DMC-LX7
  |     - Tag 0x0110 (8 bytes, string[8]):
  |         00cc: 44 4d 43 2d 4c 58 37 00                         [DMC-LX7.]
  | 2)  Orientation = 1
  |     - Tag 0x0112 (2 bytes, int16u[1]):
  |         0036: 01 00                                           [..]
  | 3)  XResolution = 180 (180/1)
  |     - Tag 0x011a (8 bytes, rational64u[1]):
  |         00d4: b4 00 00 00 01 00 00 00                         [........]
  | 4)  YResolution = 180 (180/1)
  |     - Tag 0x011b (8 bytes, rational64u[1]):
  |         00dc: b4 00 00 00 01 00 00 00                         [........]
  | 5)  ResolutionUnit = 2
  |     - Tag 0x0128 (2 bytes, int16u[1]):
  |         005a: 02 00                                           [..]
  | 6)  Software = Ver.1.0  
  |     - Tag 0x0131 (10 bytes, string[10]):
  |         00e4: 56 65 72 2e 31 2e 30 20 20 00                   [Ver.1.0  .]
  | 7)  ModifyDate = 2014:11:19 23:07:44
  |     - Tag 0x0132 (20 bytes, string[20]):
  |         00ee: 32 30 31 34 3a 31 31 3a 31 39 20 32 33 3a 30 37 [2014:11:19 23:07]
  |         00fe: 3a 34 34 00                                     [:44.]
  | 8)  Artist = Drew Noakes
  |     - Tag 0x013b (12 bytes, string[12]):
  |         0102: 44 72 65 77 20 4e 6f 61 6b 65 73 00             [Drew Noakes.]
  | 9)  YCbCrPositioning = 2
  |     - Tag 0x0213 (2 bytes, int16u[1]):
  |         008a: 02 00                                           [..]
  | 10) ExifOffset (SubDirectory) -->
  |     - Tag 0x8769 (4 bytes, int32u[1]):
  |         0096: ca 02 00 00                                     [....]
  | + [ExifIFD directory with 35 entries, Little-endian]
  | | 0)  ExposureTime = 0.01666666667 (10/600)
  | |     - Tag 0x829a (8 bytes, rational64u[1]):
  | |         0480: 0a 00 00 00 58 02 00 00                         [....X...]
  | | 1)  FNumber = 1.4 (14/10)
  | |     - Tag 0x829d (8 bytes, rational64u[1]):
  | |         0488: 0e 00 00 00 0a 00 00 00                         [........]
  | | 2)  ExposureProgram = 2
  | |     - Tag 0x8822 (2 bytes, int16u[1]):
  | |         02f8: 02 00                                           [..]
  | | 3)  ISO = 160
  | |     - Tag 0x8827 (2 bytes, int16u[1]):
  | |         0304: a0 00                                           [..]
  | | 4)  SensitivityType = 1
  | |     - Tag 0x8830 (2 bytes, int16u[1]):
  | |         0310: 01 00                                           [..]
  | | 5)  ExifVersion = 0230
  | |     - Tag 0x9000 (4 bytes, undef[4]):
  | |         031c: 30 32 33 30                                     [0230]
  | | 6)  DateTimeOriginal = 2014:11:19 23:07:44
  | |     - Tag 0x9003 (20 bytes, string[20]):
  | |         0490: 32 30 31 34 3a 31 31 3a 31 39 20 32 33 3a 30 37 [2014:11:19 23:07]
  | |         04a0: 3a 34 34 00                                     [:44.]
  | | 7)  CreateDate = 2014:11:19 23:07:44
  | |     - Tag 0x9004 (20 bytes, string[20]):
  | |         04a4: 32 30 31 34 3a 31 31 3a 31 39 20 32 33 3a 30 37 [2014:11:19 23:07]
  | |         04b4: 3a 34 34 00                                     [:44.]
  | | 8)  ComponentsConfiguration = 1 2 3 0
  | |     - Tag 0x9101 (4 bytes, undef[4] read as int8u[4]):
  | |         0340: 01 02 03 00                                     [....]
  | | 9)  CompressedBitsPerPixel = 2 (2/1)
  | |     - Tag 0x9102 (8 bytes, rational64u[1]):
  | |         04b8: 02 00 00 00 01 00 00 00                         [........]
  | | 10) ExposureCompensation = 0 (0/100)
  | |     - Tag 0x9204 (8 bytes, rational64s[1]):
  | |         04c0: 00 00 00 00 64 00 00 00                         [....d...]
  | | 11) MaxApertureValue = 0.96875 (124/128)
  | |     - Tag 0x9205 (8 bytes, rational64u[1]):
  | |         04c8: 7c 00 00 00 80 00 00 00                         [|.......]
  | | 12) MeteringMode = 5
  | |     - Tag 0x9207 (2 bytes, int16u[1]):
  | |         0370: 05 00                                           [..]
  | | 13) LightSource = 0
  | |     - Tag 0x9208 (2 bytes, int16u[1]):
  | |         037c: 00 00                                           [..]
  | | 14) Flash = 16
  | |     - Tag 0x9209 (2 bytes, int16u[1]):
  | |         0388: 10 00                                           [..]
  | | 15) FocalLength = 4.7 (47/10)
  | |     - Tag 0x920a (8 bytes, rational64u[1]):
  | |         04d0: 2f 00 00 00 0a 00 00 00                         [/.......]
  | | 16) MakerNotePanasonic (SubDirectory) -->
  | |     - Tag 0x927c (9968 bytes, undef[9968]):
  | |         04d8: 50 61 6e 61 73 6f 6e 69 63 00 00 00 6a 00 01 00 [Panasonic...j...]
  | |         04e8: 03 00 01 00 00 00 07 00 00 00 02 00 07 00 04 00 [................]
  | |         04f8: 00 00 00 01 00 00 03 00 03 00 01 00 00 00 01 00 [................]
  | |         0508: 00 00 07 00 03 00 01 00 00 00 01 00 00 00 0f 00 [................]
  | |         0518: 01 00 02 00 00 00 10 00 00 00 1a 00 03 00 01 00 [................]
  | |         0528: 00 00 02 00 00 00 1c 00 03 00 01 00 00 00 01 00 [................]
  | |         0538: 00 00 1f 00 03 00 01 00 00 00 06 00 00 00 20 00 [.............. .]
  | |         0548: 03 00 01 00 00 00 02 00 00 00 21 00 07 00 08 20 [..........!.... ]
  | |         0558: 00 00 d2 09 00 00 22 00 03 00 01 00 00 00 00 00 [......".........]
  | |         0568: 00 00 24 00 03 00 01 00 00 00 00 00 00 00 25 00 [..$...........%.]
  | |         0578: 07 00 10 00 00 00 da 29 00 00 26 00 07 00 04 00 [.......)..&.....]
  | |         0588: 00 00 30 34 30 31 27 00 03 00 01 00 00 00 00 00 [..0401'.........]
  | |         0598: 00 00 28 00 03 00 01 00 00 00 01 00 00 00 29 00 [..(...........).]
  | |         05a8: 04 00 01 00 00 00 d7 20 00 00 2a 00 03 00 01 00 [....... ..*.....]
  | |         05b8: 00 00 00 00 00 00 2b 00 04 00 01 00 00 00 00 00 [......+.........]
  | |         05c8: 00 00 2c 00 03 00 01 00 00 00 00 00 00 00 2d 00 [..,...........-.]
  | |         05d8: 03 00 01 00 00 00 00 00 00 00 2e 00 03 00 01 00 [................]
  | |         05e8: 00 00 01 00 00 00 2f 00 03 00 01 00 00 00 01 00 [....../.........]
  | |         05f8: 00 00 30 00 03 00 01 00 00 00 01 00 00 00 31 00 [..0...........1.]
  | |         0608: 03 00 01 00 00 00 02 00 00 00 32 00 03 00 01 00 [..........2.....]
  | |         0618: 00 00 00 00 00 00 33 00 02 00 14 00 00 00 ea 29 [......3........)]
  | |         0628: 00 00 34 00 03 00 01 00 00 00 01 00 00 00 35 00 [..4...........5.]
  | |         0638: 03 00 01 00 00 00 01 00 00 00 36 00 03 00 01 00 [..........6.....]
  | |         0648: 00 00 ff ff 00 00 37 00 03 00 01 00 00 00 01 01 [......7.........]
  | |         0658: 00 00 38 00 03 00 01 00 00 00 02 00 00 00 39 00 [..8...........9.]
  | |         0668: 03 00 01 00 00 00 00 00 00 00 3a 00 03 00 01 00 [..........:.....]
  | |         0678: 00 00 01 00 00 00 3b 00 03 00 01 00 00 00 01 00 [......;.........]
  | |         0688: 00 00 3c 00 03 00 01 00 00 00 ff ff 00 00 3d 00 [..<...........=.]
  | |         0698: 03 00 01 00 00 00 01 00 00 00 3e 00 03 00 01 00 [..........>.....]
  | |         06a8: 00 00 01 00 00 00 3f 00 03 00 01 00 00 00 00 00 [......?.........]
  | |         06b8: 00 00 40 00 03 00 01 00 00 00 00 00 00 00 41 00 [..@...........A.]
  | |         06c8: 03 00 01 00 00 00 00 00 00 00 42 00 03 00 01 00 [..........B.....]
  | |         06d8: 00 00 00 00 00 00 43 00 03 00 01 00 00 00 03 00 [......C.........]
  | |         06e8: 00 00 44 00 03 00 01 00 00 00 00 00 00 00 46 00 [..D...........F.]
  | |         06f8: 03 00 01 00 00 00 00 00 00 00 47 00 03 00 01 00 [..........G.....]
  | |         0708: 00 00 00 00 00 00 48 00 03 00 01 00 00 00 00 00 [......H.........]
  | |         0718: 00 00 4a 00 03 00 01 00 00 00 00 00 00 00 4b 00 [..J...........K.]
  | |         0728: 04 00 01 00 00 00 40 0e 00 00 4c 00 04 00 01 00 [......@...L.....]
  | |         0738: 00 00 b0 0a 00 00 4d 00 05 00 02 00 00 00 fe 29 [......M........)]
  | |         0748: 00 00 4e 00 07 00 2a 00 00 00 0e 2a 00 00 4f 00 [..N...*....*..O.]
  | |         0758: 03 00 01 00 00 00 00 00 00 00 50 00 03 00 01 00 [..........P.....]
  | |         0768: 00 00 00 00 00 00 55 00 03 00 01 00 00 00 01 00 [......U.........]
  | |         0778: 00 00 57 00 03 00 01 00 00 00 00 00 00 00 5a 00 [..W...........Z.]
  | |         0788: 03 00 01 00 00 00 00 00 00 00 5b 00 03 00 01 00 [..........[.....]
  | |         0798: 00 00 00 00 00 00 5c 00 03 00 01 00 00 00 00 00 [......\.........]
  | |         07a8: 00 00 5e 00 07 00 04 00 00 00 00 00 00 10 61 00 [..^...........a.]
  | |         07b8: 07 00 94 00 00 00 38 2a 00 00 62 00 03 00 01 00 [......8*..b.....]
  | |         07c8: 00 00 00 00 00 00 63 00 07 00 04 00 00 00 00 00 [......c.........]
  | |         07d8: 00 00 65 00 07 00 40 00 00 00 cc 2a 00 00 66 00 [..e...@....*..f.]
  | |         07e8: 07 00 40 00 00 00 0c 2b 00 00 67 00 07 00 40 00 [..@....+..g...@.]
  | |         07f8: 00 00 4c 2b 00 00 70 00 01 00 01 00 00 00 00 00 [..L+..p.........]
  | |         0808: 00 00 72 00 03 00 01 00 00 00 00 00 00 00 73 00 [..r...........s.]
  | |         0818: 03 00 01 00 00 00 00 00 00 00 74 00 03 00 01 00 [..........t.....]
  | |         0828: 00 00 00 00 00 00 75 00 03 00 01 00 00 00 00 00 [......u.........]
  | |         0838: 00 00 76 00 03 00 01 00 00 00 00 00 00 00 77 00 [..v...........w.]
  | |         0848: 03 00 01 00 00 00 00 00 00 00 79 00 03 00 01 00 [..........y.....]
  | |         0858: 00 00 00 00 00 00 7a 00 03 00 01 00 00 00 00 00 [......z.........]
  | |         0868: 00 00 7b 00 03 00 01 00 00 00 00 00 00 00 7c 00 [..{...........|.]
  | |         0878: 03 00 01 00 00 00 00 00 00 00 7d 00 03 00 01 00 [..........}.....]
  | |         0888: 00 00 00 00 00 00 7e 00 03 00 01 00 00 00 00 00 [......~.........]
  | |         0898: 00 00 89 00 03 00 01 00 00 00 01 00 00 00 8b 00 [................]
  | |         08a8: 03 00 01 00 00 00 00 00 00 00 8c 00 03 00 01 00 [................]
  | |         08b8: 00 00 00 00 00 00 8d 00 03 00 01 00 00 00 00 00 [................]
  | |         08c8: 00 00 8e 00 03 00 01 00 00 00 00 00 00 00 8f 00 [................]
  | |         08d8: 01 00 01 00 00 00 00 00 00 00 90 00 03 00 01 00 [................]
  | |         08e8: 00 00 00 00 00 00 91 00 03 00 01 00 00 00 00 00 [................]
  | |         08f8: 00 00 92 00 01 00 01 00 00 00 00 00 00 00 93 00 [................]
  | |         0908: 01 00 01 00 00 00 00 00 00 00 94 00 03 00 01 00 [................]
  | |         0918: 00 00 00 00 00 00 96 00 01 00 01 00 00 00 00 00 [................]
  | |         0928: 00 00 97 00 03 00 01 00 00 00 00 00 00 00 98 00 [................]
  | |         0938: 03 00 01 00 00 00 00 00 00 00 9d 00 05 00 01 00 [................]
  | |         0948: 00 00 8c 2b 00 00 03 20 07 00 14 00 00 00 94 2b [...+... .......+]
  | |         0958: 00 00 00 80 07 00 04 00 00 00 30 31 34 31 01 80 [..........0141..]
  | |         0968: 03 00 01 00 00 00 00 00 00 00 02 80 03 00 01 00 [................]
  | |         0978: 00 00 01 00 00 00 03 80 03 00 01 00 00 00 01 00 [................]
  | |         0988: 00 00 04 80 03 00 01 00 00 00 37 07 00 00 05 80 [..........7.....]
  | |         0998: 03 00 01 00 00 00 24 04 00 00 06 80 03 00 01 00 [......$.........]
  | |         09a8: 00 00 8b 07 00 00 07 80 03 00 01 00 00 00 01 00 [................]
  | |         09b8: 00 00 08 80 03 00 01 00 00 00 01 00 00 00 09 80 [................]
  | |         09c8: 03 00 01 00 00 00 01 00 00 00 10 80 02 00 14 00 [................]
  | |         09d8: 00 00 a8 2b 00 00 44 56 01 02 45 50 00 00 f0 ff [...+..DV..EP....]
  | |         09e8: 44 42 f4 09 f0 ff 41 46 02 01 7a af 00 00 7c af [DB....AF..z...|.]
  | |         09f8: 00 00 7e af 00 00 98 af 00 00 9a af 00 00 9c af [..~.............]
  | |         0a08: 00 00 a0 af 04 82 a2 af 01 00 a4 af 00 31 a6 af [.............1..]
  | |         0a18: 00 00 e6 af 00 00 ca af 48 00 b2 af 00 00 b4 af [........H.......]
  | |         0a28: 00 00 ba af be ff cc af d9 ff bc af 00 00 be af [................]
  | |         0a38: 00 00 e8 af 00 00 f8 af 00 00 fa af 00 00 a8 af [................]
  | |         0a48: 9b 03 aa af fd 00 c8 af 76 00 d8 af 8a 03 b6 af [........v.......]
  | |         0a58: 80 00 b8 af 00 00 c6 af 03 03 76 af 9d 05 78 af [..........v...x.]
  | |         0a68: 7e 02 ce af 1b 00 d2 af 14 00 d0 af 28 00 ac af [~...........(...]
  | |         0a78: 34 00 b0 af 14 00 ae af 28 00 d4 af 0e 00 f4 af [4.......(.......]
  | |         0a88: 26 00 f2 af 3b 00 e2 af 02 00 e4 af 01 00 e0 af [&...;...........]
  | |         0a98: fd 00 d6 af 00 00 84 af 00 00 86 af 00 00 88 af [................]
  | |         0aa8: 0f 00 8a af 00 00 8c af 0f 00 8e af 00 00 90 af [................]
  | |         0ab8: 00 00 92 af 00 00 94 af 00 00 96 af 00 00 fe af [................]
  | |         0ac8: 00 00 f6 af 00 00 da af 01 00 f0 af 00 00 04 06 [................]
  | |         0ad8: 78 0b 0a 06 fd 00 08 a7 01 01 80 af 2a 01 82 af [x...........*...]
  | |         0ae8: 14 00 ec af 20 00 f0 ff 53 54 46 01 20 a9 00 00 [.... ...STF. ...]
  | |         0af8: 22 a9 00 00 7c a7 00 00 bc a7 00 00 be a7 00 00 ["...|...........]
  | |         0b08: ac a7 00 00 7e a7 00 00 a0 a7 00 00 a2 a7 00 00 [....~...........]
  | |         0b18: ae a7 00 00 90 a7 00 00 92 a7 00 00 94 a7 00 00 [................]
  | |         0b28: 98 a7 00 00 80 a7 00 00 82 a7 00 00 84 a7 00 00 [................]
  | |         0b38: 86 a7 00 00 32 a6 00 00 b0 a7 00 00 b2 a7 00 00 [....2...........]
  | |         0b48: b4 a7 00 00 76 a9 00 00 58 a9 00 00 54 a9 00 00 [....v...X...T...]
  | |         0b58: 56 a9 00 00 5e a9 00 00 88 a7 00 00 8a a7 00 00 [V...^...........]
  | |         0b68: 8c a7 00 00 8e a7 00 00 9c a7 00 00 aa a7 00 00 [................]
  | |         0b78: 9e a7 00 00 2a a9 00 00 70 a7 00 00 50 a9 00 00 [....*...p...P...]
  | |         0b88: 52 a9 00 00 28 a9 00 00 24 a9 00 00 2e a9 00 00 [R...(...$.......]
  | |         0b98: 5a a9 00 00 3a a9 00 00 3c a9 00 00 2c a9 00 00 [Z...:...<...,...]
  | |         0ba8: 30 a9 00 00 32 a9 00 00 36 a9 00 00 38 a9 00 00 [0...2...6...8...]
  | |         0bb8: 60 a9 00 00 62 a9 00 00 64 a9 00 00 68 a9 00 00 [`...b...d...h...]
  | |         0bc8: 66 a9 00 00 6a a9 00 00 7e a9 00 00 3e a9 00 00 [f...j...~...>...]
  | |         0bd8: 60 a7 00 00 62 a7 00 00 66 a7 00 00 68 a7 00 00 [`...b...f...h...]
  | |         0be8: 64 a7 00 00 6a a7 00 00 78 a7 00 00 6c a7 00 00 [d...j...x...l...]
  | |         0bf8: 6e a7 00 00 72 a7 00 00 74 a7 00 00 76 a7 00 00 [n...r...t...v...]
  | |         0c08: a4 a7 00 00 a6 a7 00 00 a8 a7 00 00 72 a9 00 00 [............r...]
  | |         0c18: 74 a9 00 00 26 a9 00 00 96 a7 00 00 00 a9 00 00 [t...&...........]
  | |         0c28: 02 a9 00 00 04 a9 00 00 34 a9 00 00 f0 ff 41 45 [........4.....AE]
  | |         0c38: be 01 02 a6 dc 01 00 a6 cd 01 0a a6 cd 01 06 a6 [................]
  | |         0c48: dc 01 14 a6 13 03 16 a6 3e 03 18 a6 ee 02 2a a6 [........>.....*.]
  | |         0c58: fc 00 2c a6 00 00 0c a6 d5 ff 24 a6 dd 01 e8 a6 [..,.......$.....]
  | |         0c68: 00 04 ec a6 e9 03 f2 a6 00 00 0e a6 d6 00 28 a6 [..............(.]
  | |         0c78: 01 00 2e a6 00 00 20 a6 98 00 7c a6 00 00 22 a6 [...... ...|...".]
  | |         0c88: 7b 02 30 a6 3e 19 26 a6 04 00 a6 a6 00 00 aa a6 [{.0.>.&.........]
  | |         0c98: ff ff 34 a7 00 00 80 a6 00 00 82 a6 00 00 86 a6 [..4.............]
  | |         0ca8: 00 00 a0 a6 00 00 c0 a6 00 00 da a6 00 00 94 a6 [................]
  | |         0cb8: 00 00 e2 a6 00 00 e0 a6 00 00 84 a6 00 00 c2 a6 [................]
  | |         [snip 7936 bytes]
  | | + [MakerNotes directory with 106 entries, Little-endian]
  | | | 0)  ImageQuality = 7
  | | |     - Tag 0x0001 (2 bytes, int16u[1]):
  | | |         04ee: 07 00                                           [..]
  | | | 1)  FirmwareVersion = .
  | | |     - Tag 0x0002 (4 bytes, undef[4]):
  | | |         04fa: 00 01 00 00                                     [....]
  | | | 2)  WhiteBalance = 1
  | | |     - Tag 0x0003 (2 bytes, int16u[1]):
  | | |         0506: 01 00                                           [..]
  | | | 3)  FocusMode = 1
  | | |     - Tag 0x0007 (2 bytes, int16u[1]):
  | | |         0512: 01 00                                           [..]
  | | | 4)  AFAreaMode = 16 0
  | | |     - Tag 0x000f (2 bytes, int8u[2]):
  | | |         051e: 10 00                                           [..]
  | | | 5)  ImageStabilization = 2
  | | |     - Tag 0x001a (2 bytes, int16u[1]):
  | | |         052a: 02 00                                           [..]
  | | | 6)  MacroMode = 1
  | | |     - Tag 0x001c (2 bytes, int16u[1]):
  | | |         0536: 01 00                                           [..]
  | | | 7)  ShootingMode = 6
  | | |     - Tag 0x001f (2 bytes, int16u[1]):
  | | |         0542: 06 00                                           [..]
  | | | 8)  Audio = 2
  | | |     - Tag 0x0020 (2 bytes, int16u[1]):
  | | |         054e: 02 00                                           [..]
  | | | 9)  DataDump = DV..EP..DB....AF..z.|.~................1......H...............................v.............v...x.~.........(..4.....(.....&..;............................................x..........*...... ..STF. .".|.......~.......................2.......v.X.T.V.^...............*.p.P.R.(.$...Z.:.<.,.0.2.6.8.`.b.d.h.f.j.~.>.`.b.f.h.d.j.x.l.n.r.t.v.......r.t.&........4...AE.......................>.....*..,.....$...............(.... ..|.".{.0.>.&........4...........................................C.T...V...U..UF...H......N....z.R..X..@..~.B..`..Z.L.\.....).d.....b...L.......6...j.l.n.f.........E...........................................0.............+.......P2..8.:...WB^...7.......$........h...`.d.f..@..B...D.p.F.D...y...@...........u...[...........x... .........................j.xl.;........:..b.........+.....7..p...........$...&... .."..<..>..(.*...,...........................0...2...4...6...8...H..J...L..N...P..R...T..V.....G.......................<...........L.........................n.p.r.t.v.x.z.|.~.q..........$...$...7.......$...$...7...........................................................................................................YC.N..P..R..T..D.DDF.D.H...J...L..8.0:.0<.0>.0....0...2.wf4.".6..........f`.PPb.PPd.PPf.PPh...j..l.n.......................................X..Z..\..^. ............^.........CM....p..........DSF.......................U..............IS........................r.......................................?...................(...................P...P...P...........................................FD.`.b.................................@.B.D.F.H.J.L.N.P.R.T.V.X.Z.\.^...............ATB<.".$.&.(.*.,...0.2.4.6.8.:.>...IA......................................................................................... .. ..................DSCPDISV.((((((((((FFFFFFFFFFqYpYvSFuTtUo[l]gbwRvSK?J@=L><K@JAICHCEFN;N<vSxR0|NA{OzOuUtVn[{NzP?[@ZBX6@Y@Y<];^7bCXAY^j_i7ddDag_i]kZnWrddagUfTfYaDVd4SgPjOkJq]]Z`j_k_BpY@n[o[k^n\j`k^k^cbd`h]=f^7da_e_eYki\g^s8!_(o\.x%|1(P.RF.|AJ&.-.,%I1#V5.:..0P7.e&(a1rC..<c#.R/cL.wBP63<&T7fP=[snip]
  | | |     - Tag 0x0021 (8200 bytes, undef[8200]):
  | | |         09de: 44 56 01 02 45 50 00 00 f0 ff 44 42 f4 09 f0 ff [DV..EP....DB....]
  | | |         09ee: 41 46 02 01 7a af 00 00 7c af 00 00 7e af 00 00 [AF..z...|...~...]
  | | |         09fe: 98 af 00 00 9a af 00 00 9c af 00 00 a0 af 04 82 [................]
  | | |         0a0e: a2 af 01 00 a4 af 00 31 a6 af 00 00 e6 af 00 00 [.......1........]
  | | |         0a1e: ca af 48 00 b2 af 00 00 b4 af 00 00 ba af be ff [..H.............]
  | | |         0a2e: cc af d9 ff bc af 00 00 be af 00 00 e8 af 00 00 [................]
  | | |         0a3e: f8 af 00 00 fa af 00 00 a8 af 9b 03 aa af fd 00 [................]
  | | |         0a4e: c8 af 76 00 d8 af 8a 03 b6 af 80 00 b8 af 00 00 [..v.............]
  | | |         0a5e: c6 af 03 03 76 af 9d 05 78 af 7e 02 ce af 1b 00 [....v...x.~.....]
  | | |         0a6e: d2 af 14 00 d0 af 28 00 ac af 34 00 b0 af 14 00 [......(...4.....]
  | | |         0a7e: ae af 28 00 d4 af 0e 00 f4 af 26 00 f2 af 3b 00 [..(.......&...;.]
  | | |         0a8e: e2 af 02 00 e4 af 01 00 e0 af fd 00 d6 af 00 00 [................]
  | | |         0a9e: 84 af 00 00 86 af 00 00 88 af 0f 00 8a af 00 00 [................]
  | | |         0aae: 8c af 0f 00 8e af 00 00 90 af 00 00 92 af 00 00 [................]
  | | |         0abe: 94 af 00 00 96 af 00 00 fe af 00 00 f6 af 00 00 [................]
  | | |         0ace: da af 01 00 f0 af 00 00 04 06 78 0b 0a 06 fd 00 [..........x.....]
  | | |         0ade: 08 a7 01 01 80 af 2a 01 82 af 14 00 ec af 20 00 [......*....... .]
  | | |         0aee: f0 ff 53 54 46 01 20 a9 00 00 22 a9 00 00 7c a7 [..STF. ..."...|.]
  | | |         0afe: 00 00 bc a7 00 00 be a7 00 00 ac a7 00 00 7e a7 [..............~.]
  | | |         0b0e: 00 00 a0 a7 00 00 a2 a7 00 00 ae a7 00 00 90 a7 [................]
  | | |         0b1e: 00 00 92 a7 00 00 94 a7 00 00 98 a7 00 00 80 a7 [................]
  | | |         0b2e: 00 00 82 a7 00 00 84 a7 00 00 86 a7 00 00 32 a6 [..............2.]
  | | |         0b3e: 00 00 b0 a7 00 00 b2 a7 00 00 b4 a7 00 00 76 a9 [..............v.]
  | | |         0b4e: 00 00 58 a9 00 00 54 a9 00 00 56 a9 00 00 5e a9 [..X...T...V...^.]
  | | |         0b5e: 00 00 88 a7 00 00 8a a7 00 00 8c a7 00 00 8e a7 [................]
  | | |         0b6e: 00 00 9c a7 00 00 aa a7 00 00 9e a7 00 00 2a a9 [..............*.]
  | | |         0b7e: 00 00 70 a7 00 00 50 a9 00 00 52 a9 00 00 28 a9 [..p...P...R...(.]
  | | |         0b8e: 00 00 24 a9 00 00 2e a9 00 00 5a a9 00 00 3a a9 [..$.......Z...:.]
  | | |         0b9e: 00 00 3c a9 00 00 2c a9 00 00 30 a9 00 00 32 a9 [..<...,...0...2.]
  | | |         0bae: 00 00 36 a9 00 00 38 a9 00 00 60 a9 00 00 62 a9 [..6...8...`...b.]
  | | |         0bbe: 00 00 64 a9 00 00 68 a9 00 00 66 a9 00 00 6a a9 [..d...h...f...j.]
  | | |         0bce: 00 00 7e a9 00 00 3e a9 00 00 60 a7 00 00 62 a7 [..~...>...`...b.]
  | | |         0bde: 00 00 66 a7 00 00 68 a7 00 00 64 a7 00 00 6a a7 [..f...h...d...j.]
  | | |         0bee: 00 00 78 a7 00 00 6c a7 00 00 6e a7 00 00 72 a7 [..x...l...n...r.]
  | | |         0bfe: 00 00 74 a7 00 00 76 a7 00 00 a4 a7 00 00 a6 a7 [..t...v.........]
  | | |         0c0e: 00 00 a8 a7 00 00 72 a9 00 00 74 a9 00 00 26 a9 [......r...t...&.]
  | | |         0c1e: 00 00 96 a7 00 00 00 a9 00 00 02 a9 00 00 04 a9 [................]
  | | |         0c2e: 00 00 34 a9 00 00 f0 ff 41 45 be 01 02 a6 dc 01 [..4.....AE......]
  | | |         0c3e: 00 a6 cd 01 0a a6 cd 01 06 a6 dc 01 14 a6 13 03 [................]
  | | |         0c4e: 16 a6 3e 03 18 a6 ee 02 2a a6 fc 00 2c a6 00 00 [..>.....*...,...]
  | | |         0c5e: 0c a6 d5 ff 24 a6 dd 01 e8 a6 00 04 ec a6 e9 03 [....$...........]
  | | |         0c6e: f2 a6 00 00 0e a6 d6 00 28 a6 01 00 2e a6 00 00 [........(.......]
  | | |         0c7e: 20 a6 98 00 7c a6 00 00 22 a6 7b 02 30 a6 3e 19 [ ...|...".{.0.>.]
  | | |         0c8e: 26 a6 04 00 a6 a6 00 00 aa a6 ff ff 34 a7 00 00 [&...........4...]
  | | |         0c9e: 80 a6 00 00 82 a6 00 00 86 a6 00 00 a0 a6 00 00 [................]
  | | |         0cae: c0 a6 00 00 da a6 00 00 94 a6 00 00 e2 a6 00 00 [................]
  | | |         0cbe: e0 a6 00 00 84 a6 00 00 c2 a6 00 00 8a a6 00 00 [................]
  | | |         0cce: 90 a6 00 00 a2 a6 00 00 88 a6 00 00 8c a6 ff ff [................]
  | | |         0cde: 8e a6 00 00 92 a6 ff ff 1a a6 43 03 54 a6 8e 03 [..........C.T...]
  | | |         0cee: 56 a6 00 00 10 a6 55 00 12 a6 55 00 46 a6 ee 04 [V.....U...U.F...]
  | | |         0cfe: 48 a6 00 04 ee a6 e9 03 4e a6 00 01 f4 a6 00 00 [H.......N.......]
  | | |         0d0e: 7a a6 00 00 52 a6 01 00 58 a6 01 00 40 a6 98 00 [z...R...X...@...]
  | | |         0d1e: 7e a6 00 00 42 a6 00 03 60 a6 00 01 5a a6 4c 0c [~...B...`...Z.L.]
  | | |         0d2e: 5c a6 c1 05 10 a7 29 0f 64 a6 01 00 06 a7 02 00 [\.....).d.......]
  | | |         0d3e: 62 a6 00 00 04 a7 00 00 4c a6 00 00 ac a6 00 00 [b.......L.......]
  | | |         0d4e: a4 a6 00 00 a8 a6 00 00 36 a7 00 00 9c a6 00 00 [........6.......]
  | | |         0d5e: 6a a6 00 00 6c a6 00 00 6e a6 00 00 66 a6 01 00 [j...l...n...f...]
  | | |         0d6e: c4 a6 03 00 c6 a6 00 00 c8 a6 45 00 ca a6 01 00 [..........E.....]
  | | |         0d7e: cc a6 0d 00 ce a6 00 00 d0 a6 00 00 d6 a6 00 00 [................]
  | | |         0d8e: d8 a6 00 00 d2 a6 00 00 d4 a6 00 00 b0 a6 00 00 [................]
  | | |         0d9e: b2 a6 00 00 ba a6 ff 00 dc a6 80 00 b6 a6 00 00 [................]
  | | |         0dae: b8 a6 00 00 9e a6 0e 00 96 a6 00 00 bc a6 00 00 [................]
  | | |         0dbe: be a6 00 00 f0 a6 00 00 30 a7 b2 01 0a a7 b2 01 [........0.......]
  | | |         0dce: 0c a7 00 00 0e a7 00 00 12 a7 2b 01 00 a7 12 00 [..........+.....]
  | | |         0dde: 1e a7 00 00 02 a7 50 00 32 a7 80 00 38 a7 00 00 [......P.2...8...]
  | | |         0dee: 3a a7 00 00 f0 ff 57 42 5e 02 16 a8 37 07 1a a8 [:.....WB^...7...]
  | | |         0dfe: 8b 07 18 a8 24 04 1c a8 e6 00 1e a8 01 01 68 a8 [....$.........h.]
  | | |         0e0e: ee 02 60 a8 00 00 64 a8 00 00 66 a8 08 00 40 a8 [..`...d...f...@.]
  | | |         0e1e: e6 00 42 a8 01 01 44 a8 70 01 46 a8 44 01 a0 a8 [..B...D.p.F.D...]
  | | |         0e2e: 79 05 a2 a8 40 0a a4 a8 ee 07 a6 a8 01 07 a8 a8 [y...@...........]
  | | |         0e3e: 75 05 aa a8 5b 0a ac a8 ee 07 ae a8 1e 07 b8 a8 [u...[...........]
  | | |         0e4e: 78 05 ba a8 20 0a bc a8 e4 07 be a8 f5 06 b0 a8 [x... ...........]
  | | |         0e5e: 87 05 b2 a8 f6 09 b4 a8 02 08 b6 a8 ce 06 6a a8 [..............j.]
  | | |         0e6e: 78 00 6c a8 3b 01 00 a8 d2 11 02 a8 01 04 3a a8 [x.l.;.........:.]
  | | |         0e7e: 02 00 62 a8 e8 00 b4 a6 00 00 c4 a8 0d 00 cc a8 [..b.............]
  | | |         0e8e: 2b 00 c6 a8 0f 00 ce a8 37 00 c0 a8 70 00 c8 a8 [+.......7...p...]
  | | |         0e9e: 90 00 c2 a8 90 00 ca a8 ba 00 d0 a8 00 00 24 a8 [..............$.]
  | | |         0eae: 0d 01 26 a8 0f 01 20 a8 a2 00 22 a8 98 00 3c a8 [..&... ..."...<.]
  | | |         0ebe: a2 00 3e a8 98 00 28 a8 00 00 2a a8 0d 01 2c a8 [..>...(...*...,.]
  | | |         0ece: 0f 01 98 a8 00 00 90 a8 0d 01 92 a8 0f 01 9a a8 [................]
  | | |         0ede: 00 00 94 a8 0d 01 96 a8 0f 01 9c a8 00 00 2e a8 [................]
  | | |         0eee: 00 00 30 a8 0d 01 32 a8 0f 01 34 a8 ff ff 36 a8 [..0...2...4...6.]
  | | |         0efe: ff ff 38 a8 ff ff 48 a8 e6 00 4a a8 01 01 4c a8 [..8...H...J...L.]
  | | |         0f0e: e6 00 4e a8 01 01 50 a8 e6 00 52 a8 01 01 54 a8 [..N...P...R...T.]
  | | |         0f1e: e6 00 56 a8 01 01 0c a8 47 05 10 a8 9c 0a 0e a8 [..V.....G.......]
  | | |         0f2e: 00 04 12 a8 a2 00 14 a8 98 00 d4 a8 00 00 d6 a8 [................]
  | | |         0f3e: 00 00 d8 a8 00 00 da a8 10 3c dc a8 00 00 de a8 [.........<......]
  | | |         0f4e: 00 00 f4 a8 00 00 0a a8 01 00 d8 19 4c 05 da 19 [............L...]
  | | |         0f5e: 89 0b dc 19 00 00 de 19 00 00 80 a8 00 00 82 a8 [................]
  | | |         0f6e: 00 00 84 a8 00 00 86 a8 00 00 88 a8 00 00 8a a8 [................]
  | | |         0f7e: 00 00 8c a8 00 00 8e a8 00 00 6e a8 00 00 70 a8 [..........n...p.]
  | | |         0f8e: 00 00 72 a8 00 00 74 a8 00 00 76 a8 00 00 78 a8 [..r...t...v...x.]
  | | |         0f9e: 00 00 7a a8 00 00 7c a8 00 00 7e a8 71 00 9e a8 [..z...|...~.q...]
  | | |         0fae: 00 00 9f a8 00 00 d0 ac 8b 07 d2 ac 24 04 d4 ac [............$...]
  | | |         0fbe: 24 04 d6 ac 37 07 d8 ac 8b 07 da ac 24 04 dc ac [$...7.......$...]
  | | |         0fce: 24 04 de ac 37 07 08 a9 f8 0f 0a a9 f8 0f 0c a9 [$...7...........]
  | | |         0fde: fc 0f 0e a9 fc 0f 10 a9 fc 0f 12 a9 f0 0f 14 a9 [................]
  | | |         0fee: fc 0f 16 a9 f8 0f 18 a9 f8 0f 1a a9 f8 0f 1c a9 [................]
  | | |         0ffe: f8 0f 1e a9 fc 0f da a9 01 00 db a9 01 00 c0 19 [................]
  | | |         100e: 00 00 c2 19 18 00 c4 19 00 00 c6 19 00 00 c8 19 [................]
  | | |         101e: 00 00 ca 19 00 00 cc 19 18 00 ce 19 00 00 d0 19 [................]
  | | |         102e: 00 00 d2 19 00 00 b2 19 ff ff b4 19 ff ff b6 19 [................]
  | | |         103e: ff ff b8 19 ff ff ba 19 ff ff bc 19 ff ff be 19 [................]
  | | |         104e: ff ff f0 ff 59 43 ea 00 4e aa 04 00 50 aa 04 00 [....YC..N...P...]
  | | |         105e: 52 aa 04 00 54 aa 04 00 44 aa 44 44 46 aa 44 ca [R...T...D.DDF.D.]
  | | |         106e: 48 aa cc cc 4a aa cc cc 4c aa 0c 00 38 aa 30 00 [H...J...L...8.0.]
  | | |         107e: 3a aa 30 00 3c aa 30 00 3e aa 30 00 2e aa 88 88 [:.0.<.0.>.0.....]
  | | |         108e: 30 aa cc 88 32 aa 77 66 34 aa 22 11 36 aa 00 00 [0...2.wf4.".6...]
  | | |         109e: 82 04 00 00 80 04 09 00 84 04 00 00 84 aa 66 00 [..............f.]
  | | |         10ae: 60 aa 50 50 62 aa 50 50 64 aa 50 50 66 aa 50 50 [`.PPb.PPd.PPf.PP]
  | | |         10be: 68 aa c0 c0 6a aa 02 00 6c aa 00 00 6e aa 00 00 [h...j...l...n...]
  | | |         10ce: 86 aa 00 00 88 aa 00 00 8a aa 08 00 8c aa 08 00 [................]
  | | |         10de: 8e aa 00 00 90 aa 00 00 92 aa 18 00 94 aa 18 00 [................]
  | | |         10ee: 96 aa 00 00 98 aa 00 00 a0 aa f0 00 a2 aa 10 00 [................]
  | | |         10fe: a4 aa e8 00 a6 aa 00 00 a8 aa 0a 00 58 aa 01 00 [............X...]
  | | |         110e: 5a aa 13 00 5c aa 13 00 5e aa 20 00 9a aa 00 00 [Z...\...^. .....]
  | | |         111e: 9c aa 08 00 e0 aa 01 00 e2 aa 00 00 e4 aa 00 00 [................]
  | | |         112e: 5e ab 01 00 be ab 00 00 fe ab 01 00 f0 ff 43 4d [^.............CM]
  | | |         113e: 1a 00 fc 05 09 70 04 ac 00 00 fe a9 00 00 04 a8 [.....p..........]
  | | |         114e: 00 00 fc a9 00 00 f0 ff 44 53 46 00 00 ae 04 10 [........DSF.....]
  | | |         115e: 1c ae 00 00 02 ae 00 00 18 ae 00 00 1e ae 00 00 [................]
  | | |         116e: 04 ae 00 00 06 ae 00 00 08 ae 00 00 0a ae 00 00 [................]
  | | |         117e: 0c ae 00 00 0e ae 55 14 1a ae ff 00 10 ae 00 00 [......U.........]
  | | |         118e: 12 ae 00 00 14 ae 00 00 16 ae 00 00 f0 ff 49 53 [..............IS]
  | | |         119e: ba 00 e0 ae 00 00 e2 ae cf 00 e4 ae fe 00 92 ae [................]
  | | |         11ae: 00 00 e6 ae 00 00 e8 ae 00 00 ea ae 00 00 ec ae [................]
  | | |         11be: 00 00 90 ae ff 00 91 ae 72 00 f2 ae e5 03 f4 ae [........r.......]
  | | |         [snip 6168 bytes]
  | | | 10) Panasonic_0x0022 = 0
  | | |     - Tag 0x0022 (2 bytes, int16u[1]):
  | | |         0566: 00 00                                           [..]
  | | | 11) FlashBias = 0
  | | |     - Tag 0x0024 (2 bytes, int16u[1] read as int16s[1]):
  | | |         0572: 00 00                                           [..]
  | | | 12) InternalSerialNumber = F111311090158_
  | | |     - Tag 0x0025 (16 bytes, undef[16]):
  | | |         29e6: 46 31 31 31 33 31 31 30 39 30 31 35 38 00 5f 00 [F111311090158._.]
  | | | 13) PanasonicExifVersion = 0401
  | | |     - Tag 0x0026 (4 bytes, undef[4]):
  | | |         058a: 30 34 30 31                                     [0401]
  | | | 14) VideoFrameRate = 0
  | | |     - Tag 0x0027 (2 bytes, int16u[1]):
  | | |         0596: 00 00                                           [..]
  | | | 15) ColorEffect = 1
  | | |     - Tag 0x0028 (2 bytes, int16u[1]):
  | | |         05a2: 01 00                                           [..]
  | | | 16) TimeSincePowerOn = 8407
  | | |     - Tag 0x0029 (4 bytes, int32u[1]):
  | | |         05ae: d7 20 00 00                                     [. ..]
  | | | 17) BurstMode = 0
  | | |     - Tag 0x002a (2 bytes, int16u[1]):
  | | |         05ba: 00 00                                           [..]
  | | | 18) SequenceNumber = 0
  | | |     - Tag 0x002b (4 bytes, int32u[1]):
  | | |         05c6: 00 00 00 00                                     [....]
  | | | 19) ContrastMode = 0
  | | |     - Tag 0x002c (2 bytes, int16u[1]):
  | | |         05d2: 00 00                                           [..]
  | | | 20) NoiseReduction = 0
  | | |     - Tag 0x002d (2 bytes, int16u[1]):
  | | |         05de: 00 00                                           [..]
  | | | 21) SelfTimer = 1
  | | |     - Tag 0x002e (2 bytes, int16u[1]):
  | | |         05ea: 01 00                                           [..]
  | | | 22) Panasonic_0x002f = 1
  | | |     - Tag 0x002f (2 bytes, int16u[1]):
  | | |         05f6: 01 00                                           [..]
  | | | 23) Rotation = 1
  | | |     - Tag 0x0030 (2 bytes, int16u[1]):
  | | |         0602: 01 00                                           [..]
  | | | 24) AFAssistLamp = 2
  | | |     - Tag 0x0031 (2 bytes, int16u[1]):
  | | |         060e: 02 00                                           [..]
  | | | 25) ColorMode = 0
  | | |     - Tag 0x0032 (2 bytes, int16u[1]):
  | | |         061a: 00 00                                           [..]
  | | | 26) BabyAge = 9999:99:99 00:00:00
  | | |     - Tag 0x0033 (20 bytes, string[20]):
  | | |         29f6: 39 39 39 39 3a 39 39 3a 39 39 20 30 30 3a 30 30 [9999:99:99 00:00]
  | | |         2a06: 3a 30 30 00                                     [:00.]
  | | | 27) OpticalZoomMode = 1
  | | |     - Tag 0x0034 (2 bytes, int16u[1]):
  | | |         0632: 01 00                                           [..]
  | | | 28) ConversionLens = 1
  | | |     - Tag 0x0035 (2 bytes, int16u[1]):
  | | |         063e: 01 00                                           [..]
  | | | 29) TravelDay = 65535
  | | |     - Tag 0x0036 (2 bytes, int16u[1]):
  | | |         064a: ff ff                                           [..]
  | | | 30) Panasonic_0x0037 = 257
  | | |     - Tag 0x0037 (2 bytes, int16u[1]):
  | | |         0656: 01 01                                           [..]
  | | | 31) BatteryLevel = 2
  | | |     - Tag 0x0038 (2 bytes, int16u[1]):
  | | |         0662: 02 00                                           [..]
  | | | 32) Contrast = 0
  | | |     - Tag 0x0039 (2 bytes, int16u[1] read as int16s[1]):
  | | |         066e: 00 00                                           [..]
  | | | 33) WorldTimeLocation = 1
  | | |     - Tag 0x003a (2 bytes, int16u[1]):
  | | |         067a: 01 00                                           [..]
  | | | 34) TextStamp = 1
  | | |     - Tag 0x003b (2 bytes, int16u[1]):
  | | |         0686: 01 00                                           [..]
  | | | 35) ProgramISO = 65535
  | | |     - Tag 0x003c (2 bytes, int16u[1]):
  | | |         0692: ff ff                                           [..]
  | | | 36) AdvancedSceneType = 1
  | | |     - Tag 0x003d (2 bytes, int16u[1]):
  | | |         069e: 01 00                                           [..]
  | | | 37) TextStamp = 1
  | | |     - Tag 0x003e (2 bytes, int16u[1]):
  | | |         06aa: 01 00                                           [..]
  | | | 38) FacesDetected = 0
  | | |     - Tag 0x003f (2 bytes, int16u[1]):
  | | |         06b6: 00 00                                           [..]
  | | | 39) Saturation = 0
  | | |     - Tag 0x0040 (2 bytes, int16u[1] read as int16s[1]):
  | | |         06c2: 00 00                                           [..]
  | | | 40) Sharpness = 0
  | | |     - Tag 0x0041 (2 bytes, int16u[1] read as int16s[1]):
  | | |         06ce: 00 00                                           [..]
  | | | 41) FilmMode = 0
  | | |     - Tag 0x0042 (2 bytes, int16u[1]):
  | | |         06da: 00 00                                           [..]
  | | | 42) JPEGQuality = 3
  | | |     - Tag 0x0043 (2 bytes, int16u[1]):
  | | |         06e6: 03 00                                           [..]
  | | | 43) ColorTempKelvin = 0
  | | |     - Tag 0x0044 (2 bytes, int16u[1]):
  | | |         06f2: 00 00                                           [..]
  | | | 44) WBShiftAB = 0
  | | |     - Tag 0x0046 (2 bytes, int16u[1] read as int16s[1]):
  | | |         06fe: 00 00                                           [..]
  | | | 45) WBShiftGM = 0
  | | |     - Tag 0x0047 (2 bytes, int16u[1] read as int16s[1]):
  | | |         070a: 00 00                                           [..]
  | | | 46) FlashCurtain = 0
  | | |     - Tag 0x0048 (2 bytes, int16u[1]):
  | | |         0716: 00 00                                           [..]
  | | | 47) Panasonic_0x004a = 0
  | | |     - Tag 0x004a (2 bytes, int16u[1]):
  | | |         0722: 00 00                                           [..]
  | | | 48) PanasonicImageWidth = 3648
  | | |     - Tag 0x004b (4 bytes, int32u[1]):
  | | |         072e: 40 0e 00 00                                     [@...]
  | | | 49) PanasonicImageHeight = 2736
  | | |     - Tag 0x004c (4 bytes, int32u[1]):
  | | |         073a: b0 0a 00 00                                     [....]
  | | | 50) AFPointPosition = 0.5 0.5 (128/256 128/256)
  | | |     - Tag 0x004d (16 bytes, rational64u[2]):
  | | |         2a0a: 80 00 00 00 00 01 00 00 80 00 00 00 00 01 00 00 [................]
  | | | 51) FaceDetInfo (SubDirectory) -->
  | | |     - Tag 0x004e (42 bytes, undef[42]):
  | | |         2a1a: 00 00 00 00 00 00 00 00 00 00 00 00 00 00 00 00 [................]
  | | |         2a2a: 00 00 00 00 00 00 00 00 00 00 00 00 00 00 00 00 [................]
  | | |         2a3a: 00 00 00 00 00 00 00 00 00 00                   [..........]
  | | | + [BinaryData directory, 42 bytes, Little-endian]
  | | | | NumFacePositions = 0
  | | | | - Tag 0x0000 (2 bytes, int16u[1]):
  | | | |     2a1a: 00 00                                           [..]
  | | | | Face1Position = 0 0 0 0
  | | | | - Tag 0x0001 (8 bytes, int16u[4]):
  | | | |     2a1c: 00 00 00 00 00 00 00 00                         [........]
  | | | | Face2Position = 0 0 0 0
  | | | | - Tag 0x0005 (8 bytes, int16u[4]):
  | | | |     2a24: 00 00 00 00 00 00 00 00                         [........]
  | | | | Face3Position = 0 0 0 0
  | | | | - Tag 0x0009 (8 bytes, int16u[4]):
  | | | |     2a2c: 00 00 00 00 00 00 00 00                         [........]
  | | | | Face4Position = 0 0 0 0
  | | | | - Tag 0x000d (8 bytes, int16u[4]):
  | | | |     2a34: 00 00 00 00 00 00 00 00                         [........]
  | | | | Face5Position = 0 0 0 0
  | | | | - Tag 0x0011 (8 bytes, int16u[4]):
  | | | |     2a3c: 00 00 00 00 00 00 00 00                         [........]
  | | | 52) Panasonic_0x004f = 0
  | | |     - Tag 0x004f (2 bytes, int16u[1]):
  | | |         075e: 00 00                                           [..]
  | | | 53) Panasonic_0x0050 = 0
  | | |     - Tag 0x0050 (2 bytes, int16u[1]):
  | | |         076a: 00 00                                           [..]
  | | | 54) Panasonic_0x0055 = 1
  | | |     - Tag 0x0055 (2 bytes, int16u[1]):
  | | |         0776: 01 00                                           [..]
  | | | 55) Panasonic_0x0057 = 0
  | | |     - Tag 0x0057 (2 bytes, int16u[1]):
  | | |         0782: 00 00                                           [..]
  | | | 56) Panasonic_0x005a = 0
  | | |     - Tag 0x005a (2 bytes, int16u[1]):
  | | |         078e: 00 00                                           [..]
  | | | 57) Panasonic_0x005b = 0
  | | |     - Tag 0x005b (2 bytes, int16u[1]):
  | | |         079a: 00 00                                           [..]
  | | | 58) Panasonic_0x005c = 0
  | | |     - Tag 0x005c (2 bytes, int16u[1]):
  | | |         07a6: 00 00                                           [..]
  | | | 59) Panasonic_0x005e = .
  | | |     - Tag 0x005e (4 bytes, undef[4]):
  | | |         07b2: 00 00 00 10                                     [....]
  | | | 60) FaceRecInfo (SubDirectory) -->
  | | |     - Tag 0x0061 (148 bytes, undef[148]):
  | | |         2a44: 00 00 00 00 00 00 00 00 00 00 00 00 00 00 00 00 [................]
  | | |         2a54: 00 00 00 00 00 00 00 00 00 00 00 00 00 00 00 00 [................]
  | | |         2a64: 39 39 39 39 3a 39 39 3a 39 39 20 30 30 3a 30 30 [9999:99:99 00:00]
  | | |         2a74: 3a 30 30 00 00 00 00 00 00 00 00 00 00 00 00 00 [:00.............]
  | | |         2a84: 00 00 00 00 00 00 00 00 00 00 00 00 00 00 00 00 [................]
  | | |         2a94: 39 39 39 39 3a 39 39 3a 39 39 20 30 30 3a 30 30 [9999:99:99 00:00]
  | | |         2aa4: 3a 30 30 00 00 00 00 00 00 00 00 00 00 00 00 00 [:00.............]
  | | |         2ab4: 00 00 00 00 00 00 00 00 00 00 00 00 00 00 00 00 [................]
  | | |         2ac4: 39 39 39 39 3a 39 39 3a 39 39 20 30 30 3a 30 30 [9999:99:99 00:00]
  | | |         2ad4: 3a 30 30 00                                     [:00.]
  | | | + [BinaryData directory, 148 bytes, Little-endian]
  | | | | FacesRecognized = 0
  | | | | - Tag 0x0000 (2 bytes, int16u[1]):
  | | | |     2a44: 00 00                                           [..]
  | | | | RecognizedFace1Name = 
  | | | | - Tag 0x0004 (20 bytes, string[20]):
  | | | |     2a48: 00 00 00 00 00 00 00 00 00 00 00 00 00 00 00 00 [................]
  | | | |     2a58: 00 00 00 00                                     [....]
  | | | | RecognizedFace1Position = 0 0 0 0
  | | | | - Tag 0x0018 (8 bytes, int16u[4]):
  | | | |     2a5c: 00 00 00 00 00 00 00 00                         [........]
  | | | | RecognizedFace1Age = 9999:99:99 00:00:00
  | | | | - Tag 0x0020 (20 bytes, string[20]):
  | | | |     2a64: 39 39 39 39 3a 39 39 3a 39 39 20 30 30 3a 30 30 [9999:99:99 00:00]
  | | | |     2a74: 3a 30 30 00                                     [:00.]
  | | | | RecognizedFace2Name = 
  | | | | - Tag 0x0034 (20 bytes, string[20]):
  | | | |     2a78: 00 00 00 00 00 00 00 00 00 00 00 00 00 00 00 00 [................]
  | | | |     2a88: 00 00 00 00                                     [....]
  | | | | RecognizedFace2Position = 0 0 0 0
  | | | | - Tag 0x0048 (8 bytes, int16u[4]):
  | | | |     2a8c: 00 00 00 00 00 00 00 00                         [........]
  | | | | RecognizedFace2Age = 9999:99:99 00:00:00
  | | | | - Tag 0x0050 (20 bytes, string[20]):
  | | | |     2a94: 39 39 39 39 3a 39 39 3a 39 39 20 30 30 3a 30 30 [9999:99:99 00:00]
  | | | |     2aa4: 3a 30 30 00                                     [:00.]
  | | | | RecognizedFace3Name = 
  | | | | - Tag 0x0064 (20 bytes, string[20]):
  | | | |     2aa8: 00 00 00 00 00 00 00 00 00 00 00 00 00 00 00 00 [................]
  | | | |     2ab8: 00 00 00 00                                     [....]
  | | | | RecognizedFace3Position = 0 0 0 0
  | | | | - Tag 0x0078 (8 bytes, int16u[4]):
  | | | |     2abc: 00 00 00 00 00 00 00 00                         [........]
  | | | | RecognizedFace3Age = 9999:99:99 00:00:00
  | | | | - Tag 0x0080 (20 bytes, string[20]):
  | | | |     2ac4: 39 39 39 39 3a 39 39 3a 39 39 20 30 30 3a 30 30 [9999:99:99 00:00]
  | | | |     2ad4: 3a 30 30 00                                     [:00.]
  | | | 61) FlashWarning = 0
  | | |     - Tag 0x0062 (2 bytes, int16u[1]):
  | | |         07ca: 00 00                                           [..]
  | | | 62) RecognizedFaceFlags = 0 0 0 0
  | | |     - Tag 0x0063 (4 bytes, undef[4] read as int8u[4]):
  | | |         07d6: 00 00 00 00                                     [....]
  | | | 63) Title = 
  | | |     - Tag 0x0065 (64 bytes, undef[64] read as string[64]):
  | | |         2ad8: 00 00 00 00 00 00 00 00 00 00 00 00 00 00 00 00 [................]
  | | |         2ae8: 00 00 00 00 00 00 00 00 00 00 00 00 00 00 00 00 [................]
  | | |         2af8: 00 00 00 00 00 00 00 00 00 00 00 00 00 00 00 00 [................]
  | | |         2b08: 00 00 00 00 00 00 00 00 00 00 00 00 00 00 00 00 [................]
  | | | 64) BabyName = 
  | | |     - Tag 0x0066 (64 bytes, undef[64] read as string[64]):
  | | |         2b18: 00 00 00 00 00 00 00 00 00 00 00 00 00 00 00 00 [................]
  | | |         2b28: 00 00 00 00 00 00 00 00 00 00 00 00 00 00 00 00 [................]
  | | |         2b38: 00 00 00 00 00 00 00 00 00 00 00 00 00 00 00 00 [................]
  | | |         2b48: 00 00 00 00 00 00 00 00 00 00 00 00 00 00 00 00 [................]
  | | | 65) Location = 
  | | |     - Tag 0x0067 (64 bytes, undef[64] read as string[64]):
  | | |         2b58: 00 00 00 00 00 00 00 00 00 00 00 00 00 00 00 00 [................]
  | | |         2b68: 00 00 00 00 00 00 00 00 00 00 00 00 00 00 00 00 [................]
  | | |         2b78: 00 00 00 00 00 00 00 00 00 00 00 00 00 00 00 00 [................]
  | | |         2b88: 00 00 00 00 00 00 00 00 00 00 00 00 00 00 00 00 [................]
  | | | 66) IntelligentResolution = 0
  | | |     - Tag 0x0070 (1 bytes, int8u[1]):
  | | |         0806: 00                                              [.]
  | | | 67) Panasonic_0x0072 = 0
  | | |     - Tag 0x0072 (2 bytes, int16u[1]):
  | | |         0812: 00 00                                           [..]
  | | | 68) Panasonic_0x0073 = 0
  | | |     - Tag 0x0073 (2 bytes, int16u[1]):
  | | |         081e: 00 00                                           [..]
  | | | 69) Panasonic_0x0074 = 0
  | | |     - Tag 0x0074 (2 bytes, int16u[1]):
  | | |         082a: 00 00                                           [..]
  | | | 70) Panasonic_0x0075 = 0
  | | |     - Tag 0x0075 (2 bytes, int16u[1]):
  | | |         0836: 00 00                                           [..]
  | | | 71) MergedImages = 0
  | | |     - Tag 0x0076 (2 bytes, int16u[1]):
  | | |         0842: 00 00                                           [..]
  | | | 72) BurstSpeed = 0
  | | |     - Tag 0x0077 (2 bytes, int16u[1]):
  | | |         084e: 00 00                                           [..]
  | | | 73) IntelligentD-Range = 0
  | | |     - Tag 0x0079 (2 bytes, int16u[1]):
  | | |         085a: 00 00                                           [..]
  | | | 74) Panasonic_0x007a = 0
  | | |     - Tag 0x007a (2 bytes, int16u[1]):
  | | |         0866: 00 00                                           [..]
  | | | 75) Panasonic_0x007b = 0
  | | |     - Tag 0x007b (2 bytes, int16u[1]):
  | | |         0872: 00 00                                           [..]
  | | | 76) ClearRetouch = 0
  | | |     - Tag 0x007c (2 bytes, int16u[1]):
  | | |         087e: 00 00                                           [..]
  | | | 77) Panasonic_0x007d = 0
  | | |     - Tag 0x007d (2 bytes, int16u[1]):
  | | |         088a: 00 00                                           [..]
  | | | 78) Panasonic_0x007e = 0
  | | |     - Tag 0x007e (2 bytes, int16u[1]):
  | | |         0896: 00 00                                           [..]
  | | | 79) PhotoStyle = 1
  | | |     - Tag 0x0089 (2 bytes, int16u[1]):
  | | |         08a2: 01 00                                           [..]
  | | | 80) WBShiftIntelligentAuto = 0
  | | |     - Tag 0x008b (2 bytes, int16u[1] read as int16s[1]):
  | | |         08ae: 00 00                                           [..]
  | | | 81) AccelerometerZ = 0
  | | |     - Tag 0x008c (2 bytes, int16u[1] read as int16s[1]):
  | | |         08ba: 00 00                                           [..]
  | | | 82) AccelerometerX = 0
  | | |     - Tag 0x008d (2 bytes, int16u[1] read as int16s[1]):
  | | |         08c6: 00 00                                           [..]
  | | | 83) AccelerometerY = 0
  | | |     - Tag 0x008e (2 bytes, int16u[1] read as int16s[1]):
  | | |         08d2: 00 00                                           [..]
  | | | 84) CameraOrientation = 0
  | | |     - Tag 0x008f (1 bytes, int8u[1]):
  | | |         08de: 00                                              [.]
  | | | 85) RollAngle = 0
  | | |     - Tag 0x0090 (2 bytes, int16u[1] read as int16s[1]):
  | | |         08ea: 00 00                                           [..]
  | | | 86) PitchAngle = 0
  | | |     - Tag 0x0091 (2 bytes, int16u[1] read as int16s[1]):
  | | |         08f6: 00 00                                           [..]
  | | | 87) WBShiftCreativeControl = 0
  | | |     - Tag 0x0092 (1 bytes, int8u[1] read as int8s[1]):
  | | |         0902: 00                                              [.]
  | | | 88) SweepPanoramaDirection = 0
  | | |     - Tag 0x0093 (1 bytes, int8u[1]):
  | | |         090e: 00                                              [.]
  | | | 89) SweepPanoramaFieldOfView = 0
  | | |     - Tag 0x0094 (2 bytes, int16u[1]):
  | | |         091a: 00 00                                           [..]
  | | | 90) TimerRecording = 0
  | | |     - Tag 0x0096 (1 bytes, int8u[1]):
  | | |         0926: 00                                              [.]
  | | | 91) Panasonic_0x0097 = 0
  | | |     - Tag 0x0097 (2 bytes, int16u[1]):
  | | |         0932: 00 00                                           [..]
  | | | 92) Panasonic_0x0098 = 0
  | | |     - Tag 0x0098 (2 bytes, int16u[1]):
  | | |         093e: 00 00                                           [..]
  | | | 93) InternalNDFilter = 0 (0/128)
  | | |     - Tag 0x009d (8 bytes, rational64u[1]):
  | | |         2b98: 00 00 00 00 80 00 00 00                         [........]
  | | | 94) TimeInfo (SubDirectory) -->
  | | |     - Tag 0x2003 (20 bytes, undef[20]):
  | | |         2ba0: 00 00 00 00 00 00 00 00 ff ff ff ff ff ff ff ff [................]
  | | |         2bb0: 00 00 00 00                                     [....]
  | | | + [BinaryData directory, 20 bytes, Little-endian]
  | | | | PanasonicDateTime = 
  | | | | - Tag 0x0000 (8 bytes, undef[8]):
  | | | |     2ba0: 00 00 00 00 00 00 00 00                         [........]
  | | | | TimeLapseShotNumber = 0
  | | | | - Tag 0x0010 (4 bytes, int32u[1]):
  | | | |     2bb0: 00 00 00 00                                     [....]
  | | | 95) MakerNoteVersion = 0141
  | | |     - Tag 0x8000 (4 bytes, undef[4]):
  | | |         0962: 30 31 34 31                                     [0141]
  | | | 96) SceneMode = 0
  | | |     - Tag 0x8001 (2 bytes, int16u[1]):
  | | |         096e: 00 00                                           [..]
  | | | 97) HighlightWarning = 1
  | | |     - Tag 0x8002 (2 bytes, int16u[1]):
  | | |         097a: 01 00                                           [..]
  | | | 98) DarkFocusEnvironment = 1
  | | |     - Tag 0x8003 (2 bytes, int16u[1]):
  | | |         0986: 01 00                                           [..]
  | | | 99) WBRedLevel = 1847
  | | |     - Tag 0x8004 (2 bytes, int16u[1]):
  | | |         0992: 37 07                                           [7.]
  | | | 100) WBGreenLevel = 1060
  | | |     - Tag 0x8005 (2 bytes, int16u[1]):
  | | |         099e: 24 04                                           [$.]
  | | | 101) WBBlueLevel = 1931
  | | |     - Tag 0x8006 (2 bytes, int16u[1]):
  | | |         09aa: 8b 07                                           [..]
  | | | 102) Panasonic_0x8007 = 1
  | | |     - Tag 0x8007 (2 bytes, int16u[1]):
  | | |         09b6: 01 00                                           [..]
  | | | 103) TextStamp = 1
  | | |     - Tag 0x8008 (2 bytes, int16u[1]):
  | | |         09c2: 01 00                                           [..]
  | | | 104) TextStamp = 1
  | | |     - Tag 0x8009 (2 bytes, int16u[1]):
  | | |         09ce: 01 00                                           [..]
  | | | 105) BabyAge = 9999:99:99 00:00:00
  | | |     - Tag 0x8010 (20 bytes, string[20]):
  | | |         2bb4: 39 39 39 39 3a 39 39 3a 39 39 20 30 30 3a 30 30 [9999:99:99 00:00]
  | | |         2bc4: 3a 30 30 00                                     [:00.]
  | | 17) FlashpixVersion = 0100
  | |     - Tag 0xa000 (4 bytes, undef[4]):
  | |         03ac: 30 31 30 30                                     [0100]
  | | 18) ColorSpace = 1
  | |     - Tag 0xa001 (2 bytes, int16u[1]):
  | |         03b8: 01 00                                           [..]
  | | 19) ExifImageWidth = 1920
  | |     - Tag 0xa002 (4 bytes, int32u[1]):
  | |         03c4: 80 07 00 00                                     [....]
  | | 20) ExifImageHeight = 1440
  | |     - Tag 0xa003 (4 bytes, int32u[1]):
  | |         03d0: a0 05 00 00                                     [....]
  | | 21) InteropOffset (SubDirectory) -->
  | |     - Tag 0xa005 (4 bytes, int32u[1]):
  | |         03dc: c4 2b 00 00                                     [.+..]
  | | + [InteropIFD directory with 2 entries, Little-endian]
  | | | 0)  InteropIndex = R98
  | | |     - Tag 0x0001 (4 bytes, string[4]):
  | | |         2bda: 52 39 38 00                                     [R98.]
  | | | 1)  InteropVersion = 0100
  | | |     - Tag 0x0002 (4 bytes, undef[4]):
  | | |         2be6: 30 31 30 30                                     [0100]
  | | 22) SensingMethod = 2
  | |     - Tag 0xa217 (2 bytes, int16u[1]):
  | |         03e8: 02 00                                           [..]
  | | 23) FileSource = 3
  | |     - Tag 0xa300 (1 bytes, undef[1]):
  | |         03f4: 03                                              [.]
  | | 24) SceneType = 1
  | |     - Tag 0xa301 (1 bytes, undef[1]):
  | |         0400: 01                                              [.]
  | | 25) CustomRendered = 0
  | |     - Tag 0xa401 (2 bytes, int16u[1]):
  | |         040c: 00 00                                           [..]
  | | 26) ExposureMode = 0
  | |     - Tag 0xa402 (2 bytes, int16u[1]):
  | |         0418: 00 00                                           [..]
  | | 27) WhiteBalance = 0
  | |     - Tag 0xa403 (2 bytes, int16u[1]):
  | |         0424: 00 00                                           [..]
  | | 28) DigitalZoomRatio = 0 (0/10)
  | |     - Tag 0xa404 (8 bytes, rational64u[1]):
  | |         2bc8: 00 00 00 00 0a 00 00 00                         [........]
  | | 29) FocalLengthIn35mmFormat = 24
  | |     - Tag 0xa405 (2 bytes, int16u[1]):
  | |         043c: 18 00                                           [..]
  | | 30) SceneCaptureType = 0
  | |     - Tag 0xa406 (2 bytes, int16u[1]):
  | |         0448: 00 00                                           [..]
  | | 31) GainControl = 1
  | |     - Tag 0xa407 (2 bytes, int16u[1]):
  | |         0454: 01 00                                           [..]
  | | 32) Contrast = 0
  | |     - Tag 0xa408 (2 bytes, int16u[1]):
  | |         0460: 00 00                                           [..]
  | | 33) Saturation = 0
  | |     - Tag 0xa409 (2 bytes, int16u[1]):
  | |         046c: 00 00                                           [..]
  | | 34) Sharpness = 0
  | |     - Tag 0xa40a (2 bytes, int16u[1]):
  | |         0478: 00 00                                           [..]
  | 11) PrintIM (SubDirectory) -->
  |     - Tag 0xc4a5 (208 bytes, undef[208]):
  |         0146: 50 72 69 6e 74 49 4d 00 30 32 35 30 00 00 0e 00 [PrintIM.0250....]
  |         0156: 01 00 16 00 16 00 02 00 00 00 00 00 03 00 64 00 [..............d.]
  |         0166: 00 00 07 00 00 00 00 00 08 00 00 00 00 00 09 00 [................]
  |         0176: 00 00 00 00 0a 00 00 00 00 00 0b 00 ac 00 00 00 [................]
  |         0186: 0c 00 00 00 00 00 0d 00 00 00 00 00 0e 00 c4 00 [................]
  |         0196: 00 00 00 01 05 00 00 00 01 01 01 00 00 00 10 01 [................]
  |         01a6: 80 00 00 00 09 11 00 00 10 27 00 00 0b 0f 00 00 [.........'......]
  |         01b6: 10 27 00 00 97 05 00 00 10 27 00 00 b0 08 00 00 [.'.......'......]
  |         01c6: 10 27 00 00 01 1c 00 00 10 27 00 00 5e 02 00 00 [.'.......'..^...]
  |         01d6: 10 27 00 00 8b 00 00 00 10 27 00 00 cb 03 00 00 [.'.......'......]
  |         01e6: 10 27 00 00 e5 1b 00 00 10 27 00 00 00 00 00 00 [.'.......'......]
  |         01f6: 00 00 00 00 00 00 00 00 00 00 00 00 00 00 00 00 [................]
  |         0206: 00 00 00 00 00 00 00 00 00 00 00 00 00 00 00 00 [................]
  | + [PrintIM directory with 14 entries]
  | | PrintIMVersion = 0250
  | | - Tag 'PrintIMVersion' (4 bytes):
  | |     0142: 30 32 35 30                                     [0250]
  | | 0)  PrintIM_0x0001 = 1441814
  | |     - Tag 0x0001 (4 bytes):
  | |         014c: 16 00 16 00                                     [....]
  | | 1)  PrintIM_0x0002 = 0
  | |     - Tag 0x0002 (4 bytes):
  | |         0152: 00 00 00 00                                     [....]
  | | 2)  PrintIM_0x0003 = 100
  | |     - Tag 0x0003 (4 bytes):
  | |         0158: 64 00 00 00                                     [d...]
  | | 3)  PrintIM_0x0007 = 0
  | |     - Tag 0x0007 (4 bytes):
  | |         015e: 00 00 00 00                                     [....]
  | | 4)  PrintIM_0x0008 = 0
  | |     - Tag 0x0008 (4 bytes):
  | |         0164: 00 00 00 00                                     [....]
  | | 5)  PrintIM_0x0009 = 0
  | |     - Tag 0x0009 (4 bytes):
  | |         016a: 00 00 00 00                                     [....]
  | | 6)  PrintIM_0x000a = 0
  | |     - Tag 0x000a (4 bytes):
  | |         0170: 00 00 00 00                                     [....]
  | | 7)  PrintIM_0x000b = 172
  | |     - Tag 0x000b (4 bytes):
  | |         0176: ac 00 00 00                                     [....]
  | | 8)  PrintIM_0x000c = 0
  | |     - Tag 0x000c (4 bytes):
  | |         017c: 00 00 00 00                                     [....]
  | | 9)  PrintIM_0x000d = 0
  | |     - Tag 0x000d (4 bytes):
  | |         0182: 00 00 00 00                                     [....]
  | | 10) PrintIM_0x000e = 196
  | |     - Tag 0x000e (4 bytes):
  | |         0188: c4 00 00 00                                     [....]
  | | 11) PrintIM_0x0100 = 5
  | |     - Tag 0x0100 (4 bytes):
  | |         018e: 05 00 00 00                                     [....]
  | | 12) PrintIM_0x0101 = 1
  | |     - Tag 0x0101 (4 bytes):
  | |         0194: 01 00 00 00                                     [....]
  | | 13) PrintIM_0x0110 = 128
  | |     - Tag 0x0110 (4 bytes):
  | |         019a: 80 00 00 00                                     [....]
  | 12) PanasonicTitle = 
  |     - Tag 0xc6d2 (64 bytes, undef[64] read as string[64]):
  |         0216: 00 00 00 00 00 00 00 00 00 00 00 00 00 00 00 00 [................]
  |         0226: 00 00 00 00 00 00 00 00 00 00 00 00 00 00 00 00 [................]
  |         0236: 00 00 00 00 00 00 00 00 00 00 00 00 00 00 00 00 [................]
  |         0246: 00 00 00 00 00 00 00 00 00 00 00 00 00 00 00 00 [................]
  | 13) PanasonicTitle2 = 
  |     - Tag 0xc6d3 (128 bytes, undef[128] read as string[128]):
  |         0256: 00 00 00 00 00 00 00 00 00 00 00 00 00 00 00 00 [................]
  |         0266: 00 00 00 00 00 00 00 00 00 00 00 00 00 00 00 00 [................]
  |         0276: 00 00 00 00 00 00 00 00 00 00 00 00 00 00 00 00 [................]
  |         0286: 00 00 00 00 00 00 00 00 00 00 00 00 00 00 00 00 [................]
  |         0296: 00 00 00 00 00 00 00 00 00 00 00 00 00 00 00 00 [................]
  |         02a6: 00 00 00 00 00 00 00 00 00 00 00 00 00 00 00 00 [................]
  |         02b6: 00 00 00 00 00 00 00 00 00 00 00 00 00 00 00 00 [................]
  |         02c6: 00 00 00 00 00 00 00 00 00 00 00 00 00 00 00 00 [................]
  + [IFD1 directory with 8 entries, Little-endian]
  | 0)  Compression = 6
  |     - Tag 0x0103 (2 bytes, int16u[1]):
  |         2bf8: 06 00                                           [..]
  | 1)  Orientation = 1
  |     - Tag 0x0112 (2 bytes, int16u[1]):
  |         2c04: 01 00                                           [..]
  | 2)  XResolution = 180 (180/1)
  |     - Tag 0x011a (8 bytes, rational64u[1]):
  |         2c54: b4 00 00 00 01 00 00 00                         [........]
  | 3)  YResolution = 180 (180/1)
  |     - Tag 0x011b (8 bytes, rational64u[1]):
  |         2c5c: b4 00 00 00 01 00 00 00                         [........]
  | 4)  ResolutionUnit = 2
  |     - Tag 0x0128 (2 bytes, int16u[1]):
  |         2c28: 02 00                                           [..]
  | 5)  ThumbnailOffset = 11764
  |     - Tag 0x0201 (4 bytes, int32u[1]):
  |         2c34: f4 2d 00 00                                     [.-..]
  | 6)  ThumbnailLength = 9179
  |     - Tag 0x0202 (4 bytes, int32u[1]):
  |         2c40: db 23 00 00                                     [.#..]
  | 7)  YCbCrPositioning = 2
  |     - Tag 0x0213 (2 bytes, int16u[1]):
  |         2c4c: 02 00                                           [..]
JPEG DQT (130 bytes):
      7e06: 00 07 07 07 07 07 07 07 07 07 07 07 0d 0d 07 14 [................]
      7e16: 0d 0d 0d 0d 0d 1a 0d 14 14 14 0d 1a 21 21 21 1a [............!!!.]
      7e26: 21 21 21 27 27 2e 34 27 27 27 2e 21 27 3b 2e 2e [!!!''.4'''.!';..]
      7e36: 2e 34 34 3b 3b 21 3b 41 2e 41 41 41 3b 3b 34 3b [.44;;!;A.AAA;;4;]
      7e46: 3b 01 0d 07 0d 0d 0d 0d 0d 1a 1a 0d 27 3b 27 21 [;...........';'!]
      7e56: 3b 3b 3b 3b 3b 3b 3b 3b 3b 3b 3b 3b 3b 3b 3b 3b [;;;;;;;;;;;;;;;;]
      7e66: 3b 3b 3b 3b 3b 3b 3b 3b 3b 3b 3b 3b 3b 3b 3b 3b [;;;;;;;;;;;;;;;;]
      [snip 18 bytes]
JPEG SOF0 (15 bytes):
      7e8c: 08 05 a0 07 80 03 01 21 00 02 11 01 03 11 01    [.......!.......]
  ImageWidth = 1920
  ImageHeight = 1440
  EncodingProcess = 0
  BitsPerSample = 8
  ColorComponents = 3
  YCbCrSubSampling = 2 1
JPEG DHT (416 bytes):
      7e9f: 00 00 01 05 01 01 01 01 01 01 00 00 00 00 00 00 [................]
      7eaf: 00 00 01 02 03 04 05 06 07 08 09 0a 0b 10 00 02 [................]
      7ebf: 01 03 03 02 04 03 05 05 04 04 00 00 01 7d 01 02 [.............}..]
      7ecf: 03 00 04 11 05 12 21 31 41 06 13 51 61 07 22 71 [......!1A..Qa."q]
      7edf: 14 32 81 91 a1 08 23 42 b1 c1 15 52 d1 f0 24 33 [.2....#B...R..$3]
      7eef: 62 72 82 09 0a 16 17 18 19 1a 25 26 27 28 29 2a [br........%&'()*]
      7eff: 34 35 36 37 38 39 3a 43 44 45 46 47 48 49 4a 53 [456789:CDEFGHIJS]
      [snip 304 bytes]
JPEG DRI (2 bytes):
      8043: 00 00                                           [..]
JPEG SOS
JPEG EOI
Unknown trailer (27 bytes at offset 0x967e5):
   967e5: ff ff ff ff ff ff ff ff ff ff ff ff ff ff ff ff [................]
   967f5: ff ff ff ff ff ff ff ff ff ff ff                [...........]
----------------------------------------------------------------------------
  | 29) Make = Panasonic
  |     - Tag 0x010f (10 bytes, string[10]):
  |         0252: 50 61 6e 61 73 6f 6e 69 63 00                   [Panasonic.]
  | 30) Model = DMC-LX7
  |     - Tag 0x0110 (8 bytes, string[8]):
  |         025c: 44 4d 43 2d 4c 58 37 00                         [DMC-LX7.]
  | 31) StripOffsets = 4294967295
  |     - Tag 0x0111 (4 bytes, int32u[1]):
  |         0196: ff ff ff ff                                     [....]
  | 32) Orientation = 1
  |     - Tag 0x0112 (2 bytes, int16u[1]):
  |         01a2: 01 00                                           [..]
  | 33) RowsPerStrip = 2752
  |     - Tag 0x0116 (2 bytes, int16u[1]):
  |         01ae: c0 0a                                           [..]
  | 34) StripByteCounts = 0
  |     - Tag 0x0117 (4 bytes, int32u[1]):
  |         01ba: 00 00 00 00                                     [....]
  | 35) RawDataOffset = 617984
  |     - Tag 0x0118 (4 bytes, int32u[1]):
  |         01c6: 00 6e 09 00                                     [.n..]
  | 36) DistortionInfo (SubDirectory) -->
  |     - Tag 0x0119 (32 bytes, undef[32]):
  |         0264: ed 32 2f 57 15 01 00 00 7d 12 00 00 8c 01 01 00 [.2/W....}.......]
  |         0274: 2f 07 d4 01 01 01 f0 fb e8 08 c8 03 0e 0c 59 56 [/.............YV]
  | + [BinaryData directory, 32 bytes, Little-endian]
  | | DistortionParam02 = 277
  | | - Tag 0x0002 (2 bytes, int16s[1]):
  | |     0268: 15 01                                           [..]
  | | DistortionParam04 = 4733
  | | - Tag 0x0004 (2 bytes, int16s[1]):
  | |     026c: 7d 12                                           [}.]
  | | DistortionScale = 0
  | | - Tag 0x0005 (2 bytes, int16s[1]):
  | |     026e: 00 00                                           [..]
  | | DistortionCorrection = 1
  | | - Tag '7.1', mask 0x0f (2 bytes, int16s[1]):
  | |     0272: 01 00                                           [..]
  | | DistortionParam08 = 1839
  | | - Tag 0x0008 (2 bytes, int16s[1]):
  | |     0274: 2f 07                                           [/.]
  | | DistortionParam09 = 468
  | | - Tag 0x0009 (2 bytes, int16s[1]):
  | |     0276: d4 01                                           [..]
  | | DistortionParam11 = -1040
  | | - Tag 0x000b (2 bytes, int16s[1]):
  | |     027a: f0 fb                                           [..]
  | | DistortionN = 2280
  | | - Tag 0x000c (2 bytes, int16s[1]):
  | |     027c: e8 08                                           [..]
  | 37) PanasonicRaw_0x011a = 1
  |     - Tag 0x011a (2 bytes, int16u[1]):
  |         01de: 01 00                                           [..]
  | 38) PanasonicRaw_0x011b = 06/].~q.@..3........I..... .....N@*.`........g......L.Q5
  |     - Tag 0x011b (64 bytes, undef[64]):
  |         0284: 30 36 2f 5d c2 00 00 7e 71 07 40 00 00 f1 ff 33 [06/]...~q.@....3]
  |         0294: a3 fc e0 05 d3 fd ee 08 49 fe f3 ff 00 01 90 20 [........I...... ]
  |         02a4: f4 05 fa 02 80 4e 40 00 2a fd 60 04 00 dc 08 fd [.....N@.*.`.....]
  |         02b4: f4 b7 08 ff 67 f9 14 ff 00 f8 db fa 4c e5 51 35 [....g.......L.Q5]
  | 39) ExifOffset (SubDirectory) -->
  |     - Tag 0x8769 (4 bytes, int32u[1]):
  |         01f6: c4 02 00 00                                     [....]
  | + [ExifIFD directory with 12 entries, Little-endian]
  | | 0)  ExposureTime = 0.01666666667 (10/600)
  | |     - Tag 0x829a (8 bytes, rational64u[1]):
  | |         035a: 0a 00 00 00 58 02 00 00                         [....X...]
  | | 1)  FNumber = 1.4 (14/10)
  | |     - Tag 0x829d (8 bytes, rational64u[1]):
  | |         0362: 0e 00 00 00 0a 00 00 00                         [........]
  | | 2)  ExposureProgram = 2
  | |     - Tag 0x8822 (2 bytes, int16u[1]):
  | |         02e6: 02 00                                           [..]
  | | 3)  ExifVersion = 0230
  | |     - Tag 0x9000 (4 bytes, undef[4]):
  | |         02f2: 30 32 33 30                                     [0230]
  | | 4)  DateTimeOriginal = 2014:11:19 23:07:44
  | |     - Tag 0x9003 (20 bytes, string[20]):
  | |         036a: 32 30 31 34 3a 31 31 3a 31 39 20 32 33 3a 30 37 [2014:11:19 23:07]
  | |         037a: 3a 34 34 00                                     [:44.]
  | | 5)  CreateDate = 2014:11:19 23:07:44
  | |     - Tag 0x9004 (20 bytes, string[20]):
  | |         037e: 32 30 31 34 3a 31 31 3a 31 39 20 32 33 3a 30 37 [2014:11:19 23:07]
  | |         038e: 3a 34 34 00                                     [:44.]
  | | 6)  ExposureCompensation = 0 (0/100)
  | |     - Tag 0x9204 (8 bytes, rational64s[1]):
  | |         0392: 00 00 00 00 64 00 00 00                         [....d...]
  | | 7)  MaxApertureValue = 0.96875 (124/128)
  | |     - Tag 0x9205 (8 bytes, rational64u[1]):
  | |         039a: 7c 00 00 00 80 00 00 00                         [|.......]
  | | 8)  MeteringMode = 5
  | |     - Tag 0x9207 (2 bytes, int16u[1]):
  | |         032e: 05 00                                           [..]
  | | 9)  Flash = 16
  | |     - Tag 0x9209 (2 bytes, int16u[1]):
  | |         033a: 10 00                                           [..]
  | | 10) FocalLength = 4.7 (47/10)
  | |     - Tag 0x920a (8 bytes, rational64u[1]):
  | |         03a2: 2f 00 00 00 0a 00 00 00                         [/.......]
  | | 11) FileSource = 3
  | |     - Tag 0xa300 (1 bytes, undef[1]):
  | |         0352: 03                                              [.]
