  ExifToolVersion = 13.59
  FileName = media_88.avif
  Directory = C:/Users/micro/IdeaProjects/kim/src/commonTest/resources/de/stefan_oltmann/kim/testdata/full
  FileSize = 16315320
  FileModifyDate = 1777200767.94468
  FileAccessDate = 1786601591.08251
  FileCreateDate = 1777200767.93568
  FilePermissions = 33206
  FileType = AVIF
  FileTypeExtension = AVIF
  MIMEType = image/avif
  FileType (SubDirectory) -->
  - Tag 'ftyp' (36 bytes):
      0008: 61 76 69 73 00 00 00 00 61 76 69 66 61 76 69 73 [avis....avifavis]
      0018: 6d 73 66 31 69 73 6f 38 6d 69 66 31 6d 69 61 66 [msf1iso8mif1miaf]
      0028: 4d 41 31 41                                     [MA1A]
  + [BinaryData directory, 36 bytes, Big-endian]
  | MajorBrand = avis
  | - Tag 0x0000 (4 bytes, undef[4]):
  |     0008: 61 76 69 73                                     [avis]
  | MinorVersion = 
  | - Tag 0x0001 (4 bytes, undef[4]):
  |     000c: 00 00 00 00                                     [....]
  | CompatibleBrands = avifavismsf1iso8mif1miafMA1A
  | - Tag 0x0002 (28 bytes, undef[28]):
  |     0010: 61 76 69 66 61 76 69 73 6d 73 66 31 69 73 6f 38 [avifavismsf1iso8]
  |     0020: 6d 69 66 31 6d 69 61 66 4d 41 31 41             [mif1miafMA1A]
  Meta (SubDirectory) -->
  - Tag 'meta' (262 bytes):
      0034: 00 00 00 00 00 00 00 21 68 64 6c 72 00 00 00 00 [.......!hdlr....]
      0044: 00 00 00 00 70 69 63 74 00 00 00 00 00 00 00 00 [....pict........]
      0054: 00 00 00 00 00 00 00 00 0e 70 69 74 6d 00 00 00 [.........pitm...]
      0064: 00 00 01 00 00 00 2c 69 6c 6f 63 00 00 00 00 44 [......,iloc....D]
      0074: 00 00 02 00 01 00 00 00 01 00 00 4c bf 00 7a 98 [...........L..z.]
      0084: 5c 00 02 00 00 00 01 00 00 06 4d 00 00 46 72 00 [\.........M..Fr.]
      0094: 00 00 3d 69 69 6e 66 00 00 00 00 00 02 00 00 00 [..=iinf.........]
      00a4: 1a 69 6e 66 65 02 00 00 00 00 01 00 00 61 76 30 [.infe........av0]
      00b4: 31 43 6f 6c 6f 72 00 00 00 00 15 69 6e 66 65 02 [1Color.....infe.]
      00c4: 00 00 00 00 02 00 00 45 78 69 66 00 00 00 00 6a [.......Exif....j]
      00d4: 69 70 72 70 00 00 00 4b 69 70 63 6f 00 00 00 14 [iprp...Kipco....]
      00e4: 69 73 70 65 00 00 00 00 00 00 15 60 00 00 0e 40 [ispe.......`...@]
      00f4: 00 00 00 10 70 69 78 69 00 00 00 00 03 08 08 08 [....pixi........]
      0104: 00 00 00 0c 61 76 31 43 81 30 00 00 00 00 00 13 [....av1C.0......]
      0114: 63 6f 6c 72 6e 63 6c 78 00 01 00 0d 00 00 80 00 [colrnclx........]
      0124: 00 00 17 69 70 6d 61 00 00 00 00 00 00 00 01 00 [...ipma.........]
      0134: 01 04 01 02 83 04                               [......]
  + [Meta directory]
  | Handler (SubDirectory) -->
  | - Tag 'hdlr' (25 bytes):
  |     0040: 00 00 00 00 00 00 00 00 70 69 63 74 00 00 00 00 [........pict....]
  |     0050: 00 00 00 00 00 00 00 00 00                      [.........]
  | + [BinaryData directory, 25 bytes, Big-endian]
  | | HandlerClass = 
  | | - Tag 0x0004 (4 bytes, undef[4]):
  | |     0044: 00 00 00 00                                     [....]
  | | HandlerType = pict
  | | - Tag 0x0008 (4 bytes, undef[4]):
  | |     0048: 70 69 63 74                                     [pict]
  | | HandlerVendorID = 
  | | - Tag 0x000c (4 bytes, undef[4]):
  | |     004c: 00 00 00 00                                     [....]
  | | HandlerDescription = 
  | | - Tag 0x0018 (1 bytes, string[1]):
  | |     0058: 00                                              [.]
  | PrimaryItemReference = .
  | - Tag 'pitm' (6 bytes):
  |     0061: 00 00 00 00 00 01                               [......]
  | ItemLocation = D...L.z.\...MFr
  | - Tag 'iloc' (36 bytes):
  |     006f: 00 00 00 00 44 00 00 02 00 01 00 00 00 01 00 00 [....D...........]
  |     007f: 4c bf 00 7a 98 5c 00 02 00 00 00 01 00 00 06 4d [L..z.\.........M]
  |     008f: 00 00 46 72                                     [..Fr]
  |   Item 1: const_meth= base=0x0 offset=0x4cbf len=0x7a985c
  |   Item 2: const_meth= base=0x0 offset=0x64d len=0x4672
  | ItemInformation (SubDirectory) -->
  | - Tag 'iinf' (53 bytes):
  |     009b: 00 00 00 00 00 02 00 00 00 1a 69 6e 66 65 02 00 [..........infe..]
  |     00ab: 00 00 00 01 00 00 61 76 30 31 43 6f 6c 6f 72 00 [......av01Color.]
  |     00bb: 00 00 00 15 69 6e 66 65 02 00 00 00 00 02 00 00 [....infe........]
  |     00cb: 45 78 69 66 00                                  [Exif.]
  | + [ItemInformation directory]
  | | ItemInfoEntry = ..av01Color
  | | - Tag 'infe' (18 bytes):
  | |     00a9: 02 00 00 00 00 01 00 00 61 76 30 31 43 6f 6c 6f [........av01Colo]
  | |     00b9: 72 00                                           [r.]
  | |   Item 1: Type=av01 Name=Color ContentType= (PrimaryItem)
  | | ItemInfoEntry = ..Exif
  | | - Tag 'infe' (13 bytes):
  | |     00c3: 02 00 00 00 00 02 00 00 45 78 69 66 00          [........Exif.]
  | |   Item 2: Type=Exif Name= ContentType=
  | ItemProperties (SubDirectory) -->
  | - Tag 'iprp' (98 bytes):
  |     00d8: 00 00 00 4b 69 70 63 6f 00 00 00 14 69 73 70 65 [...Kipco....ispe]
  |     00e8: 00 00 00 00 00 00 15 60 00 00 0e 40 00 00 00 10 [.......`...@....]
  |     00f8: 70 69 78 69 00 00 00 00 03 08 08 08 00 00 00 0c [pixi............]
  |     0108: 61 76 31 43 81 30 00 00 00 00 00 13 63 6f 6c 72 [av1C.0......colr]
  |     0118: 6e 63 6c 78 00 01 00 0d 00 00 80 00 00 00 17 69 [nclx...........i]
  |     0128: 70 6d 61 00 00 00 00 00 00 00 01 00 01 04 01 02 [pma.............]
  |     0138: 83 04                                           [..]
  | + [ItemProperties directory]
  | | ItemPropertyContainer (SubDirectory) -->
  | | - Tag 'ipco' (67 bytes):
  | |     00e0: 00 00 00 14 69 73 70 65 00 00 00 00 00 00 15 60 [....ispe.......`]
  | |     00f0: 00 00 0e 40 00 00 00 10 70 69 78 69 00 00 00 00 [...@....pixi....]
  | |     0100: 03 08 08 08 00 00 00 0c 61 76 31 43 81 30 00 00 [........av1C.0..]
  | |     0110: 00 00 00 13 63 6f 6c 72 6e 63 6c 78 00 01 00 0d [....colrnclx....]
  | |     0120: 00 00 80                                        [...]
  | | [Process ipco box later]
  | | ItemPropertyAssociation = .......
  | | - Tag 'ipma' (15 bytes):
  | |     012b: 00 00 00 00 00 00 00 01 00 01 04 01 02 83 04    [...............]
  | |   Item 1 properties: 1 2 3 4
  + [Processing items from ItemInformation directory with 2 entries]
  | Item 1) 'av01' (8034396 bytes)
  |     4cbf: 12 00 0a 0e 20 00 00 83 2e ab fc 7e e5 7c 90 10 [.... ......~.|..]
  |     4ccf: d0 02 32 c5 b0 ea 03 14 00 35 a0 00 00 00 16 29 [..2......5.....)]
  |     4cdf: 00 f8 a1 6c d9 b7 e4 86 89 30 c2 e1 86 5a ba 96 [...l.....0...Z..]
  |     4cef: 89 66 e1 8e 0c af 7a 94 d3 33 09 82 2f 68 70 8b [.f....z..3../hp.]
  |     4cff: 22 35 24 3e 8b 36 03 aa 8c 2d fe b2 b6 31 9b d9 ["5$>.6...-...1..]
  |     4d0f: a4 f7 d5 3e 01 57 c9 1f d2 e9 86 ee 9d 2b 2d 2a [...>.W.......+-*]
  |     4d1f: 9b 1f 05 c4 d0 19 9f ae cd e9 25 62 21 f3 f5 a1 [..........%b!...]
  |     4d2f: 1f b8 26 28 57 34 3c 4f 5e fe 09 b8 b9 89 d6 e5 [..&(W4<O^.......]
  |     4d3f: d9 e2 90 b7 8e 23 fc a9 70 03 e5 90 a6 fb 85 fd [.....#..p.......]
  |     4d4f: 64 fa 67 91 b8 8b c2 b0 99 fa ee 63 df 67 32 f5 [d.g........c.g2.]
  |     4d5f: 27 0f 47 0e 3d 4f c0 50 24 9a 13 e6 df f8 a6 5d ['.G.=O.P$......]]
  |     4d6f: 6b 66 9b da 18 9f db 08 3f d0 ee 89 d3 c6 44 d0 [kf......?.....D.]
  |     4d7f: 9e 8d e6 e1 ac 51 a9 fb 1a b4 c5 4d 14 69 66 7e [.....Q.....M.if~]
  |     4d8f: 61 30 9b 6f 1c 72 63 e4 64 51 9d 46 2e 54 bd 9d [a0.o.rc.dQ.F.T..]
  |     4d9f: 71 51 38 37 21 47 5b 34 ac c9 a2 ab 48 18 2d f0 [qQ87!G[4....H.-.]
  |     4daf: 8c 80 1e 46 0b fa 2c de 6f 2c d0 7e 41 41 bb 7a [...F..,.o,.~AA.z]
  |     4dbf: 38 fc 6e 60 37 95 05 db 02 1e 1a 13 19 75 19 74 [8.n`7........u.t]
  |     4dcf: ca 29 57 f3 fd c1 f3 6d b4 59 ab d9 f7 0d b5 33 [.)W....m.Y.....3]
  |     4ddf: c0 ce 20 e0 33 ac 3f e2 13 be 84 8b a6 2f 0f 5a [.. .3.?....../.Z]
  |     4def: a4 1b 53 9a 2f 81 41 de a5 f8 83 f7 fa b7 7e 3b [..S./.A.......~;]
  |     4dff: 8d 94 c0 fb a4 14 42 b6 c8 b8 99 20 7f 01 85 96 [......B.... ....]
  |     4e0f: 51 66 51 eb 6e ec 3e 5f d0 30 09 1f 8f af f6 a7 [QfQ.n.>_.0......]
  |     4e1f: 84 c7 c9 d4 50 fe 9d ba c5 d9 08 e8 87 66 6e ae [....P........fn.]
  |     4e2f: 86 39 ef 6f d1 4c 47 dd 90 d6 b7 8f 09 19 de 24 [.9.o.LG........$]
  |     4e3f: 3f 2e 2a f3 d0 a8 ee 3f 64 62 93 e3 3a 87 3c 6b [?.*....?db..:.<k]
  |     4e4f: 6d e8 c5 4e 19 29 f5 47 0f f6 b3 35 84 4d f3 f9 [m..N.).G...5.M..]
  |     4e5f: 30 5a 91 18 f7 36 22 0c 16 88 d5 d0 be 54 17 8d [0Z...6"......T..]
  |     4e6f: 46 aa c5 43 d4 79 c5 52 8b 53 15 89 f7 b1 b6 58 [F..C.y.R.S.....X]
  |     4e7f: 2b 39 2f 73 40 68 67 6e 5f 95 2f 95 47 e3 80 52 [+9/s@hgn_./.G..R]
  |     4e8f: 40 7a 45 52 b5 86 93 af e5 1a cd 2f 59 4d 0d fa [@zER......./YM..]
  |     4e9f: 83 04 84 d3 2f 74 48 2f ee 1d e4 9c 0a 71 c6 99 [..../tH/.....q..]
  |     4eaf: 88 7f d0 87 8a 51 63 bf 7e 95 16 e4 10 c7 45 5e [.....Qc.~.....E^]
  |     4ebf: ea d5 4c 3d e5 ae 25 76 ac 5e 0a eb b6 83 c9 b3 [..L=..%v.^......]
  |     4ecf: ff ae be 81 10 f7 51 ea b3 c0 b9 3a 0b d9 84 26 [......Q....:...&]
  |     4edf: 02 a6 76 3e 87 96 5e 1f 21 de bc 0a df e7 08 9e [..v>..^.!.......]
  |     4eef: 92 00 2f a4 5b d3 d6 ec 51 a7 cd d3 5d 92 54 6c [../.[...Q...].Tl]
  |     4eff: 3f d3 3a af 4c 0f f8 77 aa eb 6c a6 9b 67 72 3f [?.:.L..w..l..gr?]
  |     4f0f: 15 f7 c0 3e e0 e5 65 df 9a 03 92 7e ac 87 30 2e [...>..e....~..0.]
  |     4f1f: 15 0e 92 70 c6 76 2d a6 c2 f4 47 6b 12 db f3 cb [...p.v-...Gk....]
  |     4f2f: 49 6c 77 33 d3 47 69 61 91 44 1f 46 dd fa 91 9c [Ilw3.Gia.D.F....]
  |     4f3f: 33 5b 11 ad 69 2a 16 13 0b 45 56 7f 63 51 a4 6a [3[..i*...EV.cQ.j]
  |     4f4f: 6b 41 49 56 7b 7e 9b 49 52 9f 60 55 5c cc 21 21 [kAIV{~.IR.`U\.!!]
  |     4f5f: bb 8b 76 99 d7 53 d8 e8 9e ab 25 cd 2d 30 cd 2a [..v..S....%.-0.*]
  |     4f6f: 66 1c 6f d0 31 17 4b 86 8a 7c 3c 80 7f 8c 1d b4 [f.o.1.K..|<.....]
  |     4f7f: 80 d2 f6 8c 5a 79 27 46 f0 51 83 82 18 50 ad 90 [....Zy'F.Q...P..]
  |     4f8f: 2a 63 4d e7 51 9e 2b 67 f1 5f 78 26 ab ff f4 a7 [*cM.Q.+g._x&....]
  |     4f9f: 64 11 87 54 41 d1 34 0a fe 48 14 4d 6a d8 40 c1 [d..TA.4..H.Mj.@.]
  |     4faf: fc f1 74 1e 50 b9 e8 29 1e 8e 15 dd 83 7e 57 76 [..t.P..).....~Wv]
  |     4fbf: 5c 5a ab e5 bd e9 11 b8 aa bf 6c d7 80 5d 3a 93 [\Z........l..]:.]
  |     4fcf: 76 6f 5b cd a2 49 3e 79 23 92 e0 b7 5e 9d e3 65 [vo[..I>y#...^..e]
  |     4fdf: 95 ea 6d bb ba 98 a0 10 9e 98 4c c8 34 93 1a 75 [..m.......L.4..u]
  |     4fef: c3 5b 6b 3c 8c 35 db 33 6f 63 c8 b3 55 2d 33 b4 [.[k<.5.3oc..U-3.]
  |     4fff: c9 a3 8f af 83 ad cf 2c eb e4 a1 9d 0b ed 4d 88 [.......,......M.]
  |     500f: 00 d3 4d 30 0f 5d 44 8c 5d e4 68 67 bb 88 ae cf [..M0.]D.].hg....]
  |     501f: 93 14 f3 5f 41 88 73 94 1e e6 71 7e be 36 f7 2e [..._A.s...q~.6..]
  |     502f: d6 ec b2 61 83 09 8b 74 37 8a 16 30 84 85 24 16 [...a...t7..0..$.]
  |     503f: c1 38 3a e3 ac 9b b4 c6 e1 0c 27 32 ed da 4c 3b [.8:.......'2..L;]
  |     504f: 69 63 04 ed b4 89 7a e6 25 e2 7a 30 16 67 81 9f [ic....z.%.z0.g..]
  |     505f: 1a 67 0c f9 c5 79 6b 28 cc 94 58 5c 2e 62 ee f8 [.g...yk(..X\.b..]
  |     506f: 20 62 61 c7 a0 af ec db 10 22 7b 5a 6a 1f 12 af [ ba......"{Zj...]
  |     507f: f6 ad e9 f2 a0 72 0e d5 51 e1 b9 9a 77 b0 e8 f5 [.....r..Q...w...]
  |     508f: e0 ed 2b bf 90 65 ed 30 c3 54 6b 5b 93 02 83 e9 [..+..e.0.Tk[....]
  |     509f: 10 9a 35 e7 f0 3b b1 55 ae 84 bb 41 f6 0d 18 5d [..5..;.U...A...]]
  |     50af: 5d d1 db f9 5b f9 7f e9 4e e6 81 bb 0e 4d c6 35 []...[...N....M.5]
  |     50bf: f8 ed 09 f7 44 de 3d b6 3a 2f c8 55 25 9a d6 d2 [....D.=.:/.U%...]
  |     50cf: 40 d6 40 7d 76 7e 2a 68 56 b0 df c4 09 3b 97 1f [@.@}v~*hV....;..]
  |     50df: 44 46 d8 4e e6 af 7e fd 34 15 4e c8 21 67 74 91 [DF.N..~.4.N.!gt.]
  |     50ef: 2b fb 1f 66 83 c0 33 35 94 9f b6 39 72 97 77 94 [+..f..35...9r.w.]
  |     50ff: 51 43 55 05 78 cd b1 8a d5 72 da 63 b5 76 82 61 [QCU.x....r.c.v.a]
  |     510f: 01 43 46 2c 70 25 02 be 47 87 3d e2 b5 87 bb dd [.CF,p%..G.=.....]
  |     511f: 81 e9 f5 87 9e 1b ec 82 df 5b 57 72 02 4c f4 78 [.........[Wr.L.x]
  |     512f: 3a 78 3d e9 e6 b1 1a 69 07 51 af 51 d1 d1 28 4c [:x=....i.Q.Q..(L]
  |     513f: fb 52 28 b0 01 f0 30 7b 33 f7 56 c3 2c d0 8e 44 [.R(...0{3.V.,..D]
  |     514f: 38 1c 54 7f ad f1 1d 0d d3 11 72 7e 0b 0f 08 d7 [8.T.......r~....]
  |     515f: 9b 59 0b 0b 06 d5 98 13 7a a7 ac 4e d9 f2 c3 3e [.Y......z..N...>]
  |     516f: 69 96 7f da 31 9f fc 94 66 84 fe 6b 17 00 1d d4 [i...1...f..k....]
  |     517f: a2 43 4f fb 54 ca 11 b4 52 e0 5a cb c4 76 48 35 [.CO.T...R.Z..vH5]
  |     518f: ec 5b 4d d1 47 b5 d6 13 37 74 15 7b 76 5c 8b 1f [.[M.G...7t.{v\..]
  |     519f: 98 22 b1 c5 80 1e e4 af fe f8 0f 7f 73 1f 56 b9 [."..........s.V.]
  |     51af: 7f f1 e8 6d 8e d4 a2 42 bb e4 3b 26 1a d1 c1 a8 [...m...B..;&....]
  |     51bf: 19 c0 36 3e e1 92 1d 83 85 e9 64 80 cf 6a 13 b9 [..6>......d..j..]
  |     51cf: b5 ae 57 77 19 cc 47 2e 2e 84 b2 81 f7 cd e0 2c [..Ww..G........,]
  |     51df: 89 32 ae 5d a5 e1 80 80 7e 49 7f fd 40 53 ba 99 [.2.]....~I..@S..]
  |     51ef: 73 05 46 62 c9 f5 59 2e ec c2 2f 54 4c c9 a7 2f [s.Fb..Y.../TL../]
  |     51ff: 96 b2 cb 65 04 5e 99 f7 89 0c 99 80 74 32 83 6e [...e.^......t2.n]
  |     520f: aa 6d 11 de 32 ee 9a f4 2d 9f 68 aa 5c 14 f1 59 [.m..2...-.h.\..Y]
  |     521f: e2 02 7f 84 d8 3d 9e f4 68 96 76 5e 7d b2 6a aa [.....=..h.v^}.j.]
  |     522f: 6f 89 d3 dc 7a 89 ad 3f d8 69 f1 2e 22 ac 47 5b [o...z..?.i..".G[]
  |     523f: 5d 85 09 4f ef bc f0 49 f6 e8 fb d9 0e 68 52 2b []..O...I.....hR+]
  |     524f: df 89 4c 46 f2 20 e2 8b 19 2f cc 65 82 20 91 8f [..LF. .../.e. ..]
  |     525f: eb ac 14 7f b0 7b f2 7c 91 9f 30 d2 59 d8 80 ba [.....{.|..0.Y...]
  |     526f: 35 00 23 de 39 61 3f 39 ec e4 5a 00 7a e6 58 c4 [5.#.9a?9..Z.z.X.]
  |     527f: f0 8d 56 3d d0 13 e3 d5 09 1f e5 00 cd ff 7b 06 [..V=..........{.]
  |     528f: b1 fa be a5 5b 1f c2 16 dc fd 2d 0f ca ca 72 35 [....[.....-...r5]
  |     529f: 69 05 ed 2c 8a 30 fa 85 1c 11 ca 17 fa 98 b8 58 [i..,.0.........X]
  |     52af: 86 32 32 b9 5f 20 6e 9a ed a5 49 30 96 81 b5 4d [.22._ n...I0...M]
  |     52bf: 91 6b 7a 12 5f f1 0d 7c 3f e5 88 b0 92 ff 78 e1 [.kz._..|?.....x.]
  |     52cf: c0 6c 86 c1 0c b2 f4 b1 4a 88 a9 09 88 79 e0 c3 [.l......J....y..]
  |     52df: 0f 64 34 6d 9a c0 4a 89 42 a6 9c cc 78 06 49 17 [.d4m..J.B...x.I.]
  |     52ef: d6 ad eb 43 72 13 d7 c7 7a 74 f1 bf 5d 3f 74 35 [...Cr...zt..]?t5]
  |     52ff: 07 52 2d c8 59 36 96 10 6f 0f 9a 0c 6b ff 70 37 [.R-.Y6..o...k.p7]
  |     530f: e7 63 7d 08 cd e2 8d 69 07 86 99 f4 1b e8 99 11 [.c}....i........]
  |     531f: 14 d7 42 5f 3d e9 0b 8b e1 78 8c 25 96 bf 10 cd [..B_=....x.%....]
  |     532f: 57 66 6c 92 17 eb 86 53 db ea 9d 73 5b 81 c1 83 [Wfl....S...s[...]
  |     533f: 94 d8 d5 94 af e3 81 6e a4 09 67 bf 08 e6 43 d6 [.......n..g...C.]
  |     534f: e7 bf 53 ae 9c 65 ee 21 88 64 2c d4 b2 ed 41 ac [..S..e.!.d,...A.]
  |     535f: d9 3b 7b c4 c4 76 58 33 26 66 c1 27 00 6e 51 6d [.;{..vX3&f.'.nQm]
  |     536f: 5a fd c6 04 74 46 56 72 2b de 8b 16 11 ff b5 01 [Z...tFVr+.......]
  |     537f: ec 62 03 31 c7 c3 f6 6a 18 91 7e 6f 3f 35 0d ae [.b.1...j..~o?5..]
  |     538f: f7 8d a0 33 95 00 be 13 fb 6a c2 5d f4 28 fd 1f [...3.....j.].(..]
  |     539f: d4 f5 5a ab 41 e7 51 36 f2 2a 37 f1 69 ab 0f 92 [..Z.A.Q6.*7.i...]
  |     53af: b5 87 92 e8 80 2f db 68 b7 cc 22 1a 49 35 e5 6a [...../.h..".I5.j]
  |     53bf: c2 f3 28 19 a8 02 94 04 29 a3 cb 85 7e b8 64 e2 [..(.....)...~.d.]
  |     53cf: 91 d4 6d 98 7d ba 5b 5d e9 e3 28 e9 b3 ed 8a 95 [..m.}.[]..(.....]
  |     53df: 4c 10 0c 6f bd a6 3b b2 1a 36 ba de d4 cb f5 f7 [L..o..;..6......]
  |     53ef: d8 25 15 4f 6d ee 4c 33 ea 1f b9 29 34 9c b4 75 [.%.Om.L3...)4..u]
  |     53ff: 87 0d d3 1d 3f 8e 5d eb 03 86 25 59 46 9c 08 50 [....?.]...%YF..P]
  |     540f: 66 47 eb a0 21 d8 82 88 cc 92 9d ce 88 c6 91 b0 [fG..!...........]
  |     541f: 10 14 80 03 ae bf cb 24 c6 7b d4 e5 97 22 6e 9b [.......$.{..."n.]
  |     542f: d3 03 c2 d8 30 0a 93 4a e1 5d d9 94 51 ac 46 0d [....0..J.]..Q.F.]
  |     543f: a5 67 62 8e 66 c2 a2 b0 fd ff 23 51 9f ae fc ee [.gb.f.....#Q....]
  |     544f: 37 6c c6 ba 60 ab 40 86 f8 d4 69 ad 9b 29 73 3c [7l..`.@...i..)s<]
  |     545f: ef 0a 64 b9 6f ed 88 1a 47 de 26 5a e3 0b 6f c1 [..d.o...G.&Z..o.]
  |     546f: 5e f8 33 60 6c 50 e3 e9 a3 a4 86 72 3b 77 c3 56 [^.3`lP.....r;w.V]
  |     547f: 02 52 be e5 b4 17 ec 90 a0 72 66 8a 6b 37 9d 06 [.R.......rf.k7..]
  |     548f: 67 b4 0b 5e be 35 93 dc e4 94 fa 3f e9 a5 86 81 [g..^.5.....?....]
  |     549f: 3c 4e dc a3 bb 26 1b c1 e1 91 a2 11 aa b8 c4 6c [<N...&.........l]
  |     54af: 8d cd c4 da 53 4d ac 91 51 0e 93 ac 3a a4 e0 eb [....SM..Q...:...]
  |     [snip 8032348 bytes]
  | Item 2) 'Exif' (18034 bytes)
  |     064d: 00 00 00 00 49 49 2a 00 08 00 00 00 0c 00 0f 01 [....II*.........]
  |     065d: 02 00 06 00 00 00 9e 00 00 00 10 01 02 00 0e 00 [................]
  |     066d: 00 00 a4 00 00 00 12 01 03 00 01 00 00 00 01 00 [................]
  |     067d: 00 00 1a 01 05 00 01 00 00 00 b2 00 00 00 1b 01 [................]
  |     068d: 05 00 01 00 00 00 ba 00 00 00 28 01 03 00 01 00 [..........(.....]
  |     069d: 00 00 02 00 00 00 32 01 02 00 14 00 00 00 c2 00 [......2.........]
  |     06ad: 00 00 3b 01 02 00 01 00 00 00 00 00 00 00 13 02 [..;.............]
  |     06bd: 03 00 01 00 00 00 02 00 00 00 98 82 02 00 01 00 [................]
  |     06cd: 00 00 00 00 00 00 69 87 04 00 01 00 00 00 d6 00 [......i.........]
  |     06dd: 00 00 25 88 04 00 01 00 00 00 86 24 00 00 98 24 [..%........$...$]
  |     06ed: 00 00 43 61 6e 6f 6e 00 43 61 6e 6f 6e 20 45 4f [..Canon.Canon EO]
  |     06fd: 53 20 37 30 44 00 48 00 00 00 01 00 00 00 48 00 [S 70D.H.......H.]
  |     070d: 00 00 01 00 00 00 32 30 31 35 3a 31 30 3a 31 31 [......2015:10:11]
  |     071d: 20 31 34 3a 34 31 3a 34 34 00 26 00 9a 82 05 00 [ 14:41:44.&.....]
  |     072d: 01 00 00 00 a4 02 00 00 9d 82 05 00 01 00 00 00 [................]
  |     073d: ac 02 00 00 22 88 03 00 01 00 00 00 02 00 00 00 [...."...........]
  |     074d: 27 88 03 00 01 00 00 00 90 01 00 00 30 88 03 00 ['...........0...]
  |     075d: 01 00 00 00 02 00 00 00 32 88 04 00 01 00 00 00 [........2.......]
  |     076d: 90 01 00 00 00 90 07 00 04 00 00 00 30 32 33 30 [............0230]
  |     077d: 03 90 02 00 14 00 00 00 b4 02 00 00 04 90 02 00 [................]
  |     078d: 14 00 00 00 c8 02 00 00 01 91 07 00 04 00 00 00 [................]
  |     079d: 01 02 03 00 01 92 0a 00 01 00 00 00 dc 02 00 00 [................]
  |     07ad: 02 92 05 00 01 00 00 00 e4 02 00 00 04 92 0a 00 [................]
  |     07bd: 01 00 00 00 ec 02 00 00 07 92 03 00 01 00 00 00 [................]
  |     07cd: 05 00 00 00 09 92 03 00 01 00 00 00 10 00 00 00 [................]
  |     07dd: 0a 92 05 00 01 00 00 00 f4 02 00 00 7c 92 07 00 [............|...]
  |     07ed: 08 20 00 00 fc 02 00 00 86 92 07 00 08 01 00 00 [. ..............]
  |     07fd: 04 23 00 00 90 92 02 00 03 00 00 00 30 30 00 00 [.#..........00..]
  |     080d: 91 92 02 00 03 00 00 00 30 30 00 00 92 92 02 00 [........00......]
  |     081d: 03 00 00 00 30 30 00 00 00 a0 07 00 04 00 00 00 [....00..........]
  |     082d: 30 31 30 30 01 a0 03 00 01 00 00 00 01 00 00 00 [0100............]
  |     083d: 02 a0 03 00 01 00 00 00 60 15 00 00 03 a0 03 00 [........`.......]
  |     084d: 01 00 00 00 40 0e 00 00 05 a0 04 00 01 00 00 00 [....@...........]
  |     085d: 68 24 00 00 0e a2 05 00 01 00 00 00 0c 24 00 00 [h$...........$..]
  |     086d: 0f a2 05 00 01 00 00 00 14 24 00 00 10 a2 03 00 [.........$......]
  |     087d: 01 00 00 00 02 00 00 00 01 a4 03 00 01 00 00 00 [................]
  |     088d: 00 00 00 00 02 a4 03 00 01 00 00 00 00 00 00 00 [................]
  |     089d: 03 a4 03 00 01 00 00 00 00 00 00 00 06 a4 03 00 [................]
  |     08ad: 01 00 00 00 00 00 00 00 30 a4 02 00 01 00 00 00 [........0.......]
  |     08bd: 00 00 00 00 31 a4 02 00 0d 00 00 00 1c 24 00 00 [....1........$..]
  |     08cd: 32 a4 05 00 04 00 00 00 2a 24 00 00 34 a4 02 00 [2.......*$..4...]
  |     08dd: 11 00 00 00 4a 24 00 00 35 a4 02 00 0b 00 00 00 [....J$..5.......]
  |     08ed: 5c 24 00 00 00 00 00 00 01 00 00 00 3c 00 00 00 [\$..........<...]
  |     08fd: 20 00 00 00 0a 00 00 00 32 30 31 35 3a 31 30 3a [ .......2015:10:]
  |     090d: 31 31 20 31 34 3a 34 31 3a 34 34 00 32 30 31 35 [11 14:41:44.2015]
  |     091d: 3a 31 30 3a 31 31 20 31 34 3a 34 31 3a 34 34 00 [:10:11 14:41:44.]
  |     092d: 00 00 06 00 00 00 01 00 00 60 03 00 00 00 01 00 [.........`......]
  |     093d: 00 00 00 00 01 00 00 00 32 00 00 00 01 00 00 00 [........2.......]
  |     094d: 29 00 01 00 03 00 31 00 00 00 ee 04 00 00 02 00 [).....1.........]
  |     095d: 03 00 04 00 00 00 50 05 00 00 03 00 03 00 04 00 [......P.........]
  |     096d: 00 00 58 05 00 00 04 00 03 00 22 00 00 00 60 05 [..X......."...`.]
  |     097d: 00 00 06 00 02 00 0e 00 00 00 a4 05 00 00 07 00 [................]
  |     098d: 02 00 18 00 00 00 b2 05 00 00 09 00 02 00 20 00 [.............. .]
  |     099d: 00 00 ca 05 00 00 0d 00 07 00 00 06 00 00 ea 05 [................]
  |     09ad: 00 00 10 00 04 00 01 00 00 00 25 03 00 80 13 00 [..........%.....]
  |     09bd: 03 00 04 00 00 00 ea 0b 00 00 19 00 03 00 01 00 [................]
  |     09cd: 00 00 01 00 00 00 26 00 03 00 8b 00 00 00 f2 0b [......&.........]
  |     09dd: 00 00 35 00 04 00 04 00 00 00 08 0d 00 00 93 00 [..5.............]
  |     09ed: 03 00 20 00 00 00 18 0d 00 00 95 00 02 00 4a 00 [.. ...........J.]
  |     09fd: 00 00 58 0d 00 00 96 00 02 00 10 00 00 00 a2 0d [..X.............]
  |     0a0d: 00 00 97 00 07 00 00 04 00 00 b2 0d 00 00 98 00 [................]
  |     0a1d: 03 00 04 00 00 00 b2 11 00 00 99 00 04 00 74 00 [..............t.]
  |     0a2d: 00 00 ba 11 00 00 9a 00 04 00 05 00 00 00 8a 13 [................]
  |     0a3d: 00 00 a0 00 03 00 0e 00 00 00 9e 13 00 00 aa 00 [................]
  |     0a4d: 03 00 06 00 00 00 ba 13 00 00 b4 00 03 00 01 00 [................]
  |     0a5d: 00 00 01 00 00 00 d0 00 04 00 01 00 00 00 00 00 [................]
  |     0a6d: 00 00 e0 00 03 00 11 00 00 00 c6 13 00 00 01 40 [...............@]
  |     0a7d: 03 00 21 05 00 00 e8 13 00 00 08 40 03 00 03 00 [..!........@....]
  |     0a8d: 00 00 2a 1e 00 00 09 40 03 00 03 00 00 00 30 1e [..*....@......0.]
  |     0a9d: 00 00 10 40 02 00 20 00 00 00 36 1e 00 00 11 40 [...@.. ...6....@]
  |     0aad: 07 00 fc 00 00 00 56 1e 00 00 12 40 02 00 20 00 [......V....@.. .]
  |     0abd: 00 00 52 1f 00 00 13 40 04 00 0b 00 00 00 72 1f [..R....@......r.]
  |     0acd: 00 00 15 40 07 00 c8 01 00 00 9e 1f 00 00 16 40 [...@...........@]
  |     0add: 04 00 07 00 00 00 66 21 00 00 18 40 04 00 07 00 [......f!...@....]
  |     0aed: 00 00 82 21 00 00 19 40 07 00 1e 00 00 00 9e 21 [...!...@.......!]
  |     0afd: 00 00 20 40 04 00 07 00 00 00 bc 21 00 00 21 40 [.. @.......!..!@]
  |     0b0d: 04 00 05 00 00 00 d8 21 00 00 24 40 04 00 35 00 [.......!..$@..5.]
  |     0b1d: 00 00 ec 21 00 00 25 40 04 00 09 00 00 00 c0 22 [...!..%@......."]
  |     0b2d: 00 00 27 40 04 00 06 00 00 00 e4 22 00 00 00 00 [..'@......."....]
  |     0b3d: 00 00 62 00 02 00 00 00 03 00 00 00 00 00 00 00 [..b.............]
  |     0b4d: 02 00 00 00 01 00 00 00 3b 00 00 00 00 00 00 00 [........;.......]
  |     0b5d: ff 7f 0f 00 03 00 02 00 00 00 00 00 ff ff 3c 10 [..............<.]
  |     0b6d: 32 00 32 00 01 00 38 00 20 01 00 00 00 00 00 00 [2.2...8. .......]
  |     0b7d: 00 00 ff ff ff ff ff ff 00 00 00 00 00 00 00 00 [................]
  |     0b8d: ff ff ff ff 00 00 00 00 ff 7f ff ff ff ff ff ff [................]
  |     0b9d: 00 00 ff ff 00 00 32 00 16 0b 24 5a 00 00 00 00 [......2...$Z....]
  |     0bad: 00 00 00 00 44 00 00 00 e0 00 48 00 6c 00 c0 00 [....D.....H.l...]
  |     0bbd: 00 00 00 00 03 00 00 00 08 00 08 00 95 00 00 00 [................]
  |     0bcd: 00 00 00 00 00 00 00 00 01 00 00 00 00 00 68 00 [..............h.]
  |     0bdd: c0 00 64 00 00 00 00 00 f8 00 ff ff ff ff ff ff [..d.............]
  |     0bed: ff ff 00 00 00 00 00 00 43 61 6e 6f 6e 20 45 4f [........Canon EO]
  |     0bfd: 53 20 37 30 44 00 46 69 72 6d 77 61 72 65 20 56 [S 70D.Firmware V]
  |     0c0d: 65 72 73 69 6f 6e 20 31 2e 31 2e 31 00 00 00 00 [ersion 1.1.1....]
  |     0c1d: 00 00 00 00 00 00 00 00 00 00 00 00 00 00 00 00 [................]
  |     0c2d: 00 00 00 00 00 00 00 00 00 00 00 00 00 00 aa aa [................]
  |     0c3d: 68 22 68 23 58 00 01 2d 01 3e 00 03 00 00 00 00 [h"h#X..-.>......]
  |     0c4d: 00 00 01 00 00 06 00 00 00 95 92 00 a6 00 af 00 [................]
  |     0c5d: a9 00 32 00 00 20 00 00 00 00 00 02 03 00 00 00 [..2.. ..........]
  |     0c6d: 00 00 4a 00 32 00 73 01 bb bb fa 50 00 24 40 90 [..J.2.s....P.$@.]
  |     0c7d: 00 00 00 00 00 00 00 00 00 00 00 00 00 00 00 00 [................]
  |     0c8d: ff 88 00 00 00 00 40 ff 00 6e 00 46 00 30 00 00 [......@..n.F.0..]
  |     0c9d: 00 00 00 00 00 00 00 00 00 00 00 00 b4 8d b7 94 [................]
  |     0cad: 6e 00 00 00 00 00 00 00 00 00 01 01 00 00 00 00 [n...............]
  |     0cbd: 02 01 00 00 00 00 00 00 00 00 00 00 00 00 00 00 [................]
  |     0ccd: 00 00 57 00 49 04 00 00 00 00 00 00 00 00 ff ff [..W.I...........]
  |     0cdd: ff ff 0c cc cc 16 00 00 00 03 00 00 00 00 00 00 [................]
  |     0ced: 00 00 00 00 00 00 00 00 00 00 ff 01 00 00 00 4a [...............J]
  |     0cfd: 00 00 00 00 00 50 14 00 00 00 00 00 00 00 00 00 [.....P..........]
  |     0d0d: 00 01 00 00 00 01 00 00 00 01 00 00 00 03 00 00 [................]
  |     0d1d: 00 03 00 00 00 03 00 00 00 00 00 00 00 01 00 00 [................]
  |     0d2d: 00 00 00 00 00 01 00 00 00 87 00 00 00 01 00 00 [................]
  |     0d3d: 00 01 00 00 00 01 00 00 00 07 00 00 00 00 00 00 [................]
  |     0d4d: 03 05 03 55 55 00 00 00 00 0e 00 00 00 00 00 00 [...UU...........]
  |     0d5d: 00 00 00 00 00 00 00 03 07 07 11 0d 00 00 00 00 [................]
  |     0d6d: 00 00 00 00 00 00 00 00 00 00 00 55 55 05 00 00 [...........UU...]
  |     0d7d: 03 00 14 04 00 00 00 00 00 00 00 00 00 00 00 00 [................]
  |     0d8d: 00 00 00 00 00 00 03 02 02 00 00 00 00 00 00 00 [................]
  |     0d9d: 00 01 16 50 10 3c 00 32 00 32 81 67 92 7f 00 ff [...P.<.2.2.g....]
  |     0dad: 00 00 00 00 00 00 00 21 4e 1c 01 00 03 07 16 00 [.......!N.......]
  |     0dbd: 27 02 00 00 00 00 00 00 00 00 00 00 00 00 00 00 ['...............]
  |     0dcd: 00 00 00 00 00 00 00 00 00 00 00 00 00 02 00 00 [................]
  |     0ddd: 00 60 15 00 00 40 0e 00 00 9c 09 00 00 b0 05 00 [.`...@..........]
  |     0ded: 00 28 02 00 00 e0 02 00 00 d0 02 00 00 e0 01 00 [.(..............]
  |     0dfd: 00 00 00 00 00 00 00 00 00 d0 02 00 00 e0 01 00 [................]
  |     0e0d: 00 d0 02 00 00 e0 01 00 00 00 00 00 00 00 00 00 [................]
  |     0e1d: 00 d0 02 00 00 e0 01 00 00 00 00 00 00 00 00 00 [................]
  |     0e2d: 00 01 00 00 00 00 00 00 00 00 00 00 00 00 00 00 [................]
  |     0e3d: 00 06 00 00 00 00 00 00 00 00 00 00 00 ff ff ff [................]
  |     [snip 15986 bytes]
  | + [TIFF directory]
  | | ExifByteOrder = II
  | | + [IFD0 directory with 12 entries, Little-endian]
  | | | 0)  Make = Canon
  | | |     - Tag 0x010f (6 bytes, string[6]):
  | | |         06ef: 43 61 6e 6f 6e 00                               [Canon.]
  | | | 1)  Model = Canon EOS 70D
  | | |     - Tag 0x0110 (14 bytes, string[14]):
  | | |         06f5: 43 61 6e 6f 6e 20 45 4f 53 20 37 30 44 00       [Canon EOS 70D.]
  | | | 2)  Orientation = 1
  | | |     - Tag 0x0112 (2 bytes, int16u[1]):
  | | |         067b: 01 00                                           [..]
  | | | 3)  XResolution = 72 (72/1)
  | | |     - Tag 0x011a (8 bytes, rational64u[1]):
  | | |         0703: 48 00 00 00 01 00 00 00                         [H.......]
  | | | 4)  YResolution = 72 (72/1)
  | | |     - Tag 0x011b (8 bytes, rational64u[1]):
  | | |         070b: 48 00 00 00 01 00 00 00                         [H.......]
  | | | 5)  ResolutionUnit = 2
  | | |     - Tag 0x0128 (2 bytes, int16u[1]):
  | | |         069f: 02 00                                           [..]
  | | | 6)  ModifyDate = 2015:10:11 14:41:44
  | | |     - Tag 0x0132 (20 bytes, string[20]):
  | | |         0713: 32 30 31 35 3a 31 30 3a 31 31 20 31 34 3a 34 31 [2015:10:11 14:41]
  | | |         0723: 3a 34 34 00                                     [:44.]
  | | | 7)  Artist = 
  | | |     - Tag 0x013b (1 bytes, string[1]):
  | | |         06b7: 00                                              [.]
  | | | 8)  YCbCrPositioning = 2
  | | |     - Tag 0x0213 (2 bytes, int16u[1]):
  | | |         06c3: 02 00                                           [..]
  | | | 9)  Copyright = 
  | | |     - Tag 0x8298 (1 bytes, string[1] read as undef[1]):
  | | |         06cf: 00                                              [.]
  | | | 10) ExifOffset (SubDirectory) -->
  | | |     - Tag 0x8769 (4 bytes, int32u[1]):
  | | |         06db: d6 00 00 00                                     [....]
  | | | + [ExifIFD directory with 38 entries, Little-endian]
  | | | | 0)  ExposureTime = 0.01666666667 (1/60)
  | | | |     - Tag 0x829a (8 bytes, rational64u[1]):
  | | | |         08f5: 01 00 00 00 3c 00 00 00                         [....<...]
  | | | | 1)  FNumber = 3.2 (32/10)
  | | | |     - Tag 0x829d (8 bytes, rational64u[1]):
  | | | |         08fd: 20 00 00 00 0a 00 00 00                         [ .......]
  | | | | 2)  ExposureProgram = 2
  | | | |     - Tag 0x8822 (2 bytes, int16u[1]):
  | | | |         0749: 02 00                                           [..]
  | | | | 3)  ISO = 400
  | | | |     - Tag 0x8827 (2 bytes, int16u[1]):
  | | | |         0755: 90 01                                           [..]
  | | | | 4)  SensitivityType = 2
  | | | |     - Tag 0x8830 (2 bytes, int16u[1]):
  | | | |         0761: 02 00                                           [..]
  | | | | 5)  RecommendedExposureIndex = 400
  | | | |     - Tag 0x8832 (4 bytes, int32u[1]):
  | | | |         076d: 90 01 00 00                                     [....]
  | | | | 6)  ExifVersion = 0230
  | | | |     - Tag 0x9000 (4 bytes, undef[4]):
  | | | |         0779: 30 32 33 30                                     [0230]
  | | | | 7)  DateTimeOriginal = 2015:10:11 14:41:44
  | | | |     - Tag 0x9003 (20 bytes, string[20]):
  | | | |         0905: 32 30 31 35 3a 31 30 3a 31 31 20 31 34 3a 34 31 [2015:10:11 14:41]
  | | | |         0915: 3a 34 34 00                                     [:44.]
  | | | | 8)  CreateDate = 2015:10:11 14:41:44
  | | | |     - Tag 0x9004 (20 bytes, string[20]):
  | | | |         0919: 32 30 31 35 3a 31 30 3a 31 31 20 31 34 3a 34 31 [2015:10:11 14:41]
  | | | |         0929: 3a 34 34 00                                     [:44.]
  | | | | 9)  ComponentsConfiguration = 1 2 3 0
  | | | |     - Tag 0x9101 (4 bytes, undef[4] read as int8u[4]):
  | | | |         079d: 01 02 03 00                                     [....]
  | | | | 10) ShutterSpeedValue = 6 (393216/65536)
  | | | |     - Tag 0x9201 (8 bytes, rational64s[1]):
  | | | |         092d: 00 00 06 00 00 00 01 00                         [........]
  | | | | 11) ApertureValue = 3.375 (221184/65536)
  | | | |     - Tag 0x9202 (8 bytes, rational64u[1]):
  | | | |         0935: 00 60 03 00 00 00 01 00                         [.`......]
  | | | | 12) ExposureCompensation = 0 (0/1)
  | | | |     - Tag 0x9204 (8 bytes, rational64s[1]):
  | | | |         093d: 00 00 00 00 01 00 00 00                         [........]
  | | | | 13) MeteringMode = 5
  | | | |     - Tag 0x9207 (2 bytes, int16u[1]):
  | | | |         07cd: 05 00                                           [..]
  | | | | 14) Flash = 16
  | | | |     - Tag 0x9209 (2 bytes, int16u[1]):
  | | | |         07d9: 10 00                                           [..]
  | | | | 15) FocalLength = 50 (50/1)
  | | | |     - Tag 0x920a (8 bytes, rational64u[1]):
  | | | |         0945: 32 00 00 00 01 00 00 00                         [2.......]
  | | | | 16) MakerNoteCanon (SubDirectory) -->
  | | | |     - Tag 0x927c (8200 bytes, undef[8200]):
  | | | |         094d: 29 00 01 00 03 00 31 00 00 00 ee 04 00 00 02 00 [).....1.........]
  | | | |         095d: 03 00 04 00 00 00 50 05 00 00 03 00 03 00 04 00 [......P.........]
  | | | |         096d: 00 00 58 05 00 00 04 00 03 00 22 00 00 00 60 05 [..X......."...`.]
  | | | |         097d: 00 00 06 00 02 00 0e 00 00 00 a4 05 00 00 07 00 [................]
  | | | |         098d: 02 00 18 00 00 00 b2 05 00 00 09 00 02 00 20 00 [.............. .]
  | | | |         099d: 00 00 ca 05 00 00 0d 00 07 00 00 06 00 00 ea 05 [................]
  | | | |         09ad: 00 00 10 00 04 00 01 00 00 00 25 03 00 80 13 00 [..........%.....]
  | | | |         09bd: 03 00 04 00 00 00 ea 0b 00 00 19 00 03 00 01 00 [................]
  | | | |         09cd: 00 00 01 00 00 00 26 00 03 00 8b 00 00 00 f2 0b [......&.........]
  | | | |         09dd: 00 00 35 00 04 00 04 00 00 00 08 0d 00 00 93 00 [..5.............]
  | | | |         09ed: 03 00 20 00 00 00 18 0d 00 00 95 00 02 00 4a 00 [.. ...........J.]
  | | | |         09fd: 00 00 58 0d 00 00 96 00 02 00 10 00 00 00 a2 0d [..X.............]
  | | | |         0a0d: 00 00 97 00 07 00 00 04 00 00 b2 0d 00 00 98 00 [................]
  | | | |         0a1d: 03 00 04 00 00 00 b2 11 00 00 99 00 04 00 74 00 [..............t.]
  | | | |         0a2d: 00 00 ba 11 00 00 9a 00 04 00 05 00 00 00 8a 13 [................]
  | | | |         0a3d: 00 00 a0 00 03 00 0e 00 00 00 9e 13 00 00 aa 00 [................]
  | | | |         0a4d: 03 00 06 00 00 00 ba 13 00 00 b4 00 03 00 01 00 [................]
  | | | |         0a5d: 00 00 01 00 00 00 d0 00 04 00 01 00 00 00 00 00 [................]
  | | | |         0a6d: 00 00 e0 00 03 00 11 00 00 00 c6 13 00 00 01 40 [...............@]
  | | | |         0a7d: 03 00 21 05 00 00 e8 13 00 00 08 40 03 00 03 00 [..!........@....]
  | | | |         0a8d: 00 00 2a 1e 00 00 09 40 03 00 03 00 00 00 30 1e [..*....@......0.]
  | | | |         0a9d: 00 00 10 40 02 00 20 00 00 00 36 1e 00 00 11 40 [...@.. ...6....@]
  | | | |         0aad: 07 00 fc 00 00 00 56 1e 00 00 12 40 02 00 20 00 [......V....@.. .]
  | | | |         0abd: 00 00 52 1f 00 00 13 40 04 00 0b 00 00 00 72 1f [..R....@......r.]
  | | | |         0acd: 00 00 15 40 07 00 c8 01 00 00 9e 1f 00 00 16 40 [...@...........@]
  | | | |         0add: 04 00 07 00 00 00 66 21 00 00 18 40 04 00 07 00 [......f!...@....]
  | | | |         0aed: 00 00 82 21 00 00 19 40 07 00 1e 00 00 00 9e 21 [...!...@.......!]
  | | | |         0afd: 00 00 20 40 04 00 07 00 00 00 bc 21 00 00 21 40 [.. @.......!..!@]
  | | | |         0b0d: 04 00 05 00 00 00 d8 21 00 00 24 40 04 00 35 00 [.......!..$@..5.]
  | | | |         0b1d: 00 00 ec 21 00 00 25 40 04 00 09 00 00 00 c0 22 [...!..%@......."]
  | | | |         0b2d: 00 00 27 40 04 00 06 00 00 00 e4 22 00 00 00 00 [..'@......."....]
  | | | |         0b3d: 00 00 62 00 02 00 00 00 03 00 00 00 00 00 00 00 [..b.............]
  | | | |         0b4d: 02 00 00 00 01 00 00 00 3b 00 00 00 00 00 00 00 [........;.......]
  | | | |         0b5d: ff 7f 0f 00 03 00 02 00 00 00 00 00 ff ff 3c 10 [..............<.]
  | | | |         0b6d: 32 00 32 00 01 00 38 00 20 01 00 00 00 00 00 00 [2.2...8. .......]
  | | | |         0b7d: 00 00 ff ff ff ff ff ff 00 00 00 00 00 00 00 00 [................]
  | | | |         0b8d: ff ff ff ff 00 00 00 00 ff 7f ff ff ff ff ff ff [................]
  | | | |         0b9d: 00 00 ff ff 00 00 32 00 16 0b 24 5a 00 00 00 00 [......2...$Z....]
  | | | |         0bad: 00 00 00 00 44 00 00 00 e0 00 48 00 6c 00 c0 00 [....D.....H.l...]
  | | | |         0bbd: 00 00 00 00 03 00 00 00 08 00 08 00 95 00 00 00 [................]
  | | | |         0bcd: 00 00 00 00 00 00 00 00 01 00 00 00 00 00 68 00 [..............h.]
  | | | |         0bdd: c0 00 64 00 00 00 00 00 f8 00 ff ff ff ff ff ff [..d.............]
  | | | |         0bed: ff ff 00 00 00 00 00 00 43 61 6e 6f 6e 20 45 4f [........Canon EO]
  | | | |         0bfd: 53 20 37 30 44 00 46 69 72 6d 77 61 72 65 20 56 [S 70D.Firmware V]
  | | | |         0c0d: 65 72 73 69 6f 6e 20 31 2e 31 2e 31 00 00 00 00 [ersion 1.1.1....]
  | | | |         0c1d: 00 00 00 00 00 00 00 00 00 00 00 00 00 00 00 00 [................]
  | | | |         0c2d: 00 00 00 00 00 00 00 00 00 00 00 00 00 00 aa aa [................]
  | | | |         0c3d: 68 22 68 23 58 00 01 2d 01 3e 00 03 00 00 00 00 [h"h#X..-.>......]
  | | | |         0c4d: 00 00 01 00 00 06 00 00 00 95 92 00 a6 00 af 00 [................]
  | | | |         0c5d: a9 00 32 00 00 20 00 00 00 00 00 02 03 00 00 00 [..2.. ..........]
  | | | |         0c6d: 00 00 4a 00 32 00 73 01 bb bb fa 50 00 24 40 90 [..J.2.s....P.$@.]
  | | | |         0c7d: 00 00 00 00 00 00 00 00 00 00 00 00 00 00 00 00 [................]
  | | | |         0c8d: ff 88 00 00 00 00 40 ff 00 6e 00 46 00 30 00 00 [......@..n.F.0..]
  | | | |         0c9d: 00 00 00 00 00 00 00 00 00 00 00 00 b4 8d b7 94 [................]
  | | | |         0cad: 6e 00 00 00 00 00 00 00 00 00 01 01 00 00 00 00 [n...............]
  | | | |         0cbd: 02 01 00 00 00 00 00 00 00 00 00 00 00 00 00 00 [................]
  | | | |         0ccd: 00 00 57 00 49 04 00 00 00 00 00 00 00 00 ff ff [..W.I...........]
  | | | |         0cdd: ff ff 0c cc cc 16 00 00 00 03 00 00 00 00 00 00 [................]
  | | | |         0ced: 00 00 00 00 00 00 00 00 00 00 ff 01 00 00 00 4a [...............J]
  | | | |         0cfd: 00 00 00 00 00 50 14 00 00 00 00 00 00 00 00 00 [.....P..........]
  | | | |         0d0d: 00 01 00 00 00 01 00 00 00 01 00 00 00 03 00 00 [................]
  | | | |         0d1d: 00 03 00 00 00 03 00 00 00 00 00 00 00 01 00 00 [................]
  | | | |         0d2d: 00 00 00 00 00 01 00 00 00 87 00 00 00 01 00 00 [................]
  | | | |         0d3d: 00 01 00 00 00 01 00 00 00 07 00 00 00 00 00 00 [................]
  | | | |         0d4d: 03 05 03 55 55 00 00 00 00 0e 00 00 00 00 00 00 [...UU...........]
  | | | |         0d5d: 00 00 00 00 00 00 00 03 07 07 11 0d 00 00 00 00 [................]
  | | | |         0d6d: 00 00 00 00 00 00 00 00 00 00 00 55 55 05 00 00 [...........UU...]
  | | | |         0d7d: 03 00 14 04 00 00 00 00 00 00 00 00 00 00 00 00 [................]
  | | | |         0d8d: 00 00 00 00 00 00 03 02 02 00 00 00 00 00 00 00 [................]
  | | | |         0d9d: 00 01 16 50 10 3c 00 32 00 32 81 67 92 7f 00 ff [...P.<.2.2.g....]
  | | | |         0dad: 00 00 00 00 00 00 00 21 4e 1c 01 00 03 07 16 00 [.......!N.......]
  | | | |         0dbd: 27 02 00 00 00 00 00 00 00 00 00 00 00 00 00 00 ['...............]
  | | | |         0dcd: 00 00 00 00 00 00 00 00 00 00 00 00 00 02 00 00 [................]
  | | | |         0ddd: 00 60 15 00 00 40 0e 00 00 9c 09 00 00 b0 05 00 [.`...@..........]
  | | | |         0ded: 00 28 02 00 00 e0 02 00 00 d0 02 00 00 e0 01 00 [.(..............]
  | | | |         0dfd: 00 00 00 00 00 00 00 00 00 d0 02 00 00 e0 01 00 [................]
  | | | |         0e0d: 00 d0 02 00 00 e0 01 00 00 00 00 00 00 00 00 00 [................]
  | | | |         0e1d: 00 d0 02 00 00 e0 01 00 00 00 00 00 00 00 00 00 [................]
  | | | |         0e2d: 00 01 00 00 00 00 00 00 00 00 00 00 00 00 00 00 [................]
  | | | |         0e3d: 00 06 00 00 00 00 00 00 00 00 00 00 00 ff ff ff [................]
  | | | |         0e4d: 7f ff ff ff 7f 00 00 00 00 00 00 00 00 00 02 00 [................]
  | | | |         0e5d: 00 00 00 00 00 00 00 00 00 0a 02 00 01 00 01 00 [................]
  | | | |         0e6d: 00 00 02 00 00 00 00 00 00 00 00 00 00 01 00 00 [................]
  | | | |         0e7d: 00 00 00 00 00 00 00 00 00 00 00 00 00 00 00 00 [................]
  | | | |         0e8d: 01 00 00 00 00 00 00 00 00 01 01 00 31 2e 31 2e [............1.1.]
  | | | |         0e9d: 31 00 42 31 28 33 32 29 00 00 00 00 05 00 00 00 [1.B1(32)........]
  | | | |         0ead: 00 00 00 00 a4 cd 59 00 00 00 00 00 00 00 03 80 [......Y.........]
  | | | |         0ebd: 00 00 00 00 00 00 00 00 00 00 00 00 00 00 00 00 [................]
  | | | |         0ecd: 00 00 00 00 00 00 00 00 00 00 00 00 00 00 00 00 [................]
  | | | |         0edd: 00 8e 00 00 00 64 00 00 00 64 00 00 00 00 00 00 [.....d...d......]
  | | | |         0eed: 00 65 17 00 00 00 00 00 00 64 00 00 00 65 00 00 [.e.......d...e..]
  | | | |         0efd: 00 64 00 00 00 08 00 00 00 08 00 00 00 08 00 00 [.d..............]
  | | | |         0f0d: 00 08 00 00 00 01 00 00 00 00 00 00 00 00 00 00 [................]
  | | | |         0f1d: 00 00 00 00 00 00 00 00 00 00 00 00 00 00 00 00 [................]
  | | | |         0f2d: 00 00 00 00 00 00 00 00 00 f4 01 00 04 00 04 74 [...............t]
  | | | |         0f3d: 02 00 00 00 00 00 00 00 00 00 00 00 00 00 00 00 [................]
  | | | |         0f4d: 00 00 00 00 00 00 00 00 00 00 00 00 00 00 00 00 [................]
  | | | |         0f5d: 00 00 00 00 00 f4 01 00 04 00 04 74 02 00 00 00 [...........t....]
  | | | |         0f6d: 00 00 00 00 00 00 00 00 00 00 00 00 00 00 00 00 [................]
  | | | |         0f7d: 00 00 00 00 00 00 00 00 00 00 00 00 00 00 00 00 [................]
  | | | |         0f8d: 00 f4 01 00 04 00 04 74 02 00 00 00 00 00 00 00 [.......t........]
  | | | |         0f9d: 00 00 00 00 00 00 00 00 00 00 00 00 00 00 00 00 [................]
  | | | |         0fad: 00 00 00 00 00 00 00 00 00 00 00 00 00 f4 01 00 [................]
  | | | |         0fbd: 04 00 04 74 02 00 00 00 00 00 00 00 00 00 00 00 [...t............]
  | | | |         0fcd: 00 00 00 00 00 00 00 00 00 00 00 00 00 00 00 00 [................]
  | | | |         0fdd: 00 00 00 00 00 00 00 00 00 f4 01 00 04 00 04 74 [...............t]
  | | | |         0fed: 02 00 00 00 00 00 00 00 00 01 00 00 00 00 00 00 [................]
  | | | |         0ffd: 00 00 00 00 00 00 00 00 00 01 00 00 00 00 00 00 [................]
  | | | |         100d: 00 03 00 00 00 00 00 00 00 00 00 00 00 ef be ad [................]
  | | | |         101d: de ef be ad de 00 00 00 00 02 00 00 00 00 00 00 [................]
  | | | |         102d: 00 00 00 00 00 ef be ad de ef be ad de 00 00 00 [................]
  | | | |         103d: 00 04 00 00 00 00 00 00 00 00 00 00 00 ef be ad [................]
  | | | |         104d: de ef be ad de 00 00 00 00 00 00 00 00 00 00 00 [................]
  | | | |         105d: 00 00 00 00 00 ef be ad de ef be ad de 00 00 00 [................]
  | | | |         106d: 00 00 00 00 00 00 00 00 00 00 00 00 00 ef be ad [................]
  | | | |         107d: de ef be ad de 00 00 00 00 03 00 00 00 ef be ad [................]
  | | | |         108d: de ef be ad de 00 00 00 00 00 00 00 00 00 00 00 [................]
  | | | |         109d: 00 03 00 00 00 00 00 00 00 00 00 00 00 ef be ad [................]
  | | | |         10ad: de ef be ad de 00 00 00 00 03 00 00 00 00 00 00 [................]
  | | | |         10bd: 00 00 00 00 00 00 00 00 00 00 00 00 00 00 00 00 [................]
  | | | |         10cd: 00 03 00 00 00 00 00 00 00 00 00 00 00 00 00 00 [................]
  | | | |         10dd: 00 00 00 00 00 00 00 00 00 03 00 00 00 00 00 00 [................]
  | | | |         10ed: 00 00 00 00 00 00 00 00 00 00 00 00 00 87 00 87 [................]
  | | | |         10fd: 00 87 00 00 00 ff ff ff ff ff ff ff ff 00 00 00 [................]
  | | | |         110d: 00 00 00 00 00 00 00 00 00 00 00 00 00 00 00 00 [................]
  | | | |         111d: 00 00 00 00 00 00 00 00 00 00 00 00 00 00 04 00 [................]
  | | | |         112d: 04 00 04 00 04 00 00 00 00 00 00 00 00 00 00 00 [................]
  | | | |         [snip 6168 bytes]
  | | | | + [MakerNotes directory with 41 entries, Little-endian]
  | | | | | 0)  CanonCameraSettings (SubDirectory) -->
  | | | | |     - Tag 0x0001 (98 bytes, int16u[49] read as undef[98]):
  | | | | |         0b3f: 62 00 02 00 00 00 03 00 00 00 00 00 00 00 02 00 [b...............]
  | | | | |         0b4f: 00 00 01 00 00 00 3b 00 00 00 00 00 00 00 ff 7f [......;.........]
  | | | | |         0b5f: 0f 00 03 00 02 00 00 00 00 00 ff ff 3c 10 32 00 [............<.2.]
  | | | | |         0b6f: 32 00 01 00 38 00 20 01 00 00 00 00 00 00 00 00 [2...8. .........]
  | | | | |         0b7f: ff ff ff ff ff ff 00 00 00 00 00 00 00 00 ff ff [................]
  | | | | |         0b8f: ff ff 00 00 00 00 ff 7f ff ff ff ff ff ff 00 00 [................]
  | | | | |         0b9f: ff ff                                           [..]
  | | | | | + [BinaryData directory, 98 bytes, Little-endian]
  | | | | | | MacroMode = 2
  | | | | | | - Tag 0x0001 (2 bytes, int16s[1]):
  | | | | | |     0b41: 02 00                                           [..]
  | | | | | | SelfTimer = 0
  | | | | | | - Tag 0x0002 (2 bytes, int16s[1]):
  | | | | | |     0b43: 00 00                                           [..]
  | | | | | | Quality = 3
  | | | | | | - Tag 0x0003 (2 bytes, int16s[1]):
  | | | | | |     0b45: 03 00                                           [..]
  | | | | | | CanonFlashMode = 0
  | | | | | | - Tag 0x0004 (2 bytes, int16s[1]):
  | | | | | |     0b47: 00 00                                           [..]
  | | | | | | ContinuousDrive = 0
  | | | | | | - Tag 0x0005 (2 bytes, int16s[1]):
  | | | | | |     0b49: 00 00                                           [..]
  | | | | | | FocusMode = 2
  | | | | | | - Tag 0x0007 (2 bytes, int16s[1]):
  | | | | | |     0b4d: 02 00                                           [..]
  | | | | | | RecordMode = 1
  | | | | | | - Tag 0x0009 (2 bytes, int16s[1]):
  | | | | | |     0b51: 01 00                                           [..]
  | | | | | | CanonImageSize = 0
  | | | | | | - Tag 0x000a (2 bytes, int16s[1]):
  | | | | | |     0b53: 00 00                                           [..]
  | | | | | | EasyMode = 59
  | | | | | | - Tag 0x000b (2 bytes, int16s[1]):
  | | | | | |     0b55: 3b 00                                           [;.]
  | | | | | | DigitalZoom = 0
  | | | | | | - Tag 0x000c (2 bytes, int16s[1]):
  | | | | | |     0b57: 00 00                                           [..]
  | | | | | | Contrast = 0
  | | | | | | - Tag 0x000d (2 bytes, int16s[1]):
  | | | | | |     0b59: 00 00                                           [..]
  | | | | | | Saturation = 0
  | | | | | | - Tag 0x000e (2 bytes, int16s[1]):
  | | | | | |     0b5b: 00 00                                           [..]
  | | | | | | Sharpness = 32767
  | | | | | | - Tag 0x000f (2 bytes, int16s[1]):
  | | | | | |     0b5d: ff 7f                                           [..]
  | | | | | | CameraISO = 15
  | | | | | | - Tag 0x0010 (2 bytes, int16s[1]):
  | | | | | |     0b5f: 0f 00                                           [..]
  | | | | | | MeteringMode = 3
  | | | | | | - Tag 0x0011 (2 bytes, int16s[1]):
  | | | | | |     0b61: 03 00                                           [..]
  | | | | | | FocusRange = 2
  | | | | | | - Tag 0x0012 (2 bytes, int16s[1]):
  | | | | | |     0b63: 02 00                                           [..]
  | | | | | | AFPoint = 0
  | | | | | | - Tag 0x0013 (2 bytes, int16s[1]):
  | | | | | |     0b65: 00 00                                           [..]
  | | | | | | CanonExposureMode = 0
  | | | | | | - Tag 0x0014 (2 bytes, int16s[1]):
  | | | | | |     0b67: 00 00                                           [..]
  | | | | | | LensType = 4156
  | | | | | | - Tag 0x0016 (2 bytes, int16u[1]):
  | | | | | |     0b6b: 3c 10                                           [<.]
  | | | | | | MaxFocalLength = 50
  | | | | | | - Tag 0x0017 (2 bytes, int16u[1]):
  | | | | | |     0b6d: 32 00                                           [2.]
  | | | | | | MinFocalLength = 50
  | | | | | | - Tag 0x0018 (2 bytes, int16u[1]):
  | | | | | |     0b6f: 32 00                                           [2.]
  | | | | | | FocalUnits = 1
  | | | | | | - Tag 0x0019 (2 bytes, int16s[1]):
  | | | | | |     0b71: 01 00                                           [..]
  | | | | | | MaxAperture = 56
  | | | | | | - Tag 0x001a (2 bytes, int16s[1]):
  | | | | | |     0b73: 38 00                                           [8.]
  | | | | | | MinAperture = 288
  | | | | | | - Tag 0x001b (2 bytes, int16s[1]):
  | | | | | |     0b75: 20 01                                           [ .]
  | | | | | | FlashModel = 0
  | | | | | | - Tag 0x001c, mask 0x7f (2 bytes, int16s[1]):
  | | | | | |     0b77: 00 00                                           [..]
  | | | | | | FlashBits = 0
  | | | | | | - Tag 0x001d (2 bytes, int16s[1]):
  | | | | | |     0b79: 00 00                                           [..]
  | | | | | | FocusContinuous = -1
  | | | | | | - Tag 0x0020 (2 bytes, int16s[1]):
  | | | | | |     0b7f: ff ff                                           [..]
  | | | | | | AESetting = -1
  | | | | | | - Tag 0x0021 (2 bytes, int16s[1]):
  | | | | | |     0b81: ff ff                                           [..]
  | | | | | | ImageStabilization = -1
  | | | | | | - Tag 0x0022 (2 bytes, int16s[1]):
  | | | | | |     0b83: ff ff                                           [..]
  | | | | | | DisplayAperture = 0
  | | | | | | - Tag 0x0023 (2 bytes, int16s[1]):
  | | | | | |     0b85: 00 00                                           [..]
  | | | | | | ZoomSourceWidth = 0
  | | | | | | - Tag 0x0024 (2 bytes, int16s[1]):
  | | | | | |     0b87: 00 00                                           [..]
  | | | | | | ZoomTargetWidth = 0
  | | | | | | - Tag 0x0025 (2 bytes, int16s[1]):
  | | | | | |     0b89: 00 00                                           [..]
  | | | | | | SpotMeteringMode = -1
  | | | | | | - Tag 0x0027 (2 bytes, int16s[1]):
  | | | | | |     0b8d: ff ff                                           [..]
  | | | | | | PhotoEffect = -1
  | | | | | | - Tag 0x0028 (2 bytes, int16s[1]):
  | | | | | |     0b8f: ff ff                                           [..]
  | | | | | | ManualFlashOutput = 0
  | | | | | | - Tag 0x0029 (2 bytes, int16s[1]):
  | | | | | |     0b91: 00 00                                           [..]
  | | | | | | ColorTone = 0
  | | | | | | - Tag 0x002a (2 bytes, int16s[1]):
  | | | | | |     0b93: 00 00                                           [..]
  | | | | | | SRAWQuality = -1
  | | | | | | - Tag 0x002e (2 bytes, int16s[1]):
  | | | | | |     0b9b: ff ff                                           [..]
  | | | | | 1)  CanonFocalLength (SubDirectory) -->
  | | | | |     - Tag 0x0002 (8 bytes, int16u[4] read as undef[8]):
  | | | | |         0ba1: 00 00 32 00 16 0b 24 5a                         [..2...$Z]
  | | | | | + [BinaryData directory, 8 bytes, Little-endian]
  | | | | | | FocalType = 0
  | | | | | | - Tag 0x0000 (2 bytes, int16u[1]):
  | | | | | |     0ba1: 00 00                                           [..]
  | | | | | | FocalLength = 50
  | | | | | | - Tag 0x0001 (2 bytes, int16u[1]):
  | | | | | |     0ba3: 32 00                                           [2.]
  | | | | | | FocalPlaneXUnknown = 2838
  | | | | | | - Tag 0x0002 (2 bytes, int16u[1]):
  | | | | | |     0ba5: 16 0b                                           [..]
  | | | | | | FocalPlaneYUnknown = 23076
  | | | | | | - Tag 0x0003 (2 bytes, int16u[1]):
  | | | | | |     0ba7: 24 5a                                           [$Z]
  | | | | | 2)  CanonFlashInfo = 0 0 0 0
  | | | | |     - Tag 0x0003 (8 bytes, int16u[4]):
  | | | | |         0ba9: 00 00 00 00 00 00 00 00                         [........]
  | | | | | 3)  CanonShotInfo (SubDirectory) -->
  | | | | |     - Tag 0x0004 (68 bytes, int16u[34] read as undef[68]):
  | | | | |         0bb1: 44 00 00 00 e0 00 48 00 6c 00 c0 00 00 00 00 00 [D.....H.l.......]
  | | | | |         0bc1: 03 00 00 00 08 00 08 00 95 00 00 00 00 00 00 00 [................]
  | | | | |         0bd1: 00 00 00 00 01 00 00 00 00 00 68 00 c0 00 64 00 [..........h...d.]
  | | | | |         0be1: 00 00 00 00 f8 00 ff ff ff ff ff ff ff ff 00 00 [................]
  | | | | |         0bf1: 00 00 00 00                                     [....]
  | | | | | + [BinaryData directory, 68 bytes, Little-endian]
  | | | | | | AutoISO = 0
  | | | | | | - Tag 0x0001 (2 bytes, int16s[1]):
  | | | | | |     0bb3: 00 00                                           [..]
  | | | | | | BaseISO = 224
  | | | | | | - Tag 0x0002 (2 bytes, int16s[1]):
  | | | | | |     0bb5: e0 00                                           [..]
  | | | | | | MeasuredEV = 72
  | | | | | | - Tag 0x0003 (2 bytes, int16s[1]):
  | | | | | |     0bb7: 48 00                                           [H.]
  | | | | | | TargetAperture = 108
  | | | | | | - Tag 0x0004 (2 bytes, int16s[1]):
  | | | | | |     0bb9: 6c 00                                           [l.]
  | | | | | | TargetExposureTime = 192
  | | | | | | - Tag 0x0005 (2 bytes, int16s[1]):
  | | | | | |     0bbb: c0 00                                           [..]
  | | | | | | ExposureCompensation = 0
  | | | | | | - Tag 0x0006 (2 bytes, int16s[1]):
  | | | | | |     0bbd: 00 00                                           [..]
  | | | | | | WhiteBalance = 0
  | | | | | | - Tag 0x0007 (2 bytes, int16s[1]):
  | | | | | |     0bbf: 00 00                                           [..]
  | | | | | | SlowShutter = 3
  | | | | | | - Tag 0x0008 (2 bytes, int16s[1]):
  | | | | | |     0bc1: 03 00                                           [..]
  | | | | | | SequenceNumber = 0
  | | | | | | - Tag 0x0009 (2 bytes, int16s[1]):
  | | | | | |     0bc3: 00 00                                           [..]
  | | | | | | OpticalZoomCode = 8
  | | | | | | - Tag 0x000a (2 bytes, int16s[1]):
  | | | | | |     0bc5: 08 00                                           [..]
  | | | | | | CameraTemperature = 149
  | | | | | | - Tag 0x000c (2 bytes, int16s[1]):
  | | | | | |     0bc9: 95 00                                           [..]
  | | | | | | FlashGuideNumber = 0
  | | | | | | - Tag 0x000d (2 bytes, int16s[1]):
  | | | | | |     0bcb: 00 00                                           [..]
  | | | | | | AFPointsInFocus = 0
  | | | | | | - Tag 0x000e (2 bytes, int16s[1]):
  | | | | | |     0bcd: 00 00                                           [..]
  | | | | | | FlashExposureComp = 0
  | | | | | | - Tag 0x000f (2 bytes, int16s[1]):
  | | | | | |     0bcf: 00 00                                           [..]
  | | | | | | AutoExposureBracketing = 0
  | | | | | | - Tag 0x0010 (2 bytes, int16s[1]):
  | | | | | |     0bd1: 00 00                                           [..]
  | | | | | | AEBBracketValue = 0
  | | | | | | - Tag 0x0011 (2 bytes, int16s[1]):
  | | | | | |     0bd3: 00 00                                           [..]
  | | | | | | ControlMode = 1
  | | | | | | - Tag 0x0012 (2 bytes, int16s[1]):
  | | | | | |     0bd5: 01 00                                           [..]
  | | | | | | FocusDistanceUpper = 0
  | | | | | | - Tag 0x0013 (2 bytes, int16u[1]):
  | | | | | |     0bd7: 00 00                                           [..]
  | | | | | | FNumber = 104
  | | | | | | - Tag 0x0015 (2 bytes, int16s[1]):
  | | | | | |     0bdb: 68 00                                           [h.]
  | | | | | | ExposureTime = 192
  | | | | | | - Tag 0x0016 (2 bytes, int16s[1]):
  | | | | | |     0bdd: c0 00                                           [..]
  | | | | | | MeasuredEV2 = 100
  | | | | | | - Tag 0x0017 (2 bytes, int16s[1]):
  | | | | | |     0bdf: 64 00                                           [d.]
  | | | | | | BulbDuration = 0
  | | | | | | - Tag 0x0018 (2 bytes, int16s[1]):
  | | | | | |     0be1: 00 00                                           [..]
  | | | | | | CameraType = 248
  | | | | | | - Tag 0x001a (2 bytes, int16s[1]):
  | | | | | |     0be5: f8 00                                           [..]
  | | | | | | AutoRotate = -1
  | | | | | | - Tag 0x001b (2 bytes, int16s[1]):
  | | | | | |     0be7: ff ff                                           [..]
  | | | | | | NDFilter = -1
  | | | | | | - Tag 0x001c (2 bytes, int16s[1]):
  | | | | | |     0be9: ff ff                                           [..]
  | | | | | | SelfTimer2 = -1
  | | | | | | - Tag 0x001d (2 bytes, int16s[1]):
  | | | | | |     0beb: ff ff                                           [..]
  | | | | | | FlashOutput = 0
  | | | | | | - Tag 0x0021 (2 bytes, int16s[1]):
  | | | | | |     0bf3: 00 00                                           [..]
  | | | | | 4)  CanonImageType = Canon EOS 70D
  | | | | |     - Tag 0x0006 (14 bytes, string[14]):
  | | | | |         0bf5: 43 61 6e 6f 6e 20 45 4f 53 20 37 30 44 00       [Canon EOS 70D.]
  | | | | | 5)  CanonFirmwareVersion = Firmware Version 1.1.1
  | | | | |     - Tag 0x0007 (24 bytes, string[24]):
  | | | | |         0c03: 46 69 72 6d 77 61 72 65 20 56 65 72 73 69 6f 6e [Firmware Version]
  | | | | |         0c13: 20 31 2e 31 2e 31 00 00                         [ 1.1.1..]
  | | | | | 6)  OwnerName = 
  | | | | |     - Tag 0x0009 (32 bytes, string[32]):
  | | | | |         0c1b: 00 00 00 00 00 00 00 00 00 00 00 00 00 00 00 00 [................]
  | | | | |         0c2b: 00 00 00 00 00 00 00 00 00 00 00 00 00 00 00 00 [................]
  | | | | | 7)  CanonCameraInfo70D (SubDirectory) -->
  | | | | |     - Tag 0x000d (1536 bytes, undef[1536]):
  | | | | |         0c3b: aa aa 68 22 68 23 58 00 01 2d 01 3e 00 03 00 00 [..h"h#X..-.>....]
  | | | | |         0c4b: 00 00 00 00 01 00 00 06 00 00 00 95 92 00 a6 00 [................]
  | | | | |         0c5b: af 00 a9 00 32 00 00 20 00 00 00 00 00 02 03 00 [....2.. ........]
  | | | | |         0c6b: 00 00 00 00 4a 00 32 00 73 01 bb bb fa 50 00 24 [....J.2.s....P.$]
  | | | | |         0c7b: 40 90 00 00 00 00 00 00 00 00 00 00 00 00 00 00 [@...............]
  | | | | |         0c8b: 00 00 ff 88 00 00 00 00 40 ff 00 6e 00 46 00 30 [........@..n.F.0]
  | | | | |         0c9b: 00 00 00 00 00 00 00 00 00 00 00 00 00 00 b4 8d [................]
  | | | | |         0cab: b7 94 6e 00 00 00 00 00 00 00 00 00 01 01 00 00 [..n.............]
  | | | | |         0cbb: 00 00 02 01 00 00 00 00 00 00 00 00 00 00 00 00 [................]
  | | | | |         0ccb: 00 00 00 00 57 00 49 04 00 00 00 00 00 00 00 00 [....W.I.........]
  | | | | |         0cdb: ff ff ff ff 0c cc cc 16 00 00 00 03 00 00 00 00 [................]
  | | | | |         0ceb: 00 00 00 00 00 00 00 00 00 00 00 00 ff 01 00 00 [................]
  | | | | |         0cfb: 00 4a 00 00 00 00 00 50 14 00 00 00 00 00 00 00 [.J.....P........]
  | | | | |         0d0b: 00 00 00 01 00 00 00 01 00 00 00 01 00 00 00 03 [................]
  | | | | |         0d1b: 00 00 00 03 00 00 00 03 00 00 00 00 00 00 00 01 [................]
  | | | | |         0d2b: 00 00 00 00 00 00 00 01 00 00 00 87 00 00 00 01 [................]
  | | | | |         0d3b: 00 00 00 01 00 00 00 01 00 00 00 07 00 00 00 00 [................]
  | | | | |         0d4b: 00 00 03 05 03 55 55 00 00 00 00 0e 00 00 00 00 [.....UU.........]
  | | | | |         0d5b: 00 00 00 00 00 00 00 00 00 03 07 07 11 0d 00 00 [................]
  | | | | |         0d6b: 00 00 00 00 00 00 00 00 00 00 00 00 00 55 55 05 [.............UU.]
  | | | | |         0d7b: 00 00 03 00 14 04 00 00 00 00 00 00 00 00 00 00 [................]
  | | | | |         0d8b: 00 00 00 00 00 00 00 00 03 02 02 00 00 00 00 00 [................]
  | | | | |         0d9b: 00 00 00 01 16 50 10 3c 00 32 00 32 81 67 92 7f [.....P.<.2.2.g..]
  | | | | |         0dab: 00 ff 00 00 00 00 00 00 00 21 4e 1c 01 00 03 07 [.........!N.....]
  | | | | |         0dbb: 16 00 27 02 00 00 00 00 00 00 00 00 00 00 00 00 [..'.............]
  | | | | |         0dcb: 00 00 00 00 00 00 00 00 00 00 00 00 00 00 00 02 [................]
  | | | | |         0ddb: 00 00 00 60 15 00 00 40 0e 00 00 9c 09 00 00 b0 [...`...@........]
  | | | | |         0deb: 05 00 00 28 02 00 00 e0 02 00 00 d0 02 00 00 e0 [...(............]
  | | | | |         0dfb: 01 00 00 00 00 00 00 00 00 00 00 d0 02 00 00 e0 [................]
  | | | | |         0e0b: 01 00 00 d0 02 00 00 e0 01 00 00 00 00 00 00 00 [................]
  | | | | |         0e1b: 00 00 00 d0 02 00 00 e0 01 00 00 00 00 00 00 00 [................]
  | | | | |         0e2b: 00 00 00 01 00 00 00 00 00 00 00 00 00 00 00 00 [................]
  | | | | |         0e3b: 00 00 00 06 00 00 00 00 00 00 00 00 00 00 00 ff [................]
  | | | | |         0e4b: ff ff 7f ff ff ff 7f 00 00 00 00 00 00 00 00 00 [................]
  | | | | |         0e5b: 02 00 00 00 00 00 00 00 00 00 00 0a 02 00 01 00 [................]
  | | | | |         0e6b: 01 00 00 00 02 00 00 00 00 00 00 00 00 00 00 01 [................]
  | | | | |         0e7b: 00 00 00 00 00 00 00 00 00 00 00 00 00 00 00 00 [................]
  | | | | |         0e8b: 00 00 01 00 00 00 00 00 00 00 00 01 01 00 31 2e [..............1.]
  | | | | |         0e9b: 31 2e 31 00 42 31 28 33 32 29 00 00 00 00 05 00 [1.1.B1(32)......]
  | | | | |         0eab: 00 00 00 00 00 00 a4 cd 59 00 00 00 00 00 00 00 [........Y.......]
  | | | | |         0ebb: 03 80 00 00 00 00 00 00 00 00 00 00 00 00 00 00 [................]
  | | | | |         0ecb: 00 00 00 00 00 00 00 00 00 00 00 00 00 00 00 00 [................]
  | | | | |         0edb: 00 00 00 8e 00 00 00 64 00 00 00 64 00 00 00 00 [.......d...d....]
  | | | | |         0eeb: 00 00 00 65 17 00 00 00 00 00 00 64 00 00 00 65 [...e.......d...e]
  | | | | |         0efb: 00 00 00 64 00 00 00 08 00 00 00 08 00 00 00 08 [...d............]
  | | | | |         0f0b: 00 00 00 08 00 00 00 01 00 00 00 00 00 00 00 00 [................]
  | | | | |         0f1b: 00 00 00 00 00 00 00 00 00 00 00 00 00 00 00 00 [................]
  | | | | |         0f2b: 00 00 00 00 00 00 00 00 00 00 00 f4 01 00 04 00 [................]
  | | | | |         0f3b: 04 74 02 00 00 00 00 00 00 00 00 00 00 00 00 00 [.t..............]
  | | | | |         0f4b: 00 00 00 00 00 00 00 00 00 00 00 00 00 00 00 00 [................]
  | | | | |         0f5b: 00 00 00 00 00 00 00 f4 01 00 04 00 04 74 02 00 [.............t..]
  | | | | |         0f6b: 00 00 00 00 00 00 00 00 00 00 00 00 00 00 00 00 [................]
  | | | | |         0f7b: 00 00 00 00 00 00 00 00 00 00 00 00 00 00 00 00 [................]
  | | | | |         0f8b: 00 00 00 f4 01 00 04 00 04 74 02 00 00 00 00 00 [.........t......]
  | | | | |         0f9b: 00 00 00 00 00 00 00 00 00 00 00 00 00 00 00 00 [................]
  | | | | |         0fab: 00 00 00 00 00 00 00 00 00 00 00 00 00 00 00 f4 [................]
  | | | | |         0fbb: 01 00 04 00 04 74 02 00 00 00 00 00 00 00 00 00 [.....t..........]
  | | | | |         0fcb: 00 00 00 00 00 00 00 00 00 00 00 00 00 00 00 00 [................]
  | | | | |         0fdb: 00 00 00 00 00 00 00 00 00 00 00 f4 01 00 04 00 [................]
  | | | | |         0feb: 04 74 02 00 00 00 00 00 00 00 00 01 00 00 00 00 [.t..............]
  | | | | |         0ffb: 00 00 00 00 00 00 00 00 00 00 00 01 00 00 00 00 [................]
  | | | | |         100b: 00 00 00 03 00 00 00 00 00 00 00 00 00 00 00 ef [................]
  | | | | |         101b: be ad de ef be ad de 00 00 00 00 02 00 00 00 00 [................]
  | | | | |         102b: 00 00 00 00 00 00 00 ef be ad de ef be ad de 00 [................]
  | | | | |         103b: 00 00 00 04 00 00 00 00 00 00 00 00 00 00 00 ef [................]
  | | | | |         104b: be ad de ef be ad de 00 00 00 00 00 00 00 00 00 [................]
  | | | | |         105b: 00 00 00 00 00 00 00 ef be ad de ef be ad de 00 [................]
  | | | | |         106b: 00 00 00 00 00 00 00 00 00 00 00 00 00 00 00 ef [................]
  | | | | |         107b: be ad de ef be ad de 00 00 00 00 03 00 00 00 ef [................]
  | | | | |         108b: be ad de ef be ad de 00 00 00 00 00 00 00 00 00 [................]
  | | | | |         109b: 00 00 00 03 00 00 00 00 00 00 00 00 00 00 00 ef [................]
  | | | | |         10ab: be ad de ef be ad de 00 00 00 00 03 00 00 00 00 [................]
  | | | | |         10bb: 00 00 00 00 00 00 00 00 00 00 00 00 00 00 00 00 [................]
  | | | | |         10cb: 00 00 00 03 00 00 00 00 00 00 00 00 00 00 00 00 [................]
  | | | | |         10db: 00 00 00 00 00 00 00 00 00 00 00 03 00 00 00 00 [................]
  | | | | |         10eb: 00 00 00 00 00 00 00 00 00 00 00 00 00 00 00 87 [................]
  | | | | |         10fb: 00 87 00 87 00 00 00 ff ff ff ff ff ff ff ff 00 [................]
  | | | | |         110b: 00 00 00 00 00 00 00 00 00 00 00 00 00 00 00 00 [................]
  | | | | |         111b: 00 00 00 00 00 00 00 00 00 00 00 00 00 00 00 00 [................]
  | | | | |         112b: 04 00 04 00 04 00 04 00 00 00 00 00 00 00 00 00 [................]
  | | | | |         113b: 00 00 00 00 00 00 00 00 00 00 00 00 00 00 00 00 [................]
  | | | | |         114b: 00 00 00 00 00 00 00 00 04 00 04 00 04 00 04 00 [................]
  | | | | |         115b: 00 00 00 00 00 00 00 00 00 00 00 00 00 00 00 00 [................]
  | | | | |         116b: 00 00 00 00 00 00 00 00 00 00 00 00 00 00 00 00 [................]
  | | | | |         117b: 04 00 04 00 04 00 04 00 00 00 00 00 00 00 00 00 [................]
  | | | | |         118b: 00 00 00 00 00 00 00 00 00 00 00 00 00 00 00 00 [................]
  | | | | |         119b: 00 00 00 00 00 00 00 00 04 00 04 00 04 00 04 00 [................]
  | | | | |         11ab: 00 00 00 00 00 00 00 00 00 00 00 00 00 00 00 00 [................]
  | | | | |         11bb: 00 00 00 00 00 00 00 00 00 00 00 00 00 00 00 00 [................]
  | | | | |         11cb: 04 00 04 00 04 00 04 00 00 00 00 00 00 00 00 28 [...............(]
  | | | | |         11db: 75 1a 56 02 00 00 00 04 00 00 00 00 00 00 00 04 [u.V.............]
  | | | | |         11eb: 00 00 00 00 00 00 00 04 00 00 00 00 00 00 00 00 [................]
  | | | | |         11fb: 00 00 10 00 00 00 00 00 00 00 00 00 00 00 00 00 [................]
  | | | | |         120b: 37 00 00 d8 3a 01 00 00 00 00 00 00 00 00 00 00 [7...:...........]
  | | | | |         121b: 00 00 00 03 00 00 00 53 00 00 00 58 00 03 80 00 [.......S...X....]
  | | | | |         122b: 00 00 00 03 00 00 00 4d 00 00 00 4e 00 00 00 00 [.......M...N....]
  | | | | | + [BinaryData directory, 1536 bytes, Little-endian]
  | | | | | | FNumber = 34
  | | | | | | - Tag 0x0003 (1 bytes, int8u[1]):
  | | | | | |     0c3e: 22                                              ["]
  | | | | | | ExposureTime = 104
  | | | | | | - Tag 0x0004 (1 bytes, int8u[1]):
  | | | | | |     0c3f: 68                                              [h]
  | | | | | | ISO = 88
  | | | | | | - Tag 0x0006 (1 bytes, int8u[1]):
  | | | | | |     0c41: 58                                              [X]
  | | | | | | CameraTemperature = 149
  | | | | | | - Tag 0x001b (1 bytes, int8u[1]):
  | | | | | |     0c56: 95                                              [.]
  | | | | | | FocalLength = 50
  | | | | | | - Tag 0x0023 (2 bytes, int16uRev[1]):
  | | | | | |     0c5e: 00 32                                           [.2]
  | | | | | | CameraOrientation = 0
  | | | | | | - Tag 0x0084 (1 bytes, int8u[1]):
  | | | | | |     0cbf: 00                                              [.]
  | | | | | | FocusDistanceUpper = 87
  | | | | | | - Tag 0x0093 (2 bytes, int16uRev[1]):
  | | | | | |     0cce: 00 57                                           [.W]
  | | | | | | FocusDistanceLower = 73
  | | | | | | - Tag 0x0095 (2 bytes, int16uRev[1]):
  | | | | | |     0cd0: 00 49                                           [.I]
  | | | | | | ColorTemperature = 5200
  | | | | | | - Tag 0x00c7 (2 bytes, int16u[1]):
  | | | | | |     0d02: 50 14                                           [P.]
  | | | | | | LensType = 4156
  | | | | | | - Tag 0x0166 (2 bytes, int16uRev[1]):
  | | | | | |     0da1: 10 3c                                           [.<]
  | | | | | | MinFocalLength = 50
  | | | | | | - Tag 0x0168 (2 bytes, int16uRev[1]):
  | | | | | |     0da3: 00 32                                           [.2]
  | | | | | | MaxFocalLength = 50
  | | | | | | - Tag 0x016a (2 bytes, int16uRev[1]):
  | | | | | |     0da5: 00 32                                           [.2]
  | | | | | | FirmwareVersion = 1.1.1
  | | | | | | - Tag 0x025e (6 bytes, string[6]):
  | | | | | |     0e99: 31 2e 31 2e 31 00                               [1.1.1.]
  | | | | | | FileIndex = 5989
  | | | | | | - Tag 0x02b3 (4 bytes, int32u[1]):
  | | | | | |     0eee: 65 17 00 00                                     [e...]
  | | | | | | DirectoryIndex = 101
  | | | | | | - Tag 0x02bf (4 bytes, int32u[1]):
  | | | | | |     0efa: 65 00 00 00                                     [e...]
  | | | | | | PictureStyleInfo (SubDirectory) -->
  | | | | | | - Tag 0x03cf (561 bytes, int8u[1]):
  | | | | | |     100a: 00 00 00 00 03 00 00 00 00 00 00 00 00 00 00 00 [................]
  | | | | | |     101a: ef be ad de ef be ad de 00 00 00 00 02 00 00 00 [................]
  | | | | | |     102a: 00 00 00 00 00 00 00 00 ef be ad de ef be ad de [................]
  | | | | | |     103a: 00 00 00 00 04 00 00 00 00 00 00 00 00 00 00 00 [................]
  | | | | | |     104a: ef be ad de ef be ad de 00 00 00 00 00 00 00 00 [................]
  | | | | | |     105a: 00 00 00 00 00 00 00 00 ef be ad de ef be ad de [................]
  | | | | | |     106a: 00 00 00 00 00 00 00 00 00 00 00 00 00 00 00 00 [................]
  | | | | | |     107a: ef be ad de ef be ad de 00 00 00 00 03 00 00 00 [................]
  | | | | | |     108a: ef be ad de ef be ad de 00 00 00 00 00 00 00 00 [................]
  | | | | | |     109a: 00 00 00 00 03 00 00 00 00 00 00 00 00 00 00 00 [................]
  | | | | | |     10aa: ef be ad de ef be ad de 00 00 00 00 03 00 00 00 [................]
  | | | | | |     10ba: 00 00 00 00 00 00 00 00 00 00 00 00 00 00 00 00 [................]
  | | | | | |     10ca: 00 00 00 00 03 00 00 00 00 00 00 00 00 00 00 00 [................]
  | | | | | |     10da: 00 00 00 00 00 00 00 00 00 00 00 00 03 00 00 00 [................]
  | | | | | |     10ea: 00 00 00 00 00 00 00 00 00 00 00 00 00 00 00 00 [................]
  | | | | | |     10fa: 87 00 87 00 87 00 00 00 ff ff ff ff ff ff ff ff [................]
  | | | | | |     110a: 00 00 00 00 00 00 00 00 00 00 00 00 00 00 00 00 [................]
  | | | | | |     111a: 00 00 00 00 00 00 00 00 00 00 00 00 00 00 00 00 [................]
  | | | | | |     112a: 00 04 00 04 00 04 00 04 00 00 00 00 00 00 00 00 [................]
  | | | | | |     113a: 00 00 00 00 00 00 00 00 00 00 00 00 00 00 00 00 [................]
  | | | | | |     114a: 00 00 00 00 00 00 00 00 00 04 00 04 00 04 00 04 [................]
  | | | | | |     115a: 00 00 00 00 00 00 00 00 00 00 00 00 00 00 00 00 [................]
  | | | | | |     116a: 00 00 00 00 00 00 00 00 00 00 00 00 00 00 00 00 [................]
  | | | | | |     117a: 00 04 00 04 00 04 00 04 00 00 00 00 00 00 00 00 [................]
  | | | | | |     118a: 00 00 00 00 00 00 00 00 00 00 00 00 00 00 00 00 [................]
  | | | | | |     119a: 00 00 00 00 00 00 00 00 00 04 00 04 00 04 00 04 [................]
  | | | | | |     11aa: 00 00 00 00 00 00 00 00 00 00 00 00 00 00 00 00 [................]
  | | | | | |     11ba: 00 00 00 00 00 00 00 00 00 00 00 00 00 00 00 00 [................]
  | | | | | |     11ca: 00 04 00 04 00 04 00 04 00 00 00 00 00 00 00 00 [................]
  | | | | | |     11da: 28 75 1a 56 02 00 00 00 04 00 00 00 00 00 00 00 [(u.V............]
  | | | | | |     11ea: 04 00 00 00 00 00 00 00 04 00 00 00 00 00 00 00 [................]
  | | | | | |     11fa: 00 00 00 10 00 00 00 00 00 00 00 00 00 00 00 00 [................]
  | | | | | |     120a: 00 37 00 00 d8 3a 01 00 00 00 00 00 00 00 00 00 [.7...:..........]
  | | | | | |     121a: 00 00 00 00 03 00 00 00 53 00 00 00 58 00 03 80 [........S...X...]
  | | | | | |     122a: 00 00 00 00 03 00 00 00 4d 00 00 00 4e 00 00 00 [........M...N...]
  | | | | | |     123a: 00                                              [.]
  | | | | | | + [BinaryData directory, 561 bytes, Little-endian]
  | | | | | | | ContrastStandard = 0
  | | | | | | | - Tag 0x0000 (4 bytes, int32s[1]):
  | | | | | | |     100a: 00 00 00 00                                     [....]
  | | | | | | | SharpnessStandard = 3
  | | | | | | | - Tag 0x0004 (4 bytes, int32s[1]):
  | | | | | | |     100e: 03 00 00 00                                     [....]
  | | | | | | | SaturationStandard = 0
  | | | | | | | - Tag 0x0008 (4 bytes, int32s[1]):
  | | | | | | |     1012: 00 00 00 00                                     [....]
  | | | | | | | ColorToneStandard = 0
  | | | | | | | - Tag 0x000c (4 bytes, int32s[1]):
  | | | | | | |     1016: 00 00 00 00                                     [....]
  | | | | | | | FilterEffectStandard = -559038737
  | | | | | | | - Tag 0x0010 (4 bytes, int32s[1]):
  | | | | | | |     101a: ef be ad de                                     [....]
  | | | | | | | ToningEffectStandard = -559038737
  | | | | | | | - Tag 0x0014 (4 bytes, int32s[1]):
  | | | | | | |     101e: ef be ad de                                     [....]
  | | | | | | | ContrastPortrait = 0
  | | | | | | | - Tag 0x0018 (4 bytes, int32s[1]):
  | | | | | | |     1022: 00 00 00 00                                     [....]
  | | | | | | | SharpnessPortrait = 2
  | | | | | | | - Tag 0x001c (4 bytes, int32s[1]):
  | | | | | | |     1026: 02 00 00 00                                     [....]
  | | | | | | | SaturationPortrait = 0
  | | | | | | | - Tag 0x0020 (4 bytes, int32s[1]):
  | | | | | | |     102a: 00 00 00 00                                     [....]
  | | | | | | | ColorTonePortrait = 0
  | | | | | | | - Tag 0x0024 (4 bytes, int32s[1]):
  | | | | | | |     102e: 00 00 00 00                                     [....]
  | | | | | | | FilterEffectPortrait = -559038737
  | | | | | | | - Tag 0x0028 (4 bytes, int32s[1]):
  | | | | | | |     1032: ef be ad de                                     [....]
  | | | | | | | ToningEffectPortrait = -559038737
  | | | | | | | - Tag 0x002c (4 bytes, int32s[1]):
  | | | | | | |     1036: ef be ad de                                     [....]
  | | | | | | | ContrastLandscape = 0
  | | | | | | | - Tag 0x0030 (4 bytes, int32s[1]):
  | | | | | | |     103a: 00 00 00 00                                     [....]
  | | | | | | | SharpnessLandscape = 4
  | | | | | | | - Tag 0x0034 (4 bytes, int32s[1]):
  | | | | | | |     103e: 04 00 00 00                                     [....]
  | | | | | | | SaturationLandscape = 0
  | | | | | | | - Tag 0x0038 (4 bytes, int32s[1]):
  | | | | | | |     1042: 00 00 00 00                                     [....]
  | | | | | | | ColorToneLandscape = 0
  | | | | | | | - Tag 0x003c (4 bytes, int32s[1]):
  | | | | | | |     1046: 00 00 00 00                                     [....]
  | | | | | | | FilterEffectLandscape = -559038737
  | | | | | | | - Tag 0x0040 (4 bytes, int32s[1]):
  | | | | | | |     104a: ef be ad de                                     [....]
  | | | | | | | ToningEffectLandscape = -559038737
  | | | | | | | - Tag 0x0044 (4 bytes, int32s[1]):
  | | | | | | |     104e: ef be ad de                                     [....]
  | | | | | | | ContrastNeutral = 0
  | | | | | | | - Tag 0x0048 (4 bytes, int32s[1]):
  | | | | | | |     1052: 00 00 00 00                                     [....]
  | | | | | | | SharpnessNeutral = 0
  | | | | | | | - Tag 0x004c (4 bytes, int32s[1]):
  | | | | | | |     1056: 00 00 00 00                                     [....]
  | | | | | | | SaturationNeutral = 0
  | | | | | | | - Tag 0x0050 (4 bytes, int32s[1]):
  | | | | | | |     105a: 00 00 00 00                                     [....]
  | | | | | | | ColorToneNeutral = 0
  | | | | | | | - Tag 0x0054 (4 bytes, int32s[1]):
  | | | | | | |     105e: 00 00 00 00                                     [....]
  | | | | | | | FilterEffectNeutral = -559038737
  | | | | | | | - Tag 0x0058 (4 bytes, int32s[1]):
  | | | | | | |     1062: ef be ad de                                     [....]
  | | | | | | | ToningEffectNeutral = -559038737
  | | | | | | | - Tag 0x005c (4 bytes, int32s[1]):
  | | | | | | |     1066: ef be ad de                                     [....]
  | | | | | | | ContrastFaithful = 0
  | | | | | | | - Tag 0x0060 (4 bytes, int32s[1]):
  | | | | | | |     106a: 00 00 00 00                                     [....]
  | | | | | | | SharpnessFaithful = 0
  | | | | | | | - Tag 0x0064 (4 bytes, int32s[1]):
  | | | | | | |     106e: 00 00 00 00                                     [....]
  | | | | | | | SaturationFaithful = 0
  | | | | | | | - Tag 0x0068 (4 bytes, int32s[1]):
  | | | | | | |     1072: 00 00 00 00                                     [....]
  | | | | | | | ColorToneFaithful = 0
  | | | | | | | - Tag 0x006c (4 bytes, int32s[1]):
  | | | | | | |     1076: 00 00 00 00                                     [....]
  | | | | | | | FilterEffectFaithful = -559038737
  | | | | | | | - Tag 0x0070 (4 bytes, int32s[1]):
  | | | | | | |     107a: ef be ad de                                     [....]
  | | | | | | | ToningEffectFaithful = -559038737
  | | | | | | | - Tag 0x0074 (4 bytes, int32s[1]):
  | | | | | | |     107e: ef be ad de                                     [....]
  | | | | | | | ContrastMonochrome = 0
  | | | | | | | - Tag 0x0078 (4 bytes, int32s[1]):
  | | | | | | |     1082: 00 00 00 00                                     [....]
  | | | | | | | SharpnessMonochrome = 3
  | | | | | | | - Tag 0x007c (4 bytes, int32s[1]):
  | | | | | | |     1086: 03 00 00 00                                     [....]
  | | | | | | | SaturationMonochrome = -559038737
  | | | | | | | - Tag 0x0080 (4 bytes, int32s[1]):
  | | | | | | |     108a: ef be ad de                                     [....]
  | | | | | | | ColorToneMonochrome = -559038737
  | | | | | | | - Tag 0x0084 (4 bytes, int32s[1]):
  | | | | | | |     108e: ef be ad de                                     [....]
  | | | | | | | FilterEffectMonochrome = 0
  | | | | | | | - Tag 0x0088 (4 bytes, int32s[1]):
  | | | | | | |     1092: 00 00 00 00                                     [....]
  | | | | | | | ToningEffectMonochrome = 0
  | | | | | | | - Tag 0x008c (4 bytes, int32s[1]):
  | | | | | | |     1096: 00 00 00 00                                     [....]
  | | | | | | | ContrastAuto = 0
  | | | | | | | - Tag 0x0090 (4 bytes, int32s[1]):
  | | | | | | |     109a: 00 00 00 00                                     [....]
  | | | | | | | SharpnessAuto = 3
  | | | | | | | - Tag 0x0094 (4 bytes, int32s[1]):
  | | | | | | |     109e: 03 00 00 00                                     [....]
  | | | | | | | SaturationAuto = 0
  | | | | | | | - Tag 0x0098 (4 bytes, int32s[1]):
  | | | | | | |     10a2: 00 00 00 00                                     [....]
  | | | | | | | ColorToneAuto = 0
  | | | | | | | - Tag 0x009c (4 bytes, int32s[1]):
  | | | | | | |     10a6: 00 00 00 00                                     [....]
  | | | | | | | FilterEffectAuto = -559038737
  | | | | | | | - Tag 0x00a0 (4 bytes, int32s[1]):
  | | | | | | |     10aa: ef be ad de                                     [....]
  | | | | | | | ToningEffectAuto = -559038737
  | | | | | | | - Tag 0x00a4 (4 bytes, int32s[1]):
  | | | | | | |     10ae: ef be ad de                                     [....]
  | | | | | | | ContrastUserDef1 = 0
  | | | | | | | - Tag 0x00a8 (4 bytes, int32s[1]):
  | | | | | | |     10b2: 00 00 00 00                                     [....]
  | | | | | | | SharpnessUserDef1 = 3
  | | | | | | | - Tag 0x00ac (4 bytes, int32s[1]):
  | | | | | | |     10b6: 03 00 00 00                                     [....]
  | | | | | | | SaturationUserDef1 = 0
  | | | | | | | - Tag 0x00b0 (4 bytes, int32s[1]):
  | | | | | | |     10ba: 00 00 00 00                                     [....]
  | | | | | | | ColorToneUserDef1 = 0
  | | | | | | | - Tag 0x00b4 (4 bytes, int32s[1]):
  | | | | | | |     10be: 00 00 00 00                                     [....]
  | | | | | | | FilterEffectUserDef1 = 0
  | | | | | | | - Tag 0x00b8 (4 bytes, int32s[1]):
  | | | | | | |     10c2: 00 00 00 00                                     [....]
  | | | | | | | ToningEffectUserDef1 = 0
  | | | | | | | - Tag 0x00bc (4 bytes, int32s[1]):
  | | | | | | |     10c6: 00 00 00 00                                     [....]
  | | | | | | | ContrastUserDef2 = 0
  | | | | | | | - Tag 0x00c0 (4 bytes, int32s[1]):
  | | | | | | |     10ca: 00 00 00 00                                     [....]
  | | | | | | | SharpnessUserDef2 = 3
  | | | | | | | - Tag 0x00c4 (4 bytes, int32s[1]):
  | | | | | | |     10ce: 03 00 00 00                                     [....]
  | | | | | | | SaturationUserDef2 = 0
  | | | | | | | - Tag 0x00c8 (4 bytes, int32s[1]):
  | | | | | | |     10d2: 00 00 00 00                                     [....]
  | | | | | | | ColorToneUserDef2 = 0
  | | | | | | | - Tag 0x00cc (4 bytes, int32s[1]):
  | | | | | | |     10d6: 00 00 00 00                                     [....]
  | | | | | | | FilterEffectUserDef2 = 0
  | | | | | | | - Tag 0x00d0 (4 bytes, int32s[1]):
  | | | | | | |     10da: 00 00 00 00                                     [....]
  | | | | | | | ToningEffectUserDef2 = 0
  | | | | | | | - Tag 0x00d4 (4 bytes, int32s[1]):
  | | | | | | |     10de: 00 00 00 00                                     [....]
  | | | | | | | ContrastUserDef3 = 0
  | | | | | | | - Tag 0x00d8 (4 bytes, int32s[1]):
  | | | | | | |     10e2: 00 00 00 00                                     [....]
  | | | | | | | SharpnessUserDef3 = 3
  | | | | | | | - Tag 0x00dc (4 bytes, int32s[1]):
  | | | | | | |     10e6: 03 00 00 00                                     [....]
  | | | | | | | SaturationUserDef3 = 0
  | | | | | | | - Tag 0x00e0 (4 bytes, int32s[1]):
  | | | | | | |     10ea: 00 00 00 00                                     [....]
  | | | | | | | ColorToneUserDef3 = 0
  | | | | | | | - Tag 0x00e4 (4 bytes, int32s[1]):
  | | | | | | |     10ee: 00 00 00 00                                     [....]
  | | | | | | | FilterEffectUserDef3 = 0
  | | | | | | | - Tag 0x00e8 (4 bytes, int32s[1]):
  | | | | | | |     10f2: 00 00 00 00                                     [....]
  | | | | | | | ToningEffectUserDef3 = 0
  | | | | | | | - Tag 0x00ec (4 bytes, int32s[1]):
  | | | | | | |     10f6: 00 00 00 00                                     [....]
  | | | | | | | UserDef1PictureStyle = 135
  | | | | | | | - Tag 0x00f0 (2 bytes, int16u[1]):
  | | | | | | |     10fa: 87 00                                           [..]
  | | | | | | | UserDef2PictureStyle = 135
  | | | | | | | - Tag 0x00f2 (2 bytes, int16u[1]):
  | | | | | | |     10fc: 87 00                                           [..]
  | | | | | | | UserDef3PictureStyle = 135
  | | | | | | | - Tag 0x00f4 (2 bytes, int16u[1]):
  | | | | | | |     10fe: 87 00                                           [..]
  | | | | | 8)  CanonModelID = 2147484453
  | | | | |     - Tag 0x0010 (4 bytes, int32u[1]):
  | | | | |         09b7: 25 03 00 80                                     [%...]
  | | | | | 9)  ThumbnailImageValidArea = 0 159 7 112
  | | | | |     - Tag 0x0013 (8 bytes, int16u[4]):
  | | | | |         123b: 00 00 9f 00 07 00 70 00                         [......p.]
  | | | | | 10) Canon_0x0019 = 1
  | | | | |     - Tag 0x0019 (2 bytes, int16u[1]):
  | | | | |         09cf: 01 00                                           [..]
  | | | | | 11) CanonAFInfo2 (SubDirectory) -->
  | | | | |     - Tag 0x0026 (278 bytes, int16u[139] read as undef[278]):
  | | | | |         1243: 16 01 04 00 1f 00 13 00 60 15 40 0e 60 15 40 0e [........`.@.`.@.]
  | | | | |         1253: e5 00 e5 00 e5 00 e5 00 e5 00 e5 00 e5 00 e5 00 [................]
  | | | | |         1263: e5 00 e5 00 e5 00 e5 00 e5 00 e5 00 e5 00 e5 00 [................]
  | | | | |         1273: e5 00 e5 00 e5 00 00 00 00 00 00 00 00 00 00 00 [................]
  | | | | |         1283: 00 00 00 00 00 00 00 00 00 00 00 00 00 00 15 01 [................]
  | | | | |         1293: 15 01 15 01 15 01 15 01 15 01 15 01 15 01 15 01 [................]
  | | | | |         12a3: 15 01 15 01 15 01 15 01 15 01 15 01 15 01 15 01 [................]
  | | | | |         12b3: 15 01 15 01 00 00 00 00 00 00 00 00 00 00 00 00 [................]
  | | | | |         12c3: 00 00 00 00 00 00 00 00 00 00 00 00 8d fa 7f fc [................]
  | | | | |         12d3: 7f fc 7f fc 71 fe 71 fe 71 fe 00 00 00 00 00 00 [....q.q.q.......]
  | | | | |         12e3: 00 00 00 00 8f 01 8f 01 8f 01 81 03 81 03 81 03 [................]
  | | | | |         12f3: 73 05 00 00 00 00 00 00 00 00 00 00 00 00 00 00 [s...............]
  | | | | |         1303: 00 00 00 00 00 00 00 00 00 00 00 00 91 01 00 00 [................]
  | | | | |         1313: 6f fe 91 01 00 00 6f fe f3 02 91 01 00 00 6f fe [o.....o.......o.]
  | | | | |         1323: 0d fd 91 01 00 00 6f fe 91 01 00 00 6f fe 00 00 [......o.....o...]
  | | | | |         1333: 00 00 00 00 00 00 00 00 00 00 00 00 00 00 00 00 [................]
  | | | | |         1343: 00 00 00 00 00 00 00 00 00 00 04 00 ff ff 07 00 [................]
  | | | | |         1353: 00 00 00 00 ff ff                               [......]
  | | | | | + [SerialData directory, 278 bytes]
  | | | | | | 0)  AFInfoSize = 278
  | | | | | |     - Tag 0x0000 (2 bytes, int16u[1]):
  | | | | | |         1243: 16 01                                           [..]
  | | | | | | 1)  AFAreaMode = 4
  | | | | | |     - Tag 0x0001 (2 bytes, int16u[1]):
  | | | | | |         1245: 04 00                                           [..]
  | | | | | | 2)  NumAFPoints = 31
  | | | | | |     - Tag 0x0002 (2 bytes, int16u[1]):
  | | | | | |         1247: 1f 00                                           [..]
  | | | | | | 3)  ValidAFPoints = 19
  | | | | | |     - Tag 0x0003 (2 bytes, int16u[1]):
  | | | | | |         1249: 13 00                                           [..]
  | | | | | | 4)  CanonImageWidth = 5472
  | | | | | |     - Tag 0x0004 (2 bytes, int16u[1]):
  | | | | | |         124b: 60 15                                           [`.]
  | | | | | | 5)  CanonImageHeight = 3648
  | | | | | |     - Tag 0x0005 (2 bytes, int16u[1]):
  | | | | | |         124d: 40 0e                                           [@.]
  | | | | | | 6)  AFImageWidth = 5472
  | | | | | |     - Tag 0x0006 (2 bytes, int16u[1]):
  | | | | | |         124f: 60 15                                           [`.]
  | | | | | | 7)  AFImageHeight = 3648
  | | | | | |     - Tag 0x0007 (2 bytes, int16u[1]):
  | | | | | |         1251: 40 0e                                           [@.]
  | | | | | | 8)  AFAreaWidths = 229 229 229 229 229 229 229 229 229 229 229 229 229 229 229 229 229 229 229 0 0 0 0 0 0 0 0 0 0 0 0
  | | | | | |     - Tag 0x0008 (62 bytes, int16s[31]):
  | | | | | |         1253: e5 00 e5 00 e5 00 e5 00 e5 00 e5 00 e5 00 e5 00 [................]
  | | | | | |         1263: e5 00 e5 00 e5 00 e5 00 e5 00 e5 00 e5 00 e5 00 [................]
  | | | | | |         1273: e5 00 e5 00 e5 00 00 00 00 00 00 00 00 00 00 00 [................]
  | | | | | |         1283: 00 00 00 00 00 00 00 00 00 00 00 00 00 00       [..............]
  | | | | | | 9)  AFAreaHeights = 277 277 277 277 277 277 277 277 277 277 277 277 277 277 277 277 277 277 277 0 0 0 0 0 0 0 0 0 0 0 0
  | | | | | |     - Tag 0x0009 (62 bytes, int16s[31]):
  | | | | | |         1291: 15 01 15 01 15 01 15 01 15 01 15 01 15 01 15 01 [................]
  | | | | | |         12a1: 15 01 15 01 15 01 15 01 15 01 15 01 15 01 15 01 [................]
  | | | | | |         12b1: 15 01 15 01 15 01 00 00 00 00 00 00 00 00 00 00 [................]
  | | | | | |         12c1: 00 00 00 00 00 00 00 00 00 00 00 00 00 00       [..............]
  | | | | | | 10) AFAreaXPositions = -1395 -897 -897 -897 -399 -399 -399 0 0 0 0 0 399 399 399 897 897 897 1395 0 0 0 0 0 0 0 0 0 0 0 0
  | | | | | |     - Tag 0x000a (62 bytes, int16s[31]):
  | | | | | |         12cf: 8d fa 7f fc 7f fc 7f fc 71 fe 71 fe 71 fe 00 00 [........q.q.q...]
  | | | | | |         12df: 00 00 00 00 00 00 00 00 8f 01 8f 01 8f 01 81 03 [................]
  | | | | | |         12ef: 81 03 81 03 73 05 00 00 00 00 00 00 00 00 00 00 [....s...........]
  | | | | | |         12ff: 00 00 00 00 00 00 00 00 00 00 00 00 00 00       [..............]
  | | | | | | 11) AFAreaYPositions = 0 401 0 -401 401 0 -401 755 401 0 -401 -755 401 0 -401 401 0 -401 0 0 0 0 0 0 0 0 0 0 0 0 0
  | | | | | |     - Tag 0x000b (62 bytes, int16s[31]):
  | | | | | |         130d: 00 00 91 01 00 00 6f fe 91 01 00 00 6f fe f3 02 [......o.....o...]
  | | | | | |         131d: 91 01 00 00 6f fe 0d fd 91 01 00 00 6f fe 91 01 [....o.......o...]
  | | | | | |         132d: 00 00 6f fe 00 00 00 00 00 00 00 00 00 00 00 00 [..o.............]
  | | | | | |         133d: 00 00 00 00 00 00 00 00 00 00 00 00 00 00       [..............]
  | | | | | | 12) AFPointsInFocus = 0 4
  | | | | | |     - Tag 0x000c (4 bytes, int16s[2]):
  | | | | | |         134b: 00 00 04 00                                     [....]
  | | | | | | 13) AFPointsSelected = -1 7
  | | | | | |     - Tag 0x000d (4 bytes, int16s[2]):
  | | | | | |         134f: ff ff 07 00                                     [....]
  | | | | | 12) TimeInfo (SubDirectory) -->
  | | | | |     - Tag 0x0035 (16 bytes, int32u[4] read as undef[16]):
  | | | | |         1359: 10 00 00 00 00 00 00 00 14 00 00 00 00 00 00 00 [................]
  | | | | | + [BinaryData directory, 16 bytes, Little-endian]
  | | | | | | TimeZone = 0
  | | | | | | - Tag 0x0001 (4 bytes, int32s[1]):
  | | | | | |     135d: 00 00 00 00                                     [....]
  | | | | | | TimeZoneCity = 20
  | | | | | | - Tag 0x0002 (4 bytes, int32s[1]):
  | | | | | |     1361: 14 00 00 00                                     [....]
  | | | | | | DaylightSavings = 0
  | | | | | | - Tag 0x0003 (4 bytes, int32s[1]):
  | | | | | |     1365: 00 00 00 00                                     [....]
  | | | | | 13) CanonFileInfo (SubDirectory) -->
  | | | | |     - Tag 0x0093 (64 bytes, int16u[32] read as undef[64]):
  | | | | |         1369: 40 00 00 00 00 00 00 00 00 00 00 00 00 00 00 00 [@...............]
  | | | | |         1379: ff ff 00 00 00 00 00 00 00 00 00 00 ff ff ff ff [................]
  | | | | |         1389: a6 00 ff ff 00 00 00 00 57 00 49 00 00 00 00 00 [........W.I.....]
  | | | | |         1399: 00 00 00 00 ff ff 00 00 00 00 00 00 ff ff ff ff [................]
  | | | | | + [BinaryData directory, 64 bytes, Little-endian]
  | | | | | | BracketMode = 0
  | | | | | | - Tag 0x0003 (2 bytes, int16s[1]):
  | | | | | |     136f: 00 00                                           [..]
  | | | | | | BracketValue = 0
  | | | | | | - Tag 0x0004 (2 bytes, int16s[1]):
  | | | | | |     1371: 00 00                                           [..]
  | | | | | | BracketShotNumber = 0
  | | | | | | - Tag 0x0005 (2 bytes, int16s[1]):
  | | | | | |     1373: 00 00                                           [..]
  | | | | | | RawJpgQuality = 0
  | | | | | | - Tag 0x0006 (2 bytes, int16s[1]):
  | | | | | |     1375: 00 00                                           [..]
  | | | | | | RawJpgSize = 0
  | | | | | | - Tag 0x0007 (2 bytes, int16s[1]):
  | | | | | |     1377: 00 00                                           [..]
  | | | | | | LongExposureNoiseReduction2 = -1
  | | | | | | - Tag 0x0008 (2 bytes, int16s[1]):
  | | | | | |     1379: ff ff                                           [..]
  | | | | | | WBBracketMode = 0
  | | | | | | - Tag 0x0009 (2 bytes, int16s[1]):
  | | | | | |     137b: 00 00                                           [..]
  | | | | | | WBBracketValueAB = 0
  | | | | | | - Tag 0x000c (2 bytes, int16s[1]):
  | | | | | |     1381: 00 00                                           [..]
  | | | | | | WBBracketValueGM = 0
  | | | | | | - Tag 0x000d (2 bytes, int16s[1]):
  | | | | | |     1383: 00 00                                           [..]
  | | | | | | FilterEffect = -1
  | | | | | | - Tag 0x000e (2 bytes, int16s[1]):
  | | | | | |     1385: ff ff                                           [..]
  | | | | | | ToningEffect = -1
  | | | | | | - Tag 0x000f (2 bytes, int16s[1]):
  | | | | | |     1387: ff ff                                           [..]
  | | | | | | LiveViewShooting = 0
  | | | | | | - Tag 0x0013 (2 bytes, int16s[1]):
  | | | | | |     138f: 00 00                                           [..]
  | | | | | | FocusDistanceUpper = 87
  | | | | | | - Tag 0x0014 (2 bytes, int16u[1]):
  | | | | | |     1391: 57 00                                           [W.]
  | | | | | | FocusDistanceLower = 73
  | | | | | | - Tag 0x0015 (2 bytes, int16u[1]):
  | | | | | |     1393: 49 00                                           [I.]
  | | | | | | ShutterMode = 0
  | | | | | | - Tag 0x0017 (2 bytes, int16s[1]):
  | | | | | |     1397: 00 00                                           [..]
  | | | | | | FlashExposureLock = 0
  | | | | | | - Tag 0x0019 (2 bytes, int16s[1]):
  | | | | | |     139b: 00 00                                           [..]
  | | | | | 14) LensModel = EF50mm f/1.8 STM
  | | | | |     - Tag 0x0095 (74 bytes, string[74]):
  | | | | |         13a9: 45 46 35 30 6d 6d 20 66 2f 31 2e 38 20 53 54 4d [EF50mm f/1.8 STM]
  | | | | |         13b9: 00 2d 35 2e 36 20 49 53 20 53 54 4d 00 00 00 00 [.-5.6 IS STM....]
  | | | | |         13c9: 00 00 00 00 00 00 00 00 00 00 00 00 00 00 00 00 [................]
  | | | | |         13d9: 00 00 00 00 00 00 00 00 00 00 00 00 00 00 00 00 [................]
  | | | | |         13e9: 00 00 00 00 00 00 55 55 64 17                   [......UUd.]
  | | | | | 15) InternalSerialNumber = FA0381304
  | | | | |     - Tag 0x0096 (16 bytes, string[16]):
  | | | | |         13f3: 46 41 30 33 38 31 33 30 34 00 00 00 00 00 00 00 [FA0381304.......]
  | | | | | 16) DustRemovalData = 
  | | | | |     - Tag 0x0097 (1024 bytes, undef[1024]):
  | | | | |         1403: 00 00 00 00 00 00 00 00 00 00 00 00 00 00 00 00 [................]
  | | | | |         1413: 00 00 00 00 00 00 00 00 00 00 00 00 00 00 00 00 [................]
  | | | | |         1423: 00 00 00 00 00 00 00 00 00 00 00 00 00 00 00 00 [................]
  | | | | |         1433: 00 00 00 00 00 00 00 00 00 00 00 00 00 00 00 00 [................]
  | | | | |         1443: 00 00 00 00 00 00 00 00 00 00 00 00 00 00 00 00 [................]
  | | | | |         1453: 00 00 00 00 00 00 00 00 00 00 00 00 00 00 00 00 [................]
  | | | | |         1463: 00 00 00 00 00 00 00 00 00 00 00 00 00 00 00 00 [................]
  | | | | |         1473: 00 00 00 00 00 00 00 00 00 00 00 00 00 00 00 00 [................]
  | | | | |         1483: 00 00 00 00 00 00 00 00 00 00 00 00 00 00 00 00 [................]
  | | | | |         1493: 00 00 00 00 00 00 00 00 00 00 00 00 00 00 00 00 [................]
  | | | | |         14a3: 00 00 00 00 00 00 00 00 00 00 00 00 00 00 00 00 [................]
  | | | | |         14b3: 00 00 00 00 00 00 00 00 00 00 00 00 00 00 00 00 [................]
  | | | | |         14c3: 00 00 00 00 00 00 00 00 00 00 00 00 00 00 00 00 [................]
  | | | | |         14d3: 00 00 00 00 00 00 00 00 00 00 00 00 00 00 00 00 [................]
  | | | | |         14e3: 00 00 00 00 00 00 00 00 00 00 00 00 00 00 00 00 [................]
  | | | | |         14f3: 00 00 00 00 00 00 00 00 00 00 00 00 00 00 00 00 [................]
  | | | | |         1503: 00 00 00 00 00 00 00 00 00 00 00 00 00 00 00 00 [................]
  | | | | |         1513: 00 00 00 00 00 00 00 00 00 00 00 00 00 00 00 00 [................]
  | | | | |         1523: 00 00 00 00 00 00 00 00 00 00 00 00 00 00 00 00 [................]
  | | | | |         1533: 00 00 00 00 00 00 00 00 00 00 00 00 00 00 00 00 [................]
  | | | | |         1543: 00 00 00 00 00 00 00 00 00 00 00 00 00 00 00 00 [................]
  | | | | |         1553: 00 00 00 00 00 00 00 00 00 00 00 00 00 00 00 00 [................]
  | | | | |         1563: 00 00 00 00 00 00 00 00 00 00 00 00 00 00 00 00 [................]
  | | | | |         1573: 00 00 00 00 00 00 00 00 00 00 00 00 00 00 00 00 [................]
  | | | | |         1583: 00 00 00 00 00 00 00 00 00 00 00 00 00 00 00 00 [................]
  | | | | |         1593: 00 00 00 00 00 00 00 00 00 00 00 00 00 00 00 00 [................]
  | | | | |         15a3: 00 00 00 00 00 00 00 00 00 00 00 00 00 00 00 00 [................]
  | | | | |         15b3: 00 00 00 00 00 00 00 00 00 00 00 00 00 00 00 00 [................]
  | | | | |         15c3: 00 00 00 00 00 00 00 00 00 00 00 00 00 00 00 00 [................]
  | | | | |         15d3: 00 00 00 00 00 00 00 00 00 00 00 00 00 00 00 00 [................]
  | | | | |         15e3: 00 00 00 00 00 00 00 00 00 00 00 00 00 00 00 00 [................]
  | | | | |         15f3: 00 00 00 00 00 00 00 00 00 00 00 00 00 00 00 00 [................]
  | | | | |         1603: 00 00 00 00 00 00 00 00 00 00 00 00 00 00 00 00 [................]
  | | | | |         1613: 00 00 00 00 00 00 00 00 00 00 00 00 00 00 00 00 [................]
  | | | | |         1623: 00 00 00 00 00 00 00 00 00 00 00 00 00 00 00 00 [................]
  | | | | |         1633: 00 00 00 00 00 00 00 00 00 00 00 00 00 00 00 00 [................]
  | | | | |         1643: 00 00 00 00 00 00 00 00 00 00 00 00 00 00 00 00 [................]
  | | | | |         1653: 00 00 00 00 00 00 00 00 00 00 00 00 00 00 00 00 [................]
  | | | | |         1663: 00 00 00 00 00 00 00 00 00 00 00 00 00 00 00 00 [................]
  | | | | |         1673: 00 00 00 00 00 00 00 00 00 00 00 00 00 00 00 00 [................]
  | | | | |         1683: 00 00 00 00 00 00 00 00 00 00 00 00 00 00 00 00 [................]
  | | | | |         1693: 00 00 00 00 00 00 00 00 00 00 00 00 00 00 00 00 [................]
  | | | | |         16a3: 00 00 00 00 00 00 00 00 00 00 00 00 00 00 00 00 [................]
  | | | | |         16b3: 00 00 00 00 00 00 00 00 00 00 00 00 00 00 00 00 [................]
  | | | | |         16c3: 00 00 00 00 00 00 00 00 00 00 00 00 00 00 00 00 [................]
  | | | | |         16d3: 00 00 00 00 00 00 00 00 00 00 00 00 00 00 00 00 [................]
  | | | | |         16e3: 00 00 00 00 00 00 00 00 00 00 00 00 00 00 00 00 [................]
  | | | | |         16f3: 00 00 00 00 00 00 00 00 00 00 00 00 00 00 00 00 [................]
  | | | | |         1703: 00 00 00 00 00 00 00 00 00 00 00 00 00 00 00 00 [................]
  | | | | |         1713: 00 00 00 00 00 00 00 00 00 00 00 00 00 00 00 00 [................]
  | | | | |         1723: 00 00 00 00 00 00 00 00 00 00 00 00 00 00 00 00 [................]
  | | | | |         1733: 00 00 00 00 00 00 00 00 00 00 00 00 00 00 00 00 [................]
  | | | | |         1743: 00 00 00 00 00 00 00 00 00 00 00 00 00 00 00 00 [................]
  | | | | |         1753: 00 00 00 00 00 00 00 00 00 00 00 00 00 00 00 00 [................]
  | | | | |         1763: 00 00 00 00 00 00 00 00 00 00 00 00 00 00 00 00 [................]
  | | | | |         1773: 00 00 00 00 00 00 00 00 00 00 00 00 00 00 00 00 [................]
  | | | | |         1783: 00 00 00 00 00 00 00 00 00 00 00 00 00 00 00 00 [................]
  | | | | |         1793: 00 00 00 00 00 00 00 00 00 00 00 00 00 00 00 00 [................]
  | | | | |         17a3: 00 00 00 00 00 00 00 00 00 00 00 00 00 00 00 00 [................]
  | | | | |         17b3: 00 00 00 00 00 00 00 00 00 00 00 00 00 00 00 00 [................]
  | | | | |         17c3: 00 00 00 00 00 00 00 00 00 00 00 00 00 00 00 00 [................]
  | | | | |         17d3: 00 00 00 00 00 00 00 00 00 00 00 00 00 00 00 00 [................]
  | | | | |         17e3: 00 00 00 00 00 00 00 00 00 00 00 00 00 00 00 00 [................]
  | | | | |         17f3: 00 00 00 00 00 00 00 00 00 00 00 00 00 00 00 00 [................]
  | | | | | 17) CropInfo (SubDirectory) -->
  | | | | |     - Tag 0x0098 (8 bytes, int16u[4] read as undef[8]):
  | | | | |         1803: 00 00 00 00 00 00 00 00                         [........]
  | | | | | + [BinaryData directory, 8 bytes, Little-endian]
  | | | | | | CropLeftMargin = 0
  | | | | | | - Tag 0x0000 (2 bytes, int16u[1]):
  | | | | | |     1803: 00 00                                           [..]
  | | | | | | CropRightMargin = 0
  | | | | | | - Tag 0x0001 (2 bytes, int16u[1]):
  | | | | | |     1805: 00 00                                           [..]
  | | | | | | CropTopMargin = 0
  | | | | | | - Tag 0x0002 (2 bytes, int16u[1]):
  | | | | | |     1807: 00 00                                           [..]
  | | | | | | CropBottomMargin = 0
  | | | | | | - Tag 0x0003 (2 bytes, int16u[1]):
  | | | | | |     1809: 00 00                                           [..]
  | | | | | 18) CustomFunctions2 (SubDirectory) -->
  | | | | |     - Tag 0x0099 (464 bytes, int32u[116] read as undef[464]):
  | | | | |         180b: d0 01 00 00 03 00 00 00 01 00 00 00 54 00 00 00 [............T...]
  | | | | |         181b: 06 00 00 00 01 01 00 00 01 00 00 00 00 00 00 00 [................]
  | | | | |         182b: 02 01 00 00 01 00 00 00 00 00 00 00 04 01 00 00 [................]
  | | | | |         183b: 01 00 00 00 00 00 00 00 05 01 00 00 01 00 00 00 [................]
  | | | | |         184b: 00 00 00 00 06 01 00 00 02 00 00 00 03 00 00 00 [................]
  | | | | |         185b: 00 00 00 00 08 01 00 00 01 00 00 00 00 00 00 00 [................]
  | | | | |         186b: 03 00 00 00 e4 00 00 00 0d 00 00 00 02 05 00 00 [................]
  | | | | |         187b: 01 00 00 00 00 00 00 00 18 05 00 00 01 00 00 00 [................]
  | | | | |         188b: 00 00 00 00 19 05 00 00 01 00 00 00 00 00 00 00 [................]
  | | | | |         189b: 1a 05 00 00 01 00 00 00 00 00 00 00 0e 05 00 00 [................]
  | | | | |         18ab: 01 00 00 00 00 00 00 00 05 05 00 00 01 00 00 00 [................]
  | | | | |         18bb: 00 00 00 00 12 05 00 00 02 00 00 00 00 00 00 00 [................]
  | | | | |         18cb: 07 00 00 00 1b 05 00 00 01 00 00 00 00 00 00 00 [................]
  | | | | |         18db: 16 05 00 00 01 00 00 00 00 00 00 00 13 05 00 00 [................]
  | | | | |         18eb: 01 00 00 00 00 00 00 00 0c 05 00 00 01 00 00 00 [................]
  | | | | |         18fb: 00 00 00 00 10 05 00 00 01 00 00 00 00 00 00 00 [................]
  | | | | |         190b: 07 05 00 00 10 00 00 00 00 00 00 00 00 00 00 00 [................]
  | | | | |         191b: 00 00 00 00 00 00 00 00 00 00 00 00 00 00 00 00 [................]
  | | | | |         192b: 00 00 00 00 00 00 00 00 00 00 00 00 00 00 00 00 [................]
  | | | | |         193b: 00 00 00 00 00 00 00 00 00 00 00 00 00 00 00 00 [................]
  | | | | |         194b: 00 00 00 00 00 00 00 00 04 00 00 00 84 00 00 00 [................]
  | | | | |         195b: 04 00 00 00 06 07 00 00 01 00 00 00 00 00 00 00 [................]
  | | | | |         196b: 0f 07 00 00 02 00 00 00 00 00 00 00 02 00 00 00 [................]
  | | | | |         197b: 0a 04 00 00 01 00 00 00 03 00 00 00 0c 07 00 00 [................]
  | | | | |         198b: 13 00 00 00 00 00 00 00 00 00 00 00 00 00 00 00 [................]
  | | | | |         199b: 00 00 00 00 00 00 00 00 00 00 00 00 00 00 00 00 [................]
  | | | | |         19ab: 00 00 00 00 00 00 00 00 00 00 00 00 00 00 00 00 [................]
  | | | | |         19bb: 00 00 00 00 00 00 00 00 00 00 00 00 00 00 00 00 [................]
  | | | | |         19cb: 00 00 00 00 00 00 00 00 00 00 00 00 00 00 00 00 [................]
  | | | | | + [CanonCustom2 directory with 3 entries, 464 bytes]
  | | | | | + [CanonCustom2 group 1 directory with 6 entries, 84 bytes]
  | | | | | | 0)  ExposureLevelIncrements = 0
  | | | | | |     - Tag 0x0101 (4 bytes, int32u[1])
  | | | | | | 1)  ISOSpeedIncrements = 0
  | | | | | |     - Tag 0x0102 (4 bytes, int32u[1])
  | | | | | | 2)  AEBAutoCancel = 0
  | | | | | |     - Tag 0x0104 (4 bytes, int32u[1])
  | | | | | | 3)  AEBSequence = 0
  | | | | | |     - Tag 0x0105 (4 bytes, int32u[1])
  | | | | | | 4)  AEBShotCount = 3 0
  | | | | | |     - Tag 0x0106 (8 bytes, int32u[2])
  | | | | | | 5)  SafetyShift = 0
  | | | | | |     - Tag 0x0108 (4 bytes, int32u[1])
  | | | | | + [CanonCustom2 group 3 directory with 13 entries, 228 bytes]
  | | | | | | 0)  AIServoTrackingSensitivity = 0
  | | | | | |     - Tag 0x0502 (4 bytes, int32u[1])
  | | | | | | 1)  AccelerationTracking = 0
  | | | | | |     - Tag 0x0518 (4 bytes, int32u[1])
  | | | | | | 2)  AIServoFirstImagePriority = 0
  | | | | | |     - Tag 0x0519 (4 bytes, int32u[1])
  | | | | | | 3)  AIServoSecondImagePriority = 0
  | | | | | |     - Tag 0x051a (4 bytes, int32u[1])
  | | | | | | 4)  AFAssistBeam = 0
  | | | | | |     - Tag 0x050e (4 bytes, int32u[1])
  | | | | | | 5)  LensDriveNoAF = 0
  | | | | | |     - Tag 0x0505 (4 bytes, int32u[1])
  | | | | | | 6)  SelectAFAreaSelectMode = 0 7
  | | | | | |     - Tag 0x0512 (8 bytes, int32u[2])
  | | | | | | 7)  AFAreaSelectMethod = 0
  | | | | | |     - Tag 0x051b (4 bytes, int32u[1])
  | | | | | | 8)  OrientationLinkedAFPoint = 0
  | | | | | |     - Tag 0x0516 (4 bytes, int32u[1])
  | | | | | | 9)  ManualAFPointSelectPattern = 0
  | | | | | |     - Tag 0x0513 (4 bytes, int32u[1])
  | | | | | | 10) AFPointDisplayDuringFocus = 0
  | | | | | |     - Tag 0x050c (4 bytes, int32u[1])
  | | | | | | 11) SuperimposedDisplay = 0
  | | | | | |     - Tag 0x0510 (4 bytes, int32u[1])
  | | | | | | 12) AFMicroadjustment = 0 0 0 0 0 0 0 0 0 0 0 0 0 0 0 0
  | | | | | |     - Tag 0x0507 (64 bytes, int32u[16])
  | | | | | + [CanonCustom2 group 4 directory with 4 entries, 132 bytes]
  | | | | | | 0)  DialDirectionTvAv = 0
  | | | | | |     - Tag 0x0706 (4 bytes, int32u[1])
  | | | | | | 1)  MultiFunctionLock = 0 2
  | | | | | |     - Tag 0x070f (8 bytes, int32u[2])
  | | | | | | 2)  ViewfinderWarnings = 3
  | | | | | |     - Tag 0x040a (4 bytes, int32u[1])
  | | | | | | 3)  CustomControls = 0 0 0 0 0 0 0 0 0 0 0 0 0 0 0 0 0 0 0
  | | | | | |     - Tag 0x070c (76 bytes, int32u[19])
  | | | | | 19) AspectInfo (SubDirectory) -->
  | | | | |     - Tag 0x009a (20 bytes, int32u[5] read as undef[20]):
  | | | | |         19db: 00 00 00 00 60 15 00 00 40 0e 00 00 00 00 00 00 [....`...@.......]
  | | | | |         19eb: 00 00 00 00                                     [....]
  | | | | | + [BinaryData directory, 20 bytes, Little-endian]
  | | | | | | AspectRatio = 0
  | | | | | | - Tag 0x0000 (4 bytes, int32u[1]):
  | | | | | |     19db: 00 00 00 00                                     [....]
  | | | | | | CroppedImageWidth = 5472
  | | | | | | - Tag 0x0001 (4 bytes, int32u[1]):
  | | | | | |     19df: 60 15 00 00                                     [`...]
  | | | | | | CroppedImageHeight = 3648
  | | | | | | - Tag 0x0002 (4 bytes, int32u[1]):
  | | | | | |     19e3: 40 0e 00 00                                     [@...]
  | | | | | | CroppedImageLeft = 0
  | | | | | | - Tag 0x0003 (4 bytes, int32u[1]):
  | | | | | |     19e7: 00 00 00 00                                     [....]
  | | | | | | CroppedImageTop = 0
  | | | | | | - Tag 0x0004 (4 bytes, int32u[1]):
  | | | | | |     19eb: 00 00 00 00                                     [....]
  | | | | | 20) ProcessingInfo (SubDirectory) -->
  | | | | |     - Tag 0x00a0 (28 bytes, int16u[14] read as undef[28]):
  | | | | |         19ef: 1c 00 00 00 03 00 00 00 00 00 00 00 00 00 00 00 [................]
  | | | | |         19ff: ff ff 50 14 87 00 00 00 00 00 00 00             [..P.........]
  | | | | | + [BinaryData directory, 28 bytes, Little-endian]
  | | | | | | ToneCurve = 0
  | | | | | | - Tag 0x0001 (2 bytes, int16s[1]):
  | | | | | |     19f1: 00 00                                           [..]
  | | | | | | Sharpness = 3
  | | | | | | - Tag 0x0002 (2 bytes, int16s[1]):
  | | | | | |     19f3: 03 00                                           [..]
  | | | | | | SharpnessFrequency = 0
  | | | | | | - Tag 0x0003 (2 bytes, int16s[1]):
  | | | | | |     19f5: 00 00                                           [..]
  | | | | | | SensorRedLevel = 0
  | | | | | | - Tag 0x0004 (2 bytes, int16s[1]):
  | | | | | |     19f7: 00 00                                           [..]
  | | | | | | SensorBlueLevel = 0
  | | | | | | - Tag 0x0005 (2 bytes, int16s[1]):
  | | | | | |     19f9: 00 00                                           [..]
  | | | | | | WhiteBalanceRed = 0
  | | | | | | - Tag 0x0006 (2 bytes, int16s[1]):
  | | | | | |     19fb: 00 00                                           [..]
  | | | | | | WhiteBalanceBlue = 0
  | | | | | | - Tag 0x0007 (2 bytes, int16s[1]):
  | | | | | |     19fd: 00 00                                           [..]
  | | | | | | WhiteBalance = -1
  | | | | | | - Tag 0x0008 (2 bytes, int16s[1]):
  | | | | | |     19ff: ff ff                                           [..]
  | | | | | | ColorTemperature = 5200
  | | | | | | - Tag 0x0009 (2 bytes, int16s[1]):
  | | | | | |     1a01: 50 14                                           [P.]
  | | | | | | PictureStyle = 135
  | | | | | | - Tag 0x000a (2 bytes, int16s[1]):
  | | | | | |     1a03: 87 00                                           [..]
  | | | | | | DigitalGain = 0
  | | | | | | - Tag 0x000b (2 bytes, int16s[1]):
  | | | | | |     1a05: 00 00                                           [..]
  | | | | | | WBShiftAB = 0
  | | | | | | - Tag 0x000c (2 bytes, int16s[1]):
  | | | | | |     1a07: 00 00                                           [..]
  | | | | | | WBShiftGM = 0
  | | | | | | - Tag 0x000d (2 bytes, int16s[1]):
  | | | | | |     1a09: 00 00                                           [..]
  | | | | | 21) MeasuredColor (SubDirectory) -->
  | | | | |     - Tag 0x00aa (12 bytes, int16u[6] read as undef[12]):
  | | | | |         1a0b: 0c 00 53 02 00 04 00 04 03 02 00 00             [..S.........]
  | | | | | + [BinaryData directory, 12 bytes, Little-endian]
  | | | | | | MeasuredRGGB = 595 1024 1024 515
  | | | | | | - Tag 0x0001 (8 bytes, int16u[4]):
  | | | | | |     1a0d: 53 02 00 04 00 04 03 02                         [S.......]
  | | | | | 22) ColorSpace = 1
  | | | | |     - Tag 0x00b4 (2 bytes, int16u[1]):
  | | | | |         0a5f: 01 00                                           [..]
  | | | | | 23) VRDOffset = 0
  | | | | |     - Tag 0x00d0 (4 bytes, int32u[1]):
  | | | | |         0a6b: 00 00 00 00                                     [....]
  | | | | | 24) SensorInfo (SubDirectory) -->
  | | | | |     - Tag 0x00e0 (34 bytes, int16u[17] read as undef[34]):
  | | | | |         1a17: 22 00 c0 15 7c 0e 01 00 01 00 54 00 32 00 b3 15 ["...|.....T.2...]
  | | | | |         1a27: 71 0e 00 00 00 00 00 00 00 00 00 00 00 00 00 00 [q...............]
  | | | | |         1a37: 00 00                                           [..]
  | | | | | + [BinaryData directory, 34 bytes, Little-endian]
  | | | | | | SensorWidth = 5568
  | | | | | | - Tag 0x0001 (2 bytes, int16s[1]):
  | | | | | |     1a19: c0 15                                           [..]
  | | | | | | SensorHeight = 3708
  | | | | | | - Tag 0x0002 (2 bytes, int16s[1]):
  | | | | | |     1a1b: 7c 0e                                           [|.]
  | | | | | | SensorLeftBorder = 84
  | | | | | | - Tag 0x0005 (2 bytes, int16s[1]):
  | | | | | |     1a21: 54 00                                           [T.]
  | | | | | | SensorTopBorder = 50
  | | | | | | - Tag 0x0006 (2 bytes, int16s[1]):
  | | | | | |     1a23: 32 00                                           [2.]
  | | | | | | SensorRightBorder = 5555
  | | | | | | - Tag 0x0007 (2 bytes, int16s[1]):
  | | | | | |     1a25: b3 15                                           [..]
  | | | | | | SensorBottomBorder = 3697
  | | | | | | - Tag 0x0008 (2 bytes, int16s[1]):
  | | | | | |     1a27: 71 0e                                           [q.]
  | | | | | | BlackMaskLeftBorder = 0
  | | | | | | - Tag 0x0009 (2 bytes, int16s[1]):
  | | | | | |     1a29: 00 00                                           [..]
  | | | | | | BlackMaskTopBorder = 0
  | | | | | | - Tag 0x000a (2 bytes, int16s[1]):
  | | | | | |     1a2b: 00 00                                           [..]
  | | | | | | BlackMaskRightBorder = 0
  | | | | | | - Tag 0x000b (2 bytes, int16s[1]):
  | | | | | |     1a2d: 00 00                                           [..]
  | | | | | | BlackMaskBottomBorder = 0
  | | | | | | - Tag 0x000c (2 bytes, int16s[1]):
  | | | | | |     1a2f: 00 00                                           [..]
  | | | | | 25) ColorData7 (SubDirectory) -->
  | | | | |     - Tag 0x4001 (2626 bytes, int16u[1313] read as undef[2626]):
  | | | | |         1a39: 0a 00 1d 03 00 04 00 04 89 01 2e 02 00 04 00 04 [................]
  | | | | |         1a49: 04 02 8f 01 00 04 00 04 aa 02 5d 07 78 09 75 09 [..........].x.u.]
  | | | | |         1a59: 9f 03 04 07 e9 0c ec 0c 7d 06 63 03 ab 08 b2 08 [........}.c.....]
  | | | | |         1a69: c5 05 ff ff 00 00 fd 00 fd 00 fd 00 00 00 6f 06 [..............o.]
  | | | | |         1a79: 51 0d 46 0d a2 07 d9 02 e0 00 e6 00 26 00 77 00 [Q.F.........&.w.]
  | | | | |         1a89: f3 02 f3 02 50 04 37 06 6d 0a 64 0a 32 02 c1 06 [....P.7.m.d.2...]
  | | | | |         1a99: df 0d e4 0d cc 07 00 03 e8 00 e5 00 27 00 82 00 [............'...]
  | | | | |         1aa9: fe 02 07 03 4d 04 77 06 b4 0a b6 0a 30 02 c2 07 [....M.w.....0...]
  | | | | |         1ab9: 00 04 00 04 6c 07 9d 11 c2 07 00 04 00 04 6c 07 [....l.........l.]
  | | | | |         1ac9: 9d 11 c2 07 00 04 00 04 6c 07 9d 11 c2 07 00 04 [........l.......]
  | | | | |         1ad9: 00 04 6c 07 9d 11 00 04 00 04 00 04 00 04 0b 11 [..l.............]
  | | | | |         1ae9: 00 04 00 04 00 04 00 04 0b 11 c2 07 00 04 00 04 [................]
  | | | | |         1af9: 6c 07 9d 11 c2 07 00 04 00 04 6c 07 9d 11 c2 07 [l.........l.....]
  | | | | |         1b09: 00 04 00 04 6c 07 9d 11 c6 07 00 04 00 04 6c 07 [....l.........l.]
  | | | | |         1b19: 9d 11 0d 07 00 04 00 04 b3 07 fc 0f 0b 07 04 04 [................]
  | | | | |         1b29: fb 03 b1 07 fc 0f 00 00 00 00 00 00 00 00 00 00 [................]
  | | | | |         1b39: 2d 08 00 04 00 04 88 06 50 14 76 09 00 04 00 04 [-.......P.v.....]
  | | | | |         1b49: a2 05 58 1b ca 08 00 04 00 04 0d 06 70 17 c1 05 [..X.........p...]
  | | | | |         1b59: 00 04 00 04 76 09 80 0c 20 07 00 04 00 04 f6 08 [....v... .......]
  | | | | |         1b69: 95 0e 2d 08 00 04 00 04 88 06 44 14 06 09 00 04 [..-.......D.....]
  | | | | |         1b79: 00 04 0b 06 1c 18 2d 08 00 04 00 04 88 06 44 14 [......-.......D.]
  | | | | |         1b89: 2d 08 00 04 00 04 88 06 44 14 2d 08 00 04 00 04 [-.......D.-.....]
  | | | | |         1b99: 88 06 44 14 2d 08 00 04 00 04 88 06 44 14 2d 08 [..D.-.......D.-.]
  | | | | |         1ba9: 00 04 00 04 88 06 44 14 e1 03 00 04 00 04 01 04 [......D.........]
  | | | | |         1bb9: 71 10 e1 03 00 04 00 04 01 04 71 10 e1 03 00 04 [q.........q.....]
  | | | | |         1bc9: 00 04 01 04 71 10 e1 03 00 04 00 04 01 04 71 10 [....q.........q.]
  | | | | |         1bd9: e1 03 00 04 00 04 01 04 71 10 e1 fe 7d 01 48 03 [........q...}.H.]
  | | | | |         1be9: 94 2a f4 fe 86 01 30 03 10 27 1c ff 9a 01 03 03 [.*....0..'......]
  | | | | |         1bf9: 6c 20 45 ff b1 01 d7 02 58 1b 79 ff d2 01 a5 02 [l E.....X.y.....]
  | | | | |         1c09: 70 17 92 ff e2 01 8d 02 e0 15 ae ff f5 01 73 02 [p.............s.]
  | | | | |         1c19: 50 14 db ff 10 02 4a 02 5c 12 12 00 39 02 1e 02 [P.....J.\...9...]
  | | | | |         1c29: 68 10 46 00 63 02 f8 01 d8 0e 78 00 8f 02 d7 01 [h.F.c.....x.....]
  | | | | |         1c39: ac 0d b3 00 c8 02 b1 01 80 0c e2 00 f4 02 92 01 [................]
  | | | | |         1c49: b8 0b 0f 01 29 03 7d 01 f0 0a 80 01 b8 03 48 01 [....).}.......H.]
  | | | | |         1c59: 60 09 f4 01 10 08 1d 08 01 08 01 08 01 08 01 08 [`...............]
  | | | | |         1c69: 00 00 00 00 00 00 00 00 00 00 00 00 00 00 00 00 [................]
  | | | | |         1c79: 00 00 00 00 00 00 00 00 00 00 00 00 00 00 00 00 [................]
  | | | | |         1c89: 00 00 00 00 00 00 00 00 00 00 00 00 00 00 00 00 [................]
  | | | | |         1c99: 00 00 00 00 00 00 00 00 00 00 00 00 00 00 00 00 [................]
  | | | | |         1ca9: 00 00 00 00 00 00 00 00 00 00 00 00 00 00 00 00 [................]
  | | | | |         1cb9: 00 00 00 00 00 00 00 00 00 00 00 00 00 00 00 00 [................]
  | | | | |         1cc9: 00 00 00 00 00 00 00 00 00 00 00 00 00 00 00 00 [................]
  | | | | |         1cd9: 00 00 00 00 00 00 00 00 00 00 00 00 00 00 00 00 [................]
  | | | | |         1ce9: 00 00 00 00 00 00 01 00 00 00 01 00 03 00 01 00 [................]
  | | | | |         1cf9: 06 00 09 00 07 00 02 00 05 00 04 00 18 00 00 00 [................]
  | | | | |         1d09: 00 00 00 00 04 00 45 00 2c 00 43 00 e1 00 66 01 [......E.,.C...f.]
  | | | | |         1d19: a1 18 de 19 9b 13 7c 06 34 03 9d 02 49 07 0d 00 [......|.4...I...]
  | | | | |         1d29: 00 00 00 00 02 00 2b 00 25 00 52 00 30 01 b9 01 [......+.%.R.0...]
  | | | | |         1d39: bd 0f 7e 05 f4 13 c4 03 66 01 17 01 9c 02 02 00 [..~.....f.......]
  | | | | |         1d49: 15 00 10 00 37 00 21 03 1b 02 25 04 86 0b e3 0d [....7.!...%.....]
  | | | | |         1d59: f4 4f f2 2b 98 49 bd 10 5e 05 e0 03 6a 0d 4e 00 [.O.+.I..^...j.N.]
  | | | | |         1d69: 00 00 00 00 00 00 00 80 00 00 00 04 00 04 00 04 [................]
  | | | | |         1d79: 2e 0b 22 10 44 1b 76 10 a2 00 00 00 00 10 8e 0f [..".D.v.........]
  | | | | |         1d89: 62 ff 00 00 00 10 00 00 00 01 01 00 3c 68 02 00 [b...........<h..]
  | | | | |         1d99: 7e 6b 02 00 7b 6d 01 00 68 37 00 04 00 04 00 04 [~k..{m..h7......]
  | | | | |         1da9: 00 00 00 00 00 00 fd ff 00 00 ff 1f 00 01 00 00 [................]
  | | | | |         1db9: 00 00 00 04 c8 02 b2 01 f4 01 74 02 9b 01 f9 02 [..........t.....]
  | | | | |         1dc9: 00 00 00 00 00 00 00 00 00 00 1f 00 3f 00 5f 00 [............?._.]
  | | | | |         1dd9: 7f 00 9f 00 bf 00 df 00 ff 00 00 00 1f 00 41 00 [..............A.]
  | | | | |         1de9: 62 00 82 00 a1 00 c0 00 df 00 ff 00 01 00 00 00 [b...............]
  | | | | |         1df9: 66 00 00 00 10 00 20 00 40 00 60 00 80 00 c0 00 [f..... .@.`.....]
  | | | | |         1e09: 00 00 00 00 00 00 00 00 00 00 00 00 00 00 e8 03 [................]
  | | | | |         1e19: e8 03 e8 03 e8 03 e8 03 e8 03 e8 03 88 04 00 00 [................]
  | | | | |         1e29: 01 08 01 08 01 08 01 08 f4 38 f4 3a 10 27 00 00 [.........8.:.'..]
  | | | | |         1e39: dd 00 83 00 71 00 02 00 00 00 c6 07 40 08 70 10 [....q.......@.p.]
  | | | | |         1e49: f8 10 c6 07 40 08 38 0d c0 0d c6 07 40 08 d0 0e [....@.8.....@...]
  | | | | |         1e59: 58 0f 7c 00 b6 00 ce 00 00 00 00 00 00 00 00 00 [X.|.............]
  | | | | |         1e69: 00 00 00 00 00 00 00 00 00 00 00 00 00 00 00 00 [................]
  | | | | |         1e79: 00 00 00 00 00 00 00 00 00 00 00 00 00 00 00 00 [................]
  | | | | |         1e89: 00 00 00 00 00 00 00 00 00 00 00 00 00 00 00 00 [................]
  | | | | |         1e99: 00 00 00 00 00 00 00 00 00 00 00 00 00 00 00 00 [................]
  | | | | |         1ea9: 00 00 00 00 00 00 00 00 00 00 00 00 00 00 00 00 [................]
  | | | | |         1eb9: 00 00 00 00 00 00 00 00 00 00 00 00 00 00 00 00 [................]
  | | | | |         1ec9: 00 00 00 00 00 00 00 00 00 00 00 00 00 00 00 00 [................]
  | | | | |         1ed9: 00 00 00 00 00 00 00 00 00 00 00 00 00 00 00 00 [................]
  | | | | |         1ee9: 00 00 00 00 00 00 00 00 00 00 00 00 00 00 00 00 [................]
  | | | | |         1ef9: 00 00 00 00 00 00 00 00 00 00 00 00 00 00 00 00 [................]
  | | | | |         1f09: 00 00 00 00 00 00 00 00 00 00 00 00 00 00 00 00 [................]
  | | | | |         1f19: 00 00 00 00 00 00 00 00 00 00 00 00 00 00 00 00 [................]
  | | | | |         1f29: 00 00 00 00 00 00 00 00 00 00 00 00 00 00 00 00 [................]
  | | | | |         1f39: 00 00 00 00 00 00 00 00 00 00 00 00 00 00 00 00 [................]
  | | | | |         1f49: 00 00 00 00 00 00 00 00 00 00 00 00 00 00 00 00 [................]
  | | | | |         1f59: 00 00 00 00 00 00 00 00 00 00 00 00 00 00 00 00 [................]
  | | | | |         1f69: 00 00 00 00 00 00 00 00 00 00 00 00 00 00 00 00 [................]
  | | | | |         1f79: 00 00 00 00 00 00 00 00 00 00 00 00 00 00 00 00 [................]
  | | | | |         1f89: 00 00 00 00 00 00 00 00 00 00 00 00 00 00 00 00 [................]
  | | | | |         1f99: 00 00 00 00 00 00 00 00 00 00 00 00 00 00 00 00 [................]
  | | | | |         1fa9: 00 00 00 00 00 00 00 00 00 00 00 00 00 00 00 00 [................]
  | | | | |         1fb9: 00 00 00 00 00 00 00 00 00 00 00 00 00 00 00 00 [................]
  | | | | |         1fc9: 00 00 00 00 00 00 00 00 00 00 00 00 00 00 00 00 [................]
  | | | | |         1fd9: 00 00 00 00 00 00 00 00 00 00 00 00 00 00 00 00 [................]
  | | | | |         1fe9: 00 00 00 00 00 00 00 00 00 00 00 00 00 00 00 00 [................]
  | | | | |         1ff9: 00 00 00 00 00 00 00 00 00 00 00 00 00 00 00 00 [................]
  | | | | |         2009: 00 00 00 00 00 00 00 00 00 00 00 00 00 00 00 00 [................]
  | | | | |         2019: 00 00 00 00 00 00 00 00 00 00 00 00 00 00 00 00 [................]
  | | | | |         2029: 00 00 00 00 00 00 00 00 00 00 00 00 00 00 00 00 [................]
  | | | | |         2039: 00 00 00 00 00 00 00 00 00 00 00 00 00 00 00 00 [................]
  | | | | |         2049: 00 00 00 00 00 00 00 00 00 00 00 00 00 00 00 00 [................]
  | | | | |         2059: 00 00 00 00 00 00 00 00 00 00 00 00 00 00 00 00 [................]
  | | | | |         2069: 00 00 00 00 00 00 00 00 00 00 00 00 00 00 00 00 [................]
  | | | | |         2079: 00 00 00 00 00 00 00 00 00 00 00 00 00 00 00 00 [................]
  | | | | |         2089: 00 00 00 00 00 00 00 00 00 00 00 00 00 00 00 00 [................]
  | | | | |         2099: 00 00 00 00 00 00 00 00 00 00 00 00 00 00 00 00 [................]
  | | | | |         20a9: 00 00 00 00 00 00 00 00 00 00 00 00 00 00 00 00 [................]
  | | | | |         20b9: 00 00 00 00 00 00 00 00 00 00 00 00 00 00 00 00 [................]
  | | | | |         20c9: 00 00 00 00 00 00 00 00 00 00 00 00 00 00 00 00 [................]
  | | | | |         20d9: 00 00 00 00 00 00 00 00 00 00 00 00 00 00 00 00 [................]
  | | | | |         20e9: 00 00 00 00 00 00 00 00 00 00 00 00 00 00 00 00 [................]
  | | | | |         20f9: 00 00 00 00 00 00 00 00 00 00 00 00 00 00 00 00 [................]
  | | | | |         2109: 00 00 00 00 00 00 00 00 00 00 00 00 00 00 00 00 [................]
  | | | | |         2119: 00 00 00 00 00 00 00 00 00 00 00 00 00 00 00 00 [................]
  | | | | |         2129: 00 00 00 00 00 00 00 00 00 00 00 00 00 00 00 00 [................]
  | | | | |         2139: 00 00 00 00 00 00 00 00 00 00 00 00 00 00 00 00 [................]
  | | | | |         2149: 00 00 00 00 00 00 00 00 00 00 00 00 00 00 00 00 [................]
  | | | | |         2159: aa aa 00 00 20 00 40 00 80 00 e0 00 00 01 00 01 [.... .@.........]
  | | | | |         2169: 00 01 00 01 00 00 20 00 40 00 80 00 e0 00 00 01 [...... .@.......]
  | | | | |         2179: 00 01 00 01 00 01 51 00 6f 00 76 00 1a 00 18 00 [......Q.o.v.....]
  | | | | |         2189: d7 00 d7 00 04 00 47 00 a8 00 b5 00 ff 00 00 00 [......G.........]
  | | | | |         2199: 00 00 00 00 00 00 00 00 00 00 00 00 00 00 00 00 [................]
  | | | | |         21a9: 00 00 00 00 00 00 00 00 00 00 00 00 00 00 00 00 [................]
  | | | | |         21b9: 00 00 00 00 00 00 00 00 00 00 00 00 00 00 00 00 [................]
  | | | | |         21c9: 00 00 00 00 8f 00 a9 00 f3 00 00 00 00 00 00 00 [................]
  | | | | |         21d9: 00 00 00 00 00 00 00 00 00 00 00 00 00 00 00 00 [................]
  | | | | |         21e9: 00 00 00 00 00 00 00 00 00 00 00 00 00 00 00 00 [................]
  | | | | |         21f9: 00 00 00 00 00 00 00 00 00 00 00 00 00 00 00 00 [................]
  | | | | |         2209: 00 00 00 00 00 00 00 00 00 00 64 00 00 00 00 00 [..........d.....]
  | | | | |         2219: 00 00 a6 13 ca 05 00 04 3e 03 a7 02 00 04 d6 01 [........>.......]
  | | | | |         [snip 594 bytes]
  | | | | | + [BinaryData directory, 2626 bytes, Little-endian]
  | | | | | | ColorDataVersion = 10
  | | | | | | - Tag 0x0000 (2 bytes, int16s[1]):
  | | | | | |     1a39: 0a 00                                           [..]
  | | | | | | WB_RGGBLevelsAsShot = 1986 1024 1024 1900
  | | | | | | - Tag 0x003f (8 bytes, int16s[4]):
  | | | | | |     1ab7: c2 07 00 04 00 04 6c 07                         [......l.]
  | | | | | | ColorTempAsShot = 4509
  | | | | | | - Tag 0x0043 (2 bytes, int16s[1]):
  | | | | | |     1abf: 9d 11                                           [..]
  | | | | | | WB_RGGBLevelsAuto = 1986 1024 1024 1900
  | | | | | | - Tag 0x0044 (8 bytes, int16s[4]):
  | | | | | |     1ac1: c2 07 00 04 00 04 6c 07                         [......l.]
  | | | | | | ColorTempAuto = 4509
  | | | | | | - Tag 0x0048 (2 bytes, int16s[1]):
  | | | | | |     1ac9: 9d 11                                           [..]
  | | | | | | WB_RGGBLevelsMeasured = 1986 1024 1024 1900
  | | | | | | - Tag 0x0049 (8 bytes, int16s[4]):
  | | | | | |     1acb: c2 07 00 04 00 04 6c 07                         [......l.]
  | | | | | | ColorTempMeasured = 4509
  | | | | | | - Tag 0x004d (2 bytes, int16s[1]):
  | | | | | |     1ad3: 9d 11                                           [..]
  | | | | | | WB_RGGBLevelsUnknown = 1986 1024 1024 1900
  | | | | | | - Tag 0x004e (8 bytes, int16s[4]):
  | | | | | |     1ad5: c2 07 00 04 00 04 6c 07                         [......l.]
  | | | | | | ColorTempUnknown = 4509
  | | | | | | - Tag 0x0052 (2 bytes, int16s[1]):
  | | | | | |     1add: 9d 11                                           [..]
  | | | | | | WB_RGGBLevelsUnknown2 = 1024 1024 1024 1024
  | | | | | | - Tag 0x0053 (8 bytes, int16s[4]):
  | | | | | |     1adf: 00 04 00 04 00 04 00 04                         [........]
  | | | | | | ColorTempUnknown2 = 4363
  | | | | | | - Tag 0x0057 (2 bytes, int16s[1]):
  | | | | | |     1ae7: 0b 11                                           [..]
  | | | | | | WB_RGGBLevelsUnknown3 = 1024 1024 1024 1024
  | | | | | | - Tag 0x0058 (8 bytes, int16s[4]):
  | | | | | |     1ae9: 00 04 00 04 00 04 00 04                         [........]
  | | | | | | ColorTempUnknown3 = 4363
  | | | | | | - Tag 0x005c (2 bytes, int16s[1]):
  | | | | | |     1af1: 0b 11                                           [..]
  | | | | | | WB_RGGBLevelsUnknown4 = 1986 1024 1024 1900
  | | | | | | - Tag 0x005d (8 bytes, int16s[4]):
  | | | | | |     1af3: c2 07 00 04 00 04 6c 07                         [......l.]
  | | | | | | ColorTempUnknown4 = 4509
  | | | | | | - Tag 0x0061 (2 bytes, int16s[1]):
  | | | | | |     1afb: 9d 11                                           [..]
  | | | | | | WB_RGGBLevelsUnknown5 = 1986 1024 1024 1900
  | | | | | | - Tag 0x0062 (8 bytes, int16s[4]):
  | | | | | |     1afd: c2 07 00 04 00 04 6c 07                         [......l.]
  | | | | | | ColorTempUnknown5 = 4509
  | | | | | | - Tag 0x0066 (2 bytes, int16s[1]):
  | | | | | |     1b05: 9d 11                                           [..]
  | | | | | | WB_RGGBLevelsUnknown6 = 1986 1024 1024 1900
  | | | | | | - Tag 0x0067 (8 bytes, int16s[4]):
  | | | | | |     1b07: c2 07 00 04 00 04 6c 07                         [......l.]
  | | | | | | ColorTempUnknown6 = 4509
  | | | | | | - Tag 0x006b (2 bytes, int16s[1]):
  | | | | | |     1b0f: 9d 11                                           [..]
  | | | | | | WB_RGGBLevelsUnknown7 = 1990 1024 1024 1900
  | | | | | | - Tag 0x006c (8 bytes, int16s[4]):
  | | | | | |     1b11: c6 07 00 04 00 04 6c 07                         [......l.]
  | | | | | | ColorTempUnknown7 = 4509
  | | | | | | - Tag 0x0070 (2 bytes, int16s[1]):
  | | | | | |     1b19: 9d 11                                           [..]
  | | | | | | WB_RGGBLevelsUnknown8 = 1805 1024 1024 1971
  | | | | | | - Tag 0x0071 (8 bytes, int16s[4]):
  | | | | | |     1b1b: 0d 07 00 04 00 04 b3 07                         [........]
  | | | | | | ColorTempUnknown8 = 4092
  | | | | | | - Tag 0x0075 (2 bytes, int16s[1]):
  | | | | | |     1b23: fc 0f                                           [..]
  | | | | | | WB_RGGBLevelsUnknown9 = 1803 1028 1019 1969
  | | | | | | - Tag 0x0076 (8 bytes, int16s[4]):
  | | | | | |     1b25: 0b 07 04 04 fb 03 b1 07                         [........]
  | | | | | | ColorTempUnknown9 = 4092
  | | | | | | - Tag 0x007a (2 bytes, int16s[1]):
  | | | | | |     1b2d: fc 0f                                           [..]
  | | | | | | WB_RGGBLevelsUnknown10 = 0 0 0 0
  | | | | | | - Tag 0x007b (8 bytes, int16s[4]):
  | | | | | |     1b2f: 00 00 00 00 00 00 00 00                         [........]
  | | | | | | ColorTempUnknown10 = 0
  | | | | | | - Tag 0x007f (2 bytes, int16s[1]):
  | | | | | |     1b37: 00 00                                           [..]
  | | | | | | WB_RGGBLevelsDaylight = 2093 1024 1024 1672
  | | | | | | - Tag 0x0080 (8 bytes, int16s[4]):
  | | | | | |     1b39: 2d 08 00 04 00 04 88 06                         [-.......]
  | | | | | | ColorTempDaylight = 5200
  | | | | | | - Tag 0x0084 (2 bytes, int16s[1]):
  | | | | | |     1b41: 50 14                                           [P.]
  | | | | | | WB_RGGBLevelsShade = 2422 1024 1024 1442
  | | | | | | - Tag 0x0085 (8 bytes, int16s[4]):
  | | | | | |     1b43: 76 09 00 04 00 04 a2 05                         [v.......]
  | | | | | | ColorTempShade = 7000
  | | | | | | - Tag 0x0089 (2 bytes, int16s[1]):
  | | | | | |     1b4b: 58 1b                                           [X.]
  | | | | | | WB_RGGBLevelsCloudy = 2250 1024 1024 1549
  | | | | | | - Tag 0x008a (8 bytes, int16s[4]):
  | | | | | |     1b4d: ca 08 00 04 00 04 0d 06                         [........]
  | | | | | | ColorTempCloudy = 6000
  | | | | | | - Tag 0x008e (2 bytes, int16s[1]):
  | | | | | |     1b55: 70 17                                           [p.]
  | | | | | | WB_RGGBLevelsTungsten = 1473 1024 1024 2422
  | | | | | | - Tag 0x008f (8 bytes, int16s[4]):
  | | | | | |     1b57: c1 05 00 04 00 04 76 09                         [......v.]
  | | | | | | ColorTempTungsten = 3200
  | | | | | | - Tag 0x0093 (2 bytes, int16s[1]):
  | | | | | |     1b5f: 80 0c                                           [..]
  | | | | | | WB_RGGBLevelsFluorescent = 1824 1024 1024 2294
  | | | | | | - Tag 0x0094 (8 bytes, int16s[4]):
  | | | | | |     1b61: 20 07 00 04 00 04 f6 08                         [ .......]
  | | | | | | ColorTempFluorescent = 3733
  | | | | | | - Tag 0x0098 (2 bytes, int16s[1]):
  | | | | | |     1b69: 95 0e                                           [..]
  | | | | | | WB_RGGBLevelsKelvin = 2093 1024 1024 1672
  | | | | | | - Tag 0x0099 (8 bytes, int16s[4]):
  | | | | | |     1b6b: 2d 08 00 04 00 04 88 06                         [-.......]
  | | | | | | ColorTempKelvin = 5188
  | | | | | | - Tag 0x009d (2 bytes, int16s[1]):
  | | | | | |     1b73: 44 14                                           [D.]
  | | | | | | WB_RGGBLevelsFlash = 2310 1024 1024 1547
  | | | | | | - Tag 0x009e (8 bytes, int16s[4]):
  | | | | | |     1b75: 06 09 00 04 00 04 0b 06                         [........]
  | | | | | | ColorTempFlash = 6172
  | | | | | | - Tag 0x00a2 (2 bytes, int16s[1]):
  | | | | | |     1b7d: 1c 18                                           [..]
  | | | | | | WB_RGGBLevelsUnknown11 = 2093 1024 1024 1672
  | | | | | | - Tag 0x00a3 (8 bytes, int16s[4]):
  | | | | | |     1b7f: 2d 08 00 04 00 04 88 06                         [-.......]
  | | | | | | ColorTempUnknown11 = 5188
  | | | | | | - Tag 0x00a7 (2 bytes, int16s[1]):
  | | | | | |     1b87: 44 14                                           [D.]
  | | | | | | WB_RGGBLevelsUnknown12 = 2093 1024 1024 1672
  | | | | | | - Tag 0x00a8 (8 bytes, int16s[4]):
  | | | | | |     1b89: 2d 08 00 04 00 04 88 06                         [-.......]
  | | | | | | ColorTempUnknown12 = 5188
  | | | | | | - Tag 0x00ac (2 bytes, int16s[1]):
  | | | | | |     1b91: 44 14                                           [D.]
  | | | | | | WB_RGGBLevelsUnknown13 = 2093 1024 1024 1672
  | | | | | | - Tag 0x00ad (8 bytes, int16s[4]):
  | | | | | |     1b93: 2d 08 00 04 00 04 88 06                         [-.......]
  | | | | | | ColorTempUnknown13 = 5188
  | | | | | | - Tag 0x00b1 (2 bytes, int16s[1]):
  | | | | | |     1b9b: 44 14                                           [D.]
  | | | | | | WB_RGGBLevelsUnknown14 = 2093 1024 1024 1672
  | | | | | | - Tag 0x00b2 (8 bytes, int16s[4]):
  | | | | | |     1b9d: 2d 08 00 04 00 04 88 06                         [-.......]
  | | | | | | ColorTempUnknown14 = 5188
  | | | | | | - Tag 0x00b6 (2 bytes, int16s[1]):
  | | | | | |     1ba5: 44 14                                           [D.]
  | | | | | | WB_RGGBLevelsUnknown15 = 2093 1024 1024 1672
  | | | | | | - Tag 0x00b7 (8 bytes, int16s[4]):
  | | | | | |     1ba7: 2d 08 00 04 00 04 88 06                         [-.......]
  | | | | | | ColorTempUnknown15 = 5188
  | | | | | | - Tag 0x00bb (2 bytes, int16s[1]):
  | | | | | |     1baf: 44 14                                           [D.]
  | | | | | | WB_RGGBLevelsUnknown16 = 993 1024 1024 1025
  | | | | | | - Tag 0x00bc (8 bytes, int16s[4]):
  | | | | | |     1bb1: e1 03 00 04 00 04 01 04                         [........]
  | | | | | | ColorTempUnknown16 = 4209
  | | | | | | - Tag 0x00c0 (2 bytes, int16s[1]):
  | | | | | |     1bb9: 71 10                                           [q.]
  | | | | | | WB_RGGBLevelsUnknown17 = 993 1024 1024 1025
  | | | | | | - Tag 0x00c1 (8 bytes, int16s[4]):
  | | | | | |     1bbb: e1 03 00 04 00 04 01 04                         [........]
  | | | | | | ColorTempUnknown17 = 4209
  | | | | | | - Tag 0x00c5 (2 bytes, int16s[1]):
  | | | | | |     1bc3: 71 10                                           [q.]
  | | | | | | WB_RGGBLevelsUnknown18 = 993 1024 1024 1025
  | | | | | | - Tag 0x00c6 (8 bytes, int16s[4]):
  | | | | | |     1bc5: e1 03 00 04 00 04 01 04                         [........]
  | | | | | | ColorTempUnknown18 = 4209
  | | | | | | - Tag 0x00ca (2 bytes, int16s[1]):
  | | | | | |     1bcd: 71 10                                           [q.]
  | | | | | | WB_RGGBLevelsUnknown19 = 993 1024 1024 1025
  | | | | | | - Tag 0x00cb (8 bytes, int16s[4]):
  | | | | | |     1bcf: e1 03 00 04 00 04 01 04                         [........]
  | | | | | | ColorTempUnknown19 = 4209
  | | | | | | - Tag 0x00cf (2 bytes, int16s[1]):
  | | | | | |     1bd7: 71 10                                           [q.]
  | | | | | | WB_RGGBLevelsUnknown20 = 993 1024 1024 1025
  | | | | | | - Tag 0x00d0 (8 bytes, int16s[4]):
  | | | | | |     1bd9: e1 03 00 04 00 04 01 04                         [........]
  | | | | | | ColorTempUnknown20 = 4209
  | | | | | | - Tag 0x00d4 (2 bytes, int16s[1]):
  | | | | | |     1be1: 71 10                                           [q.]
  | | | | | | ColorCalib (SubDirectory) -->
  | | | | | | - Tag 0x00d5 (120 bytes, undef[120]):
  | | | | | |     1be3: e1 fe 7d 01 48 03 94 2a f4 fe 86 01 30 03 10 27 [..}.H..*....0..']
  | | | | | |     1bf3: 1c ff 9a 01 03 03 6c 20 45 ff b1 01 d7 02 58 1b [......l E.....X.]
  | | | | | |     1c03: 79 ff d2 01 a5 02 70 17 92 ff e2 01 8d 02 e0 15 [y.....p.........]
  | | | | | |     1c13: ae ff f5 01 73 02 50 14 db ff 10 02 4a 02 5c 12 [....s.P.....J.\.]
  | | | | | |     1c23: 12 00 39 02 1e 02 68 10 46 00 63 02 f8 01 d8 0e [..9...h.F.c.....]
  | | | | | |     1c33: 78 00 8f 02 d7 01 ac 0d b3 00 c8 02 b1 01 80 0c [x...............]
  | | | | | |     1c43: e2 00 f4 02 92 01 b8 0b 0f 01 29 03 7d 01 f0 0a [..........).}...]
  | | | | | |     1c53: 80 01 b8 03 48 01 60 09                         [....H.`.]
  | | | | | | + [BinaryData directory, 120 bytes, Little-endian]
  | | | | | | | CameraColorCalibration01 = -287 381 840 10900
  | | | | | | | - Tag 0x0000 (8 bytes, int16s[4]):
  | | | | | | |     1be3: e1 fe 7d 01 48 03 94 2a                         [..}.H..*]
  | | | | | | | CameraColorCalibration02 = -268 390 816 10000
  | | | | | | | - Tag 0x0004 (8 bytes, int16s[4]):
  | | | | | | |     1beb: f4 fe 86 01 30 03 10 27                         [....0..']
  | | | | | | | CameraColorCalibration03 = -228 410 771 8300
  | | | | | | | - Tag 0x0008 (8 bytes, int16s[4]):
  | | | | | | |     1bf3: 1c ff 9a 01 03 03 6c 20                         [......l ]
  | | | | | | | CameraColorCalibration04 = -187 433 727 7000
  | | | | | | | - Tag 0x000c (8 bytes, int16s[4]):
  | | | | | | |     1bfb: 45 ff b1 01 d7 02 58 1b                         [E.....X.]
  | | | | | | | CameraColorCalibration05 = -135 466 677 6000
  | | | | | | | - Tag 0x0010 (8 bytes, int16s[4]):
  | | | | | | |     1c03: 79 ff d2 01 a5 02 70 17                         [y.....p.]
  | | | | | | | CameraColorCalibration06 = -110 482 653 5600
  | | | | | | | - Tag 0x0014 (8 bytes, int16s[4]):
  | | | | | | |     1c0b: 92 ff e2 01 8d 02 e0 15                         [........]
  | | | | | | | CameraColorCalibration07 = -82 501 627 5200
  | | | | | | | - Tag 0x0018 (8 bytes, int16s[4]):
  | | | | | | |     1c13: ae ff f5 01 73 02 50 14                         [....s.P.]
  | | | | | | | CameraColorCalibration08 = -37 528 586 4700
  | | | | | | | - Tag 0x001c (8 bytes, int16s[4]):
  | | | | | | |     1c1b: db ff 10 02 4a 02 5c 12                         [....J.\.]
  | | | | | | | CameraColorCalibration09 = 18 569 542 4200
  | | | | | | | - Tag 0x0020 (8 bytes, int16s[4]):
  | | | | | | |     1c23: 12 00 39 02 1e 02 68 10                         [..9...h.]
  | | | | | | | CameraColorCalibration10 = 70 611 504 3800
  | | | | | | | - Tag 0x0024 (8 bytes, int16s[4]):
  | | | | | | |     1c2b: 46 00 63 02 f8 01 d8 0e                         [F.c.....]
  | | | | | | | CameraColorCalibration11 = 120 655 471 3500
  | | | | | | | - Tag 0x0028 (8 bytes, int16s[4]):
  | | | | | | |     1c33: 78 00 8f 02 d7 01 ac 0d                         [x.......]
  | | | | | | | CameraColorCalibration12 = 179 712 433 3200
  | | | | | | | - Tag 0x002c (8 bytes, int16s[4]):
  | | | | | | |     1c3b: b3 00 c8 02 b1 01 80 0c                         [........]
  | | | | | | | CameraColorCalibration13 = 226 756 402 3000
  | | | | | | | - Tag 0x0030 (8 bytes, int16s[4]):
  | | | | | | |     1c43: e2 00 f4 02 92 01 b8 0b                         [........]
  | | | | | | | CameraColorCalibration14 = 271 809 381 2800
  | | | | | | | - Tag 0x0034 (8 bytes, int16s[4]):
  | | | | | | |     1c4b: 0f 01 29 03 7d 01 f0 0a                         [..).}...]
  | | | | | | | CameraColorCalibration15 = 384 952 328 2400
  | | | | | | | - Tag 0x0038 (8 bytes, int16s[4]):
  | | | | | | |     1c53: 80 01 b8 03 48 01 60 09                         [....H.`.]
  | | | | | | AverageBlackLevel = 2049 2049 2049 2049
  | | | | | | - Tag 0x0114 (8 bytes, int16u[4]):
  | | | | | |     1c61: 01 08 01 08 01 08 01 08                         [........]
  | | | | | | FlashOutput = 0
  | | | | | | - Tag 0x0198 (2 bytes, int16s[1]):
  | | | | | |     1d69: 00 00                                           [..]
  | | | | | | FlashBatteryLevel = 0
  | | | | | | - Tag 0x0199 (2 bytes, int16s[1]):
  | | | | | |     1d6b: 00 00                                           [..]
  | | | | | | RawMeasuredRGGB = 1748762625 1803419650 1836777474 929562625
  | | | | | | - Tag 0x01ad (16 bytes, int32u[4]):
  | | | | | |     1d93: 01 00 3c 68 02 00 7e 6b 02 00 7b 6d 01 00 68 37 [..<h..~k..{m..h7]
  | | | | | | PerChannelBlackLevel = 2049 2049 2049 2049
  | | | | | | - Tag 0x01f8 (8 bytes, int16u[4]):
  | | | | | |     1e29: 01 08 01 08 01 08 01 08                         [........]
  | | | | | | NormalWhiteLevel = 14580
  | | | | | | - Tag 0x01fc (2 bytes, int16u[1]):
  | | | | | |     1e31: f4 38                                           [.8]
  | | | | | | SpecularWhiteLevel = 15092
  | | | | | | - Tag 0x01fd (2 bytes, int16u[1]):
  | | | | | |     1e33: f4 3a                                           [.:]
  | | | | | | LinearityUpperMargin = 10000
  | | | | | | - Tag 0x01fe (2 bytes, int16u[1]):
  | | | | | |     1e35: 10 27                                           [.']
  | | | | | 26) PictureStyleUserDef = 135 135 135
  | | | | |     - Tag 0x4008 (6 bytes, int16u[3]):
  | | | | |         247b: 87 00 87 00 87 00                               [......]
  | | | | | 27) PictureStylePC = 0 0 0
  | | | | |     - Tag 0x4009 (6 bytes, int16u[3]):
  | | | | |         2481: 00 00 00 00 00 00                               [......]
  | | | | | 28) CustomPictureStyleFileName = 
  | | | | |     - Tag 0x4010 (32 bytes, string[32]):
  | | | | |         2487: 00 00 00 00 00 00 00 00 00 00 00 00 00 00 00 00 [................]
  | | | | |         2497: 00 00 00 00 00 00 00 00 00 00 00 00 00 00 00 00 [................]
  | | | | | 29) Canon_0x4011 = 
  | | | | |     - Tag 0x4011 (252 bytes, undef[252]):
  | | | | |         24a7: 00 00 00 00 00 00 00 00 00 00 00 00 00 00 00 00 [................]
  | | | | |         24b7: 00 00 00 00 00 00 00 00 00 00 00 00 00 00 00 00 [................]
  | | | | |         24c7: 00 00 00 00 00 00 00 00 00 00 00 00 00 00 00 00 [................]
  | | | | |         24d7: 00 00 00 00 00 00 00 00 00 00 00 00 00 00 00 00 [................]
  | | | | |         24e7: 00 00 00 00 00 00 00 00 00 00 00 00 00 00 00 00 [................]
  | | | | |         24f7: 00 00 00 00 00 00 00 00 00 00 00 00 00 00 00 00 [................]
  | | | | |         2507: 00 00 00 00 00 00 00 00 00 00 00 00 00 00 00 00 [................]
  | | | | |         2517: 00 00 00 00 00 00 00 00 00 00 00 00 00 00 00 00 [................]
  | | | | |         2527: 00 00 00 00 00 00 00 00 00 00 00 00 00 00 00 00 [................]
  | | | | |         2537: 00 00 00 00 00 00 00 00 00 00 00 00 00 00 00 00 [................]
  | | | | |         2547: 00 00 00 00 00 00 00 00 00 00 00 00 00 00 00 00 [................]
  | | | | |         2557: 00 00 00 00 00 00 00 00 00 00 00 00 00 00 00 00 [................]
  | | | | |         2567: 00 00 00 00 00 00 00 00 00 00 00 00 00 00 00 00 [................]
  | | | | |         2577: 00 00 00 00 00 00 00 00 00 00 00 00 00 00 00 00 [................]
  | | | | |         2587: 00 00 00 00 00 00 00 00 00 00 00 00 00 00 00 00 [................]
  | | | | |         2597: 00 00 00 00 00 00 00 00 00 00 00 00             [............]
  | | | | | 30) Canon_0x4012 = 
  | | | | |     - Tag 0x4012 (32 bytes, string[32]):
  | | | | |         25a3: 00 00 00 00 00 00 00 00 00 00 00 00 00 00 00 00 [................]
  | | | | |         25b3: 00 00 00 00 00 00 00 00 00 00 00 00 00 00 00 00 [................]
  | | | | | 31) AFMicroAdj (SubDirectory) -->
  | | | | |     - Tag 0x4013 (44 bytes, int32u[11] read as undef[44]):
  | | | | |         25c3: 2c 00 00 00 00 00 00 00 00 00 00 00 0a 00 00 00 [,...............]
  | | | | |         25d3: ff ff ff ff 00 00 00 00 0a 00 00 00 00 00 00 00 [................]
  | | | | |         25e3: 0a 00 00 00 00 00 00 00 0a 00 00 00             [............]
  | | | | | + [BinaryData directory, 44 bytes, Little-endian]
  | | | | | | AFMicroAdjMode = 0
  | | | | | | - Tag 0x0001 (4 bytes, int32s[1]):
  | | | | | |     25c7: 00 00 00 00                                     [....]
  | | | | | | AFMicroAdjValue = 0
  | | | | | | - Tag 0x0002 (8 bytes, rational64s[1]):
  | | | | | |     25cb: 00 00 00 00 0a 00 00 00                         [........]
  | | | | | 32) VignettingCorr (SubDirectory) -->
  | | | | |     - Tag 0x4015 (456 bytes, undef[456]):
  | | | | |         25ef: 00 21 c8 01 00 00 00 00 00 00 00 00 00 00 00 00 [.!..............]
  | | | | |         25ff: 00 00 00 00 04 10 60 15 40 0e ff 1f d1 1e 3f 1d [......`.@.....?.]
  | | | | |         260f: f9 1b 8f 1a 5c 18 00 00 b2 03 ea 05 65 07 df 08 [....\.......e...]
  | | | | |         261f: 1a 0a 00 40 81 40 be 40 dc 40 d6 40 cf 40 00 40 [...@.@.@.@.@.@.@]
  | | | | |         262f: ea 3f fc 3f 47 40 a6 40 cf 40 00 00 b2 03 ea 05 [.?.?G@.@.@......]
  | | | | |         263f: 22 08 9d 09 1a 0a e4 3f cf 3f b2 3f 93 3f 84 3f ["......?.?.?.?.?]
  | | | | |         264f: 81 3f 00 00 b2 03 ea 05 22 08 9d 09 1a 0a 00 00 [.?......".......]
  | | | | |         265f: 00 00 00 00 00 00 00 00 00 00 00 00 00 00 00 00 [................]
  | | | | |         266f: 00 00 00 00 00 00 00 00 00 00 00 00 00 00 00 00 [................]
  | | | | |         267f: 00 00 00 00 00 00 00 00 00 00 00 00 00 00 00 00 [................]
  | | | | |         268f: 00 00 00 00 00 00 00 00 00 00 00 00 00 00 00 00 [................]
  | | | | |         269f: 00 00 00 00 00 00 00 00 00 00 00 00 00 00 00 00 [................]
  | | | | |         26af: 00 00 00 00 00 00 00 00 00 00 00 00 00 00 00 00 [................]
  | | | | |         26bf: 00 00 00 00 00 00 00 00 00 00 00 00 00 00 00 00 [................]
  | | | | |         26cf: 00 00 00 00 00 00 00 00 00 00 00 00 00 00 00 00 [................]
  | | | | |         26df: 00 00 00 00 00 00 00 00 00 00 00 00 00 00 00 00 [................]
  | | | | |         26ef: 00 00 00 00 00 00 00 00 00 00 00 00 00 00 00 00 [................]
  | | | | |         26ff: 00 00 00 00 00 00 00 00 00 00 00 00 00 00 00 00 [................]
  | | | | |         270f: 00 00 00 00 00 00 00 00 00 00 00 00 00 00 00 00 [................]
  | | | | |         271f: 00 00 00 00 00 00 00 00 00 00 00 00 00 00 00 00 [................]
  | | | | |         272f: 00 00 00 00 00 00 00 00 00 00 00 00 00 00 00 00 [................]
  | | | | |         273f: 00 00 00 00 00 00 00 00 00 00 00 00 00 00 00 00 [................]
  | | | | |         274f: 00 00 00 00 00 00 00 00 00 00 00 00 00 00 00 00 [................]
  | | | | |         275f: 00 00 00 00 00 00 00 00 00 00 00 00 00 00 00 00 [................]
  | | | | |         276f: 00 00 00 00 00 00 00 00 00 00 00 00 00 00 00 00 [................]
  | | | | |         277f: 00 00 00 00 00 00 00 00 00 00 00 00 00 00 00 00 [................]
  | | | | |         278f: 00 00 00 00 00 00 00 00 00 00 00 00 00 00 00 00 [................]
  | | | | |         279f: 00 00 00 00 00 00 00 00 00 00 00 00 00 00 00 00 [................]
  | | | | |         27af: 00 00 00 00 32 00 00 00                         [....2...]
  | | | | | + [BinaryData directory, 456 bytes, Little-endian]
  | | | | | | PeripheralLighting = 0
  | | | | | | - Tag 0x0002 (2 bytes, int16s[1]):
  | | | | | |     25f3: 00 00                                           [..]
  | | | | | | DistortionCorrection = 0
  | | | | | | - Tag 0x0003 (2 bytes, int16s[1]):
  | | | | | |     25f5: 00 00                                           [..]
  | | | | | | ChromaticAberrationCorr = 0
  | | | | | | - Tag 0x0004 (2 bytes, int16s[1]):
  | | | | | |     25f7: 00 00                                           [..]
  | | | | | | ChromaticAberrationCorr = 0
  | | | | | | - Tag 0x0005 (2 bytes, int16s[1]):
  | | | | | |     25f9: 00 00                                           [..]
  | | | | | | PeripheralLightingValue = 0
  | | | | | | - Tag 0x0006 (2 bytes, int16s[1]):
  | | | | | |     25fb: 00 00                                           [..]
  | | | | | | DistortionCorrectionValue = 0
  | | | | | | - Tag 0x0009 (2 bytes, int16s[1]):
  | | | | | |     2601: 00 00                                           [..]
  | | | | | | OriginalImageWidth = 5472
  | | | | | | - Tag 0x000b (2 bytes, int16s[1]):
  | | | | | |     2605: 60 15                                           [`.]
  | | | | | | OriginalImageHeight = 3648
  | | | | | | - Tag 0x000c (2 bytes, int16s[1]):
  | | | | | |     2607: 40 0e                                           [@.]
  | | | | | 33) VignettingCorr2 (SubDirectory) -->
  | | | | |     - Tag 0x4016 (28 bytes, int32u[7] read as undef[28]):
  | | | | |         27b7: 1c 00 00 00 00 00 00 00 01 00 00 00 00 00 00 00 [................]
  | | | | |         27c7: 01 00 00 00 00 00 00 00 00 00 00 00             [............]
  | | | | | + [BinaryData directory, 28 bytes, Little-endian]
  | | | | | | PeripheralLightingSetting = 0
  | | | | | | - Tag 0x0005 (4 bytes, int32s[1]):
  | | | | | |     27cb: 00 00 00 00                                     [....]
  | | | | | | ChromaticAberrationSetting = 0
  | | | | | | - Tag 0x0006 (4 bytes, int32s[1]):
  | | | | | |     27cf: 00 00 00 00                                     [....]
  | | | | | 34) LightingOpt (SubDirectory) -->
  | | | | |     - Tag 0x4018 (28 bytes, int32u[7] read as undef[28]):
  | | | | |         27d3: 1c 00 00 00 00 00 00 00 00 00 00 00 00 00 00 00 [................]
  | | | | |         27e3: 00 00 00 00 00 00 00 00 01 00 00 00             [............]
  | | | | | + [BinaryData directory, 28 bytes, Little-endian]
  | | | | | | PeripheralIlluminationCorr = 0
  | | | | | | - Tag 0x0001 (4 bytes, int32s[1]):
  | | | | | |     27d7: 00 00 00 00                                     [....]
  | | | | | | AutoLightingOptimizer = 0
  | | | | | | - Tag 0x0002 (4 bytes, int32s[1]):
  | | | | | |     27db: 00 00 00 00                                     [....]
  | | | | | | HighlightTonePriority = 0
  | | | | | | - Tag 0x0003 (4 bytes, int32s[1]):
  | | | | | |     27df: 00 00 00 00                                     [....]
  | | | | | | LongExposureNoiseReduction = 0
  | | | | | | - Tag 0x0004 (4 bytes, int32s[1]):
  | | | | | |     27e3: 00 00 00 00                                     [....]
  | | | | | | HighISONoiseReduction = 0
  | | | | | | - Tag 0x0005 (4 bytes, int32s[1]):
  | | | | | |     27e7: 00 00 00 00                                     [....]
  | | | | | 35) LensInfo (SubDirectory) -->
  | | | | |     - Tag 0x4019 (30 bytes, undef[30]):
  | | | | |         27ef: 00 00 21 4e 1c 00 00 00 00 00 00 00 00 00 00 00 [..!N............]
  | | | | |         27ff: 00 00 00 00 00 00 00 00 00 00 00 00 00 00       [..............]
  | | | | | + [BinaryData directory, 30 bytes, Little-endian]
  | | | | | | LensSerialNumber = !N.
  | | | | | | - Tag 0x0000 (5 bytes, undef[5]):
  | | | | | |     27ef: 00 00 21 4e 1c                                  [..!N.]
  | | | | | 36) AmbienceInfo (SubDirectory) -->
  | | | | |     - Tag 0x4020 (28 bytes, int32u[7] read as undef[28]):
  | | | | |         280d: 1c 00 00 00 00 00 00 00 00 00 00 00 00 00 00 00 [................]
  | | | | |         281d: 00 00 00 00 ff ff ff 7f 00 00 00 00             [............]
  | | | | | + [BinaryData directory, 28 bytes, Little-endian]
  | | | | | | AmbienceSelection = 0
  | | | | | | - Tag 0x0001 (4 bytes, int32s[1]):
  | | | | | |     2811: 00 00 00 00                                     [....]
  | | | | | 37) MultiExp (SubDirectory) -->
  | | | | |     - Tag 0x4021 (20 bytes, int32u[5] read as undef[20]):
  | | | | |         2829: 14 00 00 00 00 00 00 00 00 00 00 00 00 00 00 00 [................]
  | | | | |         2839: 01 00 00 00                                     [....]
  | | | | | + [BinaryData directory, 20 bytes, Little-endian]
  | | | | | | MultiExposure = 0
  | | | | | | - Tag 0x0001 (4 bytes, int32s[1]):
  | | | | | |     282d: 00 00 00 00                                     [....]
  | | | | | | MultiExposureControl = 0
  | | | | | | - Tag 0x0002 (4 bytes, int32s[1]):
  | | | | | |     2831: 00 00 00 00                                     [....]
  | | | | | | MultiExposureShots = 0
  | | | | | | - Tag 0x0003 (4 bytes, int32s[1]):
  | | | | | |     2835: 00 00 00 00                                     [....]
  | | | | | 38) FilterInfo (SubDirectory) -->
  | | | | |     - Tag 0x4024 (212 bytes, int32u[53] read as undef[212]):
  | | | | |         283d: d4 00 00 00 07 00 00 00 01 00 00 00 14 00 00 00 [................]
  | | | | |         284d: 01 00 00 00 01 01 00 00 01 00 00 00 ff ff ff ff [................]
  | | | | |         285d: 02 00 00 00 14 00 00 00 01 00 00 00 01 02 00 00 [................]
  | | | | |         286d: 01 00 00 00 ff ff ff ff 03 00 00 00 14 00 00 00 [................]
  | | | | |         287d: 01 00 00 00 01 03 00 00 01 00 00 00 ff ff ff ff [................]
  | | | | |         288d: 04 00 00 00 38 00 00 00 04 00 00 00 01 04 00 00 [....8...........]
  | | | | |         289d: 01 00 00 00 ff ff ff ff 02 04 00 00 01 00 00 00 [................]
  | | | | |         28ad: 00 00 00 00 03 04 00 00 01 00 00 00 00 00 00 00 [................]
  | | | | |         28bd: 04 04 00 00 01 00 00 00 00 00 00 00 05 00 00 00 [................]
  | | | | |         28cd: 14 00 00 00 01 00 00 00 01 05 00 00 01 00 00 00 [................]
  | | | | |         28dd: ff ff ff ff 06 00 00 00 14 00 00 00 01 00 00 00 [................]
  | | | | |         28ed: 01 06 00 00 01 00 00 00 ff ff ff ff 07 00 00 00 [................]
  | | | | |         28fd: 14 00 00 00 01 00 00 00 01 07 00 00 01 00 00 00 [................]
  | | | | |         290d: ff ff ff ff                                     [....]
  | | | | | + [Creative Filter directory with 7 entries]
  | | | | | + [Filter 1 directory with 1 entries, 20 bytes]
  | | | | | | GrainyBWFilter = -1
  | | | | | | - Tag 0x0101 (4 bytes):
  | | | | | |     2208: ff ff ff ff                                     [....]
  | | | | | + [Filter 2 directory with 1 entries, 20 bytes]
  | | | | | | SoftFocusFilter = -1
  | | | | | | - Tag 0x0201 (4 bytes):
  | | | | | |     2220: ff ff ff ff                                     [....]
  | | | | | + [Filter 3 directory with 1 entries, 20 bytes]
  | | | | | | ToyCameraFilter = -1
  | | | | | | - Tag 0x0301 (4 bytes):
  | | | | | |     2238: ff ff ff ff                                     [....]
  | | | | | + [Filter 4 directory with 4 entries, 56 bytes]
  | | | | | | MiniatureFilter = -1
  | | | | | | - Tag 0x0401 (4 bytes):
  | | | | | |     2250: ff ff ff ff                                     [....]
  | | | | | | MiniatureFilterOrientation = 0
  | | | | | | - Tag 0x0402 (4 bytes):
  | | | | | |     225c: 00 00 00 00                                     [....]
  | | | | | | MiniatureFilterPosition = 0
  | | | | | | - Tag 0x0403 (4 bytes):
  | | | | | |     2268: 00 00 00 00                                     [....]
  | | | | | | MiniatureFilterParameter = 0
  | | | | | | - Tag 0x0404 (4 bytes):
  | | | | | |     2274: 00 00 00 00                                     [....]
  | | | | | + [Filter 5 directory with 1 entries, 20 bytes]
  | | | | | | FisheyeFilter = -1
  | | | | | | - Tag 0x0501 (4 bytes):
  | | | | | |     228c: ff ff ff ff                                     [....]
  | | | | | + [Filter 6 directory with 1 entries, 20 bytes]
  | | | | | | PaintingFilter = -1
  | | | | | | - Tag 0x0601 (4 bytes):
  | | | | | |     22a4: ff ff ff ff                                     [....]
  | | | | | + [Filter 7 directory with 1 entries, 20 bytes]
  | | | | | | WatercolorFilter = -1
  | | | | | | - Tag 0x0701 (4 bytes):
  | | | | | |     22bc: ff ff ff ff                                     [....]
  | | | | | 39) HDRInfo (SubDirectory) -->
  | | | | |     - Tag 0x4025 (36 bytes, int32u[9] read as undef[36]):
  | | | | |         2911: 24 00 00 00 00 00 00 00 00 00 00 00 00 00 00 00 [$...............]
  | | | | |         2921: 00 00 00 00 00 00 00 00 00 00 00 00 00 00 00 00 [................]
  | | | | |         2931: 00 00 00 00                                     [....]
  | | | | | + [BinaryData directory, 36 bytes, Little-endian]
  | | | | | | HDR = 0
  | | | | | | - Tag 0x0001 (4 bytes, int32s[1]):
  | | | | | |     2915: 00 00 00 00                                     [....]
  | | | | | | HDREffect = 0
  | | | | | | - Tag 0x0002 (4 bytes, int32s[1]):
  | | | | | |     2919: 00 00 00 00                                     [....]
  | | | | | 40) Canon_0x4027 = 24 524546 2969567282 134217728 13684944 65539
  | | | | |     - Tag 0x4027 (24 bytes, int32u[6]):
  | | | | |         2935: 18 00 00 00 02 01 08 00 32 00 00 b1 00 00 00 08 [........2.......]
  | | | | |         2945: d0 d0 d0 00 03 00 01 00                         [........]
  | | | | 17) UserComment = 
  | | | |     - Tag 0x9286 (264 bytes, undef[264]):
  | | | |         2955: 00 00 00 00 00 00 00 00 00 00 00 00 00 00 00 00 [................]
  | | | |         2965: 00 00 00 00 00 00 00 00 00 00 00 00 00 00 00 00 [................]
  | | | |         2975: 00 00 00 00 00 00 00 00 00 00 00 00 00 00 00 00 [................]
  | | | |         2985: 00 00 00 00 00 00 00 00 00 00 00 00 00 00 00 00 [................]
  | | | |         2995: 00 00 00 00 00 00 00 00 00 00 00 00 00 00 00 00 [................]
  | | | |         29a5: 00 00 00 00 00 00 00 00 00 00 00 00 00 00 00 00 [................]
  | | | |         29b5: 00 00 00 00 00 00 00 00 00 00 00 00 00 00 00 00 [................]
  | | | |         29c5: 00 00 00 00 00 00 00 00 00 00 00 00 00 00 00 00 [................]
  | | | |         29d5: 00 00 00 00 00 00 00 00 00 00 00 00 00 00 00 00 [................]
  | | | |         29e5: 00 00 00 00 00 00 00 00 00 00 00 00 00 00 00 00 [................]
  | | | |         29f5: 00 00 00 00 00 00 00 00 00 00 00 00 00 00 00 00 [................]
  | | | |         2a05: 00 00 00 00 00 00 00 00 00 00 00 00 00 00 00 00 [................]
  | | | |         2a15: 00 00 00 00 00 00 00 00 00 00 00 00 00 00 00 00 [................]
  | | | |         2a25: 00 00 00 00 00 00 00 00 00 00 00 00 00 00 00 00 [................]
  | | | |         2a35: 00 00 00 00 00 00 00 00 00 00 00 00 00 00 00 00 [................]
  | | | |         2a45: 00 00 00 00 00 00 00 00 00 00 00 00 00 00 00 00 [................]
  | | | |         2a55: 00 00 00 00 00 00 00 00                         [........]
  | | | | 18) SubSecTime = 00
  | | | |     - Tag 0x9290 (3 bytes, string[3]):
  | | | |         0809: 30 30 00                                        [00.]
  | | | | 19) SubSecTimeOriginal = 00
  | | | |     - Tag 0x9291 (3 bytes, string[3]):
  | | | |         0815: 30 30 00                                        [00.]
  | | | | 20) SubSecTimeDigitized = 00
  | | | |     - Tag 0x9292 (3 bytes, string[3]):
  | | | |         0821: 30 30 00                                        [00.]
  | | | | 21) FlashpixVersion = 0100
  | | | |     - Tag 0xa000 (4 bytes, undef[4]):
  | | | |         082d: 30 31 30 30                                     [0100]
  | | | | 22) ColorSpace = 1
  | | | |     - Tag 0xa001 (2 bytes, int16u[1]):
  | | | |         0839: 01 00                                           [..]
  | | | | 23) ExifImageWidth = 5472
  | | | |     - Tag 0xa002 (2 bytes, int16u[1]):
  | | | |         0845: 60 15                                           [`.]
  | | | | 24) ExifImageHeight = 3648
  | | | |     - Tag 0xa003 (2 bytes, int16u[1]):
  | | | |         0851: 40 0e                                           [@.]
  | | | | 25) InteropOffset (SubDirectory) -->
  | | | |     - Tag 0xa005 (4 bytes, int32u[1]):
  | | | |         085d: 68 24 00 00                                     [h$..]
  | | | | + [InteropIFD directory with 2 entries, Little-endian]
  | | | | | 0)  InteropIndex = R98
  | | | | |     - Tag 0x0001 (4 bytes, string[4]):
  | | | | |         2ac3: 52 39 38 00                                     [R98.]
  | | | | | 1)  InteropVersion = 0100
  | | | | |     - Tag 0x0002 (4 bytes, undef[4]):
  | | | | |         2acf: 30 31 30 30                                     [0100]
  | | | | 26) FocalPlaneXResolution = 6086.76307 (5472000/899)
  | | | |     - Tag 0xa20e (8 bytes, rational64u[1]):
  | | | |         2a5d: 00 7f 53 00 83 03 00 00                         [..S.....]
  | | | | 27) FocalPlaneYResolution = 6090.15025 (3648000/599)
  | | | |     - Tag 0xa20f (8 bytes, rational64u[1]):
  | | | |         2a65: 00 aa 37 00 57 02 00 00                         [..7.W...]
  | | | | 28) FocalPlaneResolutionUnit = 2
  | | | |     - Tag 0xa210 (2 bytes, int16u[1]):
  | | | |         0881: 02 00                                           [..]
  | | | | 29) CustomRendered = 0
  | | | |     - Tag 0xa401 (2 bytes, int16u[1]):
  | | | |         088d: 00 00                                           [..]
  | | | | 30) ExposureMode = 0
  | | | |     - Tag 0xa402 (2 bytes, int16u[1]):
  | | | |         0899: 00 00                                           [..]
  | | | | 31) WhiteBalance = 0
  | | | |     - Tag 0xa403 (2 bytes, int16u[1]):
  | | | |         08a5: 00 00                                           [..]
  | | | | 32) SceneCaptureType = 0
  | | | |     - Tag 0xa406 (2 bytes, int16u[1]):
  | | | |         08b1: 00 00                                           [..]
  | | | | 33) OwnerName = 
  | | | |     - Tag 0xa430 (1 bytes, string[1]):
  | | | |         08bd: 00                                              [.]
  | | | | 34) SerialNumber = 053022005903
  | | | |     - Tag 0xa431 (13 bytes, string[13]):
  | | | |         2a6d: 30 35 33 30 32 32 30 30 35 39 30 33 00          [053022005903.]
  | | | | 35) LensInfo = 50 50 0 0 (50/1 50/1 0/1 0/1)
  | | | |     - Tag 0xa432 (32 bytes, rational64u[4]):
  | | | |         2a7b: 32 00 00 00 01 00 00 00 32 00 00 00 01 00 00 00 [2.......2.......]
  | | | |         2a8b: 00 00 00 00 01 00 00 00 00 00 00 00 01 00 00 00 [................]
  | | | | 36) LensModel = EF50mm f/1.8 STM
  | | | |     - Tag 0xa434 (17 bytes, string[17]):
  | | | |         2a9b: 45 46 35 30 6d 6d 20 66 2f 31 2e 38 20 53 54 4d [EF50mm f/1.8 STM]
  | | | |         2aab: 00                                              [.]
  | | | | 37) LensSerialNumber = 0000214e1c
  | | | |     - Tag 0xa435 (11 bytes, string[11]):
  | | | |         2aad: 30 30 30 30 32 31 34 65 31 63 00                [0000214e1c.]
  | | | 11) GPSInfo (SubDirectory) -->
  | | |     - Tag 0x8825 (4 bytes, int32u[1]):
  | | |         06e7: 86 24 00 00                                     [.$..]
  | | | + [GPS directory with 1 entries, Little-endian]
  | | | | 0)  GPSVersionID = 2 3 0 0
  | | | |     - Tag 0x0000 (4 bytes, int8u[4]):
  | | | |         2ae1: 02 03 00 00                                     [....]
  | | + [IFD1 directory with 6 entries, Little-endian]
  | | | 0)  Compression = 6
  | | |     - Tag 0x0103 (2 bytes, int16u[1]):
  | | |         2af3: 06 00                                           [..]
  | | | 1)  XResolution = 72 (72/1)
  | | |     - Tag 0x011a (8 bytes, rational64u[1]):
  | | |         2b37: 48 00 00 00 01 00 00 00                         [H.......]
  | | | 2)  YResolution = 72 (72/1)
  | | |     - Tag 0x011b (8 bytes, rational64u[1]):
  | | |         2b3f: 48 00 00 00 01 00 00 00                         [H.......]
  | | | 3)  ResolutionUnit = 2
  | | |     - Tag 0x0128 (2 bytes, int16u[1]):
  | | |         2b17: 02 00                                           [..]
  | | | 4)  ThumbnailOffset = 9462
  | | |     - Tag 0x0201 (4 bytes, int32u[1]):
  | | |         2b23: f6 24 00 00                                     [.$..]
  | | | 5)  ThumbnailLength = 8567
  | | |     - Tag 0x0202 (4 bytes, int32u[1]):
  | | |         2b2f: 77 21 00 00                                     [w!..]
  | + [ItemPropertyContainer directory]
  | | 1)  ImageSpatialExtent = .`.@
  | |     - Tag 'ispe' (12 bytes):
  | |         00e8: 00 00 00 00 00 00 15 60 00 00 0e 40             [.......`...@]
  | | ImageWidth = 5472
  | | ImageHeight = 3648
  | | 2)  ImagePixelDepth = ....
  | |     - Tag 'pixi' (8 bytes):
  | |         00fc: 00 00 00 00 03 08 08 08                         [........]
  | | 3)  AV1Configuration (SubDirectory) -->
  | |     - Tag 'av1C' (4 bytes):
  | |         010c: 81 30 00 00                                     [.0..]
  | | + [BinaryData directory, 4 bytes, Big-endian]
  | | | AV1ConfigurationVersion = 1
  | | | - Tag 0x0000, mask 0x7f (1 bytes, int8u[1]):
  | | |     010c: 81                                              [.]
  | | | SeqProfile = 1
  | | | - Tag 0x0001, mask 0xe0 (1 bytes, int8u[1]):
  | | |     010d: 30                                              [0]
  | | | SeqTier0 = 0
  | | | - Tag 0x0002, mask 0x80 (1 bytes, int8u[1]):
  | | |     010e: 00                                              [.]
  | | | ChromaFormat = 0
  | | | - Tag '2.3', mask 0x1c (1 bytes, int8u[1]):
  | | |     010e: 00                                              [.]
  | | | ChromaSamplePosition = 0
  | | | - Tag '2.4', mask 0x03 (1 bytes, int8u[1]):
  | | |     010e: 00                                              [.]
  | | | InitialDelaySamples = 0
  | | | - Tag 0x0003 (1 bytes, int8u[1]):
  | | |     010f: 00                                              [.]
  | | 4)  ColorRepresentation (SubDirectory) -->
  | |     - Tag 'colr' (11 bytes):
  | |         0118: 6e 63 6c 78 00 01 00 0d 00 00 80                [nclx.......]
  | | + [BinaryData directory, 11 bytes, Big-endian]
  | | | ColorProfiles = nclx
  | | | - Tag 0x0000 (4 bytes, undef[4]):
  | | |     0118: 6e 63 6c 78                                     [nclx]
  | | | ColorPrimaries = 1
  | | | - Tag 0x0004 (2 bytes, int16u[1]):
  | | |     011c: 00 01                                           [..]
  | | | TransferCharacteristics = 13
  | | | - Tag 0x0006 (2 bytes, int16u[1]):
  | | |     011e: 00 0d                                           [..]
  | | | MatrixCoefficients = 0
  | | | - Tag 0x0008 (2 bytes, int16u[1]):
  | | |     0120: 00 00                                           [..]
  | | | VideoFullRangeFlag = 1
  | | | - Tag 0x000a, mask 0x80 (1 bytes, int8u[1]):
  | | |     0122: 80                                              [.]
  Movie (SubDirectory) -->
  - Tag 'moov' (1283 bytes):
      0142: 00 00 00 78 6d 76 68 64 01 00 00 00 00 00 00 00 [...xmvhd........]
      0152: e6 0d 0f 41 00 00 00 00 e6 0d 0f 41 00 00 00 1e [...A.......A....]
      0162: ff ff ff ff ff ff ff ff 00 01 00 00 01 00 00 00 [................]
      0172: 00 00 00 00 00 00 00 00 00 01 00 00 00 00 00 00 [................]
      0182: 00 00 00 00 00 00 00 00 00 01 00 00 00 00 00 00 [................]
      0192: 00 00 00 00 00 00 00 00 40 00 00 00 00 00 00 00 [........@.......]
      01a2: 00 00 00 00 00 00 00 00 00 00 00 00 00 00 00 00 [................]
      01b2: 00 00 00 00 00 00 00 01 00 00 02 46 74 72 61 6b [...........Ftrak]
      01c2: 00 00 00 68 74 6b 68 64 01 00 00 01 00 00 00 00 [...htkhd........]
      01d2: e6 0d 0f 41 00 00 00 00 e6 0d 0f 41 00 00 00 01 [...A.......A....]
      01e2: 00 00 00 00 ff ff ff ff ff ff ff ff 00 00 00 00 [................]
      01f2: 00 00 00 00 00 00 00 00 00 00 00 00 00 01 00 00 [................]
      0202: 00 00 00 00 00 00 00 00 00 00 00 00 00 01 00 00 [................]
      0212: 00 00 00 00 00 00 00 00 00 00 00 00 40 00 00 00 [............@...]
      0222: 15 60 00 00 0e 40 00 00 00 00 00 2c 65 64 74 73 [.`...@.....,edts]
      0232: 00 00 00 24 65 6c 73 74 01 00 00 01 00 00 00 01 [...$elst........]
      0242: 00 00 00 00 00 00 00 02 00 00 00 00 00 00 00 00 [................]
      0252: 00 01 00 00 00 00 01 aa 6d 64 69 61 00 00 00 2c [........mdia...,]
      0262: 6d 64 68 64 01 00 00 00 00 00 00 00 e6 0d 0f 41 [mdhd...........A]
      0272: 00 00 00 00 e6 0d 0f 41 00 00 00 1e 00 00 00 00 [.......A........]
      0282: 00 00 00 02 55 c4 00 00 00 00 00 21 68 64 6c 72 [....U......!hdlr]
      0292: 00 00 00 00 00 00 00 00 70 69 63 74 00 00 00 00 [........pict....]
      02a2: 00 00 00 00 00 00 00 00 00 00 00 01 55 6d 69 6e [............Umin]
      02b2: 66 00 00 00 14 76 6d 68 64 00 00 00 01 00 00 00 [f....vmhd.......]
      02c2: 00 00 00 00 00 00 00 00 24 64 69 6e 66 00 00 00 [........$dinf...]
      02d2: 1c 64 72 65 66 00 00 00 00 00 00 00 01 00 00 00 [.dref...........]
      02e2: 0c 75 72 6c 20 00 00 00 01 00 00 01 15 73 74 62 [.url ........stb]
      02f2: 6c 00 00 00 95 73 74 73 64 00 00 00 00 00 00 00 [l....stsd.......]
      0302: 01 00 00 00 85 61 76 30 31 00 00 00 00 00 00 00 [.....av01.......]
      0312: 01 00 00 00 00 00 00 00 00 00 00 00 00 00 00 00 [................]
      0322: 00 15 60 0e 40 00 48 00 00 00 48 00 00 00 00 00 [..`.@.H...H.....]
      0332: 00 00 01 0a 41 4f 4d 20 43 6f 64 69 6e 67 00 00 [....AOM Coding..]
      0342: 00 00 00 00 00 00 00 00 00 00 00 00 00 00 00 00 [................]
      0352: 00 00 00 00 18 ff ff 00 00 00 0c 61 76 31 43 81 [...........av1C.]
      0362: 30 00 00 00 00 00 13 63 6f 6c 72 6e 63 6c 78 00 [0......colrnclx.]
      0372: 01 00 0d 00 00 80 00 00 00 10 63 63 73 74 00 00 [..........ccst..]
      0382: 00 00 7c 00 00 00 00 00 00 18 73 74 74 73 00 00 [..|.......stts..]
      0392: 00 00 00 00 00 01 00 00 00 02 00 00 00 01 00 00 [................]
      03a2: 00 1c 73 74 73 63 00 00 00 00 00 00 00 01 00 00 [..stsc..........]
      03b2: 00 01 00 00 00 02 00 00 00 01 00 00 00 1c 73 74 [..............st]
      03c2: 73 7a 00 00 00 00 00 00 00 00 00 00 00 02 00 7a [sz.............z]
      03d2: 98 5c 00 7e 0e 9d 00 00 00 14 73 74 63 6f 00 00 [.\.~......stco..]
      03e2: 00 00 00 00 00 01 00 00 4c bf 00 00 00 14 73 74 [........L.....st]
      03f2: 73 73 00 00 00 00 00 00 00 01 00 00 00 01 00 00 [ss..............]
      0402: 02 45 75 75 69 64 be 7a cf cb 97 a9 42 e8 9c 71 [.Euuid.z....B..q]
      0412: 99 94 91 e3 af ac 3c 3f 78 70 61 63 6b 65 74 20 [......<?xpacket ]
      0422: 62 65 67 69 6e 3d 27 ef bb bf 27 20 69 64 3d 27 [begin='...' id=']
      0432: 57 35 4d 30 4d 70 43 65 68 69 48 7a 72 65 53 7a [W5M0MpCehiHzreSz]
      0442: 4e 54 63 7a 6b 63 39 64 27 3f 3e 0a 3c 78 3a 78 [NTczkc9d'?>.<x:x]
      0452: 6d 70 6d 65 74 61 20 78 6d 6c 6e 73 3a 78 3d 27 [mpmeta xmlns:x=']
      0462: 61 64 6f 62 65 3a 6e 73 3a 6d 65 74 61 2f 27 20 [adobe:ns:meta/' ]
      0472: 78 3a 78 6d 70 74 6b 3d 27 49 6d 61 67 65 3a 3a [x:xmptk='Image::]
      0482: 45 78 69 66 54 6f 6f 6c 20 31 33 2e 35 30 27 3e [ExifTool 13.50'>]
      0492: 0a 3c 72 64 66 3a 52 44 46 20 78 6d 6c 6e 73 3a [.<rdf:RDF xmlns:]
      04a2: 72 64 66 3d 27 68 74 74 70 3a 2f 2f 77 77 77 2e [rdf='http://www.]
      04b2: 77 33 2e 6f 72 67 2f 31 39 39 39 2f 30 32 2f 32 [w3.org/1999/02/2]
      04c2: 32 2d 72 64 66 2d 73 79 6e 74 61 78 2d 6e 73 23 [2-rdf-syntax-ns#]
      04d2: 27 3e 0a 20 3c 72 64 66 3a 44 65 73 63 72 69 70 ['>. <rdf:Descrip]
      04e2: 74 69 6f 6e 20 72 64 66 3a 61 62 6f 75 74 3d 27 [tion rdf:about=']
      04f2: 27 0a 20 20 78 6d 6c 6e 73 3a 78 6d 70 3d 27 68 ['.  xmlns:xmp='h]
      0502: 74 74 70 3a 2f 2f 6e 73 2e 61 64 6f 62 65 2e 63 [ttp://ns.adobe.c]
      0512: 6f 6d 2f 78 61 70 2f 31 2e 30 2f 27 0a 20 20 78 [om/xap/1.0/'.  x]
      0522: 6d 6c 6e 73 3a 64 63 3d 27 68 74 74 70 3a 2f 2f [mlns:dc='http://]
      0532: 70 75 72 6c 2e 6f 72 67 2f 64 63 2f 65 6c 65 6d [purl.org/dc/elem]
      0542: 65 6e 74 73 2f 31 2e 31 2f 27 3e 0a 20 20 3c 78 [ents/1.1/'>.  <x]
      0552: 6d 70 3a 52 61 74 69 6e 67 3e 34 3c 2f 78 6d 70 [mp:Rating>4</xmp]
      0562: 3a 52 61 74 69 6e 67 3e 0a 20 20 3c 64 63 3a 64 [:Rating>.  <dc:d]
      0572: 65 73 63 72 69 70 74 69 6f 6e 3e 0a 20 20 20 3c [escription>.   <]
      0582: 72 64 66 3a 41 6c 74 3e 0a 20 20 20 20 3c 72 64 [rdf:Alt>.    <rd]
      0592: 66 3a 6c 69 20 78 6d 6c 3a 6c 61 6e 67 3d 27 78 [f:li xml:lang='x]
      05a2: 2d 64 65 66 61 75 6c 74 27 3e 41 6e 69 6d 61 74 [-default'>Animat]
      05b2: 65 64 20 41 56 49 46 20 77 69 74 68 20 58 4d 50 [ed AVIF with XMP]
      05c2: 20 69 6e 20 55 55 49 44 20 62 6f 78 20 69 6e 73 [ in UUID box ins]
      05d2: 69 64 65 20 6d 6f 6f 76 3c 2f 72 64 66 3a 6c 69 [ide moov</rdf:li]
      05e2: 3e 0a 20 20 20 3c 2f 72 64 66 3a 41 6c 74 3e 0a [>.   </rdf:Alt>.]
      05f2: 20 20 3c 2f 64 63 3a 64 65 73 63 72 69 70 74 69 [  </dc:descripti]
      0602: 6f 6e 3e 0a 20 3c 2f 72 64 66 3a 44 65 73 63 72 [on>. </rdf:Descr]
      0612: 69 70 74 69 6f 6e 3e 0a 3c 2f 72 64 66 3a 52 44 [iption>.</rdf:RD]
      0622: 46 3e 0a 3c 2f 78 3a 78 6d 70 6d 65 74 61 3e 0a [F>.</x:xmpmeta>.]
      0632: 3c 3f 78 70 61 63 6b 65 74 20 65 6e 64 3d 27 77 [<?xpacket end='w]
      0642: 27 3f 3e                                        ['?>]
  + [Movie directory]
  | MovieHeader (SubDirectory) -->
  | - Tag 'mvhd' (112 bytes):
  |     014a: 01 00 00 00 00 00 00 00 e6 0d 0f 41 00 00 00 00 [...........A....]
  |     015a: e6 0d 0f 41 00 00 00 1e ff ff ff ff ff ff ff ff [...A............]
  |     016a: 00 01 00 00 01 00 00 00 00 00 00 00 00 00 00 00 [................]
  |     017a: 00 01 00 00 00 00 00 00 00 00 00 00 00 00 00 00 [................]
  |     018a: 00 01 00 00 00 00 00 00 00 00 00 00 00 00 00 00 [................]
  |     019a: 40 00 00 00 00 00 00 00 00 00 00 00 00 00 00 00 [@...............]
  |     01aa: 00 00 00 00 00 00 00 00 00 00 00 00 00 00 00 01 [................]
  | + [BinaryData directory, 112 bytes, Big-endian]
  | | MovieHeaderVersion = 1
  | | - Tag 0x0000 (1 bytes, int8u[1]):
  | |     014a: 01                                              [.]
  | | CreateDate = 3859615553
  | | - Tag 0x0001 (8 bytes, int64u[1]):
  | |     014e: 00 00 00 00 e6 0d 0f 41                         [.......A]
  | | [offsets adjusted by +0x0004 after 0x0001 CreateDate]
  | | ModifyDate = 3859615553
  | | - Tag 0x0002 (8 bytes, int64u[1]):
  | |     0156: 00 00 00 00 e6 0d 0f 41                         [.......A]
  | | [offsets adjusted by +0x0008 after 0x0002 ModifyDate]
  | | TimeScale = 30
  | | - Tag 0x0003 (4 bytes, int32u[1]):
  | |     015e: 00 00 00 1e                                     [....]
  | | Duration = 18446744073709551615
  | | - Tag 0x0004 (8 bytes, int64u[1]):
  | |     0162: ff ff ff ff ff ff ff ff                         [........]
  | | [offsets adjusted by +0x000c after 0x0004 Duration]
  | | PreferredRate = 65536
  | | - Tag 0x0005 (4 bytes, int32u[1]):
  | |     016a: 00 01 00 00                                     [....]
  | | PreferredVolume = 256
  | | - Tag 0x0006 (2 bytes, int16u[1]):
  | |     016e: 01 00                                           [..]
  | | MatrixStructure = 1 0 0 0 1 0 0 0 16384
  | | - Tag 0x0009 (36 bytes, fixed32s[9]):
  | |     017a: 00 01 00 00 00 00 00 00 00 00 00 00 00 00 00 00 [................]
  | |     018a: 00 01 00 00 00 00 00 00 00 00 00 00 00 00 00 00 [................]
  | |     019a: 40 00 00 00                                     [@...]
  | | PreviewTime = 0
  | | - Tag 0x0012 (4 bytes, int32u[1]):
  | |     019e: 00 00 00 00                                     [....]
  | | PreviewDuration = 0
  | | - Tag 0x0013 (4 bytes, int32u[1]):
  | |     01a2: 00 00 00 00                                     [....]
  | | PosterTime = 0
  | | - Tag 0x0014 (4 bytes, int32u[1]):
  | |     01a6: 00 00 00 00                                     [....]
  | | SelectionTime = 0
  | | - Tag 0x0015 (4 bytes, int32u[1]):
  | |     01aa: 00 00 00 00                                     [....]
  | | SelectionDuration = 0
  | | - Tag 0x0016 (4 bytes, int32u[1]):
  | |     01ae: 00 00 00 00                                     [....]
  | | CurrentTime = 0
  | | - Tag 0x0017 (4 bytes, int32u[1]):
  | |     01b2: 00 00 00 00                                     [....]
  | | NextTrackID = 1
  | | - Tag 0x0018 (4 bytes, int32u[1]):
  | |     01b6: 00 00 00 01                                     [....]
  | Track (SubDirectory) -->
  | - Tag 'trak' (574 bytes):
  |     01c2: 00 00 00 68 74 6b 68 64 01 00 00 01 00 00 00 00 [...htkhd........]
  |     01d2: e6 0d 0f 41 00 00 00 00 e6 0d 0f 41 00 00 00 01 [...A.......A....]
  |     01e2: 00 00 00 00 ff ff ff ff ff ff ff ff 00 00 00 00 [................]
  |     01f2: 00 00 00 00 00 00 00 00 00 00 00 00 00 01 00 00 [................]
  |     0202: 00 00 00 00 00 00 00 00 00 00 00 00 00 01 00 00 [................]
  |     0212: 00 00 00 00 00 00 00 00 00 00 00 00 40 00 00 00 [............@...]
  |     0222: 15 60 00 00 0e 40 00 00 00 00 00 2c 65 64 74 73 [.`...@.....,edts]
  |     0232: 00 00 00 24 65 6c 73 74 01 00 00 01 00 00 00 01 [...$elst........]
  |     0242: 00 00 00 00 00 00 00 02 00 00 00 00 00 00 00 00 [................]
  |     0252: 00 01 00 00 00 00 01 aa 6d 64 69 61 00 00 00 2c [........mdia...,]
  |     0262: 6d 64 68 64 01 00 00 00 00 00 00 00 e6 0d 0f 41 [mdhd...........A]
  |     0272: 00 00 00 00 e6 0d 0f 41 00 00 00 1e 00 00 00 00 [.......A........]
  |     0282: 00 00 00 02 55 c4 00 00 00 00 00 21 68 64 6c 72 [....U......!hdlr]
  |     0292: 00 00 00 00 00 00 00 00 70 69 63 74 00 00 00 00 [........pict....]
  |     02a2: 00 00 00 00 00 00 00 00 00 00 00 01 55 6d 69 6e [............Umin]
  |     02b2: 66 00 00 00 14 76 6d 68 64 00 00 00 01 00 00 00 [f....vmhd.......]
  |     02c2: 00 00 00 00 00 00 00 00 24 64 69 6e 66 00 00 00 [........$dinf...]
  |     02d2: 1c 64 72 65 66 00 00 00 00 00 00 00 01 00 00 00 [.dref...........]
  |     02e2: 0c 75 72 6c 20 00 00 00 01 00 00 01 15 73 74 62 [.url ........stb]
  |     02f2: 6c 00 00 00 95 73 74 73 64 00 00 00 00 00 00 00 [l....stsd.......]
  |     0302: 01 00 00 00 85 61 76 30 31 00 00 00 00 00 00 00 [.....av01.......]
  |     0312: 01 00 00 00 00 00 00 00 00 00 00 00 00 00 00 00 [................]
  |     0322: 00 15 60 0e 40 00 48 00 00 00 48 00 00 00 00 00 [..`.@.H...H.....]
  |     0332: 00 00 01 0a 41 4f 4d 20 43 6f 64 69 6e 67 00 00 [....AOM Coding..]
  |     0342: 00 00 00 00 00 00 00 00 00 00 00 00 00 00 00 00 [................]
  |     0352: 00 00 00 00 18 ff ff 00 00 00 0c 61 76 31 43 81 [...........av1C.]
  |     0362: 30 00 00 00 00 00 13 63 6f 6c 72 6e 63 6c 78 00 [0......colrnclx.]
  |     0372: 01 00 0d 00 00 80 00 00 00 10 63 63 73 74 00 00 [..........ccst..]
  |     0382: 00 00 7c 00 00 00 00 00 00 18 73 74 74 73 00 00 [..|.......stts..]
  |     0392: 00 00 00 00 00 01 00 00 00 02 00 00 00 01 00 00 [................]
  |     03a2: 00 1c 73 74 73 63 00 00 00 00 00 00 00 01 00 00 [..stsc..........]
  |     03b2: 00 01 00 00 00 02 00 00 00 01 00 00 00 1c 73 74 [..............st]
  |     03c2: 73 7a 00 00 00 00 00 00 00 00 00 00 00 02 00 7a [sz.............z]
  |     03d2: 98 5c 00 7e 0e 9d 00 00 00 14 73 74 63 6f 00 00 [.\.~......stco..]
  |     03e2: 00 00 00 00 00 01 00 00 4c bf 00 00 00 14 73 74 [........L.....st]
  |     03f2: 73 73 00 00 00 00 00 00 00 01 00 00 00 01       [ss............]
  | + [Track directory]
  | | TrackHeader (SubDirectory) -->
  | | - Tag 'tkhd' (96 bytes):
  | |     01ca: 01 00 00 01 00 00 00 00 e6 0d 0f 41 00 00 00 00 [...........A....]
  | |     01da: e6 0d 0f 41 00 00 00 01 00 00 00 00 ff ff ff ff [...A............]
  | |     01ea: ff ff ff ff 00 00 00 00 00 00 00 00 00 00 00 00 [................]
  | |     01fa: 00 00 00 00 00 01 00 00 00 00 00 00 00 00 00 00 [................]
  | |     020a: 00 00 00 00 00 01 00 00 00 00 00 00 00 00 00 00 [................]
  | |     021a: 00 00 00 00 40 00 00 00 15 60 00 00 0e 40 00 00 [....@....`...@..]
  | | + [BinaryData directory, 96 bytes, Big-endian]
  | | | TrackHeaderVersion = 1
  | | | - Tag 0x0000 (1 bytes, int8u[1]):
  | | |     01ca: 01                                              [.]
  | | | TrackCreateDate = 3859615553
  | | | - Tag 0x0001 (8 bytes, int64u[1]):
  | | |     01ce: 00 00 00 00 e6 0d 0f 41                         [.......A]
  | | | [offsets adjusted by +0x0004 after 0x0001 TrackCreateDate]
  | | | TrackModifyDate = 3859615553
  | | | - Tag 0x0002 (8 bytes, int64u[1]):
  | | |     01d6: 00 00 00 00 e6 0d 0f 41                         [.......A]
  | | | [offsets adjusted by +0x0008 after 0x0002 TrackModifyDate]
  | | | TrackID = 1
  | | | - Tag 0x0003 (4 bytes, int32u[1]):
  | | |     01de: 00 00 00 01                                     [....]
  | | | TrackDuration = 18446744073709551615
  | | | - Tag 0x0005 (8 bytes, int64u[1]):
  | | |     01e6: ff ff ff ff ff ff ff ff                         [........]
  | | | [offsets adjusted by +0x000c after 0x0005 TrackDuration]
  | | | TrackLayer = 0
  | | | - Tag 0x0008 (2 bytes, int16u[1]):
  | | |     01f6: 00 00                                           [..]
  | | | TrackVolume = 0
  | | | - Tag 0x0009 (2 bytes, int16u[1]):
  | | |     01fa: 00 00                                           [..]
  | | | MatrixStructure = 1 0 0 0 1 0 0 0 16384
  | | | - Tag 0x000a (36 bytes, fixed32s[9]):
  | | |     01fe: 00 01 00 00 00 00 00 00 00 00 00 00 00 00 00 00 [................]
  | | |     020e: 00 01 00 00 00 00 00 00 00 00 00 00 00 00 00 00 [................]
  | | |     021e: 40 00 00 00                                     [@...]
  | | | ImageWidth = 358612992
  | | | - Tag 0x0013 (4 bytes, int32u[1]):
  | | |     0222: 15 60 00 00                                     [.`..]
  | | | ImageHeight = 239075328
  | | | - Tag 0x0014 (4 bytes, int32u[1]):
  | | |     0226: 0e 40 00 00                                     [.@..]
  | | Unknown_edts = $elst.....
  | | - Tag 'edts' (36 bytes):
  | |     0232: 00 00 00 24 65 6c 73 74 01 00 00 01 00 00 00 01 [...$elst........]
  | |     0242: 00 00 00 00 00 00 00 02 00 00 00 00 00 00 00 00 [................]
  | |     0252: 00 01 00 00                                     [....]
  | | Media (SubDirectory) -->
  | | - Tag 'mdia' (418 bytes):
  | |     025e: 00 00 00 2c 6d 64 68 64 01 00 00 00 00 00 00 00 [...,mdhd........]
  | |     026e: e6 0d 0f 41 00 00 00 00 e6 0d 0f 41 00 00 00 1e [...A.......A....]
  | |     027e: 00 00 00 00 00 00 00 02 55 c4 00 00 00 00 00 21 [........U......!]
  | |     028e: 68 64 6c 72 00 00 00 00 00 00 00 00 70 69 63 74 [hdlr........pict]
  | |     029e: 00 00 00 00 00 00 00 00 00 00 00 00 00 00 00 01 [................]
  | |     02ae: 55 6d 69 6e 66 00 00 00 14 76 6d 68 64 00 00 00 [Uminf....vmhd...]
  | |     02be: 01 00 00 00 00 00 00 00 00 00 00 00 24 64 69 6e [............$din]
  | |     02ce: 66 00 00 00 1c 64 72 65 66 00 00 00 00 00 00 00 [f....dref.......]
  | |     02de: 01 00 00 00 0c 75 72 6c 20 00 00 00 01 00 00 01 [.....url .......]
  | |     02ee: 15 73 74 62 6c 00 00 00 95 73 74 73 64 00 00 00 [.stbl....stsd...]
  | |     02fe: 00 00 00 00 01 00 00 00 85 61 76 30 31 00 00 00 [.........av01...]
  | |     030e: 00 00 00 00 01 00 00 00 00 00 00 00 00 00 00 00 [................]
  | |     031e: 00 00 00 00 00 15 60 0e 40 00 48 00 00 00 48 00 [......`.@.H...H.]
  | |     032e: 00 00 00 00 00 00 01 0a 41 4f 4d 20 43 6f 64 69 [........AOM Codi]
  | |     033e: 6e 67 00 00 00 00 00 00 00 00 00 00 00 00 00 00 [ng..............]
  | |     034e: 00 00 00 00 00 00 00 00 18 ff ff 00 00 00 0c 61 [...............a]
  | |     035e: 76 31 43 81 30 00 00 00 00 00 13 63 6f 6c 72 6e [v1C.0......colrn]
  | |     036e: 63 6c 78 00 01 00 0d 00 00 80 00 00 00 10 63 63 [clx...........cc]
  | |     037e: 73 74 00 00 00 00 7c 00 00 00 00 00 00 18 73 74 [st....|.......st]
  | |     038e: 74 73 00 00 00 00 00 00 00 01 00 00 00 02 00 00 [ts..............]
  | |     039e: 00 01 00 00 00 1c 73 74 73 63 00 00 00 00 00 00 [......stsc......]
  | |     03ae: 00 01 00 00 00 01 00 00 00 02 00 00 00 01 00 00 [................]
  | |     03be: 00 1c 73 74 73 7a 00 00 00 00 00 00 00 00 00 00 [..stsz..........]
  | |     03ce: 00 02 00 7a 98 5c 00 7e 0e 9d 00 00 00 14 73 74 [...z.\.~......st]
  | |     03de: 63 6f 00 00 00 00 00 00 00 01 00 00 4c bf 00 00 [co..........L...]
  | |     03ee: 00 14 73 74 73 73 00 00 00 00 00 00 00 01 00 00 [..stss..........]
  | |     03fe: 00 01                                           [..]
  | | + [Media directory]
  | | | MediaHeader (SubDirectory) -->
  | | | - Tag 'mdhd' (36 bytes):
  | | |     0266: 01 00 00 00 00 00 00 00 e6 0d 0f 41 00 00 00 00 [...........A....]
  | | |     0276: e6 0d 0f 41 00 00 00 1e 00 00 00 00 00 00 00 02 [...A............]
  | | |     0286: 55 c4 00 00                                     [U...]
  | | | + [BinaryData directory, 36 bytes, Big-endian]
  | | | | MediaHeaderVersion = 16777216
  | | | | - Tag 0x0000 (4 bytes, int32u[1]):
  | | | |     0266: 01 00 00 00                                     [....]
  | | | | MediaCreateDate = 3859615553
  | | | | - Tag 0x0001 (8 bytes, int64u[1]):
  | | | |     026a: 00 00 00 00 e6 0d 0f 41                         [.......A]
  | | | | [offsets adjusted by +0x0004 after 0x0001 MediaCreateDate]
  | | | | MediaModifyDate = 3859615553
  | | | | - Tag 0x0002 (8 bytes, int64u[1]):
  | | | |     0272: 00 00 00 00 e6 0d 0f 41                         [.......A]
  | | | | [offsets adjusted by +0x0008 after 0x0002 MediaModifyDate]
  | | | | MediaTimeScale = 30
  | | | | - Tag 0x0003 (4 bytes, int32u[1]):
  | | | |     027a: 00 00 00 1e                                     [....]
  | | | | MediaDuration = 2
  | | | | - Tag 0x0004 (8 bytes, int64u[1]):
  | | | |     027e: 00 00 00 00 00 00 00 02                         [........]
  | | | | [offsets adjusted by +0x000c after 0x0004 MediaDuration]
  | | | | MediaLanguageCode = 21956
  | | | | - Tag 0x0005 (2 bytes, int16u[1]):
  | | | |     0286: 55 c4                                           [U.]
  | | | Handler (SubDirectory) -->
  | | | - Tag 'hdlr' (25 bytes):
  | | |     0292: 00 00 00 00 00 00 00 00 70 69 63 74 00 00 00 00 [........pict....]
  | | |     02a2: 00 00 00 00 00 00 00 00 00                      [.........]
  | | | + [BinaryData directory, 25 bytes, Big-endian]
  | | | | HandlerClass = 
  | | | | - Tag 0x0004 (4 bytes, undef[4]):
  | | | |     0296: 00 00 00 00                                     [....]
  | | | | HandlerType = pict
  | | | | - Tag 0x0008 (4 bytes, undef[4]):
  | | | |     029a: 70 69 63 74                                     [pict]
  | | | | HandlerVendorID = 
  | | | | - Tag 0x000c (4 bytes, undef[4]):
  | | | |     029e: 00 00 00 00                                     [....]
  | | | | HandlerDescription = 
  | | | | - Tag 0x0018 (1 bytes, string[1]):
  | | | |     02aa: 00                                              [.]
  | | | MediaInfo (SubDirectory) -->
  | | | - Tag 'minf' (333 bytes):
  | | |     02b3: 00 00 00 14 76 6d 68 64 00 00 00 01 00 00 00 00 [....vmhd........]
  | | |     02c3: 00 00 00 00 00 00 00 24 64 69 6e 66 00 00 00 1c [.......$dinf....]
  | | |     02d3: 64 72 65 66 00 00 00 00 00 00 00 01 00 00 00 0c [dref............]
  | | |     02e3: 75 72 6c 20 00 00 00 01 00 00 01 15 73 74 62 6c [url ........stbl]
  | | |     02f3: 00 00 00 95 73 74 73 64 00 00 00 00 00 00 00 01 [....stsd........]
  | | |     0303: 00 00 00 85 61 76 30 31 00 00 00 00 00 00 00 01 [....av01........]
  | | |     0313: 00 00 00 00 00 00 00 00 00 00 00 00 00 00 00 00 [................]
  | | |     0323: 15 60 0e 40 00 48 00 00 00 48 00 00 00 00 00 00 [.`.@.H...H......]
  | | |     0333: 00 01 0a 41 4f 4d 20 43 6f 64 69 6e 67 00 00 00 [...AOM Coding...]
  | | |     0343: 00 00 00 00 00 00 00 00 00 00 00 00 00 00 00 00 [................]
  | | |     0353: 00 00 00 18 ff ff 00 00 00 0c 61 76 31 43 81 30 [..........av1C.0]
  | | |     0363: 00 00 00 00 00 13 63 6f 6c 72 6e 63 6c 78 00 01 [......colrnclx..]
  | | |     0373: 00 0d 00 00 80 00 00 00 10 63 63 73 74 00 00 00 [.........ccst...]
  | | |     0383: 00 7c 00 00 00 00 00 00 18 73 74 74 73 00 00 00 [.|.......stts...]
  | | |     0393: 00 00 00 00 01 00 00 00 02 00 00 00 01 00 00 00 [................]
  | | |     03a3: 1c 73 74 73 63 00 00 00 00 00 00 00 01 00 00 00 [.stsc...........]
  | | |     03b3: 01 00 00 00 02 00 00 00 01 00 00 00 1c 73 74 73 [.............sts]
  | | |     03c3: 7a 00 00 00 00 00 00 00 00 00 00 00 02 00 7a 98 [z.............z.]
  | | |     03d3: 5c 00 7e 0e 9d 00 00 00 14 73 74 63 6f 00 00 00 [\.~......stco...]
  | | |     03e3: 00 00 00 00 01 00 00 4c bf 00 00 00 14 73 74 73 [.......L.....sts]
  | | |     03f3: 73 00 00 00 00 00 00 00 01 00 00 00 01          [s............]
  | | | + [MediaInfo directory]
  | | | | VideoHeader (SubDirectory) -->
  | | | | - Tag 'vmhd' (12 bytes):
  | | | |     02bb: 00 00 00 01 00 00 00 00 00 00 00 00             [............]
  | | | | + [BinaryData directory, 12 bytes, Big-endian]
  | | | | | GraphicsMode = 0
  | | | | | - Tag 0x0002 (2 bytes, int16u[1]):
  | | | | |     02bf: 00 00                                           [..]
  | | | | | OpColor = 0 0 0
  | | | | | - Tag 0x0003 (6 bytes, int16u[3]):
  | | | | |     02c1: 00 00 00 00 00 00                               [......]
  | | | | DataInfo (SubDirectory) -->
  | | | | - Tag 'dinf' (28 bytes):
  | | | |     02cf: 00 00 00 1c 64 72 65 66 00 00 00 00 00 00 00 01 [....dref........]
  | | | |     02df: 00 00 00 0c 75 72 6c 20 00 00 00 01             [....url ....]
  | | | | + [DataInfo directory]
  | | | | | DataRef (SubDirectory) -->
  | | | | | - Tag 'dref' (20 bytes):
  | | | | |     02d7: 00 00 00 00 00 00 00 01 00 00 00 0c 75 72 6c 20 [............url ]
  | | | | |     02e7: 00 00 00 01                                     [....]
  | | | | | + [DataRef directory]
  | | | | | | URL = .
  | | | | | | - Tag 'url ' (4 bytes, undef):
  | | | | | |     02e7: 00 00 00 01                                     [....]
  | | | | SampleTable (SubDirectory) -->
  | | | | - Tag 'stbl' (269 bytes):
  | | | |     02f3: 00 00 00 95 73 74 73 64 00 00 00 00 00 00 00 01 [....stsd........]
  | | | |     0303: 00 00 00 85 61 76 30 31 00 00 00 00 00 00 00 01 [....av01........]
  | | | |     0313: 00 00 00 00 00 00 00 00 00 00 00 00 00 00 00 00 [................]
  | | | |     0323: 15 60 0e 40 00 48 00 00 00 48 00 00 00 00 00 00 [.`.@.H...H......]
  | | | |     0333: 00 01 0a 41 4f 4d 20 43 6f 64 69 6e 67 00 00 00 [...AOM Coding...]
  | | | |     0343: 00 00 00 00 00 00 00 00 00 00 00 00 00 00 00 00 [................]
  | | | |     0353: 00 00 00 18 ff ff 00 00 00 0c 61 76 31 43 81 30 [..........av1C.0]
  | | | |     0363: 00 00 00 00 00 13 63 6f 6c 72 6e 63 6c 78 00 01 [......colrnclx..]
  | | | |     0373: 00 0d 00 00 80 00 00 00 10 63 63 73 74 00 00 00 [.........ccst...]
  | | | |     0383: 00 7c 00 00 00 00 00 00 18 73 74 74 73 00 00 00 [.|.......stts...]
  | | | |     0393: 00 00 00 00 01 00 00 00 02 00 00 00 01 00 00 00 [................]
  | | | |     03a3: 1c 73 74 73 63 00 00 00 00 00 00 00 01 00 00 00 [.stsc...........]
  | | | |     03b3: 01 00 00 00 02 00 00 00 01 00 00 00 1c 73 74 73 [.............sts]
  | | | |     03c3: 7a 00 00 00 00 00 00 00 00 00 00 00 02 00 7a 98 [z.............z.]
  | | | |     03d3: 5c 00 7e 0e 9d 00 00 00 14 73 74 63 6f 00 00 00 [\.~......stco...]
  | | | |     03e3: 00 00 00 00 01 00 00 4c bf 00 00 00 14 73 74 73 [.......L.....sts]
  | | | |     03f3: 73 00 00 00 00 00 00 00 01 00 00 00 01          [s............]
  | | | | + [SampleTable directory]
  | | | | | OtherSampleDesc (SubDirectory) -->
  | | | | | - Tag 'stsd' (141 bytes):
  | | | | |     02fb: 00 00 00 00 00 00 00 01 00 00 00 85 61 76 30 31 [............av01]
  | | | | |     030b: 00 00 00 00 00 00 00 01 00 00 00 00 00 00 00 00 [................]
  | | | | |     031b: 00 00 00 00 00 00 00 00 15 60 0e 40 00 48 00 00 [.........`.@.H..]
  | | | | |     032b: 00 48 00 00 00 00 00 00 00 01 0a 41 4f 4d 20 43 [.H.........AOM C]
  | | | | |     033b: 6f 64 69 6e 67 00 00 00 00 00 00 00 00 00 00 00 [oding...........]
  | | | | |     034b: 00 00 00 00 00 00 00 00 00 00 00 18 ff ff 00 00 [................]
  | | | | |     035b: 00 0c 61 76 31 43 81 30 00 00 00 00 00 13 63 6f [..av1C.0......co]
  | | | | |     036b: 6c 72 6e 63 6c 78 00 01 00 0d 00 00 80 00 00 00 [lrnclx..........]
  | | | | |     037b: 10 63 63 73 74 00 00 00 00 7c 00 00 00          [.ccst....|...]
  | | | | | + [BinaryData directory, 94 bytes, Big-endian]
  | | | | | | OtherFormat = av01
  | | | | | | - Tag 0x0004 (4 bytes, undef[4]):
  | | | | | |     0307: 61 76 30 31                                     [av01]
  | | | | | + [OtherSampleDesc directory]
  | | | | | | Unknown_av1C = .0
  | | | | | | - Tag 'av1C' (4 bytes):
  | | | | | |     0361: 81 30 00 00                                     [.0..]
  | | | | | | Unknown_colr = nclx...
  | | | | | | - Tag 'colr' (11 bytes):
  | | | | | |     036d: 6e 63 6c 78 00 01 00 0d 00 00 80                [nclx.......]
  | | | | | | Unknown_ccst = |
  | | | | | | - Tag 'ccst' (8 bytes):
  | | | | | |     0380: 00 00 00 00 7c 00 00 00                         [....|...]
  | | | | | TimeToSampleTable = ...
  | | | | | - Tag 'stts' (16 bytes, undef):
  | | | | |     0390: 00 00 00 00 00 00 00 01 00 00 00 02 00 00 00 01 [................]
  | | | | | SampleToChunk = ....
  | | | | | - Tag 'stsc' (20 bytes):
  | | | | |     03a8: 00 00 00 00 00 00 00 01 00 00 00 01 00 00 00 02 [................]
  | | | | |     03b8: 00 00 00 01                                     [....]
  | | | | | SampleSizes = .z.\~..
  | | | | | - Tag 'stsz' (20 bytes):
  | | | | |     03c4: 00 00 00 00 00 00 00 00 00 00 00 02 00 7a 98 5c [.............z.\]
  | | | | |     03d4: 00 7e 0e 9d                                     [.~..]
  | | | | | ChunkOffset = .L.
  | | | | | - Tag 'stco' (12 bytes):
  | | | | |     03e0: 00 00 00 00 00 00 00 01 00 00 4c bf             [..........L.]
  | | | | | SyncSampleTable = ..
  | | | | | - Tag 'stss' (12 bytes):
  | | | | |     03f4: 00 00 00 00 00 00 00 01 00 00 00 01             [............]
  | UUID-Unknown = .z....B..q......<?xpacket begin='...' id='W5M0MpCehiHzreSzNTczkc9d'?>.<x:xmpmeta xmlns:x='adobe:ns:meta/' x:xmptk='Image::ExifTool 13.50'>.<rdf:RDF xmlns:rdf='http://www.w3.org/1999/02/22-rdf-syntax-ns#'>. <rdf:Description rdf:about=''.  xmlns:xmp='http://ns.adobe.com/xap/1.0/'.  xmlns:dc='http://purl.org/dc/elements/1.1/'>.  <xmp:Rating>4</xmp:Rating>.  <dc:description>.   <rdf:Alt>.    <rdf:li xml:lang='x-default'>Animated AVIF with XMP in UUID box inside moov</rdf:li>.   </rdf:Alt>.  </dc:description>. </rdf:Description>.</rdf:RDF>.</x:xmpmeta>.<?xpacket end='w'?>
  | - Tag 'uuid' (573 bytes):
  |     0408: be 7a cf cb 97 a9 42 e8 9c 71 99 94 91 e3 af ac [.z....B..q......]
  |     0418: 3c 3f 78 70 61 63 6b 65 74 20 62 65 67 69 6e 3d [<?xpacket begin=]
  |     0428: 27 ef bb bf 27 20 69 64 3d 27 57 35 4d 30 4d 70 ['...' id='W5M0Mp]
  |     0438: 43 65 68 69 48 7a 72 65 53 7a 4e 54 63 7a 6b 63 [CehiHzreSzNTczkc]
  |     0448: 39 64 27 3f 3e 0a 3c 78 3a 78 6d 70 6d 65 74 61 [9d'?>.<x:xmpmeta]
  |     0458: 20 78 6d 6c 6e 73 3a 78 3d 27 61 64 6f 62 65 3a [ xmlns:x='adobe:]
  |     0468: 6e 73 3a 6d 65 74 61 2f 27 20 78 3a 78 6d 70 74 [ns:meta/' x:xmpt]
  |     0478: 6b 3d 27 49 6d 61 67 65 3a 3a 45 78 69 66 54 6f [k='Image::ExifTo]
  |     0488: 6f 6c 20 31 33 2e 35 30 27 3e 0a 3c 72 64 66 3a [ol 13.50'>.<rdf:]
  |     0498: 52 44 46 20 78 6d 6c 6e 73 3a 72 64 66 3d 27 68 [RDF xmlns:rdf='h]
  |     04a8: 74 74 70 3a 2f 2f 77 77 77 2e 77 33 2e 6f 72 67 [ttp://www.w3.org]
  |     04b8: 2f 31 39 39 39 2f 30 32 2f 32 32 2d 72 64 66 2d [/1999/02/22-rdf-]
  |     04c8: 73 79 6e 74 61 78 2d 6e 73 23 27 3e 0a 20 3c 72 [syntax-ns#'>. <r]
  |     04d8: 64 66 3a 44 65 73 63 72 69 70 74 69 6f 6e 20 72 [df:Description r]
  |     04e8: 64 66 3a 61 62 6f 75 74 3d 27 27 0a 20 20 78 6d [df:about=''.  xm]
  |     04f8: 6c 6e 73 3a 78 6d 70 3d 27 68 74 74 70 3a 2f 2f [lns:xmp='http://]
  |     0508: 6e 73 2e 61 64 6f 62 65 2e 63 6f 6d 2f 78 61 70 [ns.adobe.com/xap]
  |     0518: 2f 31 2e 30 2f 27 0a 20 20 78 6d 6c 6e 73 3a 64 [/1.0/'.  xmlns:d]
  |     0528: 63 3d 27 68 74 74 70 3a 2f 2f 70 75 72 6c 2e 6f [c='http://purl.o]
  |     0538: 72 67 2f 64 63 2f 65 6c 65 6d 65 6e 74 73 2f 31 [rg/dc/elements/1]
  |     0548: 2e 31 2f 27 3e 0a 20 20 3c 78 6d 70 3a 52 61 74 [.1/'>.  <xmp:Rat]
  |     0558: 69 6e 67 3e 34 3c 2f 78 6d 70 3a 52 61 74 69 6e [ing>4</xmp:Ratin]
  |     0568: 67 3e 0a 20 20 3c 64 63 3a 64 65 73 63 72 69 70 [g>.  <dc:descrip]
  |     0578: 74 69 6f 6e 3e 0a 20 20 20 3c 72 64 66 3a 41 6c [tion>.   <rdf:Al]
  |     0588: 74 3e 0a 20 20 20 20 3c 72 64 66 3a 6c 69 20 78 [t>.    <rdf:li x]
  |     0598: 6d 6c 3a 6c 61 6e 67 3d 27 78 2d 64 65 66 61 75 [ml:lang='x-defau]
  |     05a8: 6c 74 27 3e 41 6e 69 6d 61 74 65 64 20 41 56 49 [lt'>Animated AVI]
  |     05b8: 46 20 77 69 74 68 20 58 4d 50 20 69 6e 20 55 55 [F with XMP in UU]
  |     05c8: 49 44 20 62 6f 78 20 69 6e 73 69 64 65 20 6d 6f [ID box inside mo]
  |     05d8: 6f 76 3c 2f 72 64 66 3a 6c 69 3e 0a 20 20 20 3c [ov</rdf:li>.   <]
  |     05e8: 2f 72 64 66 3a 41 6c 74 3e 0a 20 20 3c 2f 64 63 [/rdf:Alt>.  </dc]
  |     05f8: 3a 64 65 73 63 72 69 70 74 69 6f 6e 3e 0a 20 3c [:description>. <]
  |     0608: 2f 72 64 66 3a 44 65 73 63 72 69 70 74 69 6f 6e [/rdf:Description]
  |     0618: 3e 0a 3c 2f 72 64 66 3a 52 44 46 3e 0a 3c 2f 78 [>.</rdf:RDF>.</x]
  |     0628: 3a 78 6d 70 6d 65 74 61 3e 0a 3c 3f 78 70 61 63 [:xmpmeta>.<?xpac]
  |     0638: 6b 65 74 20 65 6e 64 3d 27 77 27 3f 3e          [ket end='w'?>]
  MediaDataSize = 16313707
  MediaDataOffset = 1613
  MediaData = II*...........................(....2....;............i....%....$.$CanonCanon EOS 70DH.H.2015:10:11 14:41:44&............"....'.....0....2........0230.....................................................|... ........#....00....00....00...0100.........`.....@.....h$.....$.....$.....................0...1....$2...*$4...J$5...\$.< .2015:10:11 14:41:442015:10:11 14:41:44..`...2.)..1.....P....X..."`............. ..........%...........&....5...... ....JX..................t..............................@.!....@..*..@..0..@. 6..@..V..@. R..@..r..@......@..f!.@...!.@...! @...!!@...!$@.5.!%@..."'@..."b....;.......<.22.8 .....................2..$ZD.Hl......h.d.........Canon EOS 70DFirmware Version 1.1.1..h"h#X.-.>........2 ..J2s....P$@...@.nF0....n....WI............JP.................UU......UU.........P.<22.g...!N.....'..`.@.....(.......................................1.1.1B1(32)...Y...dde.ded.........t.....t.....t.....t.....t..................................................................................................(u.V.....7.:..SX...MN..p.....`.@.`.@..................................................................q.q.q.............s...o...o.....o.....o...o.........@.........WI......EF50mm f/1.8 STM-5.6 IS STMUUd.FA0381304....T................................................................................`.@.....P...S....."..|...T2..q....................].x.u.........}.c............o.Q.F.......&w....P.7.m.d.2............'.....M.w.....0.....l.......l.......l.......l...................l.......l.......l.......l.....................-.....P.v.....X.......p.....v... .......-.....D.........-.....D.-.....D.-.....D.-.....D.-.....D.......q.......q.......q.......q.......q...}.H..*....0..'......l E.....X.y.....p.............s.P.....J.\..9...h.Fc.....x......................).}.......H.`...........................E,C.f.......|.4...I...+%R0.....~.....f........7!...%......O.+.I..^...j.N......".D.v.....b....<h.~k.{m.h7...............t......?_......Ab......f. @`...........................8.:.'..q...@.p.....@.8.....@...X.|.... @[snip]
  - Tag 'mdat' (16313707 bytes):
      064d: 00 00 00 00 49 49 2a 00 08 00 00 00 0c 00 0f 01 [....II*.........]
      065d: 02 00 06 00 00 00 9e 00 00 00 10 01 02 00 0e 00 [................]
      066d: 00 00 a4 00 00 00 12 01 03 00 01 00 00 00 01 00 [................]
      067d: 00 00 1a 01 05 00 01 00 00 00 b2 00 00 00 1b 01 [................]
      068d: 05 00 01 00 00 00 ba 00 00 00 28 01 03 00 01 00 [..........(.....]
      069d: 00 00 02 00 00 00 32 01 02 00 14 00 00 00 c2 00 [......2.........]
      06ad: 00 00 3b 01 02 00 01 00 00 00 00 00 00 00 13 02 [..;.............]
      06bd: 03 00 01 00 00 00 02 00 00 00 98 82 02 00 01 00 [................]
      06cd: 00 00 00 00 00 00 69 87 04 00 01 00 00 00 d6 00 [......i.........]
      06dd: 00 00 25 88 04 00 01 00 00 00 86 24 00 00 98 24 [..%........$...$]
      06ed: 00 00 43 61 6e 6f 6e 00 43 61 6e 6f 6e 20 45 4f [..Canon.Canon EO]
      06fd: 53 20 37 30 44 00 48 00 00 00 01 00 00 00 48 00 [S 70D.H.......H.]
      070d: 00 00 01 00 00 00 32 30 31 35 3a 31 30 3a 31 31 [......2015:10:11]
      071d: 20 31 34 3a 34 31 3a 34 34 00 26 00 9a 82 05 00 [ 14:41:44.&.....]
      072d: 01 00 00 00 a4 02 00 00 9d 82 05 00 01 00 00 00 [................]
      073d: ac 02 00 00 22 88 03 00 01 00 00 00 02 00 00 00 [...."...........]
      074d: 27 88 03 00 01 00 00 00 90 01 00 00 30 88 03 00 ['...........0...]
      075d: 01 00 00 00 02 00 00 00 32 88 04 00 01 00 00 00 [........2.......]
      076d: 90 01 00 00 00 90 07 00 04 00 00 00 30 32 33 30 [............0230]
      077d: 03 90 02 00 14 00 00 00 b4 02 00 00 04 90 02 00 [................]
      078d: 14 00 00 00 c8 02 00 00 01 91 07 00 04 00 00 00 [................]
      079d: 01 02 03 00 01 92 0a 00 01 00 00 00 dc 02 00 00 [................]
      07ad: 02 92 05 00 01 00 00 00 e4 02 00 00 04 92 0a 00 [................]
      07bd: 01 00 00 00 ec 02 00 00 07 92 03 00 01 00 00 00 [................]
      07cd: 05 00 00 00 09 92 03 00 01 00 00 00 10 00 00 00 [................]
      07dd: 0a 92 05 00 01 00 00 00 f4 02 00 00 7c 92 07 00 [............|...]
      07ed: 08 20 00 00 fc 02 00 00 86 92 07 00 08 01 00 00 [. ..............]
      07fd: 04 23 00 00 90 92 02 00 03 00 00 00 30 30 00 00 [.#..........00..]
      080d: 91 92 02 00 03 00 00 00 30 30 00 00 92 92 02 00 [........00......]
      081d: 03 00 00 00 30 30 00 00 00 a0 07 00 04 00 00 00 [....00..........]
      082d: 30 31 30 30 01 a0 03 00 01 00 00 00 01 00 00 00 [0100............]
      083d: 02 a0 03 00 01 00 00 00 60 15 00 00 03 a0 03 00 [........`.......]
      084d: 01 00 00 00 40 0e 00 00 05 a0 04 00 01 00 00 00 [....@...........]
      085d: 68 24 00 00 0e a2 05 00 01 00 00 00 0c 24 00 00 [h$...........$..]
      086d: 0f a2 05 00 01 00 00 00 14 24 00 00 10 a2 03 00 [.........$......]
      087d: 01 00 00 00 02 00 00 00 01 a4 03 00 01 00 00 00 [................]
      088d: 00 00 00 00 02 a4 03 00 01 00 00 00 00 00 00 00 [................]
      089d: 03 a4 03 00 01 00 00 00 00 00 00 00 06 a4 03 00 [................]
      08ad: 01 00 00 00 00 00 00 00 30 a4 02 00 01 00 00 00 [........0.......]
      08bd: 00 00 00 00 31 a4 02 00 0d 00 00 00 1c 24 00 00 [....1........$..]
      08cd: 32 a4 05 00 04 00 00 00 2a 24 00 00 34 a4 02 00 [2.......*$..4...]
      08dd: 11 00 00 00 4a 24 00 00 35 a4 02 00 0b 00 00 00 [....J$..5.......]
      08ed: 5c 24 00 00 00 00 00 00 01 00 00 00 3c 00 00 00 [\$..........<...]
      08fd: 20 00 00 00 0a 00 00 00 32 30 31 35 3a 31 30 3a [ .......2015:10:]
      090d: 31 31 20 31 34 3a 34 31 3a 34 34 00 32 30 31 35 [11 14:41:44.2015]
      091d: 3a 31 30 3a 31 31 20 31 34 3a 34 31 3a 34 34 00 [:10:11 14:41:44.]
      092d: 00 00 06 00 00 00 01 00 00 60 03 00 00 00 01 00 [.........`......]
      093d: 00 00 00 00 01 00 00 00 32 00 00 00 01 00 00 00 [........2.......]
      094d: 29 00 01 00 03 00 31 00 00 00 ee 04 00 00 02 00 [).....1.........]
      095d: 03 00 04 00 00 00 50 05 00 00 03 00 03 00 04 00 [......P.........]
      096d: 00 00 58 05 00 00 04 00 03 00 22 00 00 00 60 05 [..X......."...`.]
      097d: 00 00 06 00 02 00 0e 00 00 00 a4 05 00 00 07 00 [................]
      098d: 02 00 18 00 00 00 b2 05 00 00 09 00 02 00 20 00 [.............. .]
      099d: 00 00 ca 05 00 00 0d 00 07 00 00 06 00 00 ea 05 [................]
      09ad: 00 00 10 00 04 00 01 00 00 00 25 03 00 80 13 00 [..........%.....]
      09bd: 03 00 04 00 00 00 ea 0b 00 00 19 00 03 00 01 00 [................]
      09cd: 00 00 01 00 00 00 26 00 03 00 8b 00 00 00 f2 0b [......&.........]
      09dd: 00 00 35 00 04 00 04 00 00 00 08 0d 00 00 93 00 [..5.............]
      09ed: 03 00 20 00 00 00 18 0d 00 00 95 00 02 00 4a 00 [.. ...........J.]
      09fd: 00 00 58 0d 00 00 96 00 02 00 10 00 00 00 a2 0d [..X.............]
      0a0d: 00 00 97 00 07 00 00 04 00 00 b2 0d 00 00 98 00 [................]
      0a1d: 03 00 04 00 00 00 b2 11 00 00 99 00 04 00 74 00 [..............t.]
      0a2d: 00 00 ba 11 00 00 9a 00 04 00 05 00 00 00 8a 13 [................]
      0a3d: 00 00 a0 00 03 00 0e 00 00 00 9e 13 00 00 aa 00 [................]
      0a4d: 03 00 06 00 00 00 ba 13 00 00 b4 00 03 00 01 00 [................]
      0a5d: 00 00 01 00 00 00 d0 00 04 00 01 00 00 00 00 00 [................]
      0a6d: 00 00 e0 00 03 00 11 00 00 00 c6 13 00 00 01 40 [...............@]
      0a7d: 03 00 21 05 00 00 e8 13 00 00 08 40 03 00 03 00 [..!........@....]
      0a8d: 00 00 2a 1e 00 00 09 40 03 00 03 00 00 00 30 1e [..*....@......0.]
      0a9d: 00 00 10 40 02 00 20 00 00 00 36 1e 00 00 11 40 [...@.. ...6....@]
      0aad: 07 00 fc 00 00 00 56 1e 00 00 12 40 02 00 20 00 [......V....@.. .]
      0abd: 00 00 52 1f 00 00 13 40 04 00 0b 00 00 00 72 1f [..R....@......r.]
      0acd: 00 00 15 40 07 00 c8 01 00 00 9e 1f 00 00 16 40 [...@...........@]
      0add: 04 00 07 00 00 00 66 21 00 00 18 40 04 00 07 00 [......f!...@....]
      0aed: 00 00 82 21 00 00 19 40 07 00 1e 00 00 00 9e 21 [...!...@.......!]
      0afd: 00 00 20 40 04 00 07 00 00 00 bc 21 00 00 21 40 [.. @.......!..!@]
      0b0d: 04 00 05 00 00 00 d8 21 00 00 24 40 04 00 35 00 [.......!..$@..5.]
      0b1d: 00 00 ec 21 00 00 25 40 04 00 09 00 00 00 c0 22 [...!..%@......."]
      0b2d: 00 00 27 40 04 00 06 00 00 00 e4 22 00 00 00 00 [..'@......."....]
      0b3d: 00 00 62 00 02 00 00 00 03 00 00 00 00 00 00 00 [..b.............]
      0b4d: 02 00 00 00 01 00 00 00 3b 00 00 00 00 00 00 00 [........;.......]
      0b5d: ff 7f 0f 00 03 00 02 00 00 00 00 00 ff ff 3c 10 [..............<.]
      0b6d: 32 00 32 00 01 00 38 00 20 01 00 00 00 00 00 00 [2.2...8. .......]
      0b7d: 00 00 ff ff ff ff ff ff 00 00 00 00 00 00 00 00 [................]
      0b8d: ff ff ff ff 00 00 00 00 ff 7f ff ff ff ff ff ff [................]
      0b9d: 00 00 ff ff 00 00 32 00 16 0b 24 5a 00 00 00 00 [......2...$Z....]
      0bad: 00 00 00 00 44 00 00 00 e0 00 48 00 6c 00 c0 00 [....D.....H.l...]
      0bbd: 00 00 00 00 03 00 00 00 08 00 08 00 95 00 00 00 [................]
      0bcd: 00 00 00 00 00 00 00 00 01 00 00 00 00 00 68 00 [..............h.]
      0bdd: c0 00 64 00 00 00 00 00 f8 00 ff ff ff ff ff ff [..d.............]
      0bed: ff ff 00 00 00 00 00 00 43 61 6e 6f 6e 20 45 4f [........Canon EO]
      0bfd: 53 20 37 30 44 00 46 69 72 6d 77 61 72 65 20 56 [S 70D.Firmware V]
      0c0d: 65 72 73 69 6f 6e 20 31 2e 31 2e 31 00 00 00 00 [ersion 1.1.1....]
      0c1d: 00 00 00 00 00 00 00 00 00 00 00 00 00 00 00 00 [................]
      0c2d: 00 00 00 00 00 00 00 00 00 00 00 00 00 00 aa aa [................]
      0c3d: 68 22 68 23 58 00 01 2d 01 3e 00 03 00 00 00 00 [h"h#X..-.>......]
      0c4d: 00 00 01 00 00 06 00 00 00 95 92 00 a6 00 af 00 [................]
      0c5d: a9 00 32 00 00 20 00 00 00 00 00 02 03 00 00 00 [..2.. ..........]
      0c6d: 00 00 4a 00 32 00 73 01 bb bb fa 50 00 24 40 90 [..J.2.s....P.$@.]
      0c7d: 00 00 00 00 00 00 00 00 00 00 00 00 00 00 00 00 [................]
      0c8d: ff 88 00 00 00 00 40 ff 00 6e 00 46 00 30 00 00 [......@..n.F.0..]
      0c9d: 00 00 00 00 00 00 00 00 00 00 00 00 b4 8d b7 94 [................]
      0cad: 6e 00 00 00 00 00 00 00 00 00 01 01 00 00 00 00 [n...............]
      0cbd: 02 01 00 00 00 00 00 00 00 00 00 00 00 00 00 00 [................]
      0ccd: 00 00 57 00 49 04 00 00 00 00 00 00 00 00 ff ff [..W.I...........]
      0cdd: ff ff 0c cc cc 16 00 00 00 03 00 00 00 00 00 00 [................]
      0ced: 00 00 00 00 00 00 00 00 00 00 ff 01 00 00 00 4a [...............J]
      0cfd: 00 00 00 00 00 50 14 00 00 00 00 00 00 00 00 00 [.....P..........]
      0d0d: 00 01 00 00 00 01 00 00 00 01 00 00 00 03 00 00 [................]
      0d1d: 00 03 00 00 00 03 00 00 00 00 00 00 00 01 00 00 [................]
      0d2d: 00 00 00 00 00 01 00 00 00 87 00 00 00 01 00 00 [................]
      0d3d: 00 01 00 00 00 01 00 00 00 07 00 00 00 00 00 00 [................]
      0d4d: 03 05 03 55 55 00 00 00 00 0e 00 00 00 00 00 00 [...UU...........]
      0d5d: 00 00 00 00 00 00 00 03 07 07 11 0d 00 00 00 00 [................]
      0d6d: 00 00 00 00 00 00 00 00 00 00 00 55 55 05 00 00 [...........UU...]
      0d7d: 03 00 14 04 00 00 00 00 00 00 00 00 00 00 00 00 [................]
      0d8d: 00 00 00 00 00 00 03 02 02 00 00 00 00 00 00 00 [................]
      0d9d: 00 01 16 50 10 3c 00 32 00 32 81 67 92 7f 00 ff [...P.<.2.2.g....]
      0dad: 00 00 00 00 00 00 00 21 4e 1c 01 00 03 07 16 00 [.......!N.......]
      0dbd: 27 02 00 00 00 00 00 00 00 00 00 00 00 00 00 00 ['...............]
      0dcd: 00 00 00 00 00 00 00 00 00 00 00 00 00 02 00 00 [................]
      0ddd: 00 60 15 00 00 40 0e 00 00 9c 09 00 00 b0 05 00 [.`...@..........]
      0ded: 00 28 02 00 00 e0 02 00 00 d0 02 00 00 e0 01 00 [.(..............]
      0dfd: 00 00 00 00 00 00 00 00 00 d0 02 00 00 e0 01 00 [................]
      0e0d: 00 d0 02 00 00 e0 01 00 00 00 00 00 00 00 00 00 [................]
      0e1d: 00 d0 02 00 00 e0 01 00 00 00 00 00 00 00 00 00 [................]
      0e2d: 00 01 00 00 00 00 00 00 00 00 00 00 00 00 00 00 [................]
      [snip 16311675 bytes]
