  ExifToolVersion = 13.59
  FileName = media_42.jpg
  Directory = C:/Users/micro/IdeaProjects/kim/src/commonTest/resources/de/stefan_oltmann/kim/testdata/full
  FileSize = 217088
  FileModifyDate = 1776264331.86837
  FileAccessDate = 1786601301.4649
  FileCreateDate = 1776264331.86737
  FilePermissions = 33206
  FileType = JPEG
  FileTypeExtension = JPG
  MIMEType = image/jpeg
JPEG APP1 (11599 bytes):
      0006: 45 78 69 66 00 00 49 49 2a 00 08 00 00 00 0b 00 [Exif..II*.......]
      0016: 0e 01 02 00 20 00 00 00 92 00 00 00 0f 01 02 00 [.... ...........]
      0026: 18 00 00 00 b2 00 00 00 10 01 02 00 07 00 00 00 [................]
      0036: ca 00 00 00 12 01 03 00 01 00 00 00 01 00 00 00 [................]
      0046: 1a 01 05 00 01 00 00 00 d8 00 00 00 1b 01 05 00 [................]
      0056: 01 00 00 00 e0 00 00 00 28 01 03 00 01 00 00 00 [........(.......]
      0066: 02 00 00 00 31 01 02 00 08 00 00 00 e8 00 00 00 [....1...........]
      [snip 11487 bytes]
  ExifByteOrder = II
  + [IFD0 directory with 11 entries, Little-endian]
  | 0)  ImageDescription = TRAVELER DIGITAL CAMERA        
  |     - Tag 0x010e (32 bytes, string[32]):
  |         009e: 54 52 41 56 45 4c 45 52 20 44 49 47 49 54 41 4c [TRAVELER DIGITAL]
  |         00ae: 20 43 41 4d 45 52 41 20 20 20 20 20 20 20 20 00 [ CAMERA        .]
  | 1)  Make = TRAVELER OPTICAL CO,LTD
  |     - Tag 0x010f (24 bytes, string[24]):
  |         00be: 54 52 41 56 45 4c 45 52 20 4f 50 54 49 43 41 4c [TRAVELER OPTICAL]
  |         00ce: 20 43 4f 2c 4c 54 44 00                         [ CO,LTD.]
  | 2)  Model = SX330Z
  |     - Tag 0x0110 (7 bytes, string[7]):
  |         00d6: 53 58 33 33 30 5a 00                            [SX330Z.]
  | 3)  Orientation = 1
  |     - Tag 0x0112 (2 bytes, int16u[1]):
  |         0042: 01 00                                           [..]
  | 4)  XResolution = 72 (72/1)
  |     - Tag 0x011a (8 bytes, rational64u[1]):
  |         00e4: 48 00 00 00 01 00 00 00                         [H.......]
  | 5)  YResolution = 72 (72/1)
  |     - Tag 0x011b (8 bytes, rational64u[1]):
  |         00ec: 48 00 00 00 01 00 00 00                         [H.......]
  | 6)  ResolutionUnit = 2
  |     - Tag 0x0128 (2 bytes, int16u[1]):
  |         0066: 02 00                                           [..]
  | 7)  Software = v951-78
  |     - Tag 0x0131 (8 bytes, string[8]):
  |         00f4: 76 39 35 31 2d 37 38 00                         [v951-78.]
  | 8)  ModifyDate = 2001:12:00 00:00:00
  |     - Tag 0x0132 (20 bytes, string[20]):
  |         0114: 32 30 30 31 3a 31 32 3a 30 30 20 30 30 3a 30 30 [2001:12:00 00:00]
  |         0124: 3a 30 30 00                                     [:00.]
  | 9)  YCbCrPositioning = 2
  |     - Tag 0x0213 (2 bytes, int16u[1]):
  |         008a: 02 00                                           [..]
  | 10) ExifOffset (SubDirectory) -->
  |     - Tag 0x8769 (4 bytes, int32u[1]):
  |         0096: 1c 01 00 00                                     [....]
  | + [ExifIFD directory with 19 entries, Little-endian]
  | | 0)  ISO = 100
  | |     - Tag 0x8827 (2 bytes, int16u[1]):
  | |         0132: 64 00                                           [d.]
  | | 1)  ExifVersion = 0210
  | |     - Tag 0x9000 (4 bytes, undef[4]):
  | |         013e: 30 32 31 30                                     [0210]
  | | 2)  DateTimeOriginal = 2002:01:20 13:52:46
  | |     - Tag 0x9003 (20 bytes, string[20]):
  | |         0256: 32 30 30 32 3a 30 31 3a 32 30 20 31 33 3a 35 32 [2002:01:20 13:52]
  | |         0266: 3a 34 36 00                                     [:46.]
  | | 3)  CreateDate = 2002:01:20 13:52:44
  | |     - Tag 0x9004 (20 bytes, string[20]):
  | |         026a: 32 30 30 32 3a 30 31 3a 32 30 20 31 33 3a 35 32 [2002:01:20 13:52]
  | |         027a: 3a 34 34 00                                     [:44.]
  | | 4)  ComponentsConfiguration = 1 2 3 0
  | |     - Tag 0x9101 (4 bytes, undef[4] read as int8u[4]):
  | |         0162: 01 02 03 00                                     [....]
  | | 5)  CompressedBitsPerPixel = 0.1272264631 (200/1572)
  | |     - Tag 0x9102 (8 bytes, rational64u[1]):
  | |         027e: c8 00 00 00 24 06 00 00                         [....$...]
  | | 6)  ShutterSpeedValue = 6.125 (49/8)
  | |     - Tag 0x9201 (8 bytes, rational64s[1]):
  | |         0286: 31 00 00 00 08 00 00 00                         [1.......]
  | | 7)  ApertureValue = 3.5055 (35055/10000)
  | |     - Tag 0x9202 (8 bytes, rational64u[1]):
  | |         028e: ef 88 00 00 10 27 00 00                         [.....'..]
  | | 8)  ExposureCompensation = 0 (0/10)
  | |     - Tag 0x9204 (8 bytes, rational64s[1]):
  | |         0296: 00 00 00 00 0a 00 00 00                         [........]
  | | 9)  SubjectDistance = undef (0/0)
  | |     - Tag 0x9206 (8 bytes, rational64u[1]):
  | |         02a6: 00 00 00 00 00 00 00 00                         [........]
  | | 10) MeteringMode = 0
  | |     - Tag 0x9207 (2 bytes, int16u[1]):
  | |         01aa: 00 00                                           [..]
  | | 11) Flash = 1
  | |     - Tag 0x9209 (2 bytes, int16u[1]):
  | |         01b6: 01 00                                           [..]
  | | 12) FocalLength = 23.28 (23280/1000)
  | |     - Tag 0x920a (8 bytes, rational64u[1]):
  | |         029e: f0 5a 00 00 e8 03 00 00                         [.Z......]
  | | 13) MakerNoteUnknown (SubDirectory) -->
  | |     - Tag 0x927c (264 bytes, undef[264]):
  | |         0224: 00 00 00 00 00 00 00 00 00 00 00 00 00 00 00 00 [................]
  | |         0234: 00 00 00 00 00 00 00 00 00 00 00 00 00 00 00 00 [................]
  | |         0244: 00 00 00 00 00 00 00 00 00 00 00 00 64 00 00 00 [............d...]
  | |         0254: 00 00 32 30 30 32 3a 30 31 3a 32 30 20 31 33 3a [..2002:01:20 13:]
  | |         0264: 35 32 3a 34 36 00 32 30 30 32 3a 30 31 3a 32 30 [52:46.2002:01:20]
  | |         0274: 20 31 33 3a 35 32 3a 34 34 00 c8 00 00 00 24 06 [ 13:52:44.....$.]
  | |         0284: 00 00 31 00 00 00 08 00 00 00 ef 88 00 00 10 27 [..1............']
  | |         0294: 00 00 00 00 00 00 0a 00 00 00 f0 5a 00 00 e8 03 [...........Z....]
  | |         02a4: 00 00 00 00 00 00 00 00 00 00 20 20 20 20 20 20 [..........      ]
  | |         02b4: 20 20 20 20 20 20 20 20 20 20 20 20 20 20 20 20 [                ]
  | |         02c4: 20 20 20 20 20 20 20 20 20 20 20 20 20 20 20 20 [                ]
  | |         02d4: 20 20 20 20 20 20 20 20 20 20 20 20 20 20 20 20 [                ]
  | |         02e4: 20 20 20 20 20 20 20 20 20 20 20 20 20 20 20 20 [                ]
  | |         02f4: 20 20 20 20 20 20 20 20 20 20 20 20 20 20 20 20 [                ]
  | |         0304: 20 20 20 20 20 20 20 20 20 20 20 20 20 20 20 20 [                ]
  | |         0314: 20 20 20 20 20 20 20 20 20 20 20 20 20 20 20 00 [               .]
  | |         0324: 06 00 03 01 03 00 01 00                         [........]
  | | | Warning = [minor] Unrecognized MakerNotes
  | | 14) FlashpixVersion = 0100
  | |     - Tag 0xa000 (4 bytes, undef[4]):
  | |         01da: 30 31 30 30                                     [0100]
  | | 15) ColorSpace = 1
  | |     - Tag 0xa001 (2 bytes, int16u[1]):
  | |         01e6: 01 00                                           [..]
  | | 16) ExifImageWidth = 1024
  | |     - Tag 0xa002 (4 bytes, int32u[1]):
  | |         01f2: 00 04 00 00                                     [....]
  | | 17) ExifImageHeight = 768
  | |     - Tag 0xa003 (4 bytes, int32u[1]):
  | |         01fe: 00 03 00 00                                     [....]
  | | 18) InteropOffset (SubDirectory) -->
  | |     - Tag 0xa005 (4 bytes, int32u[1]):
  | |         020a: 76 03 00 00                                     [v...]
  | | + [InteropIFD directory with 2 entries, Little-endian]
  | | | 0)  InteropIndex = R98
  | | |     - Tag 0x0001 (4 bytes, string[4]):
  | | |         038c: 52 39 38 00                                     [R98.]
  | | | 1)  InteropVersion = 0100
  | | |     - Tag 0x0002 (4 bytes, undef[4]):
  | | |         0398: 30 31 30 30                                     [0100]
  + [IFD1 directory with 6 entries, Little-endian]
  | 0)  Compression = 6
  |     - Tag 0x0103 (2 bytes, int16u[1]):
  |         032e: 06 00                                           [..]
  | 1)  XResolution = 72 (72/1)
  |     - Tag 0x011a (8 bytes, rational64u[1]):
  |         0372: 48 00 00 00 01 00 00 00                         [H.......]
  | 2)  YResolution = 72 (72/1)
  |     - Tag 0x011b (8 bytes, rational64u[1]):
  |         037a: 48 00 00 00 01 00 00 00                         [H.......]
  | 3)  ResolutionUnit = 2
  |     - Tag 0x0128 (2 bytes, int16u[1]):
  |         0352: 02 00                                           [..]
  | 4)  ThumbnailOffset = 2447
  |     - Tag 0x0201 (4 bytes, int32u[1]):
  |         035e: 8f 09 00 00                                     [....]
  | 5)  ThumbnailLength = 6495
  |     - Tag 0x0202 (4 bytes, int32u[1]):
  |         036a: 5f 19 00 00                                     [_...]
JPEG DQT (130 bytes):
      2d59: 00 04 03 03 04 03 03 04 04 03 04 05 04 04 05 06 [................]
      2d69: 0a 07 06 06 06 06 0c 09 09 07 0a 0f 0d 0f 0f 0e [................]
      2d79: 0d 0e 0e 10 12 17 14 10 11 16 11 0e 0e 14 1b 14 [................]
      2d89: 16 18 19 1a 1a 1a 10 13 1c 1e 1c 19 1e 17 19 1a [................]
      2d99: 19 01 04 05 05 06 05 06 0c 07 07 0c 19 11 0e 11 [................]
      2da9: 19 19 19 19 19 19 19 19 19 19 19 19 19 19 19 19 [................]
      2db9: 19 19 19 19 19 19 19 19 19 19 19 19 19 19 19 19 [................]
      [snip 18 bytes]
JPEG DHT (416 bytes):
      2ddf: 00 00 01 05 01 01 01 01 01 01 00 00 00 00 00 00 [................]
      2def: 00 00 01 02 03 04 05 06 07 08 09 0a 0b 01 00 03 [................]
      2dff: 01 01 01 01 01 01 01 01 01 00 00 00 00 00 00 01 [................]
      2e0f: 02 03 04 05 06 07 08 09 0a 0b 10 00 02 01 03 03 [................]
      2e1f: 02 04 03 05 05 04 04 00 00 01 7d 01 02 03 00 04 [..........}.....]
      2e2f: 11 05 12 21 31 41 06 13 51 61 07 22 71 14 32 81 [...!1A..Qa."q.2.]
      2e3f: 91 a1 08 23 42 b1 c1 15 52 d1 f0 24 33 62 72 82 [...#B...R..$3br.]
      [snip 304 bytes]
JPEG SOF0 (15 bytes):
      2f83: 08 03 00 04 00 03 01 21 00 02 11 01 03 11 01    [.......!.......]
  ImageWidth = 1024
  ImageHeight = 768
  EncodingProcess = 0
  BitsPerSample = 8
  ColorComponents = 3
  YCbCrSubSampling = 2 1
JPEG SOS
JPEG EOI
Unknown trailer (2713 bytes at offset 0x34567):
   34567: ff 08 11 00 40 00 00 04 00 00 02 40 00 98 00 00 [....@......@....]
   34577: 00 00 00 01 00 80 00 00 00 08 00 00 00 60 00 00 [.............`..]
   34587: 00 08 00 00 00 09 00 00 00 00 00 40 00 00 00 00 [...........@....]
   34597: 00 00 00 04 00 0a 00 00 08 00 00 08 08 02 00 20 [............... ]
   345a7: 10 00 00 40 00 40 20 22 00 01 20 00 00 00 80 02 [...@.@ ".. .....]
   345b7: 00 00 80 00 00 00 40 00 00 00 00 04 00 00 00 08 [......@.........]
   345c7: 00 00 80 01 00 04 80 00 00 00 00 00 00 00 08 00 [................]
   345d7: 00 82 02 00 00 02 00 28 00 00 00 00 00 10 00 00 [.......(........]
   345e7: 00 20 00 10 00 00 80 08 00 80 40 08 00 00 80 80 [. ........@.....]
   345f7: 00 04 00 10 00 02 00 00 08 08 20 80 20 00 00 00 [.......... . ...]
   34607: 10 23 01 00 00 00 10 01 00 08 00 49 00 40 10 00 [.#.........I.@..]
   34617: 00 20 00 08 00 80 00 00 80 00 00 58 00 02 00 50 [. .........X...P]
   34627: 04 20 00 00 40 40 00 00 00 00 40 00 00 00 20 80 [. ..@@....@... .]
   34637: 00 10 00 04 80 04 00 00 08 20 02 08 00 02 00 00 [......... ......]
   34647: 00 01 00 20 20 08 00 01 00 00 00 80 00 01 00 00 [...  ...........]
   34657: 00 20 00 40 02 00 00 00 00 04 48 20 09 10 00 00 [. .@......H ....]
   34667: 00 00 00 02 00 82 00 00 00 00 00 00 80 01 00 00 [................]
   34677: 80 40 00 00 00 00 08 00 00 20 20 04 00 00 01 00 [.@.......  .....]
   34687: 00 00 00 20 00 00 00 00 00 00 00 00 00 00 88 14 [... ............]
   34697: 20 80 00 00 00 00 00 00 08 00 02 40 00 04 00 03 [ ..........@....]
   346a7: 00 00 00 80 00 80 00 08 00 00 00 80 00 50 09 00 [.............P..]
   346b7: 40 40 00 00 00 00 00 48 00 60 00 00 01 00 00 84 [@@.....H.`......]
   346c7: 04 20 00 10 00 00 00 00 10 00 00 08 00 80 00 00 [. ..............]
   346d7: 00 08 03 02 00 00 00 11 00 08 00 80 02 00 00 00 [................]
   346e7: 00 00 00 00 00 00 00 04 00 00 00 01 00 00 00 00 [................]
   346f7: 00 00 08 04 00 00 00 00 02 02 28 00 00 40 00 c0 [..........(..@..]
   34707: 00 00 00 80 00 00 02 01 00 02 00 06 00 00 00 a0 [................]
   34717: 00 20 00 40 40 20 00 00 40 82 00 00 00 40 00 00 [. .@@ ..@....@..]
   34727: 00 00 00 80 00 c0 00 00 00 80 00 40 00 00 00 01 [...........@....]
   34737: 08 10 00 00 00 00 00 00 00 08 80 00 40 00 40 40 [............@.@@]
   34747: 02 00 00 01 20 22 00 20 00 00 00 00 02 00 00 00 [.... ". ........]
   34757: 00 10 08 00 20 00 00 40 00 00 08 88 00 00 00 10 [.... ..@........]
    [snip 1689 bytes]
   34e00: 80 00 02 00 00 00 80 00 00 00 08 00 00 00 00 00 [................]
   34e10: 08 40 80 00 08 00 04 00 40 00 00 00 90 00 00 00 [.@......@.......]
   34e20: 20 02 00 00 08 00 04 04 00 00 80 00 00 00 81 00 [ ...............]
   34e30: 04 04 00 00 80 00 00 04 10 00 00 48 00 00 40 00 [...........H..@.]
   34e40: 00 80 10 00 00 01 01 00 04 00 00 00 00 00 00 00 [................]
   34e50: 00 00 00 00 20 20 08 00 00 00 00 00 18 00 80 00 [....  ..........]
   34e60: 00 00 04 04 00 00 80 00 10 00 04 00 00 00 08 01 [................]
   34e70: 24 00 00 00 40 00 00 08 00 00 00 00 00 00 10 00 [$...@...........]
   34e80: 00 02 10 00 02 00 20 00 00 00 00 00 00 02 08 00 [...... .........]
   34e90: 00 00 02 00 80 84 00 00 00 00 00 00 00 02 40 00 [..............@.]
   34ea0: 00 00 00 00 00 00 00 20 00 40 40 88 00 00 00 00 [....... .@@.....]
   34eb0: 00 00 00 00 00 00 00 00 00 00 00 50 04 20 00 40 [...........P. .@]
   34ec0: 00 40 00 00 08 00 24 00 14 00 40 00 24 00 02 00 [.@....$...@.$...]
   34ed0: 00 00 00 00 08 00 08 00 40 01 00 50 40 00 02 00 [........@..P@...]
   34ee0: 00 00 08 00 00 20 00 20 00 00 00 00 00 00 41 00 [..... . ......A.]
   34ef0: 10 01 32 00 00 00 00 00 20 00 04 00 00 20 00 00 [..2..... .... ..]
   34f00: 10 00 02 00 01 00 08 00 30 00 00 80 40 00 11 00 [........0...@...]
   34f10: 80 40 28 00 24 00 02 22 04 00 20 00 08 08 21 00 [.@(.$..".. ...!.]
   34f20: 08 00 88 80 08 00 40 00 00 08 00 00 00 40 24 00 [......@......@$.]
   34f30: 00 04 04 00 08 00 00 00 00 08 88 00 00 00 00 40 [...............@]
   34f40: 00 02 00 04 00 00 00 02 00 00 00 00 00 00 20 01 [.............. .]
   34f50: 00 04 00 20 00 00 04 00 00 00 04 04 08 01 40 48 [... ..........@H]
   34f60: 00 08 88 00 00 00 10 20 00 00 54 10 00 00 80 00 [....... ..T.....]
   34f70: 40 00 00 00 20 00 08 08 10 00 28 40 10 00 01 00 [@... .....(@....]
   34f80: 09 80 40 40 40 04 05 80 48 00 68 20 01 00 00 40 [..@@@...H.h ...@]
   34f90: 81 00 02 00 00 04 00 00 00 10 04 00 00 00 08 00 [................]
   34fa0: 00 00 02 00 02 00 01 08 82 00 42 00 00 00 06 11 [..........B.....]
   34fb0: 82 02 09 80 00 00 08 88 00 00 00 20 20 02 00 00 [...........  ...]
   34fc0: 04 00 04 00 00 00 02 00 28 00 00 04 00 00 20 00 [........(..... .]
   34fd0: 0d 00 02 00 00 00 01 00 00 00 00 20 a0 00 20 04 [........... .. .]
   34fe0: 00 00 00 08 10 40 00 00 0a 40 20 00 00 00 40 00 [.....@...@ ...@.]
   34ff0: 80 00 00 00 00 08 01 80 00 00 00 00 00 80 08 00 [................]
