  ExifToolVersion = 13.59
  FileName = media_49.jpg
  Directory = C:/Users/micro/IdeaProjects/kim/src/commonTest/resources/de/stefan_oltmann/kim/testdata/full
  FileSize = 9289561
  FileModifyDate = 1776264331.87937
  FileAccessDate = 1786601302.94224
  FileCreateDate = 1776264331.86837
  FilePermissions = 33206
  FileType = JPEG
  FileTypeExtension = JPG
  MIMEType = image/jpeg
JPEG APP1 (20362 bytes):
      0006: 45 78 69 66 00 00 49 49 2a 00 08 00 00 00 0b 00 [Exif..II*.......]
      0016: 0f 01 02 00 06 00 00 00 92 00 00 00 10 01 02 00 [................]
      0026: 0e 00 00 00 98 00 00 00 12 01 03 00 01 00 00 00 [................]
      0036: 01 00 00 00 1a 01 05 00 01 00 00 00 b8 00 00 00 [................]
      0046: 1b 01 05 00 01 00 00 00 c0 00 00 00 28 01 03 00 [............(...]
      0056: 01 00 00 00 02 00 00 00 32 01 02 00 14 00 00 00 [........2.......]
      0066: c8 00 00 00 3b 01 02 00 0f 00 00 00 dc 00 00 00 [....;...........]
      [snip 20250 bytes]
  ExifByteOrder = II
  + [IFD0 directory with 11 entries, Little-endian]
  | 0)  Make = Canon
  |     - Tag 0x010f (6 bytes, string[6]):
  |         009e: 43 61 6e 6f 6e 00                               [Canon.]
  | 1)  Model = Canon EOS 60D
  |     - Tag 0x0110 (14 bytes, string[14]):
  |         00a4: 43 61 6e 6f 6e 20 45 4f 53 20 36 30 44 00       [Canon EOS 60D.]
  | 2)  Orientation = 1
  |     - Tag 0x0112 (2 bytes, int16u[1]):
  |         0036: 01 00                                           [..]
  | 3)  XResolution = 72 (72/1)
  |     - Tag 0x011a (8 bytes, rational64u[1]):
  |         00c4: 48 00 00 00 01 00 00 00                         [H.......]
  | 4)  YResolution = 72 (72/1)
  |     - Tag 0x011b (8 bytes, rational64u[1]):
  |         00cc: 48 00 00 00 01 00 00 00                         [H.......]
  | 5)  ResolutionUnit = 2
  |     - Tag 0x0128 (2 bytes, int16u[1]):
  |         005a: 02 00                                           [..]
  | 6)  ModifyDate = 2021:12:06 05:27:33
  |     - Tag 0x0132 (20 bytes, string[20]):
  |         00d4: 32 30 32 31 3a 31 32 3a 30 36 20 30 35 3a 32 37 [2021:12:06 05:27]
  |         00e4: 3a 33 33 00                                     [:33.]
  | 7)  Artist = Stefan Oltmann
  |     - Tag 0x013b (15 bytes, string[15]):
  |         00e8: 53 74 65 66 61 6e 20 4f 6c 74 6d 61 6e 6e 00    [Stefan Oltmann.]
  | 8)  YCbCrPositioning = 2
  |     - Tag 0x0213 (2 bytes, int16u[1]):
  |         007e: 02 00                                           [..]
  | 9)  Copyright = Stefan Oltmann
  |     - Tag 0x8298 (15 bytes, string[15] read as undef[15]):
  |         0128: 53 74 65 66 61 6e 20 4f 6c 74 6d 61 6e 6e 00    [Stefan Oltmann.]
  | 10) ExifOffset (SubDirectory) -->
  |     - Tag 0x8769 (4 bytes, int32u[1]):
  |         0096: 5c 01 00 00                                     [\...]
  | + [ExifIFD directory with 38 entries, Little-endian]
  | | 0)  ExposureTime = 0.01666666667 (1/60)
  | |     - Tag 0x829a (8 bytes, rational64u[1]):
  | |         0336: 01 00 00 00 3c 00 00 00                         [....<...]
  | | 1)  FNumber = 5 (5/1)
  | |     - Tag 0x829d (8 bytes, rational64u[1]):
  | |         033e: 05 00 00 00 01 00 00 00                         [........]
  | | 2)  ExposureProgram = 3
  | |     - Tag 0x8822 (2 bytes, int16u[1]):
  | |         018a: 03 00                                           [..]
  | | 3)  ISO = 400
  | |     - Tag 0x8827 (2 bytes, int16u[1]):
  | |         0196: 90 01                                           [..]
  | | 4)  SensitivityType = 2
  | |     - Tag 0x8830 (2 bytes, int16u[1]):
  | |         01a2: 02 00                                           [..]
  | | 5)  RecommendedExposureIndex = 400
  | |     - Tag 0x8832 (4 bytes, int32u[1]):
  | |         01ae: 90 01 00 00                                     [....]
  | | 6)  ExifVersion = 0230
  | |     - Tag 0x9000 (4 bytes, undef[4]):
  | |         01ba: 30 32 33 30                                     [0230]
  | | 7)  DateTimeOriginal = 2021:12:06 05:27:33
  | |     - Tag 0x9003 (20 bytes, string[20]):
  | |         0346: 32 30 32 31 3a 31 32 3a 30 36 20 30 35 3a 32 37 [2021:12:06 05:27]
  | |         0356: 3a 33 33 00                                     [:33.]
  | | 8)  CreateDate = 2021:12:06 05:27:33
  | |     - Tag 0x9004 (20 bytes, string[20]):
  | |         035a: 32 30 32 31 3a 31 32 3a 30 36 20 30 35 3a 32 37 [2021:12:06 05:27]
  | |         036a: 3a 33 33 00                                     [:33.]
  | | 9)  ComponentsConfiguration = 1 2 3 0
  | |     - Tag 0x9101 (4 bytes, undef[4] read as int8u[4]):
  | |         01de: 01 02 03 00                                     [....]
  | | 10) ShutterSpeedValue = 6 (393216/65536)
  | |     - Tag 0x9201 (8 bytes, rational64s[1]):
  | |         036e: 00 00 06 00 00 00 01 00                         [........]
  | | 11) ApertureValue = 4.625 (303104/65536)
  | |     - Tag 0x9202 (8 bytes, rational64u[1]):
  | |         0376: 00 a0 04 00 00 00 01 00                         [........]
  | | 12) ExposureCompensation = 0 (0/1)
  | |     - Tag 0x9204 (8 bytes, rational64s[1]):
  | |         037e: 00 00 00 00 01 00 00 00                         [........]
  | | 13) MeteringMode = 5
  | |     - Tag 0x9207 (2 bytes, int16u[1]):
  | |         020e: 05 00                                           [..]
  | | 14) Flash = 16
  | |     - Tag 0x9209 (2 bytes, int16u[1]):
  | |         021a: 10 00                                           [..]
  | | 15) FocalLength = 24 (24/1)
  | |     - Tag 0x920a (8 bytes, rational64u[1]):
  | |         0386: 18 00 00 00 01 00 00 00                         [........]
  | | 16) MakerNoteCanon (SubDirectory) -->
  | |     - Tag 0x927c (7696 bytes, undef[7696]):
  | |         038e: 27 00 01 00 03 00 31 00 00 00 5c 05 00 00 02 00 ['.....1...\.....]
  | |         039e: 03 00 04 00 00 00 be 05 00 00 03 00 03 00 04 00 [................]
  | |         03ae: 00 00 c6 05 00 00 04 00 03 00 22 00 00 00 ce 05 [..........".....]
  | |         03be: 00 00 06 00 02 00 0e 00 00 00 12 06 00 00 07 00 [................]
  | |         03ce: 02 00 18 00 00 00 32 06 00 00 09 00 02 00 20 00 [......2....... .]
  | |         03de: 00 00 4a 06 00 00 0c 00 04 00 01 00 00 00 63 b3 [..J...........c.]
  | |         03ee: 3c 5e 0d 00 07 00 00 06 00 00 6a 06 00 00 10 00 [<^........j.....]
  | |         03fe: 04 00 01 00 00 00 87 02 00 80 13 00 03 00 04 00 [................]
  | |         040e: 00 00 6a 0c 00 00 15 00 04 00 01 00 00 00 00 00 [..j.............]
  | |         041e: 00 a0 19 00 03 00 01 00 00 00 01 00 00 00 26 00 [..............&.]
  | |         042e: 03 00 30 00 00 00 72 0c 00 00 83 00 04 00 01 00 [..0...r.........]
  | |         043e: 00 00 00 00 00 00 93 00 03 00 1b 00 00 00 d2 0e [................]
  | |         044e: 00 00 95 00 02 00 46 00 00 00 08 0f 00 00 96 00 [......F.........]
  | |         045e: 02 00 10 00 00 00 4e 0f 00 00 97 00 07 00 00 04 [......N.........]
  | |         046e: 00 00 5e 0f 00 00 98 00 03 00 04 00 00 00 5e 13 [..^...........^.]
  | |         047e: 00 00 99 00 04 00 4a 00 00 00 66 13 00 00 9a 00 [......J...f.....]
  | |         048e: 04 00 05 00 00 00 8e 14 00 00 a0 00 03 00 0e 00 [................]
  | |         049e: 00 00 a2 14 00 00 aa 00 03 00 06 00 00 00 be 14 [................]
  | |         04ae: 00 00 b4 00 03 00 01 00 00 00 01 00 00 00 d0 00 [................]
  | |         04be: 04 00 01 00 00 00 00 00 00 00 e0 00 03 00 11 00 [................]
  | |         04ce: 00 00 ca 14 00 00 01 40 03 00 42 05 00 00 ec 14 [.......@..B.....]
  | |         04de: 00 00 08 40 03 00 03 00 00 00 70 1f 00 00 09 40 [...@......p....@]
  | |         04ee: 03 00 03 00 00 00 76 1f 00 00 10 40 02 00 20 00 [......v....@.. .]
  | |         04fe: 00 00 7c 1f 00 00 11 40 07 00 fc 00 00 00 9c 1f [..|....@........]
  | |         050e: 00 00 12 40 02 00 20 00 00 00 98 20 00 00 15 40 [...@.. .... ...@]
  | |         051e: 07 00 74 00 00 00 b8 20 00 00 16 40 04 00 06 00 [..t.... ...@....]
  | |         052e: 00 00 2c 21 00 00 17 40 04 00 02 00 00 00 44 21 [..,!...@......D!]
  | |         053e: 00 00 18 40 04 00 03 00 00 00 4c 21 00 00 19 40 [...@......L!...@]
  | |         054e: 07 00 1e 00 00 00 58 21 00 00 20 40 04 00 05 00 [......X!.. @....]
  | |         055e: 00 00 76 21 00 00 00 00 00 00 62 00 02 00 00 00 [..v!......b.....]
  | |         056e: 03 00 00 00 05 00 00 00 01 00 00 00 07 00 00 00 [................]
  | |         057e: 01 00 00 00 00 00 00 00 ff 7f ff 7f 03 00 02 00 [................]
  | |         058e: 00 00 03 00 ff ff e8 01 55 00 0f 00 01 00 84 00 [........U.......]
  | |         059e: 30 01 00 00 00 00 00 00 00 00 ff ff ff ff ff ff [0...............]
  | |         05ae: 00 00 00 00 00 00 00 00 ff ff ff ff 00 00 00 00 [................]
  | |         05be: ff 7f ff ff ff ff 00 00 00 00 04 00 00 00 18 00 [................]
  | |         05ce: c6 22 ea 4c 00 00 00 00 00 00 00 00 44 00 00 00 [.".L........D...]
  | |         05de: e0 00 7c 00 94 00 c0 00 00 00 00 00 03 00 00 00 [..|.............]
  | |         05ee: 08 00 08 00 95 00 00 00 00 00 00 00 00 00 00 00 [................]
  | |         05fe: 00 00 00 00 00 00 98 00 c4 00 75 00 00 00 00 00 [..........u.....]
  | |         060e: f8 00 ff ff ff ff ff ff ff ff 00 00 00 00 00 00 [................]
  | |         061e: 43 61 6e 6f 6e 20 45 4f 53 20 36 30 44 00 00 00 [Canon EOS 60D...]
  | |         062e: 00 00 00 00 00 00 00 00 00 00 00 00 00 00 00 00 [................]
  | |         063e: 46 69 72 6d 77 61 72 65 20 56 65 72 73 69 6f 6e [Firmware Version]
  | |         064e: 20 31 2e 31 2e 31 00 00 53 74 65 66 61 6e 20 4f [ 1.1.1..Stefan O]
  | |         065e: 6c 74 6d 61 6e 6e 00 00 00 00 00 00 00 00 00 00 [ltmann..........]
  | |         066e: 00 00 00 00 00 00 00 00 aa aa 69 2e 68 2d 58 00 [..........i.h-X.]
  | |         067e: 75 77 00 03 00 00 00 00 00 00 00 00 00 06 00 00 [uw..............]
  | |         068e: 00 95 ba 6d 7a 7c 00 18 7e 01 00 00 00 00 00 00 [...mz|..~.......]
  | |         069e: 00 00 00 01 bb bb 01 01 00 00 00 00 01 01 00 00 [................]
  | |         06ae: 00 00 00 00 00 00 00 00 00 00 00 00 00 40 d0 00 [.............@..]
  | |         06be: 00 00 00 00 19 47 00 00 00 00 00 7f 00 00 30 00 [.....G........0.]
  | |         06ce: 2d 00 0c cc cc 02 00 00 00 03 00 00 00 04 00 00 [-...............]
  | |         06de: 00 58 00 00 00 00 00 00 00 00 01 00 00 00 00 00 [.X..............]
  | |         06ee: 00 00 00 00 00 88 13 00 00 00 00 00 00 00 00 00 [................]
  | |         06fe: 00 07 00 00 00 07 00 00 00 07 00 00 00 03 00 00 [................]
  | |         070e: 00 03 00 00 00 03 00 00 00 00 00 00 00 01 00 00 [................]
  | |         071e: 00 00 00 00 00 01 00 00 00 81 00 00 00 01 00 00 [................]
  | |         072e: 00 01 00 00 00 01 00 00 00 00 00 00 00 00 00 00 [................]
  | |         073e: 00 04 00 00 00 06 00 00 00 00 00 df ff 06 00 05 [................]
  | |         074e: 00 00 00 ff 7e 00 00 00 00 00 00 00 00 01 29 54 [....~.........)T]
  | |         075e: 01 e8 00 0f 00 55 91 77 ba ef 08 ff ff ff ff ff [.....U.w........]
  | |         076e: ff 02 00 00 00 00 00 00 00 00 00 00 00 00 00 00 [................]
  | |         077e: 00 00 00 00 00 00 00 00 00 00 00 00 00 01 00 00 [................]
  | |         078e: 00 40 14 00 00 80 0d 00 00 34 10 00 00 74 09 00 [.@.......4...t..]
  | |         079e: 00 06 02 00 00 b3 02 00 00 d0 02 00 00 e0 01 00 [................]
  | |         07ae: 00 00 00 00 00 00 00 00 00 d0 02 00 00 e0 01 00 [................]
  | |         07be: 00 d0 02 00 00 e0 01 00 00 00 00 00 00 00 00 00 [................]
  | |         07ce: 00 d0 02 00 00 e0 01 00 00 00 00 00 00 00 00 00 [................]
  | |         07de: 00 01 00 00 00 00 00 00 00 01 00 00 00 00 00 00 [................]
  | |         07ee: 00 00 00 00 00 00 00 00 00 00 00 00 00 00 02 00 [................]
  | |         07fe: 00 00 01 00 00 01 00 02 01 00 00 00 00 00 00 00 [................]
  | |         080e: 00 31 2e 31 2e 31 00 36 43 28 32 66 29 00 00 00 [.1.1.1.6C(2f)...]
  | |         081e: 00 53 74 65 66 61 6e 20 4f 6c 74 6d 61 6e 6e 00 [.Stefan Oltmann.]
  | |         082e: 61 00 00 00 00 00 00 00 00 00 00 00 00 00 00 00 [a...............]
  | |         083e: 00 8e 00 00 00 65 00 00 00 64 00 00 00 00 00 00 [.....e...d......]
  | |         084e: 00 17 21 00 00 00 00 00 00 64 00 00 00 66 00 00 [..!......d...f..]
  | |         085e: 00 64 00 00 00 08 00 00 00 08 00 00 00 08 00 00 [.d..............]
  | |         086e: 00 08 00 00 00 01 00 00 00 00 00 00 00 00 00 00 [................]
  | |         087e: 00 00 00 00 00 00 00 00 00 00 00 00 00 00 00 00 [................]
  | |         088e: 00 00 00 00 00 00 00 00 00 e9 01 00 04 00 04 9f [................]
  | |         089e: 02 00 00 00 00 00 00 00 00 00 00 00 00 00 00 00 [................]
  | |         08ae: 00 00 00 00 00 00 00 00 00 00 00 00 00 00 00 00 [................]
  | |         08be: 00 00 00 00 00 00 00 00 00 00 00 00 00 e9 01 00 [................]
  | |         08ce: 04 00 04 9f 02 00 00 00 00 00 00 00 00 00 00 00 [................]
  | |         08de: 00 00 00 00 00 00 00 00 00 00 00 00 00 00 00 00 [................]
  | |         08ee: 00 00 00 00 00 00 00 00 00 00 00 00 00 00 00 00 [................]
  | |         08fe: 00 e9 01 00 04 00 04 9f 02 00 00 00 00 00 00 00 [................]
  | |         090e: 00 00 00 00 00 00 00 00 00 00 00 00 00 00 00 00 [................]
  | |         091e: 00 00 00 00 00 00 00 00 00 00 00 00 00 00 00 00 [................]
  | |         092e: 00 00 00 00 00 e9 01 00 04 00 04 9f 02 00 00 00 [................]
  | |         093e: 00 00 00 00 00 00 00 00 00 00 00 00 00 00 00 00 [................]
  | |         094e: 00 00 00 00 00 00 00 00 00 00 00 00 00 00 00 00 [................]
  | |         095e: 00 00 00 00 00 00 00 00 00 e9 01 00 04 00 04 9f [................]
  | |         096e: 02 00 00 00 00 00 00 00 00 00 00 00 00 00 00 00 [................]
  | |         097e: 00 01 00 00 00 00 00 00 00 00 00 00 00 00 00 00 [................]
  | |         098e: 00 00 00 00 00 01 00 00 00 00 00 00 00 03 00 00 [................]
  | |         099e: 00 00 00 00 00 00 00 00 00 ef be ad de ef be ad [................]
  | |         09ae: de 00 00 00 00 02 00 00 00 00 00 00 00 00 00 00 [................]
  | |         09be: 00 ef be ad de ef be ad de 00 00 00 00 04 00 00 [................]
  | |         09ce: 00 00 00 00 00 00 00 00 00 ef be ad de ef be ad [................]
  | |         09de: de 00 00 00 00 00 00 00 00 00 00 00 00 00 00 00 [................]
  | |         09ee: 00 ef be ad de ef be ad de 00 00 00 00 00 00 00 [................]
  | |         09fe: 00 00 00 00 00 00 00 00 00 ef be ad de ef be ad [................]
  | |         0a0e: de 00 00 00 00 03 00 00 00 ef be ad de ef be ad [................]
  | |         0a1e: de 00 00 00 00 00 00 00 00 00 00 00 00 00 00 00 [................]
  | |         0a2e: 00 00 00 00 00 00 00 00 00 00 00 00 00 00 00 00 [................]
  | |         0a3e: 00 00 00 00 00 03 00 00 00 00 00 00 00 00 00 00 [................]
  | |         0a4e: 00 00 00 00 00 00 00 00 00 00 00 00 00 03 00 00 [................]
  | |         0a5e: 00 00 00 00 00 00 00 00 00 00 00 00 00 00 00 00 [................]
  | |         0a6e: 00 00 00 00 00 03 00 00 00 00 00 00 00 00 00 00 [................]
  | |         0a7e: 00 00 00 00 00 00 00 00 00 81 00 81 00 81 00 00 [................]
  | |         0a8e: 00 ff ff ff ff ff ff ff ff 00 00 00 00 00 00 00 [................]
  | |         0a9e: 00 00 00 00 00 00 00 00 00 00 00 00 00 00 00 00 [................]
  | |         0aae: 00 00 00 00 00 00 00 00 00 00 04 00 04 00 04 00 [................]
  | |         0abe: 04 00 00 00 00 00 00 00 00 00 00 00 00 00 00 00 [................]
  | |         0ace: 00 00 00 00 00 00 00 00 00 00 00 00 00 00 00 00 [................]
  | |         0ade: 00 00 04 00 04 00 04 00 04 00 00 00 00 00 00 00 [................]
  | |         0aee: 00 00 00 00 00 00 00 00 00 00 00 00 00 00 00 00 [................]
  | |         0afe: 00 00 00 00 00 00 00 00 00 00 04 00 04 00 04 00 [................]
  | |         0b0e: 04 00 00 00 00 00 00 00 00 00 00 00 00 00 00 00 [................]
  | |         0b1e: 00 00 00 00 00 00 00 00 00 00 00 00 00 00 00 00 [................]
  | |         0b2e: 00 00 04 00 04 00 04 00 04 00 00 00 00 00 00 00 [................]
  | |         0b3e: 00 00 00 00 00 00 00 00 00 00 00 00 00 00 00 00 [................]
  | |         0b4e: 00 00 00 00 00 00 00 00 00 00 04 00 04 00 04 00 [................]
  | |         0b5e: 04 00 00 00 00 00 00 00 00 45 9f ad 61 3c 03 00 [.........E..a<..]
  | |         0b6e: 00 04 00 01 00 00 00 00 00 04 00 01 00 00 00 00 [................]
  | |         [snip 5664 bytes]
  | | + [MakerNotes directory with 39 entries, Little-endian]
  | | | 0)  CanonCameraSettings (SubDirectory) -->
  | | |     - Tag 0x0001 (98 bytes, int16u[49] read as undef[98]):
  | | |         0568: 62 00 02 00 00 00 03 00 00 00 05 00 00 00 01 00 [b...............]
  | | |         0578: 00 00 07 00 00 00 01 00 00 00 00 00 00 00 ff 7f [................]
  | | |         0588: ff 7f 03 00 02 00 00 00 03 00 ff ff e8 01 55 00 [..............U.]
  | | |         0598: 0f 00 01 00 84 00 30 01 00 00 00 00 00 00 00 00 [......0.........]
  | | |         05a8: ff ff ff ff ff ff 00 00 00 00 00 00 00 00 ff ff [................]
  | | |         05b8: ff ff 00 00 00 00 ff 7f ff ff ff ff 00 00 00 00 [................]
  | | |         05c8: 04 00                                           [..]
  | | | + [BinaryData directory, 98 bytes, Little-endian]
  | | | | MacroMode = 2
  | | | | - Tag 0x0001 (2 bytes, int16s[1]):
  | | | |     056a: 02 00                                           [..]
  | | | | SelfTimer = 0
  | | | | - Tag 0x0002 (2 bytes, int16s[1]):
  | | | |     056c: 00 00                                           [..]
  | | | | Quality = 3
  | | | | - Tag 0x0003 (2 bytes, int16s[1]):
  | | | |     056e: 03 00                                           [..]
  | | | | CanonFlashMode = 0
  | | | | - Tag 0x0004 (2 bytes, int16s[1]):
  | | | |     0570: 00 00                                           [..]
  | | | | ContinuousDrive = 5
  | | | | - Tag 0x0005 (2 bytes, int16s[1]):
  | | | |     0572: 05 00                                           [..]
  | | | | FocusMode = 1
  | | | | - Tag 0x0007 (2 bytes, int16s[1]):
  | | | |     0576: 01 00                                           [..]
  | | | | RecordMode = 7
  | | | | - Tag 0x0009 (2 bytes, int16s[1]):
  | | | |     057a: 07 00                                           [..]
  | | | | CanonImageSize = 0
  | | | | - Tag 0x000a (2 bytes, int16s[1]):
  | | | |     057c: 00 00                                           [..]
  | | | | EasyMode = 1
  | | | | - Tag 0x000b (2 bytes, int16s[1]):
  | | | |     057e: 01 00                                           [..]
  | | | | DigitalZoom = 0
  | | | | - Tag 0x000c (2 bytes, int16s[1]):
  | | | |     0580: 00 00                                           [..]
  | | | | Contrast = 0
  | | | | - Tag 0x000d (2 bytes, int16s[1]):
  | | | |     0582: 00 00                                           [..]
  | | | | Saturation = 0
  | | | | - Tag 0x000e (2 bytes, int16s[1]):
  | | | |     0584: 00 00                                           [..]
  | | | | Sharpness = 32767
  | | | | - Tag 0x000f (2 bytes, int16s[1]):
  | | | |     0586: ff 7f                                           [..]
  | | | | CameraISO = 32767
  | | | | - Tag 0x0010 (2 bytes, int16s[1]):
  | | | |     0588: ff 7f                                           [..]
  | | | | MeteringMode = 3
  | | | | - Tag 0x0011 (2 bytes, int16s[1]):
  | | | |     058a: 03 00                                           [..]
  | | | | FocusRange = 2
  | | | | - Tag 0x0012 (2 bytes, int16s[1]):
  | | | |     058c: 02 00                                           [..]
  | | | | AFPoint = 0
  | | | | - Tag 0x0013 (2 bytes, int16s[1]):
  | | | |     058e: 00 00                                           [..]
  | | | | CanonExposureMode = 3
  | | | | - Tag 0x0014 (2 bytes, int16s[1]):
  | | | |     0590: 03 00                                           [..]
  | | | | LensType = 488
  | | | | - Tag 0x0016 (2 bytes, int16u[1]):
  | | | |     0594: e8 01                                           [..]
  | | | | MaxFocalLength = 85
  | | | | - Tag 0x0017 (2 bytes, int16u[1]):
  | | | |     0596: 55 00                                           [U.]
  | | | | MinFocalLength = 15
  | | | | - Tag 0x0018 (2 bytes, int16u[1]):
  | | | |     0598: 0f 00                                           [..]
  | | | | FocalUnits = 1
  | | | | - Tag 0x0019 (2 bytes, int16s[1]):
  | | | |     059a: 01 00                                           [..]
  | | | | MaxAperture = 132
  | | | | - Tag 0x001a (2 bytes, int16s[1]):
  | | | |     059c: 84 00                                           [..]
  | | | | MinAperture = 304
  | | | | - Tag 0x001b (2 bytes, int16s[1]):
  | | | |     059e: 30 01                                           [0.]
  | | | | FlashModel = 0
  | | | | - Tag 0x001c, mask 0x7f (2 bytes, int16s[1]):
  | | | |     05a0: 00 00                                           [..]
  | | | | FlashBits = 0
  | | | | - Tag 0x001d (2 bytes, int16s[1]):
  | | | |     05a2: 00 00                                           [..]
  | | | | FocusContinuous = -1
  | | | | - Tag 0x0020 (2 bytes, int16s[1]):
  | | | |     05a8: ff ff                                           [..]
  | | | | AESetting = -1
  | | | | - Tag 0x0021 (2 bytes, int16s[1]):
  | | | |     05aa: ff ff                                           [..]
  | | | | ImageStabilization = -1
  | | | | - Tag 0x0022 (2 bytes, int16s[1]):
  | | | |     05ac: ff ff                                           [..]
  | | | | DisplayAperture = 0
  | | | | - Tag 0x0023 (2 bytes, int16s[1]):
  | | | |     05ae: 00 00                                           [..]
  | | | | ZoomSourceWidth = 0
  | | | | - Tag 0x0024 (2 bytes, int16s[1]):
  | | | |     05b0: 00 00                                           [..]
  | | | | ZoomTargetWidth = 0
  | | | | - Tag 0x0025 (2 bytes, int16s[1]):
  | | | |     05b2: 00 00                                           [..]
  | | | | SpotMeteringMode = -1
  | | | | - Tag 0x0027 (2 bytes, int16s[1]):
  | | | |     05b6: ff ff                                           [..]
  | | | | PhotoEffect = -1
  | | | | - Tag 0x0028 (2 bytes, int16s[1]):
  | | | |     05b8: ff ff                                           [..]
  | | | | ManualFlashOutput = 0
  | | | | - Tag 0x0029 (2 bytes, int16s[1]):
  | | | |     05ba: 00 00                                           [..]
  | | | | ColorTone = 0
  | | | | - Tag 0x002a (2 bytes, int16s[1]):
  | | | |     05bc: 00 00                                           [..]
  | | | | SRAWQuality = 0
  | | | | - Tag 0x002e (2 bytes, int16s[1]):
  | | | |     05c4: 00 00                                           [..]
  | | | 1)  CanonFocalLength (SubDirectory) -->
  | | |     - Tag 0x0002 (8 bytes, int16u[4] read as undef[8]):
  | | |         05ca: 00 00 18 00 c6 22 ea 4c                         [.....".L]
  | | | + [BinaryData directory, 8 bytes, Little-endian]
  | | | | FocalType = 0
  | | | | - Tag 0x0000 (2 bytes, int16u[1]):
  | | | |     05ca: 00 00                                           [..]
  | | | | FocalLength = 24
  | | | | - Tag 0x0001 (2 bytes, int16u[1]):
  | | | |     05cc: 18 00                                           [..]
  | | | | FocalPlaneXUnknown = 8902
  | | | | - Tag 0x0002 (2 bytes, int16u[1]):
  | | | |     05ce: c6 22                                           [."]
  | | | | FocalPlaneYUnknown = 19690
  | | | | - Tag 0x0003 (2 bytes, int16u[1]):
  | | | |     05d0: ea 4c                                           [.L]
  | | | 2)  CanonFlashInfo = 0 0 0 0
  | | |     - Tag 0x0003 (8 bytes, int16u[4]):
  | | |         05d2: 00 00 00 00 00 00 00 00                         [........]
  | | | 3)  CanonShotInfo (SubDirectory) -->
  | | |     - Tag 0x0004 (68 bytes, int16u[34] read as undef[68]):
  | | |         05da: 44 00 00 00 e0 00 7c 00 94 00 c0 00 00 00 00 00 [D.....|.........]
  | | |         05ea: 03 00 00 00 08 00 08 00 95 00 00 00 00 00 00 00 [................]
  | | |         05fa: 00 00 00 00 00 00 00 00 00 00 98 00 c4 00 75 00 [..............u.]
  | | |         060a: 00 00 00 00 f8 00 ff ff ff ff ff ff ff ff 00 00 [................]
  | | |         061a: 00 00 00 00                                     [....]
  | | | + [BinaryData directory, 68 bytes, Little-endian]
  | | | | AutoISO = 0
  | | | | - Tag 0x0001 (2 bytes, int16s[1]):
  | | | |     05dc: 00 00                                           [..]
  | | | | BaseISO = 224
  | | | | - Tag 0x0002 (2 bytes, int16s[1]):
  | | | |     05de: e0 00                                           [..]
  | | | | MeasuredEV = 124
  | | | | - Tag 0x0003 (2 bytes, int16s[1]):
  | | | |     05e0: 7c 00                                           [|.]
  | | | | TargetAperture = 148
  | | | | - Tag 0x0004 (2 bytes, int16s[1]):
  | | | |     05e2: 94 00                                           [..]
  | | | | TargetExposureTime = 192
  | | | | - Tag 0x0005 (2 bytes, int16s[1]):
  | | | |     05e4: c0 00                                           [..]
  | | | | ExposureCompensation = 0
  | | | | - Tag 0x0006 (2 bytes, int16s[1]):
  | | | |     05e6: 00 00                                           [..]
  | | | | WhiteBalance = 0
  | | | | - Tag 0x0007 (2 bytes, int16s[1]):
  | | | |     05e8: 00 00                                           [..]
  | | | | SlowShutter = 3
  | | | | - Tag 0x0008 (2 bytes, int16s[1]):
  | | | |     05ea: 03 00                                           [..]
  | | | | SequenceNumber = 0
  | | | | - Tag 0x0009 (2 bytes, int16s[1]):
  | | | |     05ec: 00 00                                           [..]
  | | | | OpticalZoomCode = 8
  | | | | - Tag 0x000a (2 bytes, int16s[1]):
  | | | |     05ee: 08 00                                           [..]
  | | | | CameraTemperature = 149
  | | | | - Tag 0x000c (2 bytes, int16s[1]):
  | | | |     05f2: 95 00                                           [..]
  | | | | FlashGuideNumber = 0
  | | | | - Tag 0x000d (2 bytes, int16s[1]):
  | | | |     05f4: 00 00                                           [..]
  | | | | AFPointsInFocus = 0
  | | | | - Tag 0x000e (2 bytes, int16s[1]):
  | | | |     05f6: 00 00                                           [..]
  | | | | FlashExposureComp = 0
  | | | | - Tag 0x000f (2 bytes, int16s[1]):
  | | | |     05f8: 00 00                                           [..]
  | | | | AutoExposureBracketing = 0
  | | | | - Tag 0x0010 (2 bytes, int16s[1]):
  | | | |     05fa: 00 00                                           [..]
  | | | | AEBBracketValue = 0
  | | | | - Tag 0x0011 (2 bytes, int16s[1]):
  | | | |     05fc: 00 00                                           [..]
  | | | | ControlMode = 0
  | | | | - Tag 0x0012 (2 bytes, int16s[1]):
  | | | |     05fe: 00 00                                           [..]
  | | | | FocusDistanceUpper = 0
  | | | | - Tag 0x0013 (2 bytes, int16u[1]):
  | | | |     0600: 00 00                                           [..]
  | | | | FNumber = 152
  | | | | - Tag 0x0015 (2 bytes, int16s[1]):
  | | | |     0604: 98 00                                           [..]
  | | | | ExposureTime = 196
  | | | | - Tag 0x0016 (2 bytes, int16s[1]):
  | | | |     0606: c4 00                                           [..]
  | | | | MeasuredEV2 = 117
  | | | | - Tag 0x0017 (2 bytes, int16s[1]):
  | | | |     0608: 75 00                                           [u.]
  | | | | BulbDuration = 0
  | | | | - Tag 0x0018 (2 bytes, int16s[1]):
  | | | |     060a: 00 00                                           [..]
  | | | | CameraType = 248
  | | | | - Tag 0x001a (2 bytes, int16s[1]):
  | | | |     060e: f8 00                                           [..]
  | | | | AutoRotate = -1
  | | | | - Tag 0x001b (2 bytes, int16s[1]):
  | | | |     0610: ff ff                                           [..]
  | | | | NDFilter = -1
  | | | | - Tag 0x001c (2 bytes, int16s[1]):
  | | | |     0612: ff ff                                           [..]
  | | | | SelfTimer2 = -1
  | | | | - Tag 0x001d (2 bytes, int16s[1]):
  | | | |     0614: ff ff                                           [..]
  | | | | FlashOutput = 0
  | | | | - Tag 0x0021 (2 bytes, int16s[1]):
  | | | |     061c: 00 00                                           [..]
  | | | 4)  CanonImageType = Canon EOS 60D
  | | |     - Tag 0x0006 (14 bytes, string[14]):
  | | |         061e: 43 61 6e 6f 6e 20 45 4f 53 20 36 30 44 00       [Canon EOS 60D.]
  | | | 5)  CanonFirmwareVersion = Firmware Version 1.1.1
  | | |     - Tag 0x0007 (24 bytes, string[24]):
  | | |         063e: 46 69 72 6d 77 61 72 65 20 56 65 72 73 69 6f 6e [Firmware Version]
  | | |         064e: 20 31 2e 31 2e 31 00 00                         [ 1.1.1..]
  | | | 6)  OwnerName = Stefan Oltmann
  | | |     - Tag 0x0009 (32 bytes, string[32]):
  | | |         0656: 53 74 65 66 61 6e 20 4f 6c 74 6d 61 6e 6e 00 00 [Stefan Oltmann..]
  | | |         0666: 00 00 00 00 00 00 00 00 00 00 00 00 00 00 00 00 [................]
  | | | 7)  SerialNumber = 1581036387
  | | |     - Tag 0x000c (4 bytes, int32u[1]):
  | | |         03ec: 63 b3 3c 5e                                     [c.<^]
  | | | 8)  CanonCameraInfo60D (SubDirectory) -->
  | | |     - Tag 0x000d (1536 bytes, undef[1536]):
  | | |         0676: aa aa 69 2e 68 2d 58 00 75 77 00 03 00 00 00 00 [..i.h-X.uw......]
  | | |         0686: 00 00 00 00 00 06 00 00 00 95 ba 6d 7a 7c 00 18 [...........mz|..]
  | | |         0696: 7e 01 00 00 00 00 00 00 00 00 00 01 bb bb 01 01 [~...............]
  | | |         06a6: 00 00 00 00 01 01 00 00 00 00 00 00 00 00 00 00 [................]
  | | |         06b6: 00 00 00 00 00 40 d0 00 00 00 00 00 19 47 00 00 [.....@.......G..]
  | | |         06c6: 00 00 00 7f 00 00 30 00 2d 00 0c cc cc 02 00 00 [......0.-.......]
  | | |         06d6: 00 03 00 00 00 04 00 00 00 58 00 00 00 00 00 00 [.........X......]
  | | |         06e6: 00 00 01 00 00 00 00 00 00 00 00 00 00 88 13 00 [................]
  | | |         06f6: 00 00 00 00 00 00 00 00 00 07 00 00 00 07 00 00 [................]
  | | |         0706: 00 07 00 00 00 03 00 00 00 03 00 00 00 03 00 00 [................]
  | | |         0716: 00 00 00 00 00 01 00 00 00 00 00 00 00 01 00 00 [................]
  | | |         0726: 00 81 00 00 00 01 00 00 00 01 00 00 00 01 00 00 [................]
  | | |         0736: 00 00 00 00 00 00 00 00 00 04 00 00 00 06 00 00 [................]
  | | |         0746: 00 00 00 df ff 06 00 05 00 00 00 ff 7e 00 00 00 [............~...]
  | | |         0756: 00 00 00 00 00 01 29 54 01 e8 00 0f 00 55 91 77 [......)T.....U.w]
  | | |         0766: ba ef 08 ff ff ff ff ff ff 02 00 00 00 00 00 00 [................]
  | | |         0776: 00 00 00 00 00 00 00 00 00 00 00 00 00 00 00 00 [................]
  | | |         0786: 00 00 00 00 00 01 00 00 00 40 14 00 00 80 0d 00 [.........@......]
  | | |         0796: 00 34 10 00 00 74 09 00 00 06 02 00 00 b3 02 00 [.4...t..........]
  | | |         07a6: 00 d0 02 00 00 e0 01 00 00 00 00 00 00 00 00 00 [................]
  | | |         07b6: 00 d0 02 00 00 e0 01 00 00 d0 02 00 00 e0 01 00 [................]
  | | |         07c6: 00 00 00 00 00 00 00 00 00 d0 02 00 00 e0 01 00 [................]
  | | |         07d6: 00 00 00 00 00 00 00 00 00 01 00 00 00 00 00 00 [................]
  | | |         07e6: 00 01 00 00 00 00 00 00 00 00 00 00 00 00 00 00 [................]
  | | |         07f6: 00 00 00 00 00 00 02 00 00 00 01 00 00 01 00 02 [................]
  | | |         0806: 01 00 00 00 00 00 00 00 00 31 2e 31 2e 31 00 36 [.........1.1.1.6]
  | | |         0816: 43 28 32 66 29 00 00 00 00 53 74 65 66 61 6e 20 [C(2f)....Stefan ]
  | | |         0826: 4f 6c 74 6d 61 6e 6e 00 61 00 00 00 00 00 00 00 [Oltmann.a.......]
  | | |         0836: 00 00 00 00 00 00 00 00 00 8e 00 00 00 65 00 00 [.............e..]
  | | |         0846: 00 64 00 00 00 00 00 00 00 17 21 00 00 00 00 00 [.d........!.....]
  | | |         0856: 00 64 00 00 00 66 00 00 00 64 00 00 00 08 00 00 [.d...f...d......]
  | | |         0866: 00 08 00 00 00 08 00 00 00 08 00 00 00 01 00 00 [................]
  | | |         0876: 00 00 00 00 00 00 00 00 00 00 00 00 00 00 00 00 [................]
  | | |         0886: 00 00 00 00 00 00 00 00 00 00 00 00 00 00 00 00 [................]
  | | |         0896: 00 e9 01 00 04 00 04 9f 02 00 00 00 00 00 00 00 [................]
  | | |         08a6: 00 00 00 00 00 00 00 00 00 00 00 00 00 00 00 00 [................]
  | | |         08b6: 00 00 00 00 00 00 00 00 00 00 00 00 00 00 00 00 [................]
  | | |         08c6: 00 00 00 00 00 e9 01 00 04 00 04 9f 02 00 00 00 [................]
  | | |         08d6: 00 00 00 00 00 00 00 00 00 00 00 00 00 00 00 00 [................]
  | | |         08e6: 00 00 00 00 00 00 00 00 00 00 00 00 00 00 00 00 [................]
  | | |         08f6: 00 00 00 00 00 00 00 00 00 e9 01 00 04 00 04 9f [................]
  | | |         0906: 02 00 00 00 00 00 00 00 00 00 00 00 00 00 00 00 [................]
  | | |         0916: 00 00 00 00 00 00 00 00 00 00 00 00 00 00 00 00 [................]
  | | |         0926: 00 00 00 00 00 00 00 00 00 00 00 00 00 e9 01 00 [................]
  | | |         0936: 04 00 04 9f 02 00 00 00 00 00 00 00 00 00 00 00 [................]
  | | |         0946: 00 00 00 00 00 00 00 00 00 00 00 00 00 00 00 00 [................]
  | | |         0956: 00 00 00 00 00 00 00 00 00 00 00 00 00 00 00 00 [................]
  | | |         0966: 00 e9 01 00 04 00 04 9f 02 00 00 00 00 00 00 00 [................]
  | | |         0976: 00 00 00 00 00 00 00 00 00 01 00 00 00 00 00 00 [................]
  | | |         0986: 00 00 00 00 00 00 00 00 00 00 00 00 00 01 00 00 [................]
  | | |         0996: 00 00 00 00 00 03 00 00 00 00 00 00 00 00 00 00 [................]
  | | |         09a6: 00 ef be ad de ef be ad de 00 00 00 00 02 00 00 [................]
  | | |         09b6: 00 00 00 00 00 00 00 00 00 ef be ad de ef be ad [................]
  | | |         09c6: de 00 00 00 00 04 00 00 00 00 00 00 00 00 00 00 [................]
  | | |         09d6: 00 ef be ad de ef be ad de 00 00 00 00 00 00 00 [................]
  | | |         09e6: 00 00 00 00 00 00 00 00 00 ef be ad de ef be ad [................]
  | | |         09f6: de 00 00 00 00 00 00 00 00 00 00 00 00 00 00 00 [................]
  | | |         0a06: 00 ef be ad de ef be ad de 00 00 00 00 03 00 00 [................]
  | | |         0a16: 00 ef be ad de ef be ad de 00 00 00 00 00 00 00 [................]
  | | |         0a26: 00 00 00 00 00 00 00 00 00 00 00 00 00 00 00 00 [................]
  | | |         0a36: 00 00 00 00 00 00 00 00 00 00 00 00 00 03 00 00 [................]
  | | |         0a46: 00 00 00 00 00 00 00 00 00 00 00 00 00 00 00 00 [................]
  | | |         0a56: 00 00 00 00 00 03 00 00 00 00 00 00 00 00 00 00 [................]
  | | |         0a66: 00 00 00 00 00 00 00 00 00 00 00 00 00 03 00 00 [................]
  | | |         0a76: 00 00 00 00 00 00 00 00 00 00 00 00 00 00 00 00 [................]
  | | |         0a86: 00 81 00 81 00 81 00 00 00 ff ff ff ff ff ff ff [................]
  | | |         0a96: ff 00 00 00 00 00 00 00 00 00 00 00 00 00 00 00 [................]
  | | |         0aa6: 00 00 00 00 00 00 00 00 00 00 00 00 00 00 00 00 [................]
  | | |         0ab6: 00 00 04 00 04 00 04 00 04 00 00 00 00 00 00 00 [................]
  | | |         0ac6: 00 00 00 00 00 00 00 00 00 00 00 00 00 00 00 00 [................]
  | | |         0ad6: 00 00 00 00 00 00 00 00 00 00 04 00 04 00 04 00 [................]
  | | |         0ae6: 04 00 00 00 00 00 00 00 00 00 00 00 00 00 00 00 [................]
  | | |         0af6: 00 00 00 00 00 00 00 00 00 00 00 00 00 00 00 00 [................]
  | | |         0b06: 00 00 04 00 04 00 04 00 04 00 00 00 00 00 00 00 [................]
  | | |         0b16: 00 00 00 00 00 00 00 00 00 00 00 00 00 00 00 00 [................]
  | | |         0b26: 00 00 00 00 00 00 00 00 00 00 04 00 04 00 04 00 [................]
  | | |         0b36: 04 00 00 00 00 00 00 00 00 00 00 00 00 00 00 00 [................]
  | | |         0b46: 00 00 00 00 00 00 00 00 00 00 00 00 00 00 00 00 [................]
  | | |         0b56: 00 00 04 00 04 00 04 00 04 00 00 00 00 00 00 00 [................]
  | | |         0b66: 00 45 9f ad 61 3c 03 00 00 04 00 01 00 00 00 00 [.E..a<..........]
  | | |         0b76: 00 04 00 01 00 00 00 00 00 04 00 01 00 00 00 00 [................]
  | | |         0b86: 00 00 00 00 33 00 00 00 00 00 00 00 00 00 00 00 [....3...........]
  | | |         0b96: 00 d0 2d 00 00 74 d7 00 00 00 00 00 00 00 00 00 [..-..t..........]
  | | |         0ba6: 00 00 00 00 00 00 00 00 00 00 00 00 00 00 00 00 [................]
  | | |         0bb6: 00 00 00 00 00 00 00 00 00 00 00 00 00 00 00 00 [................]
  | | |         0bc6: 00 00 00 00 00 00 00 00 00 00 00 00 00 00 00 00 [................]
  | | |         0bd6: 00 00 00 00 00 00 00 00 00 00 00 00 00 00 00 00 [................]
  | | |         0be6: 00 00 00 00 00 00 00 00 00 00 00 00 00 00 00 00 [................]
  | | |         0bf6: 00 00 00 00 00 00 00 00 00 00 00 00 00 00 00 00 [................]
  | | |         0c06: 00 00 00 00 00 00 00 00 00 00 00 00 00 00 00 00 [................]
  | | |         0c16: 00 00 00 00 00 00 00 00 00 00 00 00 00 00 00 00 [................]
  | | |         0c26: 00 00 00 00 00 00 00 00 00 00 00 00 00 00 00 00 [................]
  | | |         0c36: 00 00 00 00 00 00 00 00 00 00 00 00 00 00 00 00 [................]
  | | |         0c46: 00 00 00 00 00 00 00 00 00 00 00 00 00 00 00 00 [................]
  | | |         0c56: 00 00 00 00 00 00 00 00 00 00 00 00 00 00 00 00 [................]
  | | |         0c66: 00 00 00 00 00 00 00 00 00 00 00 00 00 00 00 00 [................]
  | | | + [BinaryData directory, 1536 bytes, Little-endian]
  | | | | FNumber = 46
  | | | | - Tag 0x0003 (1 bytes, int8u[1]):
  | | | |     0679: 2e                                              [.]
  | | | | ExposureTime = 104
  | | | | - Tag 0x0004 (1 bytes, int8u[1]):
  | | | |     067a: 68                                              [h]
  | | | | ISO = 88
  | | | | - Tag 0x0006 (1 bytes, int8u[1]):
  | | | |     067c: 58                                              [X]
  | | | | CameraTemperature = 149
  | | | | - Tag 0x0019 (1 bytes, int8u[1]):
  | | | |     068f: 95                                              [.]
  | | | | FocalLength = 24
  | | | | - Tag 0x001e (2 bytes, int16uRev[1]):
  | | | |     0694: 00 18                                           [..]
  | | | | CameraOrientation = 0
  | | | | - Tag 0x0036 (1 bytes, int8u[1]):
  | | | |     06ac: 00                                              [.]
  | | | | FocusDistanceUpper = 48
  | | | | - Tag 0x0055 (2 bytes, int16uRev[1]):
  | | | |     06cb: 00 30                                           [.0]
  | | | | FocusDistanceLower = 45
  | | | | - Tag 0x0057 (2 bytes, int16uRev[1]):
  | | | |     06cd: 00 2d                                           [.-]
  | | | | ColorTemperature = 5000
  | | | | - Tag 0x007d (2 bytes, int16u[1]):
  | | | |     06f3: 88 13                                           [..]
  | | | | LensType = 488
  | | | | - Tag 0x00e8 (2 bytes, int16uRev[1]):
  | | | |     075e: 01 e8                                           [..]
  | | | | MinFocalLength = 15
  | | | | - Tag 0x00ea (2 bytes, int16uRev[1]):
  | | | |     0760: 00 0f                                           [..]
  | | | | MaxFocalLength = 85
  | | | | - Tag 0x00ec (2 bytes, int16uRev[1]):
  | | | |     0762: 00 55                                           [.U]
  | | | | FirmwareVersion = 1.1.1
  | | | | - Tag 0x0199 (6 bytes, string[6]):
  | | | |     080f: 31 2e 31 2e 31 00                               [1.1.1.]
  | | | | FileIndex = 8471
  | | | | - Tag 0x01d9 (4 bytes, int32u[1]):
  | | | |     084f: 17 21 00 00                                     [.!..]
  | | | | DirectoryIndex = 102
  | | | | - Tag 0x01e5 (4 bytes, int32u[1]):
  | | | |     085b: 66 00 00 00                                     [f...]
  | | | | PictureStyleInfo (SubDirectory) -->
  | | | | - Tag 0x0321 (735 bytes, int8u[1]):
  | | | |     0997: 00 00 00 00 03 00 00 00 00 00 00 00 00 00 00 00 [................]
  | | | |     09a7: ef be ad de ef be ad de 00 00 00 00 02 00 00 00 [................]
  | | | |     09b7: 00 00 00 00 00 00 00 00 ef be ad de ef be ad de [................]
  | | | |     09c7: 00 00 00 00 04 00 00 00 00 00 00 00 00 00 00 00 [................]
  | | | |     09d7: ef be ad de ef be ad de 00 00 00 00 00 00 00 00 [................]
  | | | |     09e7: 00 00 00 00 00 00 00 00 ef be ad de ef be ad de [................]
  | | | |     09f7: 00 00 00 00 00 00 00 00 00 00 00 00 00 00 00 00 [................]
  | | | |     0a07: ef be ad de ef be ad de 00 00 00 00 03 00 00 00 [................]
  | | | |     0a17: ef be ad de ef be ad de 00 00 00 00 00 00 00 00 [................]
  | | | |     0a27: 00 00 00 00 00 00 00 00 00 00 00 00 00 00 00 00 [................]
  | | | |     0a37: 00 00 00 00 00 00 00 00 00 00 00 00 03 00 00 00 [................]
  | | | |     0a47: 00 00 00 00 00 00 00 00 00 00 00 00 00 00 00 00 [................]
  | | | |     0a57: 00 00 00 00 03 00 00 00 00 00 00 00 00 00 00 00 [................]
  | | | |     0a67: 00 00 00 00 00 00 00 00 00 00 00 00 03 00 00 00 [................]
  | | | |     0a77: 00 00 00 00 00 00 00 00 00 00 00 00 00 00 00 00 [................]
  | | | |     0a87: 81 00 81 00 81 00 00 00 ff ff ff ff ff ff ff ff [................]
  | | | |     0a97: 00 00 00 00 00 00 00 00 00 00 00 00 00 00 00 00 [................]
  | | | |     0aa7: 00 00 00 00 00 00 00 00 00 00 00 00 00 00 00 00 [................]
  | | | |     0ab7: 00 04 00 04 00 04 00 04 00 00 00 00 00 00 00 00 [................]
  | | | |     0ac7: 00 00 00 00 00 00 00 00 00 00 00 00 00 00 00 00 [................]
  | | | |     0ad7: 00 00 00 00 00 00 00 00 00 04 00 04 00 04 00 04 [................]
  | | | |     0ae7: 00 00 00 00 00 00 00 00 00 00 00 00 00 00 00 00 [................]
  | | | |     0af7: 00 00 00 00 00 00 00 00 00 00 00 00 00 00 00 00 [................]
  | | | |     0b07: 00 04 00 04 00 04 00 04 00 00 00 00 00 00 00 00 [................]
  | | | |     0b17: 00 00 00 00 00 00 00 00 00 00 00 00 00 00 00 00 [................]
  | | | |     0b27: 00 00 00 00 00 00 00 00 00 04 00 04 00 04 00 04 [................]
  | | | |     0b37: 00 00 00 00 00 00 00 00 00 00 00 00 00 00 00 00 [................]
  | | | |     0b47: 00 00 00 00 00 00 00 00 00 00 00 00 00 00 00 00 [................]
  | | | |     0b57: 00 04 00 04 00 04 00 04 00 00 00 00 00 00 00 00 [................]
  | | | |     0b67: 45 9f ad 61 3c 03 00 00 04 00 01 00 00 00 00 00 [E..a<...........]
  | | | |     0b77: 04 00 01 00 00 00 00 00 04 00 01 00 00 00 00 00 [................]
  | | | |     0b87: 00 00 00 33 00 00 00 00 00 00 00 00 00 00 00 00 [...3............]
  | | | |     0b97: d0 2d 00 00 74 d7 00 00 00 00 00 00 00 00 00 00 [.-..t...........]
  | | | |     0ba7: 00 00 00 00 00 00 00 00 00 00 00 00 00 00 00 00 [................]
  | | | |     0bb7: 00 00 00 00 00 00 00 00 00 00 00 00 00 00 00 00 [................]
  | | | |     0bc7: 00 00 00 00 00 00 00 00 00 00 00 00 00 00 00 00 [................]
  | | | |     0bd7: 00 00 00 00 00 00 00 00 00 00 00 00 00 00 00 00 [................]
  | | | |     0be7: 00 00 00 00 00 00 00 00 00 00 00 00 00 00 00 00 [................]
  | | | |     0bf7: 00 00 00 00 00 00 00 00 00 00 00 00 00 00 00 00 [................]
  | | | |     0c07: 00 00 00 00 00 00 00 00 00 00 00 00 00 00 00 00 [................]
  | | | |     0c17: 00 00 00 00 00 00 00 00 00 00 00 00 00 00 00 00 [................]
  | | | |     0c27: 00 00 00 00 00 00 00 00 00 00 00 00 00 00 00 00 [................]
  | | | |     0c37: 00 00 00 00 00 00 00 00 00 00 00 00 00 00 00 00 [................]
  | | | |     0c47: 00 00 00 00 00 00 00 00 00 00 00 00 00 00 00 00 [................]
  | | | |     0c57: 00 00 00 00 00 00 00 00 00 00 00 00 00 00 00 00 [................]
  | | | |     0c67: 00 00 00 00 00 00 00 00 00 00 00 00 00 00 00    [...............]
  | | | | + [BinaryData directory, 735 bytes, Little-endian]
  | | | | | ContrastStandard = 0
  | | | | | - Tag 0x0000 (4 bytes, int32s[1]):
  | | | | |     0997: 00 00 00 00                                     [....]
  | | | | | SharpnessStandard = 3
  | | | | | - Tag 0x0004 (4 bytes, int32s[1]):
  | | | | |     099b: 03 00 00 00                                     [....]
  | | | | | SaturationStandard = 0
  | | | | | - Tag 0x0008 (4 bytes, int32s[1]):
  | | | | |     099f: 00 00 00 00                                     [....]
  | | | | | ColorToneStandard = 0
  | | | | | - Tag 0x000c (4 bytes, int32s[1]):
  | | | | |     09a3: 00 00 00 00                                     [....]
  | | | | | FilterEffectStandard = -559038737
  | | | | | - Tag 0x0010 (4 bytes, int32s[1]):
  | | | | |     09a7: ef be ad de                                     [....]
  | | | | | ToningEffectStandard = -559038737
  | | | | | - Tag 0x0014 (4 bytes, int32s[1]):
  | | | | |     09ab: ef be ad de                                     [....]
  | | | | | ContrastPortrait = 0
  | | | | | - Tag 0x0018 (4 bytes, int32s[1]):
  | | | | |     09af: 00 00 00 00                                     [....]
  | | | | | SharpnessPortrait = 2
  | | | | | - Tag 0x001c (4 bytes, int32s[1]):
  | | | | |     09b3: 02 00 00 00                                     [....]
  | | | | | SaturationPortrait = 0
  | | | | | - Tag 0x0020 (4 bytes, int32s[1]):
  | | | | |     09b7: 00 00 00 00                                     [....]
  | | | | | ColorTonePortrait = 0
  | | | | | - Tag 0x0024 (4 bytes, int32s[1]):
  | | | | |     09bb: 00 00 00 00                                     [....]
  | | | | | FilterEffectPortrait = -559038737
  | | | | | - Tag 0x0028 (4 bytes, int32s[1]):
  | | | | |     09bf: ef be ad de                                     [....]
  | | | | | ToningEffectPortrait = -559038737
  | | | | | - Tag 0x002c (4 bytes, int32s[1]):
  | | | | |     09c3: ef be ad de                                     [....]
  | | | | | ContrastLandscape = 0
  | | | | | - Tag 0x0030 (4 bytes, int32s[1]):
  | | | | |     09c7: 00 00 00 00                                     [....]
  | | | | | SharpnessLandscape = 4
  | | | | | - Tag 0x0034 (4 bytes, int32s[1]):
  | | | | |     09cb: 04 00 00 00                                     [....]
  | | | | | SaturationLandscape = 0
  | | | | | - Tag 0x0038 (4 bytes, int32s[1]):
  | | | | |     09cf: 00 00 00 00                                     [....]
  | | | | | ColorToneLandscape = 0
  | | | | | - Tag 0x003c (4 bytes, int32s[1]):
  | | | | |     09d3: 00 00 00 00                                     [....]
  | | | | | FilterEffectLandscape = -559038737
  | | | | | - Tag 0x0040 (4 bytes, int32s[1]):
  | | | | |     09d7: ef be ad de                                     [....]
  | | | | | ToningEffectLandscape = -559038737
  | | | | | - Tag 0x0044 (4 bytes, int32s[1]):
  | | | | |     09db: ef be ad de                                     [....]
  | | | | | ContrastNeutral = 0
  | | | | | - Tag 0x0048 (4 bytes, int32s[1]):
  | | | | |     09df: 00 00 00 00                                     [....]
  | | | | | SharpnessNeutral = 0
  | | | | | - Tag 0x004c (4 bytes, int32s[1]):
  | | | | |     09e3: 00 00 00 00                                     [....]
  | | | | | SaturationNeutral = 0
  | | | | | - Tag 0x0050 (4 bytes, int32s[1]):
  | | | | |     09e7: 00 00 00 00                                     [....]
  | | | | | ColorToneNeutral = 0
  | | | | | - Tag 0x0054 (4 bytes, int32s[1]):
  | | | | |     09eb: 00 00 00 00                                     [....]
  | | | | | FilterEffectNeutral = -559038737
  | | | | | - Tag 0x0058 (4 bytes, int32s[1]):
  | | | | |     09ef: ef be ad de                                     [....]
  | | | | | ToningEffectNeutral = -559038737
  | | | | | - Tag 0x005c (4 bytes, int32s[1]):
  | | | | |     09f3: ef be ad de                                     [....]
  | | | | | ContrastFaithful = 0
  | | | | | - Tag 0x0060 (4 bytes, int32s[1]):
  | | | | |     09f7: 00 00 00 00                                     [....]
  | | | | | SharpnessFaithful = 0
  | | | | | - Tag 0x0064 (4 bytes, int32s[1]):
  | | | | |     09fb: 00 00 00 00                                     [....]
  | | | | | SaturationFaithful = 0
  | | | | | - Tag 0x0068 (4 bytes, int32s[1]):
  | | | | |     09ff: 00 00 00 00                                     [....]
  | | | | | ColorToneFaithful = 0
  | | | | | - Tag 0x006c (4 bytes, int32s[1]):
  | | | | |     0a03: 00 00 00 00                                     [....]
  | | | | | FilterEffectFaithful = -559038737
  | | | | | - Tag 0x0070 (4 bytes, int32s[1]):
  | | | | |     0a07: ef be ad de                                     [....]
  | | | | | ToningEffectFaithful = -559038737
  | | | | | - Tag 0x0074 (4 bytes, int32s[1]):
  | | | | |     0a0b: ef be ad de                                     [....]
  | | | | | ContrastMonochrome = 0
  | | | | | - Tag 0x0078 (4 bytes, int32s[1]):
  | | | | |     0a0f: 00 00 00 00                                     [....]
  | | | | | SharpnessMonochrome = 3
  | | | | | - Tag 0x007c (4 bytes, int32s[1]):
  | | | | |     0a13: 03 00 00 00                                     [....]
  | | | | | SaturationMonochrome = -559038737
  | | | | | - Tag 0x0080 (4 bytes, int32s[1]):
  | | | | |     0a17: ef be ad de                                     [....]
  | | | | | ColorToneMonochrome = -559038737
  | | | | | - Tag 0x0084 (4 bytes, int32s[1]):
  | | | | |     0a1b: ef be ad de                                     [....]
  | | | | | FilterEffectMonochrome = 0
  | | | | | - Tag 0x0088 (4 bytes, int32s[1]):
  | | | | |     0a1f: 00 00 00 00                                     [....]
  | | | | | ToningEffectMonochrome = 0
  | | | | | - Tag 0x008c (4 bytes, int32s[1]):
  | | | | |     0a23: 00 00 00 00                                     [....]
  | | | | | ContrastAuto = 0
  | | | | | - Tag 0x0090 (4 bytes, int32s[1]):
  | | | | |     0a27: 00 00 00 00                                     [....]
  | | | | | SharpnessAuto = 0
  | | | | | - Tag 0x0094 (4 bytes, int32s[1]):
  | | | | |     0a2b: 00 00 00 00                                     [....]
  | | | | | SaturationAuto = 0
  | | | | | - Tag 0x0098 (4 bytes, int32s[1]):
  | | | | |     0a2f: 00 00 00 00                                     [....]
  | | | | | ColorToneAuto = 0
  | | | | | - Tag 0x009c (4 bytes, int32s[1]):
  | | | | |     0a33: 00 00 00 00                                     [....]
  | | | | | FilterEffectAuto = 0
  | | | | | - Tag 0x00a0 (4 bytes, int32s[1]):
  | | | | |     0a37: 00 00 00 00                                     [....]
  | | | | | ToningEffectAuto = 0
  | | | | | - Tag 0x00a4 (4 bytes, int32s[1]):
  | | | | |     0a3b: 00 00 00 00                                     [....]
  | | | | | ContrastUserDef1 = 0
  | | | | | - Tag 0x00a8 (4 bytes, int32s[1]):
  | | | | |     0a3f: 00 00 00 00                                     [....]
  | | | | | SharpnessUserDef1 = 3
  | | | | | - Tag 0x00ac (4 bytes, int32s[1]):
  | | | | |     0a43: 03 00 00 00                                     [....]
  | | | | | SaturationUserDef1 = 0
  | | | | | - Tag 0x00b0 (4 bytes, int32s[1]):
  | | | | |     0a47: 00 00 00 00                                     [....]
  | | | | | ColorToneUserDef1 = 0
  | | | | | - Tag 0x00b4 (4 bytes, int32s[1]):
  | | | | |     0a4b: 00 00 00 00                                     [....]
  | | | | | FilterEffectUserDef1 = 0
  | | | | | - Tag 0x00b8 (4 bytes, int32s[1]):
  | | | | |     0a4f: 00 00 00 00                                     [....]
  | | | | | ToningEffectUserDef1 = 0
  | | | | | - Tag 0x00bc (4 bytes, int32s[1]):
  | | | | |     0a53: 00 00 00 00                                     [....]
  | | | | | ContrastUserDef2 = 0
  | | | | | - Tag 0x00c0 (4 bytes, int32s[1]):
  | | | | |     0a57: 00 00 00 00                                     [....]
  | | | | | SharpnessUserDef2 = 3
  | | | | | - Tag 0x00c4 (4 bytes, int32s[1]):
  | | | | |     0a5b: 03 00 00 00                                     [....]
  | | | | | SaturationUserDef2 = 0
  | | | | | - Tag 0x00c8 (4 bytes, int32s[1]):
  | | | | |     0a5f: 00 00 00 00                                     [....]
  | | | | | ColorToneUserDef2 = 0
  | | | | | - Tag 0x00cc (4 bytes, int32s[1]):
  | | | | |     0a63: 00 00 00 00                                     [....]
  | | | | | FilterEffectUserDef2 = 0
  | | | | | - Tag 0x00d0 (4 bytes, int32s[1]):
  | | | | |     0a67: 00 00 00 00                                     [....]
  | | | | | ToningEffectUserDef2 = 0
  | | | | | - Tag 0x00d4 (4 bytes, int32s[1]):
  | | | | |     0a6b: 00 00 00 00                                     [....]
  | | | | | ContrastUserDef3 = 0
  | | | | | - Tag 0x00d8 (4 bytes, int32s[1]):
  | | | | |     0a6f: 00 00 00 00                                     [....]
  | | | | | SharpnessUserDef3 = 3
  | | | | | - Tag 0x00dc (4 bytes, int32s[1]):
  | | | | |     0a73: 03 00 00 00                                     [....]
  | | | | | SaturationUserDef3 = 0
  | | | | | - Tag 0x00e0 (4 bytes, int32s[1]):
  | | | | |     0a77: 00 00 00 00                                     [....]
  | | | | | ColorToneUserDef3 = 0
  | | | | | - Tag 0x00e4 (4 bytes, int32s[1]):
  | | | | |     0a7b: 00 00 00 00                                     [....]
  | | | | | FilterEffectUserDef3 = 0
  | | | | | - Tag 0x00e8 (4 bytes, int32s[1]):
  | | | | |     0a7f: 00 00 00 00                                     [....]
  | | | | | ToningEffectUserDef3 = 0
  | | | | | - Tag 0x00ec (4 bytes, int32s[1]):
  | | | | |     0a83: 00 00 00 00                                     [....]
  | | | | | UserDef1PictureStyle = 129
  | | | | | - Tag 0x00f0 (2 bytes, int16u[1]):
  | | | | |     0a87: 81 00                                           [..]
  | | | | | UserDef2PictureStyle = 129
  | | | | | - Tag 0x00f2 (2 bytes, int16u[1]):
  | | | | |     0a89: 81 00                                           [..]
  | | | | | UserDef3PictureStyle = 129
  | | | | | - Tag 0x00f4 (2 bytes, int16u[1]):
  | | | | |     0a8b: 81 00                                           [..]
  | | | 9)  CanonModelID = 2147484295
  | | |     - Tag 0x0010 (4 bytes, int32u[1]):
  | | |         0404: 87 02 00 80                                     [....]
  | | | 10) ThumbnailImageValidArea = 0 159 7 112
  | | |     - Tag 0x0013 (8 bytes, int16u[4]):
  | | |         0c76: 00 00 9f 00 07 00 70 00                         [......p.]
  | | | 11) SerialNumberFormat = 2684354560
  | | |     - Tag 0x0015 (4 bytes, int32u[1]):
  | | |         041c: 00 00 00 a0                                     [....]
  | | | 12) Canon_0x0019 = 1
  | | |     - Tag 0x0019 (2 bytes, int16u[1]):
  | | |         0428: 01 00                                           [..]
  | | | 13) CanonAFInfo2 (SubDirectory) -->
  | | |     - Tag 0x0026 (96 bytes, int16u[48] read as undef[96]):
  | | |         0c7e: 60 00 02 00 09 00 09 00 40 14 80 0d 40 14 80 0d [`.......@...@...]
  | | |         0c8e: 6c 00 58 00 58 00 58 00 81 00 58 00 58 00 58 00 [l.X.X.X...X.X.X.]
  | | |         0c9e: 6c 00 56 00 6b 00 6b 00 6b 00 83 00 6b 00 6b 00 [l.V.k.k.k...k.k.]
  | | |         0cae: 6b 00 56 00 00 00 a4 fc 5c 03 a8 fa 00 00 58 05 [k.V.....\.....X.]
  | | |         0cbe: a4 fc 5c 03 00 00 e7 02 89 01 89 01 00 00 00 00 [..\.............]
  | | |         0cce: 00 00 77 fe 77 fe 19 fd 10 00 10 00 00 00 ff ff [..w.w...........]
  | | | + [SerialData directory, 96 bytes]
  | | | | 0)  AFInfoSize = 96
  | | | |     - Tag 0x0000 (2 bytes, int16u[1]):
  | | | |         0c7e: 60 00                                           [`.]
  | | | | 1)  AFAreaMode = 2
  | | | |     - Tag 0x0001 (2 bytes, int16u[1]):
  | | | |         0c80: 02 00                                           [..]
  | | | | 2)  NumAFPoints = 9
  | | | |     - Tag 0x0002 (2 bytes, int16u[1]):
  | | | |         0c82: 09 00                                           [..]
  | | | | 3)  ValidAFPoints = 9
  | | | |     - Tag 0x0003 (2 bytes, int16u[1]):
  | | | |         0c84: 09 00                                           [..]
  | | | | 4)  CanonImageWidth = 5184
  | | | |     - Tag 0x0004 (2 bytes, int16u[1]):
  | | | |         0c86: 40 14                                           [@.]
  | | | | 5)  CanonImageHeight = 3456
  | | | |     - Tag 0x0005 (2 bytes, int16u[1]):
  | | | |         0c88: 80 0d                                           [..]
  | | | | 6)  AFImageWidth = 5184
  | | | |     - Tag 0x0006 (2 bytes, int16u[1]):
  | | | |         0c8a: 40 14                                           [@.]
  | | | | 7)  AFImageHeight = 3456
  | | | |     - Tag 0x0007 (2 bytes, int16u[1]):
  | | | |         0c8c: 80 0d                                           [..]
  | | | | 8)  AFAreaWidths = 108 88 88 88 129 88 88 88 108
  | | | |     - Tag 0x0008 (18 bytes, int16s[9]):
  | | | |         0c8e: 6c 00 58 00 58 00 58 00 81 00 58 00 58 00 58 00 [l.X.X.X...X.X.X.]
  | | | |         0c9e: 6c 00                                           [l.]
  | | | | 9)  AFAreaHeights = 86 107 107 107 131 107 107 107 86
  | | | |     - Tag 0x0009 (18 bytes, int16s[9]):
  | | | |         0ca0: 56 00 6b 00 6b 00 6b 00 83 00 6b 00 6b 00 6b 00 [V.k.k.k...k.k.k.]
  | | | |         0cb0: 56 00                                           [V.]
  | | | | 10) AFAreaXPositions = 0 -860 860 -1368 0 1368 -860 860 0
  | | | |     - Tag 0x000a (18 bytes, int16s[9]):
  | | | |         0cb2: 00 00 a4 fc 5c 03 a8 fa 00 00 58 05 a4 fc 5c 03 [....\.....X...\.]
  | | | |         0cc2: 00 00                                           [..]
  | | | | 11) AFAreaYPositions = 743 393 393 0 0 0 -393 -393 -743
  | | | |     - Tag 0x000b (18 bytes, int16s[9]):
  | | | |         0cc4: e7 02 89 01 89 01 00 00 00 00 00 00 77 fe 77 fe [............w.w.]
  | | | |         0cd4: 19 fd                                           [..]
  | | | | 12) AFPointsInFocus = 16
  | | | |     - Tag 0x000c (2 bytes, int16s[1]):
  | | | |         0cd6: 10 00                                           [..]
  | | | | 13) AFPointsSelected = 16
  | | | |     - Tag 0x000d (2 bytes, int16s[1]):
  | | | |         0cd8: 10 00                                           [..]
  | | | 14) OriginalDecisionDataOffset = 0
  | | |     - Tag 0x0083 (4 bytes, int32u[1]):
  | | |         0440: 00 00 00 00                                     [....]
  | | | 15) CanonFileInfo (SubDirectory) -->
  | | |     - Tag 0x0093 (54 bytes, int16u[27] read as undef[54]):
  | | |         0ede: 36 00 00 00 00 00 00 00 00 00 00 00 00 00 00 00 [6...............]
  | | |         0eee: 00 00 00 00 00 00 00 00 00 00 00 00 ff ff ff ff [................]
  | | |         0efe: 6d 00 00 00 00 00 00 00 30 00 2d 00 00 00 00 00 [m.......0.-.....]
  | | |         0f0e: 00 00 00 00 ff ff                               [......]
  | | | + [BinaryData directory, 54 bytes, Little-endian]
  | | | | BracketMode = 0
  | | | | - Tag 0x0003 (2 bytes, int16s[1]):
  | | | |     0ee4: 00 00                                           [..]
  | | | | BracketValue = 0
  | | | | - Tag 0x0004 (2 bytes, int16s[1]):
  | | | |     0ee6: 00 00                                           [..]
  | | | | BracketShotNumber = 0
  | | | | - Tag 0x0005 (2 bytes, int16s[1]):
  | | | |     0ee8: 00 00                                           [..]
  | | | | RawJpgQuality = 0
  | | | | - Tag 0x0006 (2 bytes, int16s[1]):
  | | | |     0eea: 00 00                                           [..]
  | | | | RawJpgSize = 0
  | | | | - Tag 0x0007 (2 bytes, int16s[1]):
  | | | |     0eec: 00 00                                           [..]
  | | | | LongExposureNoiseReduction2 = 0
  | | | | - Tag 0x0008 (2 bytes, int16s[1]):
  | | | |     0eee: 00 00                                           [..]
  | | | | WBBracketMode = 0
  | | | | - Tag 0x0009 (2 bytes, int16s[1]):
  | | | |     0ef0: 00 00                                           [..]
  | | | | WBBracketValueAB = 0
  | | | | - Tag 0x000c (2 bytes, int16s[1]):
  | | | |     0ef6: 00 00                                           [..]
  | | | | WBBracketValueGM = 0
  | | | | - Tag 0x000d (2 bytes, int16s[1]):
  | | | |     0ef8: 00 00                                           [..]
  | | | | FilterEffect = -1
  | | | | - Tag 0x000e (2 bytes, int16s[1]):
  | | | |     0efa: ff ff                                           [..]
  | | | | ToningEffect = -1
  | | | | - Tag 0x000f (2 bytes, int16s[1]):
  | | | |     0efc: ff ff                                           [..]
  | | | | LiveViewShooting = 0
  | | | | - Tag 0x0013 (2 bytes, int16s[1]):
  | | | |     0f04: 00 00                                           [..]
  | | | | FocusDistanceUpper = 48
  | | | | - Tag 0x0014 (2 bytes, int16u[1]):
  | | | |     0f06: 30 00                                           [0.]
  | | | | FocusDistanceLower = 45
  | | | | - Tag 0x0015 (2 bytes, int16u[1]):
  | | | |     0f08: 2d 00                                           [-.]
  | | | | ShutterMode = 0
  | | | | - Tag 0x0017 (2 bytes, int16s[1]):
  | | | |     0f0c: 00 00                                           [..]
  | | | | FlashExposureLock = 0
  | | | | - Tag 0x0019 (2 bytes, int16s[1]):
  | | | |     0f10: 00 00                                           [..]
  | | | 16) LensModel = EF-S15-85mm f/3.5-5.6 IS USM
  | | |     - Tag 0x0095 (70 bytes, string[70]):
  | | |         0f14: 45 46 2d 53 31 35 2d 38 35 6d 6d 20 66 2f 33 2e [EF-S15-85mm f/3.]
  | | |         0f24: 35 2d 35 2e 36 20 49 53 20 55 53 4d 00 00 00 00 [5-5.6 IS USM....]
  | | |         0f34: 00 00 00 00 00 00 00 00 00 00 00 00 00 00 00 00 [................]
  | | |         0f44: 00 00 00 00 00 00 00 00 00 00 00 00 00 00 00 00 [................]
  | | |         0f54: 00 00 00 00 00 00                               [......]
  | | | 17) InternalSerialNumber = WB0607529
  | | |     - Tag 0x0096 (16 bytes, string[16]):
  | | |         0f5a: 57 42 30 36 30 37 35 32 39 00 00 00 00 00 00 00 [WB0607529.......]
  | | | 18) DustRemovalData = 
  | | |     - Tag 0x0097 (1024 bytes, undef[1024]):
  | | |         0f6a: 00 00 00 00 00 00 00 00 00 00 00 00 00 00 00 00 [................]
  | | |         0f7a: 00 00 00 00 00 00 00 00 00 00 00 00 00 00 00 00 [................]
  | | |         0f8a: 00 00 00 00 00 00 00 00 00 00 00 00 00 00 00 00 [................]
  | | |         0f9a: 00 00 00 00 00 00 00 00 00 00 00 00 00 00 00 00 [................]
  | | |         0faa: 00 00 00 00 00 00 00 00 00 00 00 00 00 00 00 00 [................]
  | | |         0fba: 00 00 00 00 00 00 00 00 00 00 00 00 00 00 00 00 [................]
  | | |         0fca: 00 00 00 00 00 00 00 00 00 00 00 00 00 00 00 00 [................]
  | | |         0fda: 00 00 00 00 00 00 00 00 00 00 00 00 00 00 00 00 [................]
  | | |         0fea: 00 00 00 00 00 00 00 00 00 00 00 00 00 00 00 00 [................]
  | | |         0ffa: 00 00 00 00 00 00 00 00 00 00 00 00 00 00 00 00 [................]
  | | |         100a: 00 00 00 00 00 00 00 00 00 00 00 00 00 00 00 00 [................]
  | | |         101a: 00 00 00 00 00 00 00 00 00 00 00 00 00 00 00 00 [................]
  | | |         102a: 00 00 00 00 00 00 00 00 00 00 00 00 00 00 00 00 [................]
  | | |         103a: 00 00 00 00 00 00 00 00 00 00 00 00 00 00 00 00 [................]
  | | |         104a: 00 00 00 00 00 00 00 00 00 00 00 00 00 00 00 00 [................]
  | | |         105a: 00 00 00 00 00 00 00 00 00 00 00 00 00 00 00 00 [................]
  | | |         106a: 00 00 00 00 00 00 00 00 00 00 00 00 00 00 00 00 [................]
  | | |         107a: 00 00 00 00 00 00 00 00 00 00 00 00 00 00 00 00 [................]
  | | |         108a: 00 00 00 00 00 00 00 00 00 00 00 00 00 00 00 00 [................]
  | | |         109a: 00 00 00 00 00 00 00 00 00 00 00 00 00 00 00 00 [................]
  | | |         10aa: 00 00 00 00 00 00 00 00 00 00 00 00 00 00 00 00 [................]
  | | |         10ba: 00 00 00 00 00 00 00 00 00 00 00 00 00 00 00 00 [................]
  | | |         10ca: 00 00 00 00 00 00 00 00 00 00 00 00 00 00 00 00 [................]
  | | |         10da: 00 00 00 00 00 00 00 00 00 00 00 00 00 00 00 00 [................]
  | | |         10ea: 00 00 00 00 00 00 00 00 00 00 00 00 00 00 00 00 [................]
  | | |         10fa: 00 00 00 00 00 00 00 00 00 00 00 00 00 00 00 00 [................]
  | | |         110a: 00 00 00 00 00 00 00 00 00 00 00 00 00 00 00 00 [................]
  | | |         111a: 00 00 00 00 00 00 00 00 00 00 00 00 00 00 00 00 [................]
  | | |         112a: 00 00 00 00 00 00 00 00 00 00 00 00 00 00 00 00 [................]
  | | |         113a: 00 00 00 00 00 00 00 00 00 00 00 00 00 00 00 00 [................]
  | | |         114a: 00 00 00 00 00 00 00 00 00 00 00 00 00 00 00 00 [................]
  | | |         115a: 00 00 00 00 00 00 00 00 00 00 00 00 00 00 00 00 [................]
  | | |         116a: 00 00 00 00 00 00 00 00 00 00 00 00 00 00 00 00 [................]
  | | |         117a: 00 00 00 00 00 00 00 00 00 00 00 00 00 00 00 00 [................]
  | | |         118a: 00 00 00 00 00 00 00 00 00 00 00 00 00 00 00 00 [................]
  | | |         119a: 00 00 00 00 00 00 00 00 00 00 00 00 00 00 00 00 [................]
  | | |         11aa: 00 00 00 00 00 00 00 00 00 00 00 00 00 00 00 00 [................]
  | | |         11ba: 00 00 00 00 00 00 00 00 00 00 00 00 00 00 00 00 [................]
  | | |         11ca: 00 00 00 00 00 00 00 00 00 00 00 00 00 00 00 00 [................]
  | | |         11da: 00 00 00 00 00 00 00 00 00 00 00 00 00 00 00 00 [................]
  | | |         11ea: 00 00 00 00 00 00 00 00 00 00 00 00 00 00 00 00 [................]
  | | |         11fa: 00 00 00 00 00 00 00 00 00 00 00 00 00 00 00 00 [................]
  | | |         120a: 00 00 00 00 00 00 00 00 00 00 00 00 00 00 00 00 [................]
  | | |         121a: 00 00 00 00 00 00 00 00 00 00 00 00 00 00 00 00 [................]
  | | |         122a: 00 00 00 00 00 00 00 00 00 00 00 00 00 00 00 00 [................]
  | | |         123a: 00 00 00 00 00 00 00 00 00 00 00 00 00 00 00 00 [................]
  | | |         124a: 00 00 00 00 00 00 00 00 00 00 00 00 00 00 00 00 [................]
  | | |         125a: 00 00 00 00 00 00 00 00 00 00 00 00 00 00 00 00 [................]
  | | |         126a: 00 00 00 00 00 00 00 00 00 00 00 00 00 00 00 00 [................]
  | | |         127a: 00 00 00 00 00 00 00 00 00 00 00 00 00 00 00 00 [................]
  | | |         128a: 00 00 00 00 00 00 00 00 00 00 00 00 00 00 00 00 [................]
  | | |         129a: 00 00 00 00 00 00 00 00 00 00 00 00 00 00 00 00 [................]
  | | |         12aa: 00 00 00 00 00 00 00 00 00 00 00 00 00 00 00 00 [................]
  | | |         12ba: 00 00 00 00 00 00 00 00 00 00 00 00 00 00 00 00 [................]
  | | |         12ca: 00 00 00 00 00 00 00 00 00 00 00 00 00 00 00 00 [................]
  | | |         12da: 00 00 00 00 00 00 00 00 00 00 00 00 00 00 00 00 [................]
  | | |         12ea: 00 00 00 00 00 00 00 00 00 00 00 00 00 00 00 00 [................]
  | | |         12fa: 00 00 00 00 00 00 00 00 00 00 00 00 00 00 00 00 [................]
  | | |         130a: 00 00 00 00 00 00 00 00 00 00 00 00 00 00 00 00 [................]
  | | |         131a: 00 00 00 00 00 00 00 00 00 00 00 00 00 00 00 00 [................]
  | | |         132a: 00 00 00 00 00 00 00 00 00 00 00 00 00 00 00 00 [................]
  | | |         133a: 00 00 00 00 00 00 00 00 00 00 00 00 00 00 00 00 [................]
  | | |         134a: 00 00 00 00 00 00 00 00 00 00 00 00 00 00 00 00 [................]
  | | |         135a: 00 00 00 00 00 00 00 00 00 00 00 00 00 00 00 00 [................]
  | | | 19) CropInfo (SubDirectory) -->
  | | |     - Tag 0x0098 (8 bytes, int16u[4] read as undef[8]):
  | | |         136a: 00 00 00 00 00 00 00 00                         [........]
  | | | + [BinaryData directory, 8 bytes, Little-endian]
  | | | | CropLeftMargin = 0
  | | | | - Tag 0x0000 (2 bytes, int16u[1]):
  | | | |     136a: 00 00                                           [..]
  | | | | CropRightMargin = 0
  | | | | - Tag 0x0001 (2 bytes, int16u[1]):
  | | | |     136c: 00 00                                           [..]
  | | | | CropTopMargin = 0
  | | | | - Tag 0x0002 (2 bytes, int16u[1]):
  | | | |     136e: 00 00                                           [..]
  | | | | CropBottomMargin = 0
  | | | | - Tag 0x0003 (2 bytes, int16u[1]):
  | | | |     1370: 00 00                                           [..]
  | | | 20) CustomFunctions2 (SubDirectory) -->
  | | |     - Tag 0x0099 (296 bytes, int32u[74] read as undef[296]):
  | | |         1372: 28 01 00 00 04 00 00 00 01 00 00 00 5c 00 00 00 [(...........\...]
  | | |         1382: 07 00 00 00 01 01 00 00 01 00 00 00 00 00 00 00 [................]
  | | |         1392: 02 01 00 00 01 00 00 00 00 00 00 00 03 01 00 00 [................]
  | | |         13a2: 01 00 00 00 00 00 00 00 04 01 00 00 01 00 00 00 [................]
  | | |         13b2: 00 00 00 00 05 01 00 00 01 00 00 00 00 00 00 00 [................]
  | | |         13c2: 08 01 00 00 01 00 00 00 00 00 00 00 0f 01 00 00 [................]
  | | |         13d2: 01 00 00 00 00 00 00 00 02 00 00 00 2c 00 00 00 [............,...]
  | | |         13e2: 03 00 00 00 01 02 00 00 01 00 00 00 00 00 00 00 [................]
  | | |         13f2: 02 02 00 00 01 00 00 00 00 00 00 00 03 02 00 00 [................]
  | | |         1402: 01 00 00 00 00 00 00 00 03 00 00 00 44 00 00 00 [............D...]
  | | |         1412: 05 00 00 00 05 05 00 00 01 00 00 00 00 00 00 00 [................]
  | | |         1422: 0f 05 00 00 01 00 00 00 00 00 00 00 10 05 00 00 [................]
  | | |         1432: 01 00 00 00 00 00 00 00 0e 05 00 00 01 00 00 00 [................]
  | | |         1442: 00 00 00 00 0f 06 00 00 01 00 00 00 00 00 00 00 [................]
  | | |         1452: 04 00 00 00 44 00 00 00 05 00 00 00 01 07 00 00 [....D...........]
  | | |         1462: 01 00 00 00 00 00 00 00 04 07 00 00 01 00 00 00 [................]
  | | |         1472: 05 00 00 00 06 07 00 00 01 00 00 00 00 00 00 00 [................]
  | | |         1482: 0b 08 00 00 01 00 00 00 00 00 00 00 0f 08 00 00 [................]
  | | |         1492: 01 00 00 00 00 00 00 00                         [........]
  | | | + [CanonCustom2 directory with 4 entries, 296 bytes]
  | | | + [CanonCustom2 group 1 directory with 7 entries, 92 bytes]
  | | | | 0)  ExposureLevelIncrements = 0
  | | | |     - Tag 0x0101 (4 bytes, int32u[1])
  | | | | 1)  ISOSpeedIncrements = 0
  | | | |     - Tag 0x0102 (4 bytes, int32u[1])
  | | | | 2)  ISOExpansion = 0
  | | | |     - Tag 0x0103 (4 bytes, int32u[1])
  | | | | 3)  AEBAutoCancel = 0
  | | | |     - Tag 0x0104 (4 bytes, int32u[1])
  | | | | 4)  AEBSequence = 0
  | | | |     - Tag 0x0105 (4 bytes, int32u[1])
  | | | | 5)  SafetyShift = 0
  | | | |     - Tag 0x0108 (4 bytes, int32u[1])
  | | | | 6)  FlashSyncSpeedAv = 0
  | | | |     - Tag 0x010f (4 bytes, int32u[1])
  | | | + [CanonCustom2 group 2 directory with 3 entries, 44 bytes]
  | | | | 0)  LongExposureNoiseReduction = 0
  | | | |     - Tag 0x0201 (4 bytes, int32u[1])
  | | | | 1)  HighISONoiseReduction = 0
  | | | |     - Tag 0x0202 (4 bytes, int32u[1])
  | | | | 2)  HighlightTonePriority = 0
  | | | |     - Tag 0x0203 (4 bytes, int32u[1])
  | | | + [CanonCustom2 group 3 directory with 5 entries, 68 bytes]
  | | | | 0)  LensDriveNoAF = 0
  | | | |     - Tag 0x0505 (4 bytes, int32u[1])
  | | | | 1)  AFPointSelectionMethod = 0
  | | | |     - Tag 0x050f (4 bytes, int32u[1])
  | | | | 2)  SuperimposedDisplay = 0
  | | | |     - Tag 0x0510 (4 bytes, int32u[1])
  | | | | 3)  AFAssistBeam = 0
  | | | |     - Tag 0x050e (4 bytes, int32u[1])
  | | | | 4)  MirrorLockup = 0
  | | | |     - Tag 0x060f (4 bytes, int32u[1])
  | | | + [CanonCustom2 group 4 directory with 5 entries, 68 bytes]
  | | | | 0)  AFAndMeteringButtons = 0
  | | | |     - Tag 0x0701 (4 bytes, int32u[1])
  | | | | 1)  SetButtonWhenShooting = 5
  | | | |     - Tag 0x0704 (4 bytes, int32u[1])
  | | | | 2)  DialDirectionTvAv = 0
  | | | |     - Tag 0x0706 (4 bytes, int32u[1])
  | | | | 3)  FocusingScreen = 0
  | | | |     - Tag 0x080b (4 bytes, int32u[1])
  | | | | 4)  AddOriginalDecisionData = 0
  | | | |     - Tag 0x080f (4 bytes, int32u[1])
  | | | 21) AspectInfo (SubDirectory) -->
  | | |     - Tag 0x009a (20 bytes, int32u[5] read as undef[20]):
  | | |         149a: 00 00 00 00 40 14 00 00 80 0d 00 00 00 00 00 00 [....@...........]
  | | |         14aa: 00 00 00 00                                     [....]
  | | | + [BinaryData directory, 20 bytes, Little-endian]
  | | | | AspectRatio = 0
  | | | | - Tag 0x0000 (4 bytes, int32u[1]):
  | | | |     149a: 00 00 00 00                                     [....]
  | | | | CroppedImageWidth = 5184
  | | | | - Tag 0x0001 (4 bytes, int32u[1]):
  | | | |     149e: 40 14 00 00                                     [@...]
  | | | | CroppedImageHeight = 3456
  | | | | - Tag 0x0002 (4 bytes, int32u[1]):
  | | | |     14a2: 80 0d 00 00                                     [....]
  | | | | CroppedImageLeft = 0
  | | | | - Tag 0x0003 (4 bytes, int32u[1]):
  | | | |     14a6: 00 00 00 00                                     [....]
  | | | | CroppedImageTop = 0
  | | | | - Tag 0x0004 (4 bytes, int32u[1]):
  | | | |     14aa: 00 00 00 00                                     [....]
  | | | 22) ProcessingInfo (SubDirectory) -->
  | | |     - Tag 0x00a0 (28 bytes, int16u[14] read as undef[28]):
  | | |         14ae: 1c 00 00 00 03 00 00 00 00 00 00 00 00 00 00 00 [................]
  | | |         14be: ff ff 88 13 81 00 00 00 00 00 00 00             [............]
  | | | + [BinaryData directory, 28 bytes, Little-endian]
  | | | | ToneCurve = 0
  | | | | - Tag 0x0001 (2 bytes, int16s[1]):
  | | | |     14b0: 00 00                                           [..]
  | | | | Sharpness = 3
  | | | | - Tag 0x0002 (2 bytes, int16s[1]):
  | | | |     14b2: 03 00                                           [..]
  | | | | SharpnessFrequency = 0
  | | | | - Tag 0x0003 (2 bytes, int16s[1]):
  | | | |     14b4: 00 00                                           [..]
  | | | | SensorRedLevel = 0
  | | | | - Tag 0x0004 (2 bytes, int16s[1]):
  | | | |     14b6: 00 00                                           [..]
  | | | | SensorBlueLevel = 0
  | | | | - Tag 0x0005 (2 bytes, int16s[1]):
  | | | |     14b8: 00 00                                           [..]
  | | | | WhiteBalanceRed = 0
  | | | | - Tag 0x0006 (2 bytes, int16s[1]):
  | | | |     14ba: 00 00                                           [..]
  | | | | WhiteBalanceBlue = 0
  | | | | - Tag 0x0007 (2 bytes, int16s[1]):
  | | | |     14bc: 00 00                                           [..]
  | | | | WhiteBalance = -1
  | | | | - Tag 0x0008 (2 bytes, int16s[1]):
  | | | |     14be: ff ff                                           [..]
  | | | | ColorTemperature = 5000
  | | | | - Tag 0x0009 (2 bytes, int16s[1]):
  | | | |     14c0: 88 13                                           [..]
  | | | | PictureStyle = 129
  | | | | - Tag 0x000a (2 bytes, int16s[1]):
  | | | |     14c2: 81 00                                           [..]
  | | | | DigitalGain = 0
  | | | | - Tag 0x000b (2 bytes, int16s[1]):
  | | | |     14c4: 00 00                                           [..]
  | | | | WBShiftAB = 0
  | | | | - Tag 0x000c (2 bytes, int16s[1]):
  | | | |     14c6: 00 00                                           [..]
  | | | | WBShiftGM = 0
  | | | | - Tag 0x000d (2 bytes, int16s[1]):
  | | | |     14c8: 00 00                                           [..]
  | | | 23) MeasuredColor (SubDirectory) -->
  | | |     - Tag 0x00aa (12 bytes, int16u[6] read as undef[12]):
  | | |         14ca: 0c 00 91 01 00 04 00 04 18 03 00 00             [............]
  | | | + [BinaryData directory, 12 bytes, Little-endian]
  | | | | MeasuredRGGB = 401 1024 1024 792
  | | | | - Tag 0x0001 (8 bytes, int16u[4]):
  | | | |     14cc: 91 01 00 04 00 04 18 03                         [........]
  | | | 24) ColorSpace = 1
  | | |     - Tag 0x00b4 (2 bytes, int16u[1]):
  | | |         04b8: 01 00                                           [..]
  | | | 25) VRDOffset = 0
  | | |     - Tag 0x00d0 (4 bytes, int32u[1]):
  | | |         04c4: 00 00 00 00                                     [....]
  | | | 26) SensorInfo (SubDirectory) -->
  | | |     - Tag 0x00e0 (34 bytes, int16u[17] read as undef[34]):
  | | |         14d6: 22 00 e0 14 bc 0d 01 00 01 00 98 00 38 00 d7 14 ["...........8...]
  | | |         14e6: b7 0d 00 00 00 00 00 00 00 00 00 00 00 00 00 00 [................]
  | | |         14f6: 00 00                                           [..]
  | | | + [BinaryData directory, 34 bytes, Little-endian]
  | | | | SensorWidth = 5344
  | | | | - Tag 0x0001 (2 bytes, int16s[1]):
  | | | |     14d8: e0 14                                           [..]
  | | | | SensorHeight = 3516
  | | | | - Tag 0x0002 (2 bytes, int16s[1]):
  | | | |     14da: bc 0d                                           [..]
  | | | | SensorLeftBorder = 152
  | | | | - Tag 0x0005 (2 bytes, int16s[1]):
  | | | |     14e0: 98 00                                           [..]
  | | | | SensorTopBorder = 56
  | | | | - Tag 0x0006 (2 bytes, int16s[1]):
  | | | |     14e2: 38 00                                           [8.]
  | | | | SensorRightBorder = 5335
  | | | | - Tag 0x0007 (2 bytes, int16s[1]):
  | | | |     14e4: d7 14                                           [..]
  | | | | SensorBottomBorder = 3511
  | | | | - Tag 0x0008 (2 bytes, int16s[1]):
  | | | |     14e6: b7 0d                                           [..]
  | | | | BlackMaskLeftBorder = 0
  | | | | - Tag 0x0009 (2 bytes, int16s[1]):
  | | | |     14e8: 00 00                                           [..]
  | | | | BlackMaskTopBorder = 0
  | | | | - Tag 0x000a (2 bytes, int16s[1]):
  | | | |     14ea: 00 00                                           [..]
  | | | | BlackMaskRightBorder = 0
  | | | | - Tag 0x000b (2 bytes, int16s[1]):
  | | | |     14ec: 00 00                                           [..]
  | | | | BlackMaskBottomBorder = 0
  | | | | - Tag 0x000c (2 bytes, int16s[1]):
  | | | |     14ee: 00 00                                           [..]
  | | | 27) ColorData4 (SubDirectory) -->
  | | |     - Tag 0x4001 (2692 bytes, int16u[1346] read as undef[2692]):
  | | |         14f8: 09 00 1b 03 00 04 00 04 7e 01 32 02 00 04 00 04 [........~.2.....]
  | | |         1508: f8 01 83 01 00 04 00 04 cc 02 d9 04 3b 06 3a 06 [............;.:.]
  | | |         1518: 26 02 00 06 01 0b 01 0b 0d 05 68 02 76 06 76 06 [&.........h.v.v.]
  | | |         1528: 44 04 fe ff 01 00 f3 00 f9 00 ee 00 00 00 9d 04 [D...............]
  | | |         1538: 73 09 70 09 74 05 0d 02 a3 00 a1 00 19 00 4c 00 [s.p.t.........L.]
  | | |         1548: ce 01 cf 01 0e 03 94 04 cd 07 d1 07 92 01 52 04 [..............R.]
  | | |         1558: 11 09 0f 09 f8 04 0f 02 a6 00 a4 00 16 00 45 00 [..............E.]
  | | |         1568: bd 01 bc 01 e9 02 83 04 da 07 dc 07 69 01 4f 09 [............i.O.]
  | | |         1578: 00 04 00 04 ae 05 40 19 4f 09 00 04 00 04 ae 05 [......@.O.......]
  | | |         1588: 40 19 4d 09 ec 03 13 04 ad 05 40 19 f4 01 92 04 [@.M.......@.....]
  | | |         1598: 92 04 39 03 64 19 6e 08 00 04 00 04 79 06 50 14 [..9.d.n.....y.P.]
  | | |         15a8: c7 09 00 04 00 04 7c 05 58 1b 15 09 00 04 00 04 [......|.X.......]
  | | |         15b8: f0 05 70 17 f4 05 00 04 00 04 d9 09 80 0c 96 07 [..p.............]
  | | |         15c8: 00 04 00 04 2f 09 df 0e 42 08 00 04 00 04 af 06 [..../...B.......]
  | | |         15d8: 81 13 5f 09 00 04 00 04 e5 05 57 18 6e 08 00 04 [.._.......W.n...]
  | | |         15e8: 00 04 79 06 50 14 6e 08 00 04 00 04 79 06 50 14 [..y.P.n.....y.P.]
  | | |         15f8: 6e 08 00 04 00 04 79 06 50 14 6e 08 00 04 00 04 [n.....y.P.n.....]
  | | |         1608: 79 06 50 14 6e 08 00 04 00 04 79 06 50 14 e9 03 [y.P.n.....y.P...]
  | | |         1618: 00 04 00 04 27 04 cf 0f e9 03 00 04 00 04 27 04 [....'.........'.]
  | | |         1628: cf 0f e9 03 00 04 00 04 27 04 cf 0f e9 03 00 04 [........'.......]
  | | |         1638: 00 04 27 04 cf 0f e9 03 00 04 00 04 27 04 cf 0f [..'.........'...]
  | | |         1648: c0 fe 6f 01 6f 03 94 2a d8 fe 7a 01 51 03 10 27 [..o.o..*..z.Q..']
  | | |         1658: 04 ff 8c 01 1b 03 6c 20 2f ff a3 01 eb 02 58 1b [......l /.....X.]
  | | |         1668: 67 ff c3 01 b2 02 70 17 82 ff d3 01 96 02 e0 15 [g.....p.........]
  | | |         1678: a1 ff e6 01 79 02 50 14 cf ff 00 02 49 02 5c 12 [....y.P.....I.\.]
  | | |         1688: 0a 00 27 02 18 02 68 10 41 00 51 02 ed 01 d8 0e [..'...h.A.Q.....]
  | | |         1698: 73 00 7a 02 c8 01 ac 0d b1 00 b0 02 a0 01 80 0c [s.z.............]
  | | |         16a8: e2 00 db 02 7d 01 b8 0b 0d 01 0e 03 6a 01 f0 0a [....}.......j...]
  | | |         16b8: 7a 01 97 03 38 01 60 09 f4 01 11 08 21 08 ff 07 [z...8.`.....!...]
  | | |         16c8: ff 07 ff 07 ff 07 1a 00 19 00 18 00 1e 00 22 00 [..............".]
  | | |         16d8: 27 00 29 00 2b 00 2e 00 2d 00 30 00 30 00 38 00 ['.).+...-.0.0.8.]
  | | |         16e8: 31 00 31 00 1d 00 16 00 17 00 1a 00 1f 00 24 00 [1.1...........$.]
  | | |         16f8: 24 00 26 00 24 00 29 00 2a 00 2b 00 30 00 35 00 [$.&.$.).*.+.0.5.]
  | | |         1708: 3a 00 3d 00 2b 00 19 00 19 00 19 00 1c 00 22 00 [:.=.+.........".]
  | | |         1718: 21 00 25 00 20 00 25 00 25 00 2b 00 29 00 38 00 [!.%. .%.%.+.).8.]
  | | |         1728: 31 00 40 00 2c 00 1b 00 18 00 18 00 1b 00 1f 00 [1.@.,...........]
  | | |         1738: 22 00 22 00 27 00 26 00 29 00 2c 00 36 00 2b 00 [".".'.&.).,.6.+.]
  | | |         1748: 2f 00 3b 00 44 00 39 00 3a 00 38 00 46 00 51 00 [/.;.D.9.:.8.F.Q.]
  | | |         1758: 5b 00 61 00 66 00 6a 00 65 00 68 00 67 00 78 00 [[.a.f.j.e.h.g.x.]
  | | |         1768: 62 00 5e 00 29 00 34 00 38 00 3e 00 4b 00 56 00 [b.^.).4.8.>.K.V.]
  | | |         1778: 54 00 58 00 53 00 5b 00 5a 00 5c 00 68 00 72 00 [T.X.S.[.Z.\.h.r.]
  | | |         1788: 80 00 7f 00 48 00 3d 00 3c 00 3c 00 43 00 4d 00 [....H.=.<.<.C.M.]
  | | |         1798: 4a 00 52 00 45 00 4e 00 51 00 5e 00 5c 00 7a 00 [J.R.E.N.Q.^.\.z.]
  | | |         17a8: 63 00 8c 00 51 00 42 00 3c 00 3b 00 40 00 45 00 [c...Q.B.<.;.@.E.]
  | | |         17b8: 4c 00 4e 00 57 00 5a 00 60 00 64 00 7c 00 65 00 [L.N.W.Z.`.d.|.e.]
  | | |         17c8: 6b 00 84 00 93 00 3a 00 38 00 34 00 3d 00 44 00 [k.....:.8.4.=.D.]
  | | |         17d8: 4b 00 4e 00 51 00 52 00 4e 00 4f 00 4b 00 55 00 [K.N.Q.R.N.O.K.U.]
  | | |         17e8: 46 00 42 00 1f 00 34 00 38 00 3d 00 45 00 4b 00 [F.B...4.8.=.E.K.]
  | | |         17f8: 49 00 4b 00 46 00 4d 00 4a 00 49 00 4e 00 53 00 [I.K.F.M.J.I.N.S.]
  | | |         1808: 5a 00 56 00 32 00 3f 00 3d 00 3b 00 40 00 48 00 [Z.V.2.?.=.;.@.H.]
  | | |         1818: 45 00 4b 00 40 00 46 00 44 00 4d 00 47 00 5c 00 [E.K.@.F.D.M.G.\.]
  | | |         1828: 4e 00 5b 00 36 00 47 00 3f 00 3c 00 40 00 44 00 [N.[.6.G.?.<.@.D.]
  | | |         1838: 4a 00 4a 00 52 00 50 00 52 00 53 00 62 00 4d 00 [J.J.R.P.R.S.b.M.]
  | | |         1848: 51 00 57 00 59 00 32 00 32 00 2e 00 34 00 39 00 [Q.W.Y.2.2...4.9.]
  | | |         1858: 3f 00 42 00 43 00 44 00 3e 00 3f 00 3c 00 44 00 [?.B.C.D.>.?.<.D.]
  | | |         1868: 36 00 32 00 12 00 2b 00 2d 00 30 00 35 00 39 00 [6.2...+.-.0.5.9.]
  | | |         1878: 37 00 38 00 34 00 37 00 34 00 34 00 39 00 3d 00 [7.8.4.7.4.4.9.=.]
  | | |         1888: 44 00 40 00 21 00 30 00 2f 00 2d 00 2f 00 30 00 [D.@.!.0./.-./.0.]
  | | |         1898: 2d 00 31 00 28 00 2b 00 2c 00 32 00 30 00 3e 00 [-.1.(.+.,.2.0.>.]
  | | |         18a8: 30 00 43 00 23 00 31 00 2c 00 2b 00 2c 00 28 00 [0.C.#.1.,.+.,.(.]
  | | |         18b8: 2b 00 2b 00 2f 00 30 00 31 00 32 00 3d 00 31 00 [+.+./.0.1.2.=.1.]
  | | |         18c8: 33 00 3c 00 41 00 00 00 00 00 00 00 00 00 00 00 [3.<.A...........]
  | | |         18d8: 00 00 00 00 00 00 00 00 00 00 00 00 00 00 00 00 [................]
  | | |         18e8: 00 00 00 00 00 00 00 00 00 00 00 00 00 00 00 00 [................]
  | | |         18f8: 00 00 00 00 00 00 00 00 00 00 00 00 00 00 00 00 [................]
  | | |         1908: 00 00 00 00 00 00 00 00 00 00 00 00 00 00 00 00 [................]
  | | |         1918: 00 00 00 00 00 00 00 00 00 00 00 00 00 00 00 00 [................]
  | | |         1928: 00 00 00 00 00 00 00 00 00 00 00 00 00 00 00 00 [................]
  | | |         1938: 00 00 00 00 00 00 00 00 00 00 00 00 00 00 00 00 [................]
  | | |         1948: 00 00 00 00 00 00 26 00 32 00 3e 00 cc 02 e6 00 [......&.2.>.....]
  | | |         1958: e2 00 ea 00 98 00 b9 01 e2 00 3b 01 d8 00 47 00 [..........;...G.]
  | | |         1968: 46 00 bc 00 06 00 be 00 8e 01 ea 05 47 19 de 02 [F...........G...]
  | | |         1978: 1f 02 65 02 bf 01 6b 03 fb 01 7a 02 89 01 e5 00 [..e...k...z.....]
  | | |         1988: c6 00 3b 03 32 00 87 00 ac 01 19 07 ed 0a 57 00 [..;.2.........W.]
  | | |         1998: 50 00 47 00 45 00 99 00 2b 00 3c 00 2b 00 1d 00 [P.G.E...+.<.+...]
  | | |         19a8: 1b 00 d3 00 17 00 22 0b 93 16 1e 2a 8f 24 8b 01 [......"....*.$..]
  | | |         19b8: 34 01 45 01 c2 00 82 01 a3 00 da 00 8d 00 66 00 [4.E...........f.]
  | | |         19c8: 58 00 40 02 ac 00 00 00 00 00 00 00 00 80 00 00 [X.@.............]
  | | |         19d8: 00 04 00 04 00 04 b5 0a 03 0f 4b 1a 96 10 55 00 [..........K...U.]
  | | |         19e8: 30 00 b4 0f 70 0f ac ff d1 ff 4f 10 00 00 ff 00 [0...p.....O.....]
  | | |         19f8: 03 00 9f e7 09 00 bc d9 0a 00 c3 4d 07 00 a3 62 [...........M...b]
  | | |         1a08: 00 04 00 04 00 00 00 04 00 00 00 00 00 00 00 00 [................]
  | | |         1a18: 00 00 ff 1f 00 01 ff 1f 00 01 00 00 00 00 00 02 [................]
  | | |         1a28: b0 02 bf 01 e9 01 9f 02 94 01 39 03 00 00 00 00 [..........9.....]
  | | |         1a38: 00 00 00 00 00 00 0f 00 f0 00 00 01 00 01 00 01 [................]
  | | |         1a48: 00 01 00 01 00 01 00 00 0f 00 f0 00 00 01 00 01 [................]
  | | |         1a58: 00 01 00 01 00 01 00 01 00 00 00 00 50 00 00 00 [............P...]
  | | |         1a68: 00 00 10 00 20 00 40 00 60 00 80 00 c0 00 89 ff [.... .@.`.......]
  | | |         1a78: a2 ff 9f ff 9f ff 9f ff 9f ff 9f ff 88 04 84 04 [................]
  | | |         1a88: 85 04 85 04 85 04 85 04 85 04 88 04 00 00 fe 07 [................]
  | | |         1a98: fe 07 00 08 00 08 f6 38 f6 3a 10 27 00 10 00 00 [.......8.:.'....]
  | | |         1aa8: 00 00 00 00 00 00 00 00 00 00 00 00 00 00 00 00 [................]
  | | |         1ab8: 00 00 00 00 00 00 00 00 00 00 00 00 00 00 00 00 [................]
  | | |         1ac8: 00 00 00 00 00 00 00 00 00 00 00 00 00 00 00 00 [................]
  | | |         1ad8: 00 00 00 00 00 00 00 00 00 00 00 00 00 00 00 00 [................]
  | | |         1ae8: 00 00 00 00 00 00 00 00 00 00 00 00 00 00 00 00 [................]
  | | |         1af8: 00 00 00 00 00 00 00 00 00 00 00 00 00 00 00 00 [................]
  | | |         1b08: 00 00 00 00 00 00 00 00 00 00 00 00 00 00 00 00 [................]
  | | |         1b18: 00 00 00 00 00 00 00 00 00 00 00 00 00 00 00 00 [................]
  | | |         1b28: 00 00 00 00 00 00 00 00 00 00 00 00 00 00 00 00 [................]
  | | |         1b38: 00 00 00 00 00 00 00 00 00 00 00 00 00 00 00 00 [................]
  | | |         1b48: 00 00 00 00 00 00 00 00 00 00 00 00 00 00 00 00 [................]
  | | |         1b58: 00 00 00 00 00 00 00 00 00 00 00 00 00 00 00 00 [................]
  | | |         1b68: 00 00 00 00 00 00 00 00 00 00 00 00 00 00 00 00 [................]
  | | |         1b78: 00 00 00 00 00 00 00 00 00 00 00 00 00 00 00 00 [................]
  | | |         1b88: 00 00 00 00 00 00 00 00 00 00 00 00 00 00 00 00 [................]
  | | |         1b98: 00 00 00 00 00 00 00 00 00 00 00 00 00 00 00 00 [................]
  | | |         1ba8: 00 00 00 00 00 00 00 00 00 00 00 00 00 00 00 00 [................]
  | | |         1bb8: 00 00 00 00 00 00 00 00 00 00 00 00 00 00 00 00 [................]
  | | |         1bc8: 00 00 00 00 00 00 00 00 00 00 00 00 00 00 00 00 [................]
  | | |         1bd8: 00 00 00 00 00 00 00 00 00 00 00 00 00 00 00 00 [................]
  | | |         1be8: 00 00 00 00 00 00 00 00 00 00 00 00 00 00 00 00 [................]
  | | |         1bf8: 00 00 00 00 00 00 00 00 00 00 00 00 00 00 00 00 [................]
  | | |         1c08: 00 00 00 00 00 00 00 00 00 00 00 00 00 00 00 00 [................]
  | | |         1c18: 00 00 00 00 00 00 00 00 00 00 00 00 00 00 00 00 [................]
  | | |         1c28: 00 00 00 00 00 00 00 00 00 00 00 00 00 00 00 00 [................]
  | | |         1c38: 00 00 00 00 00 00 00 00 00 00 00 00 00 00 00 00 [................]
  | | |         1c48: 00 00 00 00 00 00 00 00 00 00 00 00 00 00 00 00 [................]
  | | |         1c58: 00 00 00 00 00 00 00 00 00 00 00 00 00 00 00 00 [................]
  | | |         1c68: 00 00 00 00 00 00 00 00 00 00 00 00 00 00 00 00 [................]
  | | |         1c78: 00 00 00 00 00 00 00 00 00 00 00 00 00 00 00 00 [................]
  | | |         1c88: 00 00 00 00 00 00 00 00 00 00 00 00 00 00 00 00 [................]
  | | |         1c98: 00 00 00 00 00 00 00 00 00 00 00 00 00 00 00 00 [................]
  | | |         1ca8: 00 00 00 00 00 00 00 00 00 00 00 00 00 00 00 00 [................]
  | | |         1cb8: 00 00 00 00 00 00 00 00 00 00 00 00 00 00 00 00 [................]
  | | |         1cc8: 00 00 00 00 00 00 00 00 00 00 00 00 00 00 00 00 [................]
  | | |         1cd8: 00 00 00 00 00 00 00 00 00 00 00 00 00 00 00 00 [................]
  | | |         [snip 660 bytes]
  | | | + [BinaryData directory, 2692 bytes, Little-endian]
  | | | | ColorDataVersion = 9
  | | | | - Tag 0x0000 (2 bytes, int16s[1]):
  | | | |     14f8: 09 00                                           [..]
  | | | | ColorCoefs (SubDirectory) -->
  | | | | - Tag 0x003f (210 bytes, undef[210]):
  | | | |     1576: 4f 09 00 04 00 04 ae 05 40 19 4f 09 00 04 00 04 [O.......@.O.....]
  | | | |     1586: ae 05 40 19 4d 09 ec 03 13 04 ad 05 40 19 f4 01 [..@.M.......@...]
  | | | |     1596: 92 04 92 04 39 03 64 19 6e 08 00 04 00 04 79 06 [....9.d.n.....y.]
  | | | |     15a6: 50 14 c7 09 00 04 00 04 7c 05 58 1b 15 09 00 04 [P.......|.X.....]
  | | | |     15b6: 00 04 f0 05 70 17 f4 05 00 04 00 04 d9 09 80 0c [....p...........]
  | | | |     15c6: 96 07 00 04 00 04 2f 09 df 0e 42 08 00 04 00 04 [....../...B.....]
  | | | |     15d6: af 06 81 13 5f 09 00 04 00 04 e5 05 57 18 6e 08 [...._.......W.n.]
  | | | |     15e6: 00 04 00 04 79 06 50 14 6e 08 00 04 00 04 79 06 [....y.P.n.....y.]
  | | | |     15f6: 50 14 6e 08 00 04 00 04 79 06 50 14 6e 08 00 04 [P.n.....y.P.n...]
  | | | |     1606: 00 04 79 06 50 14 6e 08 00 04 00 04 79 06 50 14 [..y.P.n.....y.P.]
  | | | |     1616: e9 03 00 04 00 04 27 04 cf 0f e9 03 00 04 00 04 [......'.........]
  | | | |     1626: 27 04 cf 0f e9 03 00 04 00 04 27 04 cf 0f e9 03 ['.........'.....]
  | | | |     1636: 00 04 00 04 27 04 cf 0f e9 03 00 04 00 04 27 04 [....'.........'.]
  | | | |     1646: cf 0f                                           [..]
  | | | | + [BinaryData directory, 210 bytes, Little-endian]
  | | | | | WB_RGGBLevelsAsShot = 2383 1024 1024 1454
  | | | | | - Tag 0x0000 (8 bytes, int16s[4]):
  | | | | |     1576: 4f 09 00 04 00 04 ae 05                         [O.......]
  | | | | | ColorTempAsShot = 6464
  | | | | | - Tag 0x0004 (2 bytes, int16s[1]):
  | | | | |     157e: 40 19                                           [@.]
  | | | | | WB_RGGBLevelsAuto = 2383 1024 1024 1454
  | | | | | - Tag 0x0005 (8 bytes, int16s[4]):
  | | | | |     1580: 4f 09 00 04 00 04 ae 05                         [O.......]
  | | | | | ColorTempAuto = 6464
  | | | | | - Tag 0x0009 (2 bytes, int16s[1]):
  | | | | |     1588: 40 19                                           [@.]
  | | | | | WB_RGGBLevelsMeasured = 2381 1004 1043 1453
  | | | | | - Tag 0x000a (8 bytes, int16s[4]):
  | | | | |     158a: 4d 09 ec 03 13 04 ad 05                         [M.......]
  | | | | | ColorTempMeasured = 6464
  | | | | | - Tag 0x000e (2 bytes, int16s[1]):
  | | | | |     1592: 40 19                                           [@.]
  | | | | | WB_RGGBLevelsUnknown = 500 1170 1170 825
  | | | | | - Tag 0x000f (8 bytes, int16s[4]):
  | | | | |     1594: f4 01 92 04 92 04 39 03                         [......9.]
  | | | | | ColorTempUnknown = 6500
  | | | | | - Tag 0x0013 (2 bytes, int16s[1]):
  | | | | |     159c: 64 19                                           [d.]
  | | | | | WB_RGGBLevelsDaylight = 2158 1024 1024 1657
  | | | | | - Tag 0x0014 (8 bytes, int16s[4]):
  | | | | |     159e: 6e 08 00 04 00 04 79 06                         [n.....y.]
  | | | | | ColorTempDaylight = 5200
  | | | | | - Tag 0x0018 (2 bytes, int16s[1]):
  | | | | |     15a6: 50 14                                           [P.]
  | | | | | WB_RGGBLevelsShade = 2503 1024 1024 1404
  | | | | | - Tag 0x0019 (8 bytes, int16s[4]):
  | | | | |     15a8: c7 09 00 04 00 04 7c 05                         [......|.]
  | | | | | ColorTempShade = 7000
  | | | | | - Tag 0x001d (2 bytes, int16s[1]):
  | | | | |     15b0: 58 1b                                           [X.]
  | | | | | WB_RGGBLevelsCloudy = 2325 1024 1024 1520
  | | | | | - Tag 0x001e (8 bytes, int16s[4]):
  | | | | |     15b2: 15 09 00 04 00 04 f0 05                         [........]
  | | | | | ColorTempCloudy = 6000
  | | | | | - Tag 0x0022 (2 bytes, int16s[1]):
  | | | | |     15ba: 70 17                                           [p.]
  | | | | | WB_RGGBLevelsTungsten = 1524 1024 1024 2521
  | | | | | - Tag 0x0023 (8 bytes, int16s[4]):
  | | | | |     15bc: f4 05 00 04 00 04 d9 09                         [........]
  | | | | | ColorTempTungsten = 3200
  | | | | | - Tag 0x0027 (2 bytes, int16s[1]):
  | | | | |     15c4: 80 0c                                           [..]
  | | | | | WB_RGGBLevelsFluorescent = 1942 1024 1024 2351
  | | | | | - Tag 0x0028 (8 bytes, int16s[4]):
  | | | | |     15c6: 96 07 00 04 00 04 2f 09                         [....../.]
  | | | | | ColorTempFluorescent = 3807
  | | | | | - Tag 0x002c (2 bytes, int16s[1]):
  | | | | |     15ce: df 0e                                           [..]
  | | | | | WB_RGGBLevelsKelvin = 2114 1024 1024 1711
  | | | | | - Tag 0x002d (8 bytes, int16s[4]):
  | | | | |     15d0: 42 08 00 04 00 04 af 06                         [B.......]
  | | | | | ColorTempKelvin = 4993
  | | | | | - Tag 0x0031 (2 bytes, int16s[1]):
  | | | | |     15d8: 81 13                                           [..]
  | | | | | WB_RGGBLevelsFlash = 2399 1024 1024 1509
  | | | | | - Tag 0x0032 (8 bytes, int16s[4]):
  | | | | |     15da: 5f 09 00 04 00 04 e5 05                         [_.......]
  | | | | | ColorTempFlash = 6231
  | | | | | - Tag 0x0036 (2 bytes, int16s[1]):
  | | | | |     15e2: 57 18                                           [W.]
  | | | | | WB_RGGBLevelsUnknown2 = 2158 1024 1024 1657
  | | | | | - Tag 0x0037 (8 bytes, int16s[4]):
  | | | | |     15e4: 6e 08 00 04 00 04 79 06                         [n.....y.]
  | | | | | ColorTempUnknown2 = 5200
  | | | | | - Tag 0x003b (2 bytes, int16s[1]):
  | | | | |     15ec: 50 14                                           [P.]
  | | | | | WB_RGGBLevelsUnknown3 = 2158 1024 1024 1657
  | | | | | - Tag 0x003c (8 bytes, int16s[4]):
  | | | | |     15ee: 6e 08 00 04 00 04 79 06                         [n.....y.]
  | | | | | ColorTempUnknown3 = 5200
  | | | | | - Tag 0x0040 (2 bytes, int16s[1]):
  | | | | |     15f6: 50 14                                           [P.]
  | | | | | WB_RGGBLevelsUnknown4 = 2158 1024 1024 1657
  | | | | | - Tag 0x0041 (8 bytes, int16s[4]):
  | | | | |     15f8: 6e 08 00 04 00 04 79 06                         [n.....y.]
  | | | | | ColorTempUnknown4 = 5200
  | | | | | - Tag 0x0045 (2 bytes, int16s[1]):
  | | | | |     1600: 50 14                                           [P.]
  | | | | | WB_RGGBLevelsUnknown5 = 2158 1024 1024 1657
  | | | | | - Tag 0x0046 (8 bytes, int16s[4]):
  | | | | |     1602: 6e 08 00 04 00 04 79 06                         [n.....y.]
  | | | | | ColorTempUnknown5 = 5200
  | | | | | - Tag 0x004a (2 bytes, int16s[1]):
  | | | | |     160a: 50 14                                           [P.]
  | | | | | WB_RGGBLevelsUnknown6 = 2158 1024 1024 1657
  | | | | | - Tag 0x004b (8 bytes, int16s[4]):
  | | | | |     160c: 6e 08 00 04 00 04 79 06                         [n.....y.]
  | | | | | ColorTempUnknown6 = 5200
  | | | | | - Tag 0x004f (2 bytes, int16s[1]):
  | | | | |     1614: 50 14                                           [P.]
  | | | | | WB_RGGBLevelsUnknown7 = 1001 1024 1024 1063
  | | | | | - Tag 0x0050 (8 bytes, int16s[4]):
  | | | | |     1616: e9 03 00 04 00 04 27 04                         [......'.]
  | | | | | ColorTempUnknown7 = 4047
  | | | | | - Tag 0x0054 (2 bytes, int16s[1]):
  | | | | |     161e: cf 0f                                           [..]
  | | | | | WB_RGGBLevelsUnknown8 = 1001 1024 1024 1063
  | | | | | - Tag 0x0055 (8 bytes, int16s[4]):
  | | | | |     1620: e9 03 00 04 00 04 27 04                         [......'.]
  | | | | | ColorTempUnknown8 = 4047
  | | | | | - Tag 0x0059 (2 bytes, int16s[1]):
  | | | | |     1628: cf 0f                                           [..]
  | | | | | WB_RGGBLevelsUnknown9 = 1001 1024 1024 1063
  | | | | | - Tag 0x005a (8 bytes, int16s[4]):
  | | | | |     162a: e9 03 00 04 00 04 27 04                         [......'.]
  | | | | | ColorTempUnknown9 = 4047
  | | | | | - Tag 0x005e (2 bytes, int16s[1]):
  | | | | |     1632: cf 0f                                           [..]
  | | | | | WB_RGGBLevelsUnknown10 = 1001 1024 1024 1063
  | | | | | - Tag 0x005f (8 bytes, int16s[4]):
  | | | | |     1634: e9 03 00 04 00 04 27 04                         [......'.]
  | | | | | ColorTempUnknown10 = 4047
  | | | | | - Tag 0x0063 (2 bytes, int16s[1]):
  | | | | |     163c: cf 0f                                           [..]
  | | | | | WB_RGGBLevelsUnknown11 = 1001 1024 1024 1063
  | | | | | - Tag 0x0064 (8 bytes, int16s[4]):
  | | | | |     163e: e9 03 00 04 00 04 27 04                         [......'.]
  | | | | | ColorTempUnknown11 = 4047
  | | | | | - Tag 0x0068 (2 bytes, int16s[1]):
  | | | | |     1646: cf 0f                                           [..]
  | | | | ColorCalib (SubDirectory) -->
  | | | | - Tag 0x00a8 (120 bytes, undef[120]):
  | | | |     1648: c0 fe 6f 01 6f 03 94 2a d8 fe 7a 01 51 03 10 27 [..o.o..*..z.Q..']
  | | | |     1658: 04 ff 8c 01 1b 03 6c 20 2f ff a3 01 eb 02 58 1b [......l /.....X.]
  | | | |     1668: 67 ff c3 01 b2 02 70 17 82 ff d3 01 96 02 e0 15 [g.....p.........]
  | | | |     1678: a1 ff e6 01 79 02 50 14 cf ff 00 02 49 02 5c 12 [....y.P.....I.\.]
  | | | |     1688: 0a 00 27 02 18 02 68 10 41 00 51 02 ed 01 d8 0e [..'...h.A.Q.....]
  | | | |     1698: 73 00 7a 02 c8 01 ac 0d b1 00 b0 02 a0 01 80 0c [s.z.............]
  | | | |     16a8: e2 00 db 02 7d 01 b8 0b 0d 01 0e 03 6a 01 f0 0a [....}.......j...]
  | | | |     16b8: 7a 01 97 03 38 01 60 09                         [z...8.`.]
  | | | | + [BinaryData directory, 120 bytes, Little-endian]
  | | | | | CameraColorCalibration01 = -320 367 879 10900
  | | | | | - Tag 0x0000 (8 bytes, int16s[4]):
  | | | | |     1648: c0 fe 6f 01 6f 03 94 2a                         [..o.o..*]
  | | | | | CameraColorCalibration02 = -296 378 849 10000
  | | | | | - Tag 0x0004 (8 bytes, int16s[4]):
  | | | | |     1650: d8 fe 7a 01 51 03 10 27                         [..z.Q..']
  | | | | | CameraColorCalibration03 = -252 396 795 8300
  | | | | | - Tag 0x0008 (8 bytes, int16s[4]):
  | | | | |     1658: 04 ff 8c 01 1b 03 6c 20                         [......l ]
  | | | | | CameraColorCalibration04 = -209 419 747 7000
  | | | | | - Tag 0x000c (8 bytes, int16s[4]):
  | | | | |     1660: 2f ff a3 01 eb 02 58 1b                         [/.....X.]
  | | | | | CameraColorCalibration05 = -153 451 690 6000
  | | | | | - Tag 0x0010 (8 bytes, int16s[4]):
  | | | | |     1668: 67 ff c3 01 b2 02 70 17                         [g.....p.]
  | | | | | CameraColorCalibration06 = -126 467 662 5600
  | | | | | - Tag 0x0014 (8 bytes, int16s[4]):
  | | | | |     1670: 82 ff d3 01 96 02 e0 15                         [........]
  | | | | | CameraColorCalibration07 = -95 486 633 5200
  | | | | | - Tag 0x0018 (8 bytes, int16s[4]):
  | | | | |     1678: a1 ff e6 01 79 02 50 14                         [....y.P.]
  | | | | | CameraColorCalibration08 = -49 512 585 4700
  | | | | | - Tag 0x001c (8 bytes, int16s[4]):
  | | | | |     1680: cf ff 00 02 49 02 5c 12                         [....I.\.]
  | | | | | CameraColorCalibration09 = 10 551 536 4200
  | | | | | - Tag 0x0020 (8 bytes, int16s[4]):
  | | | | |     1688: 0a 00 27 02 18 02 68 10                         [..'...h.]
  | | | | | CameraColorCalibration10 = 65 593 493 3800
  | | | | | - Tag 0x0024 (8 bytes, int16s[4]):
  | | | | |     1690: 41 00 51 02 ed 01 d8 0e                         [A.Q.....]
  | | | | | CameraColorCalibration11 = 115 634 456 3500
  | | | | | - Tag 0x0028 (8 bytes, int16s[4]):
  | | | | |     1698: 73 00 7a 02 c8 01 ac 0d                         [s.z.....]
  | | | | | CameraColorCalibration12 = 177 688 416 3200
  | | | | | - Tag 0x002c (8 bytes, int16s[4]):
  | | | | |     16a0: b1 00 b0 02 a0 01 80 0c                         [........]
  | | | | | CameraColorCalibration13 = 226 731 381 3000
  | | | | | - Tag 0x0030 (8 bytes, int16s[4]):
  | | | | |     16a8: e2 00 db 02 7d 01 b8 0b                         [....}...]
  | | | | | CameraColorCalibration14 = 269 782 362 2800
  | | | | | - Tag 0x0034 (8 bytes, int16s[4]):
  | | | | |     16b0: 0d 01 0e 03 6a 01 f0 0a                         [....j...]
  | | | | | CameraColorCalibration15 = 378 919 312 2400
  | | | | | - Tag 0x0038 (8 bytes, int16s[4]):
  | | | | |     16b8: 7a 01 97 03 38 01 60 09                         [z...8.`.]
  | | | | AverageBlackLevel = 2047 2047 2047 2047
  | | | | - Tag 0x00e7 (8 bytes, int16u[4]):
  | | | |     16c6: ff 07 ff 07 ff 07 ff 07                         [........]
  | | | | FlashOutput = 0
  | | | | - Tag 0x026b (2 bytes, int16s[1]):
  | | | |     19ce: 00 00                                           [..]
  | | | | FlashBatteryLevel = 0
  | | | | - Tag 0x026c (2 bytes, int16s[1]):
  | | | |     19d0: 00 00                                           [..]
  | | | | RawMeasuredRGGB = 3885957123 3652976649 1304625162 1654849543
  | | | | - Tag 0x0280 (16 bytes, int32u[4]):
  | | | |     19f8: 03 00 9f e7 09 00 bc d9 0a 00 c3 4d 07 00 a3 62 [...........M...b]
  | | | | PerChannelBlackLevel = 2046 2046 2048 2048
  | | | | - Tag 0x02cf (8 bytes, int16u[4]):
  | | | |     1a96: fe 07 fe 07 00 08 00 08                         [........]
  | | | | NormalWhiteLevel = 14582
  | | | | - Tag 0x02d3 (2 bytes, int16u[1]):
  | | | |     1a9e: f6 38                                           [.8]
  | | | | SpecularWhiteLevel = 15094
  | | | | - Tag 0x02d4 (2 bytes, int16u[1]):
  | | | |     1aa0: f6 3a                                           [.:]
  | | | | LinearityUpperMargin = 10000
  | | | | - Tag 0x02d5 (2 bytes, int16u[1]):
  | | | |     1aa2: 10 27                                           [.']
  | | | 28) PictureStyleUserDef = 129 129 129
  | | |     - Tag 0x4008 (6 bytes, int16u[3]):
  | | |         1f7c: 81 00 81 00 81 00                               [......]
  | | | 29) PictureStylePC = 0 0 0
  | | |     - Tag 0x4009 (6 bytes, int16u[3]):
  | | |         1f82: 00 00 00 00 00 00                               [......]
  | | | 30) CustomPictureStyleFileName = 
  | | |     - Tag 0x4010 (32 bytes, string[32]):
  | | |         1f88: 00 00 00 00 00 00 00 00 00 00 00 00 00 00 00 00 [................]
  | | |         1f98: 00 00 00 00 00 00 00 00 00 00 00 00 00 00 00 00 [................]
  | | | 31) Canon_0x4011 = 
  | | |     - Tag 0x4011 (252 bytes, undef[252]):
  | | |         1fa8: 00 00 00 00 00 00 00 00 00 00 00 00 00 00 00 00 [................]
  | | |         1fb8: 00 00 00 00 00 00 00 00 00 00 00 00 00 00 00 00 [................]
  | | |         1fc8: 00 00 00 00 00 00 00 00 00 00 00 00 00 00 00 00 [................]
  | | |         1fd8: 00 00 00 00 00 00 00 00 00 00 00 00 00 00 00 00 [................]
  | | |         1fe8: 00 00 00 00 00 00 00 00 00 00 00 00 00 00 00 00 [................]
  | | |         1ff8: 00 00 00 00 00 00 00 00 00 00 00 00 00 00 00 00 [................]
  | | |         2008: 00 00 00 00 00 00 00 00 00 00 00 00 00 00 00 00 [................]
  | | |         2018: 00 00 00 00 00 00 00 00 00 00 00 00 00 00 00 00 [................]
  | | |         2028: 00 00 00 00 00 00 00 00 00 00 00 00 00 00 00 00 [................]
  | | |         2038: 00 00 00 00 00 00 00 00 00 00 00 00 00 00 00 00 [................]
  | | |         2048: 00 00 00 00 00 00 00 00 00 00 00 00 00 00 00 00 [................]
  | | |         2058: 00 00 00 00 00 00 00 00 00 00 00 00 00 00 00 00 [................]
  | | |         2068: 00 00 00 00 00 00 00 00 00 00 00 00 00 00 00 00 [................]
  | | |         2078: 00 00 00 00 00 00 00 00 00 00 00 00 00 00 00 00 [................]
  | | |         2088: 00 00 00 00 00 00 00 00 00 00 00 00 00 00 00 00 [................]
  | | |         2098: 00 00 00 00 00 00 00 00 00 00 00 00             [............]
  | | | 32) Canon_0x4012 = 
  | | |     - Tag 0x4012 (32 bytes, string[32]):
  | | |         20a4: 00 00 00 00 00 00 00 00 00 00 00 00 00 00 00 00 [................]
  | | |         20b4: 00 00 00 00 00 00 00 00 00 00 00 00 00 00 00 00 [................]
  | | | 33) VignettingCorr (SubDirectory) -->
  | | |     - Tag 0x4015 (116 bytes, undef[116]):
  | | |         20c4: 00 10 74 00 01 00 00 00 00 00 00 00 3f 00 00 00 [..t.........?...]
  | | |         20d4: 00 00 00 00 cc 10 40 14 80 0d fe 1f ff 1e 7d 1d [......@.......}.]
  | | |         20e4: 18 1c 48 1b bb 18 00 00 b2 03 ea 05 65 07 22 08 [..H.........e.".]
  | | |         20f4: 1a 0a 00 40 06 40 f3 3f be 3f 81 3f 67 3f 00 40 [...@.@.?.?.?g?.@]
  | | |         2104: ae 40 59 41 38 42 ec 42 2c 43 00 00 b2 03 ea 05 [.@YA8B.B,C......]
  | | |         2114: 22 08 9d 09 1a 0a f3 3f ac 3f 72 3f 4d 3f 4d 3f ["......?.?r?M?M?]
  | | |         2124: 53 3f 00 00 b2 03 ea 05 22 08 9d 09 1a 0a 00 00 [S?......".......]
  | | |         2134: 00 00 00 00                                     [....]
  | | | + [BinaryData directory, 116 bytes, Little-endian]
  | | | | PeripheralLighting = 1
  | | | | - Tag 0x0002 (2 bytes, int16s[1]):
  | | | |     20c8: 01 00                                           [..]
  | | | | DistortionCorrection = 0
  | | | | - Tag 0x0003 (2 bytes, int16s[1]):
  | | | |     20ca: 00 00                                           [..]
  | | | | ChromaticAberrationCorr = 0
  | | | | - Tag 0x0004 (2 bytes, int16s[1]):
  | | | |     20cc: 00 00                                           [..]
  | | | | ChromaticAberrationCorr = 0
  | | | | - Tag 0x0005 (2 bytes, int16s[1]):
  | | | |     20ce: 00 00                                           [..]
  | | | | PeripheralLightingValue = 63
  | | | | - Tag 0x0006 (2 bytes, int16s[1]):
  | | | |     20d0: 3f 00                                           [?.]
  | | | | DistortionCorrectionValue = 0
  | | | | - Tag 0x0009 (2 bytes, int16s[1]):
  | | | |     20d6: 00 00                                           [..]
  | | | | OriginalImageWidth = 5184
  | | | | - Tag 0x000b (2 bytes, int16s[1]):
  | | | |     20da: 40 14                                           [@.]
  | | | | OriginalImageHeight = 3456
  | | | | - Tag 0x000c (2 bytes, int16s[1]):
  | | | |     20dc: 80 0d                                           [..]
  | | | 34) VignettingCorr2 (SubDirectory) -->
  | | |     - Tag 0x4016 (24 bytes, int32u[6] read as undef[24]):
  | | |         2138: 18 00 00 00 00 00 00 00 01 00 00 00 00 00 00 00 [................]
  | | |         2148: 00 00 00 00 01 00 00 00                         [........]
  | | | + [BinaryData directory, 24 bytes, Little-endian]
  | | | | PeripheralLightingSetting = 1
  | | | | - Tag 0x0005 (4 bytes, int32s[1]):
  | | | |     214c: 01 00 00 00                                     [....]
  | | | 35) Canon_0x4017 = 197383 1811939375
  | | |     - Tag 0x4017 (8 bytes, int32u[2]):
  | | |         2150: 07 03 03 00 2f 00 00 6c                         [..../..l]
  | | | 36) LightingOpt (SubDirectory) -->
  | | |     - Tag 0x4018 (12 bytes, int32u[3] read as undef[12]):
  | | |         2158: 0c 00 00 00 00 00 00 00 03 00 00 00             [............]
  | | | + [BinaryData directory, 12 bytes, Little-endian]
  | | | | PeripheralIlluminationCorr = 0
  | | | | - Tag 0x0001 (4 bytes, int32s[1]):
  | | | |     215c: 00 00 00 00                                     [....]
  | | | | AutoLightingOptimizer = 3
  | | | | - Tag 0x0002 (4 bytes, int32s[1]):
  | | | |     2160: 03 00 00 00                                     [....]
  | | | 37) LensInfo (SubDirectory) -->
  | | |     - Tag 0x4019 (30 bytes, undef[30]):
  | | |         2164: 00 00 11 84 84 00 00 00 00 00 00 00 00 00 00 00 [................]
  | | |         2174: 00 00 00 00 00 00 00 00 00 00 00 00 00 00       [..............]
  | | | + [BinaryData directory, 30 bytes, Little-endian]
  | | | | LensSerialNumber = ...
  | | | | - Tag 0x0000 (5 bytes, undef[5]):
  | | | |     2164: 00 00 11 84 84                                  [.....]
  | | | 38) AmbienceInfo (SubDirectory) -->
  | | |     - Tag 0x4020 (20 bytes, int32u[5] read as undef[20]):
  | | |         2182: 14 00 00 00 00 00 00 00 00 00 00 00 00 00 00 00 [................]
  | | |         2192: 00 00 00 00                                     [....]
  | | | + [BinaryData directory, 20 bytes, Little-endian]
  | | | | AmbienceSelection = 0
  | | | | - Tag 0x0001 (4 bytes, int32s[1]):
  | | | |     2186: 00 00 00 00                                     [....]
  | | 17) UserComment = 
  | |     - Tag 0x9286 (264 bytes, undef[264]):
  | |         219e: 00 00 00 00 00 00 00 00 00 00 00 00 00 00 00 00 [................]
  | |         21ae: 00 00 00 00 00 00 00 00 00 00 00 00 00 00 00 00 [................]
  | |         21be: 00 00 00 00 00 00 00 00 00 00 00 00 00 00 00 00 [................]
  | |         21ce: 00 00 00 00 00 00 00 00 00 00 00 00 00 00 00 00 [................]
  | |         21de: 00 00 00 00 00 00 00 00 00 00 00 00 00 00 00 00 [................]
  | |         21ee: 00 00 00 00 00 00 00 00 00 00 00 00 00 00 00 00 [................]
  | |         21fe: 00 00 00 00 00 00 00 00 00 00 00 00 00 00 00 00 [................]
  | |         220e: 00 00 00 00 00 00 00 00 00 00 00 00 00 00 00 00 [................]
  | |         221e: 00 00 00 00 00 00 00 00 00 00 00 00 00 00 00 00 [................]
  | |         222e: 00 00 00 00 00 00 00 00 00 00 00 00 00 00 00 00 [................]
  | |         223e: 00 00 00 00 00 00 00 00 00 00 00 00 00 00 00 00 [................]
  | |         224e: 00 00 00 00 00 00 00 00 00 00 00 00 00 00 00 00 [................]
  | |         225e: 00 00 00 00 00 00 00 00 00 00 00 00 00 00 00 00 [................]
  | |         226e: 00 00 00 00 00 00 00 00 00 00 00 00 00 00 00 00 [................]
  | |         227e: 00 00 00 00 00 00 00 00 00 00 00 00 00 00 00 00 [................]
  | |         228e: 00 00 00 00 00 00 00 00 00 00 00 00 00 00 00 00 [................]
  | |         229e: 00 00 00 00 00 00 00 00                         [........]
  | | 18) SubSecTime = 82
  | |     - Tag 0x9290 (3 bytes, string[3]):
  | |         024a: 38 32 00                                        [82.]
  | | 19) SubSecTimeOriginal = 82
  | |     - Tag 0x9291 (3 bytes, string[3]):
  | |         0256: 38 32 00                                        [82.]
  | | 20) SubSecTimeDigitized = 82
  | |     - Tag 0x9292 (3 bytes, string[3]):
  | |         0262: 38 32 00                                        [82.]
  | | 21) FlashpixVersion = 0100
  | |     - Tag 0xa000 (4 bytes, undef[4]):
  | |         026e: 30 31 30 30                                     [0100]
  | | 22) ColorSpace = 1
  | |     - Tag 0xa001 (2 bytes, int16u[1]):
  | |         027a: 01 00                                           [..]
  | | 23) ExifImageWidth = 5184
  | |     - Tag 0xa002 (2 bytes, int16u[1]):
  | |         0286: 40 14                                           [@.]
  | | 24) ExifImageHeight = 3456
  | |     - Tag 0xa003 (2 bytes, int16u[1]):
  | |         0292: 80 0d                                           [..]
  | | 25) InteropOffset (SubDirectory) -->
  | |     - Tag 0xa005 (4 bytes, int32u[1]):
  | |         029e: 9a 22 00 00                                     [."..]
  | | + [InteropIFD directory with 2 entries, Little-endian]
  | | | 0)  InteropIndex = R98
  | | |     - Tag 0x0001 (4 bytes, string[4]):
  | | |         22b0: 52 39 38 00                                     [R98.]
  | | | 1)  InteropVersion = 0100
  | | |     - Tag 0x0002 (4 bytes, undef[4]):
  | | |         22bc: 30 31 30 30                                     [0100]
  | | 26) FocalPlaneXResolution = 5728.176796 (5184000/905)
  | |     - Tag 0xa20e (8 bytes, rational64u[1]):
  | |         22c4: 00 1a 4f 00 89 03 00 00                         [..O.....]
  | | 27) FocalPlaneYResolution = 5808.403361 (3456000/595)
  | |     - Tag 0xa20f (8 bytes, rational64u[1]):
  | |         22cc: 00 bc 34 00 53 02 00 00                         [..4.S...]
  | | 28) FocalPlaneResolutionUnit = 2
  | |     - Tag 0xa210 (2 bytes, int16u[1]):
  | |         02c2: 02 00                                           [..]
  | | 29) CustomRendered = 0
  | |     - Tag 0xa401 (2 bytes, int16u[1]):
  | |         02ce: 00 00                                           [..]
  | | 30) ExposureMode = 0
  | |     - Tag 0xa402 (2 bytes, int16u[1]):
  | |         02da: 00 00                                           [..]
  | | 31) WhiteBalance = 0
  | |     - Tag 0xa403 (2 bytes, int16u[1]):
  | |         02e6: 00 00                                           [..]
  | | 32) SceneCaptureType = 0
  | |     - Tag 0xa406 (2 bytes, int16u[1]):
  | |         02f2: 00 00                                           [..]
  | | 33) OwnerName = Stefan Oltmann
  | |     - Tag 0xa430 (32 bytes, string[32]):
  | |         22d4: 53 74 65 66 61 6e 20 4f 6c 74 6d 61 6e 6e 00 00 [Stefan Oltmann..]
  | |         22e4: 00 00 00 00 00 00 00 00 00 00 00 00 00 00 00 00 [................]
  | | 34) SerialNumber = 1581036387
  | |     - Tag 0xa431 (10 bytes, string[10]):
  | |         22f4: 31 35 38 31 30 33 36 33 38 37                   [1581036387]
  | | 35) LensInfo = 15 85 undef undef (15/1 85/1 0/0 0/0)
  | |     - Tag 0xa432 (32 bytes, rational64u[4]):
  | |         22fe: 0f 00 00 00 01 00 00 00 55 00 00 00 01 00 00 00 [........U.......]
  | |         230e: 00 00 00 00 00 00 00 00 00 00 00 00 00 00 00 00 [................]
  | | 36) LensModel = EF-S15-85mm f/3.5-5.6 IS USM
  | |     - Tag 0xa434 (70 bytes, string[70]):
  | |         231e: 45 46 2d 53 31 35 2d 38 35 6d 6d 20 66 2f 33 2e [EF-S15-85mm f/3.]
  | |         232e: 35 2d 35 2e 36 20 49 53 20 55 53 4d 00 00 00 00 [5-5.6 IS USM....]
  | |         233e: 00 00 00 00 00 00 00 00 00 00 00 00 00 00 00 00 [................]
  | |         234e: 00 00 00 00 00 00 00 00 00 00 00 00 00 00 00 00 [................]
  | |         235e: 00 00 00 00 00 00                               [......]
  | | 37) LensSerialNumber = 0000118484
  | |     - Tag 0xa435 (12 bytes, string[12]):
  | |         2364: 30 30 30 30 31 31 38 34 38 34 00 00             [0000118484..]
  + [IFD1 directory with 6 entries, Little-endian]
  | 0)  Compression = 6
  |     - Tag 0x0103 (2 bytes, int16u[1]):
  |         237a: 06 00                                           [..]
  | 1)  XResolution = 72 (72/1)
  |     - Tag 0x011a (8 bytes, rational64u[1]):
  |         23be: 48 00 00 00 01 00 00 00                         [H.......]
  | 2)  YResolution = 72 (72/1)
  |     - Tag 0x011b (8 bytes, rational64u[1]):
  |         23c6: 48 00 00 00 01 00 00 00                         [H.......]
  | 3)  ResolutionUnit = 2
  |     - Tag 0x0128 (2 bytes, int16u[1]):
  |         239e: 02 00                                           [..]
  | 4)  ThumbnailOffset = 9156
  |     - Tag 0x0201 (4 bytes, int32u[1]):
  |         23aa: c4 23 00 00                                     [.#..]
  | 5)  ThumbnailLength = 11200
  |     - Tag 0x0202 (4 bytes, int32u[1]):
  |         23b6: c0 2b 00 00                                     [.+..]
JPEG APP1 (2558 bytes):
      4f94: 68 74 74 70 3a 2f 2f 6e 73 2e 61 64 6f 62 65 2e [http://ns.adobe.]
      4fa4: 63 6f 6d 2f 78 61 70 2f 31 2e 30 2f 00 3c 3f 78 [com/xap/1.0/.<?x]
      4fb4: 70 61 63 6b 65 74 20 62 65 67 69 6e 3d 27 ef bb [packet begin='..]
      4fc4: bf 27 20 69 64 3d 27 57 35 4d 30 4d 70 43 65 68 [.' id='W5M0MpCeh]
      4fd4: 69 48 7a 72 65 53 7a 4e 54 63 7a 6b 63 39 64 27 [iHzreSzNTczkc9d']
      4fe4: 3f 3e 3c 78 3a 78 6d 70 6d 65 74 61 20 78 6d 6c [?><x:xmpmeta xml]
      4ff4: 6e 73 3a 78 3d 22 61 64 6f 62 65 3a 6e 73 3a 6d [ns:x="adobe:ns:m]
      [snip 2446 bytes]
  + [XMP directory, 2529 bytes]
  | Rating = 0
  | - Tag 'x:xmpmeta/rdf:RDF/rdf:Description/xmp:Rating'
JPEG DQT (130 bytes):
      5996: 00 01 01 01 01 01 01 01 01 01 01 01 01 01 01 01 [................]
      59a6: 02 01 01 01 01 01 02 02 02 02 02 03 03 03 03 03 [................]
      59b6: 03 03 03 03 04 04 04 03 03 04 03 03 03 04 05 04 [................]
      59c6: 04 05 05 05 05 05 03 04 05 06 05 05 06 04 05 05 [................]
      59d6: 05 01 01 01 01 01 01 01 02 01 01 02 05 03 03 03 [................]
      59e6: 05 05 05 05 05 05 05 05 05 05 05 05 05 05 05 05 [................]
      59f6: 05 05 05 05 05 05 05 05 05 05 05 05 05 05 05 05 [................]
      [snip 18 bytes]
JPEG SOF0 (15 bytes):
      5a1c: 08 0d 80 14 40 03 01 21 00 02 11 01 03 11 01    [....@..!.......]
  ImageWidth = 5184
  ImageHeight = 3456
  EncodingProcess = 0
  BitsPerSample = 8
  ColorComponents = 3
  YCbCrSubSampling = 2 1
JPEG DHT (416 bytes):
      5a2f: 00 00 01 05 01 01 01 01 01 01 00 00 00 00 00 00 [................]
      5a3f: 00 00 01 02 03 04 05 06 07 08 09 0a 0b 01 00 03 [................]
      5a4f: 01 01 01 01 01 01 01 01 01 00 00 00 00 00 00 01 [................]
      5a5f: 02 03 04 05 06 07 08 09 0a 0b 10 00 02 01 03 03 [................]
      5a6f: 02 04 03 05 05 04 04 00 00 01 7d 01 02 03 00 04 [..........}.....]
      5a7f: 11 05 12 21 31 41 06 13 51 61 07 22 71 14 32 81 [...!1A..Qa."q.2.]
      5a8f: 91 a1 08 23 42 b1 c1 15 52 d1 f0 24 33 62 72 82 [...#B...R..$3br.]
      [snip 304 bytes]
JPEG SOS
JPEG EOI
