  ExifToolVersion = 13.59
  FileName = media_17.jpg
  Directory = C:/Users/micro/IdeaProjects/kim/src/commonTest/resources/de/stefan_oltmann/kim/testdata/full
  FileSize = 1207747
  FileModifyDate = 1776264337.62515
  FileAccessDate = 1786601295.85982
  FileCreateDate = 1776264337.62215
  FilePermissions = 33206
  FileType = JPEG
  FileTypeExtension = JPG
  MIMEType = image/jpeg
JPEG APP1 (288 bytes):
      0006: 45 78 69 66 00 00 49 49 2a 00 08 00 00 00 04 00 [Exif..II*.......]
      0016: 0f 01 02 00 12 00 00 00 3e 00 00 00 10 01 02 00 [........>.......]
      0026: 0b 00 00 00 50 00 00 00 31 01 02 00 0a 00 00 00 [....P...1.......]
      0036: 5c 00 00 00 69 87 04 00 01 00 00 00 66 00 00 00 [\...i.......f...]
      0046: 00 00 00 00 4e 49 4b 4f 4e 20 43 4f 52 50 4f 52 [....NIKON CORPOR]
      0056: 41 54 49 4f 4e 00 4e 49 4b 4f 4e 20 44 36 31 30 [ATION.NIKON D610]
      0066: 00 00 4c 69 67 68 74 72 6f 6f 6d 00 09 00 9a 82 [..Lightroom.....]
      [snip 176 bytes]
  ExifByteOrder = II
  + [IFD0 directory with 4 entries, Little-endian]
  | 0)  Make = NIKON CORPORATION
  |     - Tag 0x010f (18 bytes, string[18]):
  |         004a: 4e 49 4b 4f 4e 20 43 4f 52 50 4f 52 41 54 49 4f [NIKON CORPORATIO]
  |         005a: 4e 00                                           [N.]
  | 1)  Model = NIKON D610
  |     - Tag 0x0110 (11 bytes, string[11]):
  |         005c: 4e 49 4b 4f 4e 20 44 36 31 30 00                [NIKON D610.]
  | 2)  Software = Lightroom
  |     - Tag 0x0131 (10 bytes, string[10]):
  |         0068: 4c 69 67 68 74 72 6f 6f 6d 00                   [Lightroom.]
  | 3)  ExifOffset (SubDirectory) -->
  |     - Tag 0x8769 (4 bytes, int32u[1]):
  |         0042: 66 00 00 00                                     [f...]
  | + [ExifIFD directory with 9 entries, Little-endian]
  | | 0)  ExposureTime = 0.0008 (1/1250)
  | |     - Tag 0x829a (8 bytes, rational64u[1]):
  | |         00e4: 01 00 00 00 e2 04 00 00                         [........]
  | | 1)  FNumber = 1.4 (14/10)
  | |     - Tag 0x829d (8 bytes, rational64u[1]):
  | |         00ec: 0e 00 00 00 0a 00 00 00                         [........]
  | | 2)  ISO = 100
  | |     - Tag 0x8827 (2 bytes, int16u[1]):
  | |         0094: 64 00                                           [d.]
  | | 3)  ExifVersion = 0230
  | |     - Tag 0x9000 (4 bytes, undef[4]):
  | |         00a0: 30 32 33 30                                     [0230]
  | | 4)  DateTimeOriginal = 2019:01:08 14:48:21
  | |     - Tag 0x9003 (20 bytes, string[20]):
  | |         00f4: 32 30 31 39 3a 30 31 3a 30 38 20 31 34 3a 34 38 [2019:01:08 14:48]
  | |         0104: 3a 32 31 00                                     [:21.]
  | | 5)  ApertureValue = 0.970854 (970854/1000000)
  | |     - Tag 0x9202 (8 bytes, rational64u[1]):
  | |         0108: 66 d0 0e 00 40 42 0f 00                         [f...@B..]
  | | 6)  FocalLength = 85 (850/10)
  | |     - Tag 0x920a (8 bytes, rational64u[1]):
  | |         0110: 52 03 00 00 0a 00 00 00                         [R.......]
  | | 7)  ColorSpace = 65535
  | |     - Tag 0xa001 (2 bytes, int16u[1]):
  | |         00d0: ff ff                                           [..]
  | | 8)  LensModel = 85.0 mm f/1.4
  | |     - Tag 0xa434 (14 bytes, string[14]):
  | |         0118: 38 35 2e 30 20 6d 6d 20 66 2f 31 2e 34 00       [85.0 mm f/1.4.]
JPEG APP1 (2995 bytes):
      012a: 68 74 74 70 3a 2f 2f 6e 73 2e 61 64 6f 62 65 2e [http://ns.adobe.]
      013a: 63 6f 6d 2f 78 61 70 2f 31 2e 30 2f 00 3c 3f 78 [com/xap/1.0/.<?x]
      014a: 70 61 63 6b 65 74 20 62 65 67 69 6e 3d 27 ef bb [packet begin='..]
      015a: bf 27 20 69 64 3d 27 57 35 4d 30 4d 70 43 65 68 [.' id='W5M0MpCeh]
      016a: 69 48 7a 72 65 53 7a 4e 54 63 7a 6b 63 39 64 27 [iHzreSzNTczkc9d']
      017a: 3f 3e 0a 3c 78 3a 78 6d 70 6d 65 74 61 20 78 6d [?>.<x:xmpmeta xm]
      018a: 6c 6e 73 3a 78 3d 27 61 64 6f 62 65 3a 6e 73 3a [lns:x='adobe:ns:]
      [snip 2883 bytes]
  + [XMP directory, 2966 bytes]
  | XMPToolkit = Image::ExifTool 12.27
  | Lens = 85.0 mm f/1.4
  | - Tag 'x:xmpmeta/rdf:RDF/rdf:Description/aux:Lens'
  | CreatorTool = Lightroom
  | - Tag 'x:xmpmeta/rdf:RDF/rdf:Description/xmp:CreatorTool'
  | Rating = 5
  | - Tag 'x:xmpmeta/rdf:RDF/rdf:Description/xmp:Rating'
JPEG APP13 (114 bytes):
      0ce1: 50 68 6f 74 6f 73 68 6f 70 20 33 2e 30 00 38 42 [Photoshop 3.0.8B]
      0cf1: 49 4d 04 25 00 00 00 00 00 10 d4 1d 8c d9 8f 00 [IM.%............]
      0d01: b2 04 e9 80 09 98 ec f8 42 7e 38 42 49 4d 04 04 [........B~8BIM..]
      0d11: 00 00 00 00 00 3c 1c 02 19 00 06 61 6e 69 6d 61 [.....<.....anima]
      0d21: 6c 1c 02 19 00 03 63 61 74 1c 02 19 00 03 70 65 [l.....cat.....pe]
      0d31: 74 1c 02 19 00 06 6d 61 6d 6d 61 6c 1c 02 19 00 [t.....mammal....]
      0d41: 0a 61 62 79 73 73 69 6e 69 61 6e 1c 02 00 00 02 [.abyssinian.....]
      0d51: 00 04                                           [..]
  + [Photoshop directory, 100 bytes]
  | IPTCDigest = .............B~
  | - Tag 0x0425 (16 bytes):
  |     0cfb: d4 1d 8c d9 8f 00 b2 04 e9 80 09 98 ec f8 42 7e [..............B~]
  | IPTCData (SubDirectory) -->
  | - Tag 0x0404 (60 bytes):
  |     0d17: 1c 02 19 00 06 61 6e 69 6d 61 6c 1c 02 19 00 03 [.....animal.....]
  |     0d27: 63 61 74 1c 02 19 00 03 70 65 74 1c 02 19 00 06 [cat.....pet.....]
  |     0d37: 6d 61 6d 6d 61 6c 1c 02 19 00 0a 61 62 79 73 73 [mammal.....abyss]
  |     0d47: 69 6e 69 61 6e 1c 02 00 00 02 00 04             [inian.......]
  | + [IPTC directory, 60 bytes]
  | | CurrentIPTCDigest = .8:.............
  | | -- IPTCApplication record --
  | | Keywords = animal
  | | - Tag 0x0019, IPTCApplication record (6 bytes, string[0,64]):
  | |     0d1c: 61 6e 69 6d 61 6c                               [animal]
  | | Keywords = cat
  | | - Tag 0x0019, IPTCApplication record (3 bytes, string[0,64]):
  | |     0d27: 63 61 74                                        [cat]
  | | Keywords = pet
  | | - Tag 0x0019, IPTCApplication record (3 bytes, string[0,64]):
  | |     0d2f: 70 65 74                                        [pet]
  | | Keywords = mammal
  | | - Tag 0x0019, IPTCApplication record (6 bytes, string[0,64]):
  | |     0d37: 6d 61 6d 6d 61 6c                               [mammal]
  | | Keywords = abyssinian
  | | - Tag 0x0019, IPTCApplication record (10 bytes, string[0,64]):
  | |     0d42: 61 62 79 73 73 69 6e 69 61 6e                   [abyssinian]
  | | ApplicationRecordVersion = 4
  | | - Tag 0x0000, IPTCApplication record (2 bytes, int16u):
  | |     0d51: 00 04                                           [..]
  | Warning = IPTCDigest is not current. XMP may be out of sync
JPEG APP1 (42 bytes):
      0d57: 63 6f 6d 2e 61 64 6f 62 65 2e 63 61 72 6f 75 73 [com.adobe.carous]
      0d67: 65 6c 2e 72 65 66 65 72 65 6e 63 65 5f 73 69 7a [el.reference_siz]
      0d77: 65 00 00 00 17 80 00 00 0f b0                   [e.........]
  Warning = Ignored APP1 segment length 42 (unknown header)
  Warning = [minor] Unknown APP1 segment
JPEG APP14 (12 bytes):
      0d85: 41 64 6f 62 65 00 64 c0 00 00 00 01             [Adobe.d.....]
  + [BinaryData directory, 7 bytes, Big-endian]
  | DCTEncodeVersion = 100
  | - Tag 0x0000 (2 bytes, int16u[1]):
  |     0d8a: 00 64                                           [.d]
  | APP14Flags0 = 49152
  | - Tag 0x0001 (2 bytes, int16u[1]):
  |     0d8c: c0 00                                           [..]
  | APP14Flags1 = 0
  | - Tag 0x0002 (2 bytes, int16u[1]):
  |     0d8e: 00 00                                           [..]
  | ColorTransform = 1
  | - Tag 0x0003 (1 bytes, int8u[1]):
  |     0d90: 01                                              [.]
JPEG DQT (65 bytes):
      0d95: 00 04 03 03 03 03 03 02 03 03 02 03 02 02 05 03 [................]
      0da5: 0a 07 03 03 03 03 0c 09 0a 04 0a 0e 0c 0f 0e 0e [................]
      0db5: 0c 0d 0d 0f 11 16 12 0f 10 14 10 0e 0f 14 1a 14 [................]
      0dc5: 15 17 18 19 19 19 11 14 1b 1c 1b 18 1c 17 18 19 [................]
      0dd5: 18                                              [.]
JPEG DQT (65 bytes):
      0dda: 01 04 05 05 04 05 04 07 04 04 07 18 11 0f 11 18 [................]
      0dea: 18 18 18 18 18 18 18 18 18 18 18 18 18 18 18 18 [................]
      0dfa: 18 18 18 18 18 18 18 18 18 18 18 18 18 18 18 18 [................]
      0e0a: 18 18 18 18 18 18 18 18 18 18 18 18 18 18 18 18 [................]
      0e1a: 18                                              [.]
JPEG SOF0 (15 bytes):
      0e1f: 08 0f 4f 0c 40 03 00 11 00 01 11 01 02 11 01    [..O.@..........]
  ImageWidth = 3136
  ImageHeight = 3919
  EncodingProcess = 0
  BitsPerSample = 8
  ColorComponents = 3
  YCbCrSubSampling = 1 1
JPEG DHT (27 bytes):
      0e32: 00 00 03 00 03 01 01 01 01 00 00 00 00 00 00 00 [................]
      0e42: 00 00 01 02 03 04 05 06 07 08 09                [...........]
JPEG DHT (89 bytes):
      0e51: 10 00 01 02 04 03 05 05 04 06 07 06 04 04 03 01 [................]
      0e61: 11 01 00 02 03 04 11 21 05 12 31 06 13 22 32 41 [.......!..1.."2A]
      0e71: 07 42 51 52 61 14 23 62 71 15 33 72 81 82 91 08 [.BQRa.#bq.3r....]
      0e81: 24 43 92 a1 a2 b1 16 34 53 b2 c1 d1 25 63 c2 f0 [$C.....4S...%c..]
      0e91: 17 44 e1 f1 26 35 54 73 d2 83 e2 18 36 45 93 f2 [.D..&5Ts....6E..]
      0ea1: 09 27 64 a3 46 55 b3 74 38                      [.'d.FU.t8]
JPEG DHT (25 bytes):
      0eae: 01 01 01 01 01 01 01 01 01 00 00 00 00 00 00 00 [................]
      0ebe: 00 00 01 02 03 04 05 06 07                      [.........]
JPEG DHT (51 bytes):
      0ecb: 11 01 01 00 02 02 03 00 02 02 02 02 01 04 01 00 [................]
      0edb: 0b 00 01 02 11 03 21 12 31 41 22 51 04 32 13 61 [......!.1A"Q.2.a]
      0eeb: 42 71 23 05 33 52 81 14 43 62 f0 91 06 15 24 72 [Bq#.3R..Cb....$r]
      0efb: 53 a1 e1                                        [S..]
JPEG SOS
JPEG EOI
